; Listing generated by Microsoft (R) Optimizing Compiler Version 19.44.35217.0 

	TITLE	C:\Users\Hamzzi\Desktop\AI_Practice\Source\VS2010\Buckland_Chapter7 to 10_Raven\Debug\EntityManager.obj
	.686P
	.XMM
	include listing.inc
	.model	flat

INCLUDELIB LIBCMTD
INCLUDELIB OLDNAMES

PUBLIC	__Avx2WmemEnabledWeakValue
;	COMDAT __Avx2WmemEnabledWeakValue
_BSS	SEGMENT
__Avx2WmemEnabledWeakValue DD 01H DUP (?)
_BSS	ENDS
CONST	SEGMENT
$SG204961 DB	'invalid argument', 00H
	ORG $+3
$SG204962 DB	'%s', 00H
	ORG $+1
$SG204963 DB	'C:\Program Files\Microsoft Visual Studio\2022\Community\'
	DB	'VC\Tools\MSVC\14.44.35207\include\xmemory', 00H
	ORG $+2
$SG198272 DB	'<EntityManager::GetEntityFromID>: invalid ID', 00H
	ORG $+7
$SG198273 DB	'C', 00H, ':', 00H, '\', 00H, 'U', 00H, 's', 00H, 'e', 00H
	DB	'r', 00H, 's', 00H, '\', 00H, 'H', 00H, 'a', 00H, 'm', 00H, 'z'
	DB	00H, 'z', 00H, 'i', 00H, '\', 00H, 'D', 00H, 'e', 00H, 's', 00H
	DB	'k', 00H, 't', 00H, 'o', 00H, 'p', 00H, '\', 00H, 'A', 00H, 'I'
	DB	00H, '_', 00H, 'P', 00H, 'r', 00H, 'a', 00H, 'c', 00H, 't', 00H
	DB	'i', 00H, 'c', 00H, 'e', 00H, '\', 00H, 'S', 00H, 'o', 00H, 'u'
	DB	00H, 'r', 00H, 'c', 00H, 'e', 00H, '\', 00H, 'V', 00H, 'S', 00H
	DB	'2', 00H, '0', 00H, '1', 00H, '0', 00H, '\', 00H, 'C', 00H, 'o'
	DB	00H, 'm', 00H, 'm', 00H, 'o', 00H, 'n', 00H, '\', 00H, 'G', 00H
	DB	'a', 00H, 'm', 00H, 'e', 00H, '\', 00H, 'E', 00H, 'n', 00H, 't'
	DB	00H, 'i', 00H, 't', 00H, 'y', 00H, 'M', 00H, 'a', 00H, 'n', 00H
	DB	'a', 00H, 'g', 00H, 'e', 00H, 'r', 00H, '.', 00H, 'c', 00H, 'p'
	DB	00H, 'p', 00H, 00H, 00H
$SG198274 DB	'(', 00H, 'e', 00H, 'n', 00H, 't', 00H, ' ', 00H, '!', 00H
	DB	'=', 00H, ' ', 00H, 'm', 00H, '_', 00H, 'E', 00H, 'n', 00H, 't'
	DB	00H, 'i', 00H, 't', 00H, 'y', 00H, 'M', 00H, 'a', 00H, 'p', 00H
	DB	'.', 00H, 'e', 00H, 'n', 00H, 'd', 00H, '(', 00H, ')', 00H, ')'
	DB	00H, ' ', 00H, '&', 00H, '&', 00H, ' ', 00H, '"', 00H, '<', 00H
	DB	'E', 00H, 'n', 00H, 't', 00H, 'i', 00H, 't', 00H, 'y', 00H, 'M'
	DB	00H, 'a', 00H, 'n', 00H, 'a', 00H, 'g', 00H, 'e', 00H, 'r', 00H
	DB	':', 00H, ':', 00H, 'G', 00H, 'e', 00H, 't', 00H, 'E', 00H, 'n'
	DB	00H, 't', 00H, 'i', 00H, 't', 00H, 'y', 00H, 'F', 00H, 'r', 00H
	DB	'o', 00H, 'm', 00H, 'I', 00H, 'D', 00H, '>', 00H, ':', 00H, ' '
	DB	00H, 'i', 00H, 'n', 00H, 'v', 00H, 'a', 00H, 'l', 00H, 'i', 00H
	DB	'd', 00H, ' ', 00H, 'I', 00H, 'D', 00H, '"', 00H, 00H, 00H
	ORG $+2
?_Valid_strftime_specifiers@std@@3QBDB DB 061H		; std::_Valid_strftime_specifiers
	DB	041H
	DB	062H
	DB	042H
	DB	063H
	DB	043H
	DB	064H
	DB	044H
	DB	065H
	DB	046H
	DB	067H
	DB	047H
	DB	068H
	DB	048H
	DB	049H
	DB	06aH
	DB	06dH
	DB	04dH
	DB	06eH
	DB	070H
	DB	072H
	DB	052H
	DB	053H
	DB	074H
	DB	054H
	DB	075H
	DB	055H
	DB	056H
	DB	077H
	DB	057H
	DB	078H
	DB	058H
	DB	079H
	DB	059H
	DB	07aH
	DB	05aH
CONST	ENDS
PUBLIC	?__empty_global_delete@@YAXPAX@Z		; __empty_global_delete
PUBLIC	?__empty_global_delete@@YAXPAXI@Z		; __empty_global_delete
PUBLIC	??2@YAPAXIPAX@Z					; operator new
PUBLIC	??0exception@std@@QAE@QBDH@Z			; std::exception::exception
PUBLIC	??0exception@std@@QAE@ABV01@@Z			; std::exception::exception
PUBLIC	??1exception@std@@UAE@XZ			; std::exception::~exception
PUBLIC	?what@exception@std@@UBEPBDXZ			; std::exception::what
PUBLIC	??_Gexception@std@@UAEPAXI@Z			; std::exception::`scalar deleting destructor'
PUBLIC	??0bad_alloc@std@@AAE@QBD@Z			; std::bad_alloc::bad_alloc
PUBLIC	??1bad_alloc@std@@UAE@XZ			; std::bad_alloc::~bad_alloc
PUBLIC	??0bad_alloc@std@@QAE@ABV01@@Z			; std::bad_alloc::bad_alloc
PUBLIC	??_Gbad_alloc@std@@UAEPAXI@Z			; std::bad_alloc::`scalar deleting destructor'
PUBLIC	??0bad_array_new_length@std@@QAE@XZ		; std::bad_array_new_length::bad_array_new_length
PUBLIC	??1bad_array_new_length@std@@UAE@XZ		; std::bad_array_new_length::~bad_array_new_length
PUBLIC	??0bad_array_new_length@std@@QAE@ABV01@@Z	; std::bad_array_new_length::bad_array_new_length
PUBLIC	??_Gbad_array_new_length@std@@UAEPAXI@Z		; std::bad_array_new_length::`scalar deleting destructor'
PUBLIC	?_Throw_bad_array_new_length@std@@YAXXZ		; std::_Throw_bad_array_new_length
PUBLIC	?_Allocate@_Default_allocate_traits@std@@SAPAXI@Z ; std::_Default_allocate_traits::_Allocate
PUBLIC	?_Adjust_manually_vector_aligned@std@@YAXAAPAXAAI@Z ; std::_Adjust_manually_vector_aligned
PUBLIC	?_Adopt@_Iterator_base0@std@@QAEXPBX@Z		; std::_Iterator_base0::_Adopt
PUBLIC	??0_Container_proxy@std@@QAE@PAU_Container_base12@1@@Z ; std::_Container_proxy::_Container_proxy
PUBLIC	??0_Container_base12@std@@QAE@XZ		; std::_Container_base12::_Container_base12
PUBLIC	?_Orphan_all@_Container_base12@std@@QAEXXZ	; std::_Container_base12::_Orphan_all
PUBLIC	?_Orphan_all_unlocked_v3@_Container_base12@std@@AAEXXZ ; std::_Container_base12::_Orphan_all_unlocked_v3
PUBLIC	?_Orphan_all_locked_v3@_Container_base12@std@@AAEXXZ ; std::_Container_base12::_Orphan_all_locked_v3
PUBLIC	??0_Iterator_base12@std@@QAE@XZ			; std::_Iterator_base12::_Iterator_base12
PUBLIC	??0_Iterator_base12@std@@QAE@ABU01@@Z		; std::_Iterator_base12::_Iterator_base12
PUBLIC	??4_Iterator_base12@std@@QAEAAU01@ABU01@@Z	; std::_Iterator_base12::operator=
PUBLIC	??1_Iterator_base12@std@@QAE@XZ			; std::_Iterator_base12::~_Iterator_base12
PUBLIC	?_Adopt@_Iterator_base12@std@@QAEXPBU_Container_base12@2@@Z ; std::_Iterator_base12::_Adopt
PUBLIC	?_Getcont@_Iterator_base12@std@@QBEPBU_Container_base12@2@XZ ; std::_Iterator_base12::_Getcont
PUBLIC	?_Assign_unlocked@_Iterator_base12@std@@AAEXABU12@@Z ; std::_Iterator_base12::_Assign_unlocked
PUBLIC	?_Assign_locked@_Iterator_base12@std@@AAEXABU12@@Z ; std::_Iterator_base12::_Assign_locked
PUBLIC	?_Adopt_unlocked@_Iterator_base12@std@@AAEXPBU_Container_base12@2@@Z ; std::_Iterator_base12::_Adopt_unlocked
PUBLIC	?_Adopt_locked@_Iterator_base12@std@@AAEXPBU_Container_base12@2@@Z ; std::_Iterator_base12::_Adopt_locked
PUBLIC	?_Orphan_me_unlocked_v3@_Iterator_base12@std@@AAEXXZ ; std::_Iterator_base12::_Orphan_me_unlocked_v3
PUBLIC	?_Orphan_me_locked_v3@_Iterator_base12@std@@AAEXXZ ; std::_Iterator_base12::_Orphan_me_locked_v3
PUBLIC	??$exchange@PAU_Iterator_base12@std@@$$T@std@@YAPAU_Iterator_base12@0@AAPAU10@$$QA$$T@Z ; std::exchange<std::_Iterator_base12 *,std::nullptr_t>
PUBLIC	?_Release@_Basic_container_proxy_ptr12@std@@QAEXXZ ; std::_Basic_container_proxy_ptr12::_Release
PUBLIC	??0_Basic_container_proxy_ptr12@std@@IAE@XZ	; std::_Basic_container_proxy_ptr12::_Basic_container_proxy_ptr12
PUBLIC	?_Throw_tree_length_error@std@@YAXXZ		; std::_Throw_tree_length_error
PUBLIC	??0?$allocator@U?$_Tree_node@U?$pair@$$CBHPAVBaseGameEntity@@@std@@PAX@std@@@std@@QAE@XZ ; std::allocator<std::_Tree_node<std::pair<int const ,BaseGameEntity *>,void *> >::allocator<std::_Tree_node<std::pair<int const ,BaseGameEntity *>,void *> >
PUBLIC	?deallocate@?$allocator@U?$_Tree_node@U?$pair@$$CBHPAVBaseGameEntity@@@std@@PAX@std@@@std@@QAEXQAU?$_Tree_node@U?$pair@$$CBHPAVBaseGameEntity@@@std@@PAX@2@I@Z ; std::allocator<std::_Tree_node<std::pair<int const ,BaseGameEntity *>,void *> >::deallocate
PUBLIC	?allocate@?$allocator@U?$_Tree_node@U?$pair@$$CBHPAVBaseGameEntity@@@std@@PAX@std@@@std@@QAEPAU?$_Tree_node@U?$pair@$$CBHPAVBaseGameEntity@@@std@@PAX@2@I@Z ; std::allocator<std::_Tree_node<std::pair<int const ,BaseGameEntity *>,void *> >::allocate
PUBLIC	?deallocate@?$_Default_allocator_traits@V?$allocator@U?$_Tree_node@U?$pair@$$CBHPAVBaseGameEntity@@@std@@PAX@std@@@std@@@std@@SAXAAV?$allocator@U?$_Tree_node@U?$pair@$$CBHPAVBaseGameEntity@@@std@@PAX@std@@@2@QAU?$_Tree_node@U?$pair@$$CBHPAVBaseGameEntity@@@std@@PAX@2@I@Z ; std::_Default_allocator_traits<std::allocator<std::_Tree_node<std::pair<int const ,BaseGameEntity *>,void *> > >::deallocate
PUBLIC	?max_size@?$_Default_allocator_traits@V?$allocator@U?$_Tree_node@U?$pair@$$CBHPAVBaseGameEntity@@@std@@PAX@std@@@std@@@std@@SAIABV?$allocator@U?$_Tree_node@U?$pair@$$CBHPAVBaseGameEntity@@@std@@PAX@std@@@2@@Z ; std::_Default_allocator_traits<std::allocator<std::_Tree_node<std::pair<int const ,BaseGameEntity *>,void *> > >::max_size
PUBLIC	??0?$_Tree@V?$_Tmap_traits@HPAVBaseGameEntity@@U?$less@H@std@@V?$allocator@U?$pair@$$CBHPAVBaseGameEntity@@@std@@@3@$0A@@std@@@std@@QAE@ABU?$less@H@1@@Z ; std::_Tree<std::_Tmap_traits<int,BaseGameEntity *,std::less<int>,std::allocator<std::pair<int const ,BaseGameEntity *> >,0> >::_Tree<std::_Tmap_traits<int,BaseGameEntity *,std::less<int>,std::allocator<std::pair<int const ,BaseGameEntity *> >,0> >
PUBLIC	??1?$_Tree@V?$_Tmap_traits@HPAVBaseGameEntity@@U?$less@H@std@@V?$allocator@U?$pair@$$CBHPAVBaseGameEntity@@@std@@@3@$0A@@std@@@std@@QAE@XZ ; std::_Tree<std::_Tmap_traits<int,BaseGameEntity *,std::less<int>,std::allocator<std::pair<int const ,BaseGameEntity *> >,0> >::~_Tree<std::_Tmap_traits<int,BaseGameEntity *,std::less<int>,std::allocator<std::pair<int const ,BaseGameEntity *> >,0> >
PUBLIC	?end@?$_Tree@V?$_Tmap_traits@HPAVBaseGameEntity@@U?$less@H@std@@V?$allocator@U?$pair@$$CBHPAVBaseGameEntity@@@std@@@3@$0A@@std@@@std@@QBE?AV?$_Tree_const_iterator@V?$_Tree_val@U?$_Tree_simple_types@U?$pair@$$CBHPAVBaseGameEntity@@@std@@@std@@@std@@@2@XZ ; std::_Tree<std::_Tmap_traits<int,BaseGameEntity *,std::less<int>,std::allocator<std::pair<int const ,BaseGameEntity *> >,0> >::end
PUBLIC	?max_size@?$_Tree@V?$_Tmap_traits@HPAVBaseGameEntity@@U?$less@H@std@@V?$allocator@U?$pair@$$CBHPAVBaseGameEntity@@@std@@@3@$0A@@std@@@std@@QBEIXZ ; std::_Tree<std::_Tmap_traits<int,BaseGameEntity *,std::less<int>,std::allocator<std::pair<int const ,BaseGameEntity *> >,0> >::max_size
PUBLIC	?_Erase_unchecked@?$_Tree@V?$_Tmap_traits@HPAVBaseGameEntity@@U?$less@H@std@@V?$allocator@U?$pair@$$CBHPAVBaseGameEntity@@@std@@@3@$0A@@std@@@std@@AAEPAU?$_Tree_node@U?$pair@$$CBHPAVBaseGameEntity@@@std@@PAX@2@V?$_Tree_unchecked_const_iterator@V?$_Tree_val@U?$_Tree_simple_types@U?$pair@$$CBHPAVBaseGameEntity@@@std@@@std@@@std@@U_Iterator_base0@2@@2@@Z ; std::_Tree<std::_Tmap_traits<int,BaseGameEntity *,std::less<int>,std::allocator<std::pair<int const ,BaseGameEntity *> >,0> >::_Erase_unchecked
PUBLIC	?find@?$_Tree@V?$_Tmap_traits@HPAVBaseGameEntity@@U?$less@H@std@@V?$allocator@U?$pair@$$CBHPAVBaseGameEntity@@@std@@@3@$0A@@std@@@std@@QAE?AV?$_Tree_iterator@V?$_Tree_val@U?$_Tree_simple_types@U?$pair@$$CBHPAVBaseGameEntity@@@std@@@std@@@std@@@2@ABH@Z ; std::_Tree<std::_Tmap_traits<int,BaseGameEntity *,std::less<int>,std::allocator<std::pair<int const ,BaseGameEntity *> >,0> >::find
PUBLIC	?find@?$_Tree@V?$_Tmap_traits@HPAVBaseGameEntity@@U?$less@H@std@@V?$allocator@U?$pair@$$CBHPAVBaseGameEntity@@@std@@@3@$0A@@std@@@std@@QBE?AV?$_Tree_const_iterator@V?$_Tree_val@U?$_Tree_simple_types@U?$pair@$$CBHPAVBaseGameEntity@@@std@@@std@@@std@@@2@ABH@Z ; std::_Tree<std::_Tmap_traits<int,BaseGameEntity *,std::less<int>,std::allocator<std::pair<int const ,BaseGameEntity *> >,0> >::find
PUBLIC	?_Check_grow_by_1@?$_Tree@V?$_Tmap_traits@HPAVBaseGameEntity@@U?$less@H@std@@V?$allocator@U?$pair@$$CBHPAVBaseGameEntity@@@std@@@3@$0A@@std@@@std@@IAEXXZ ; std::_Tree<std::_Tmap_traits<int,BaseGameEntity *,std::less<int>,std::allocator<std::pair<int const ,BaseGameEntity *> >,0> >::_Check_grow_by_1
PUBLIC	?_Alloc_sentinel_and_proxy@?$_Tree@V?$_Tmap_traits@HPAVBaseGameEntity@@U?$less@H@std@@V?$allocator@U?$pair@$$CBHPAVBaseGameEntity@@@std@@@3@$0A@@std@@@std@@IAEXXZ ; std::_Tree<std::_Tmap_traits<int,BaseGameEntity *,std::less<int>,std::allocator<std::pair<int const ,BaseGameEntity *> >,0> >::_Alloc_sentinel_and_proxy
PUBLIC	?_Getcomp@?$_Tree@V?$_Tmap_traits@HPAVBaseGameEntity@@U?$less@H@std@@V?$allocator@U?$pair@$$CBHPAVBaseGameEntity@@@std@@@3@$0A@@std@@@std@@IBEABU?$less@H@2@XZ ; std::_Tree<std::_Tmap_traits<int,BaseGameEntity *,std::less<int>,std::allocator<std::pair<int const ,BaseGameEntity *> >,0> >::_Getcomp
PUBLIC	?_Getal@?$_Tree@V?$_Tmap_traits@HPAVBaseGameEntity@@U?$less@H@std@@V?$allocator@U?$pair@$$CBHPAVBaseGameEntity@@@std@@@3@$0A@@std@@@std@@IAEAAV?$allocator@U?$_Tree_node@U?$pair@$$CBHPAVBaseGameEntity@@@std@@PAX@std@@@2@XZ ; std::_Tree<std::_Tmap_traits<int,BaseGameEntity *,std::less<int>,std::allocator<std::pair<int const ,BaseGameEntity *> >,0> >::_Getal
PUBLIC	?_Getal@?$_Tree@V?$_Tmap_traits@HPAVBaseGameEntity@@U?$less@H@std@@V?$allocator@U?$pair@$$CBHPAVBaseGameEntity@@@std@@@3@$0A@@std@@@std@@IBEABV?$allocator@U?$_Tree_node@U?$pair@$$CBHPAVBaseGameEntity@@@std@@PAX@std@@@2@XZ ; std::_Tree<std::_Tmap_traits<int,BaseGameEntity *,std::less<int>,std::allocator<std::pair<int const ,BaseGameEntity *> >,0> >::_Getal
PUBLIC	?_Get_scary@?$_Tree@V?$_Tmap_traits@HPAVBaseGameEntity@@U?$less@H@std@@V?$allocator@U?$pair@$$CBHPAVBaseGameEntity@@@std@@@3@$0A@@std@@@std@@IAEPAV?$_Tree_val@U?$_Tree_simple_types@U?$pair@$$CBHPAVBaseGameEntity@@@std@@@std@@@2@XZ ; std::_Tree<std::_Tmap_traits<int,BaseGameEntity *,std::less<int>,std::allocator<std::pair<int const ,BaseGameEntity *> >,0> >::_Get_scary
PUBLIC	?_Get_scary@?$_Tree@V?$_Tmap_traits@HPAVBaseGameEntity@@U?$less@H@std@@V?$allocator@U?$pair@$$CBHPAVBaseGameEntity@@@std@@@3@$0A@@std@@@std@@IBEPBV?$_Tree_val@U?$_Tree_simple_types@U?$pair@$$CBHPAVBaseGameEntity@@@std@@@std@@@2@XZ ; std::_Tree<std::_Tmap_traits<int,BaseGameEntity *,std::less<int>,std::allocator<std::pair<int const ,BaseGameEntity *> >,0> >::_Get_scary
PUBLIC	??R?$less@H@std@@QBE_NABH0@Z			; std::less<int>::operator()
PUBLIC	??0?$_Tree_val@U?$_Tree_simple_types@U?$pair@$$CBHPAVBaseGameEntity@@@std@@@std@@@std@@QAE@XZ ; std::_Tree_val<std::_Tree_simple_types<std::pair<int const ,BaseGameEntity *> > >::_Tree_val<std::_Tree_simple_types<std::pair<int const ,BaseGameEntity *> > >
PUBLIC	?_Max@?$_Tree_val@U?$_Tree_simple_types@U?$pair@$$CBHPAVBaseGameEntity@@@std@@@std@@@std@@SAPAU?$_Tree_node@U?$pair@$$CBHPAVBaseGameEntity@@@std@@PAX@2@PAU32@@Z ; std::_Tree_val<std::_Tree_simple_types<std::pair<int const ,BaseGameEntity *> > >::_Max
PUBLIC	?_Min@?$_Tree_val@U?$_Tree_simple_types@U?$pair@$$CBHPAVBaseGameEntity@@@std@@@std@@@std@@SAPAU?$_Tree_node@U?$pair@$$CBHPAVBaseGameEntity@@@std@@PAX@2@PAU32@@Z ; std::_Tree_val<std::_Tree_simple_types<std::pair<int const ,BaseGameEntity *> > >::_Min
PUBLIC	?_Lrotate@?$_Tree_val@U?$_Tree_simple_types@U?$pair@$$CBHPAVBaseGameEntity@@@std@@@std@@@std@@QAEXPAU?$_Tree_node@U?$pair@$$CBHPAVBaseGameEntity@@@std@@PAX@2@@Z ; std::_Tree_val<std::_Tree_simple_types<std::pair<int const ,BaseGameEntity *> > >::_Lrotate
PUBLIC	?_Rrotate@?$_Tree_val@U?$_Tree_simple_types@U?$pair@$$CBHPAVBaseGameEntity@@@std@@@std@@@std@@QAEXPAU?$_Tree_node@U?$pair@$$CBHPAVBaseGameEntity@@@std@@PAX@2@@Z ; std::_Tree_val<std::_Tree_simple_types<std::pair<int const ,BaseGameEntity *> > >::_Rrotate
PUBLIC	?_Extract@?$_Tree_val@U?$_Tree_simple_types@U?$pair@$$CBHPAVBaseGameEntity@@@std@@@std@@@std@@QAEPAU?$_Tree_node@U?$pair@$$CBHPAVBaseGameEntity@@@std@@PAX@2@V?$_Tree_unchecked_const_iterator@V?$_Tree_val@U?$_Tree_simple_types@U?$pair@$$CBHPAVBaseGameEntity@@@std@@@std@@@std@@U_Iterator_base0@2@@2@@Z ; std::_Tree_val<std::_Tree_simple_types<std::pair<int const ,BaseGameEntity *> > >::_Extract
PUBLIC	?_Insert_node@?$_Tree_val@U?$_Tree_simple_types@U?$pair@$$CBHPAVBaseGameEntity@@@std@@@std@@@std@@QAEPAU?$_Tree_node@U?$pair@$$CBHPAVBaseGameEntity@@@std@@PAX@2@U?$_Tree_id@PAU?$_Tree_node@U?$pair@$$CBHPAVBaseGameEntity@@@std@@PAX@std@@@2@QAU32@@Z ; std::_Tree_val<std::_Tree_simple_types<std::pair<int const ,BaseGameEntity *> > >::_Insert_node
PUBLIC	?_Orphan_ptr@?$_Tree_val@U?$_Tree_simple_types@U?$pair@$$CBHPAVBaseGameEntity@@@std@@@std@@@std@@QAEXQAU?$_Tree_node@U?$pair@$$CBHPAVBaseGameEntity@@@std@@PAX@2@@Z ; std::_Tree_val<std::_Tree_simple_types<std::pair<int const ,BaseGameEntity *> > >::_Orphan_ptr
PUBLIC	?_Get_first@?$_Compressed_pair@V?$allocator@U?$_Tree_node@U?$pair@$$CBHPAVBaseGameEntity@@@std@@PAX@std@@@std@@V?$_Tree_val@U?$_Tree_simple_types@U?$pair@$$CBHPAVBaseGameEntity@@@std@@@std@@@2@$00@std@@QAEAAV?$allocator@U?$_Tree_node@U?$pair@$$CBHPAVBaseGameEntity@@@std@@PAX@std@@@2@XZ ; std::_Compressed_pair<std::allocator<std::_Tree_node<std::pair<int const ,BaseGameEntity *>,void *> >,std::_Tree_val<std::_Tree_simple_types<std::pair<int const ,BaseGameEntity *> > >,1>::_Get_first
PUBLIC	?_Get_first@?$_Compressed_pair@V?$allocator@U?$_Tree_node@U?$pair@$$CBHPAVBaseGameEntity@@@std@@PAX@std@@@std@@V?$_Tree_val@U?$_Tree_simple_types@U?$pair@$$CBHPAVBaseGameEntity@@@std@@@std@@@2@$00@std@@QBEABV?$allocator@U?$_Tree_node@U?$pair@$$CBHPAVBaseGameEntity@@@std@@PAX@std@@@2@XZ ; std::_Compressed_pair<std::allocator<std::_Tree_node<std::pair<int const ,BaseGameEntity *>,void *> >,std::_Tree_val<std::_Tree_simple_types<std::pair<int const ,BaseGameEntity *> > >,1>::_Get_first
PUBLIC	?_Get_first@?$_Compressed_pair@U?$less@H@std@@V?$_Compressed_pair@V?$allocator@U?$_Tree_node@U?$pair@$$CBHPAVBaseGameEntity@@@std@@PAX@std@@@std@@V?$_Tree_val@U?$_Tree_simple_types@U?$pair@$$CBHPAVBaseGameEntity@@@std@@@std@@@2@$00@2@$00@std@@QBEABU?$less@H@2@XZ ; std::_Compressed_pair<std::less<int>,std::_Compressed_pair<std::allocator<std::_Tree_node<std::pair<int const ,BaseGameEntity *>,void *> >,std::_Tree_val<std::_Tree_simple_types<std::pair<int const ,BaseGameEntity *> > >,1>,1>::_Get_first
PUBLIC	??0?$map@HPAVBaseGameEntity@@U?$less@H@std@@V?$allocator@U?$pair@$$CBHPAVBaseGameEntity@@@std@@@3@@std@@QAE@XZ ; std::map<int,BaseGameEntity *,std::less<int>,std::allocator<std::pair<int const ,BaseGameEntity *> > >::map<int,BaseGameEntity *,std::less<int>,std::allocator<std::pair<int const ,BaseGameEntity *> > >
PUBLIC	??1?$map@HPAVBaseGameEntity@@U?$less@H@std@@V?$allocator@U?$pair@$$CBHPAVBaseGameEntity@@@std@@@3@@std@@QAE@XZ ; std::map<int,BaseGameEntity *,std::less<int>,std::allocator<std::pair<int const ,BaseGameEntity *> > >::~map<int,BaseGameEntity *,std::less<int>,std::allocator<std::pair<int const ,BaseGameEntity *> > >
PUBLIC	??0EntityManager@@AAE@XZ			; EntityManager::EntityManager
PUBLIC	?Instance@EntityManager@@SAPAV1@XZ		; EntityManager::Instance
PUBLIC	?RegisterEntity@EntityManager@@QAEXPAVBaseGameEntity@@@Z ; EntityManager::RegisterEntity
PUBLIC	?GetEntityFromID@EntityManager@@QBEPAVBaseGameEntity@@H@Z ; EntityManager::GetEntityFromID
PUBLIC	?RemoveEntity@EntityManager@@QAEXPAVBaseGameEntity@@@Z ; EntityManager::RemoveEntity
PUBLIC	??1EntityManager@@QAE@XZ			; EntityManager::~EntityManager
PUBLIC	?ID@BaseGameEntity@@QBEHXZ			; BaseGameEntity::ID
PUBLIC	??0?$_Tree_unchecked_const_iterator@V?$_Tree_val@U?$_Tree_simple_types@U?$pair@$$CBHPAVBaseGameEntity@@@std@@@std@@@std@@U_Iterator_base12@2@@std@@QAE@PAU?$_Tree_node@U?$pair@$$CBHPAVBaseGameEntity@@@std@@PAX@1@PBV?$_Tree_val@U?$_Tree_simple_types@U?$pair@$$CBHPAVBaseGameEntity@@@std@@@std@@@1@@Z ; std::_Tree_unchecked_const_iterator<std::_Tree_val<std::_Tree_simple_types<std::pair<int const ,BaseGameEntity *> > >,std::_Iterator_base12>::_Tree_unchecked_const_iterator<std::_Tree_val<std::_Tree_simple_types<std::pair<int const ,BaseGameEntity *> > >,std::_Iterator_base12>
PUBLIC	??1?$_Tree_unchecked_const_iterator@V?$_Tree_val@U?$_Tree_simple_types@U?$pair@$$CBHPAVBaseGameEntity@@@std@@@std@@@std@@U_Iterator_base12@2@@std@@QAE@XZ ; std::_Tree_unchecked_const_iterator<std::_Tree_val<std::_Tree_simple_types<std::pair<int const ,BaseGameEntity *> > >,std::_Iterator_base12>::~_Tree_unchecked_const_iterator<std::_Tree_val<std::_Tree_simple_types<std::pair<int const ,BaseGameEntity *> > >,std::_Iterator_base12>
PUBLIC	??0?$_Tree_unchecked_const_iterator@V?$_Tree_val@U?$_Tree_simple_types@U?$pair@$$CBHPAVBaseGameEntity@@@std@@@std@@@std@@U_Iterator_base12@2@@std@@QAE@$$QAV01@@Z ; std::_Tree_unchecked_const_iterator<std::_Tree_val<std::_Tree_simple_types<std::pair<int const ,BaseGameEntity *> > >,std::_Iterator_base12>::_Tree_unchecked_const_iterator<std::_Tree_val<std::_Tree_simple_types<std::pair<int const ,BaseGameEntity *> > >,std::_Iterator_base12>
PUBLIC	??D?$_Tree_const_iterator@V?$_Tree_val@U?$_Tree_simple_types@U?$pair@$$CBHPAVBaseGameEntity@@@std@@@std@@@std@@@std@@QBEABU?$pair@$$CBHPAVBaseGameEntity@@@1@XZ ; std::_Tree_const_iterator<std::_Tree_val<std::_Tree_simple_types<std::pair<int const ,BaseGameEntity *> > > >::operator*
PUBLIC	??C?$_Tree_const_iterator@V?$_Tree_val@U?$_Tree_simple_types@U?$pair@$$CBHPAVBaseGameEntity@@@std@@@std@@@std@@@std@@QBEPBU?$pair@$$CBHPAVBaseGameEntity@@@1@XZ ; std::_Tree_const_iterator<std::_Tree_val<std::_Tree_simple_types<std::pair<int const ,BaseGameEntity *> > > >::operator->
PUBLIC	??8?$_Tree_const_iterator@V?$_Tree_val@U?$_Tree_simple_types@U?$pair@$$CBHPAVBaseGameEntity@@@std@@@std@@@std@@@std@@QBE_NABV01@@Z ; std::_Tree_const_iterator<std::_Tree_val<std::_Tree_simple_types<std::pair<int const ,BaseGameEntity *> > > >::operator==
PUBLIC	??9?$_Tree_const_iterator@V?$_Tree_val@U?$_Tree_simple_types@U?$pair@$$CBHPAVBaseGameEntity@@@std@@@std@@@std@@@std@@QBE_NABV01@@Z ; std::_Tree_const_iterator<std::_Tree_val<std::_Tree_simple_types<std::pair<int const ,BaseGameEntity *> > > >::operator!=
PUBLIC	??1?$_Tree_const_iterator@V?$_Tree_val@U?$_Tree_simple_types@U?$pair@$$CBHPAVBaseGameEntity@@@std@@@std@@@std@@@std@@QAE@XZ ; std::_Tree_const_iterator<std::_Tree_val<std::_Tree_simple_types<std::pair<int const ,BaseGameEntity *> > > >::~_Tree_const_iterator<std::_Tree_val<std::_Tree_simple_types<std::pair<int const ,BaseGameEntity *> > > >
PUBLIC	??0?$_Tree_const_iterator@V?$_Tree_val@U?$_Tree_simple_types@U?$pair@$$CBHPAVBaseGameEntity@@@std@@@std@@@std@@@std@@QAE@$$QAV01@@Z ; std::_Tree_const_iterator<std::_Tree_val<std::_Tree_simple_types<std::pair<int const ,BaseGameEntity *> > > >::_Tree_const_iterator<std::_Tree_val<std::_Tree_simple_types<std::pair<int const ,BaseGameEntity *> > > >
PUBLIC	??0?$_Tree_const_iterator@V?$_Tree_val@U?$_Tree_simple_types@U?$pair@$$CBHPAVBaseGameEntity@@@std@@@std@@@std@@@std@@QAE@PAU?$_Tree_node@U?$pair@$$CBHPAVBaseGameEntity@@@std@@PAX@1@PBV?$_Tree_val@U?$_Tree_simple_types@U?$pair@$$CBHPAVBaseGameEntity@@@std@@@std@@@1@@Z ; std::_Tree_const_iterator<std::_Tree_val<std::_Tree_simple_types<std::pair<int const ,BaseGameEntity *> > > >::_Tree_const_iterator<std::_Tree_val<std::_Tree_simple_types<std::pair<int const ,BaseGameEntity *> > > >
PUBLIC	?_Unwrapped@?$_Tree_iterator@V?$_Tree_val@U?$_Tree_simple_types@U?$pair@$$CBHPAVBaseGameEntity@@@std@@@std@@@std@@@std@@QBE?AV?$_Tree_unchecked_iterator@V?$_Tree_val@U?$_Tree_simple_types@U?$pair@$$CBHPAVBaseGameEntity@@@std@@@std@@@std@@@2@XZ ; std::_Tree_iterator<std::_Tree_val<std::_Tree_simple_types<std::pair<int const ,BaseGameEntity *> > > >::_Unwrapped
PUBLIC	??1?$_Tree_iterator@V?$_Tree_val@U?$_Tree_simple_types@U?$pair@$$CBHPAVBaseGameEntity@@@std@@@std@@@std@@@std@@QAE@XZ ; std::_Tree_iterator<std::_Tree_val<std::_Tree_simple_types<std::pair<int const ,BaseGameEntity *> > > >::~_Tree_iterator<std::_Tree_val<std::_Tree_simple_types<std::pair<int const ,BaseGameEntity *> > > >
PUBLIC	??0?$_Tree_iterator@V?$_Tree_val@U?$_Tree_simple_types@U?$pair@$$CBHPAVBaseGameEntity@@@std@@@std@@@std@@@std@@QAE@$$QAV01@@Z ; std::_Tree_iterator<std::_Tree_val<std::_Tree_simple_types<std::pair<int const ,BaseGameEntity *> > > >::_Tree_iterator<std::_Tree_val<std::_Tree_simple_types<std::pair<int const ,BaseGameEntity *> > > >
PUBLIC	??0?$_Tree_iterator@V?$_Tree_val@U?$_Tree_simple_types@U?$pair@$$CBHPAVBaseGameEntity@@@std@@@std@@@std@@@std@@QAE@PAU?$_Tree_node@U?$pair@$$CBHPAVBaseGameEntity@@@std@@PAX@1@PBV?$_Tree_val@U?$_Tree_simple_types@U?$pair@$$CBHPAVBaseGameEntity@@@std@@@std@@@1@@Z ; std::_Tree_iterator<std::_Tree_val<std::_Tree_simple_types<std::pair<int const ,BaseGameEntity *> > > >::_Tree_iterator<std::_Tree_val<std::_Tree_simple_types<std::pair<int const ,BaseGameEntity *> > > >
PUBLIC	??$erase@V?$_Tree_iterator@V?$_Tree_val@U?$_Tree_simple_types@U?$pair@$$CBHPAVBaseGameEntity@@@std@@@std@@@std@@@std@@$0A@@?$_Tree@V?$_Tmap_traits@HPAVBaseGameEntity@@U?$less@H@std@@V?$allocator@U?$pair@$$CBHPAVBaseGameEntity@@@std@@@3@$0A@@std@@@std@@QAE?AV?$_Tree_iterator@V?$_Tree_val@U?$_Tree_simple_types@U?$pair@$$CBHPAVBaseGameEntity@@@std@@@std@@@std@@@1@V21@@Z ; std::_Tree<std::_Tmap_traits<int,BaseGameEntity *,std::less<int>,std::allocator<std::pair<int const ,BaseGameEntity *> >,0> >::erase<std::_Tree_iterator<std::_Tree_val<std::_Tree_simple_types<std::pair<int const ,BaseGameEntity *> > > >,0>
PUBLIC	??$make_pair@HAAPAVBaseGameEntity@@@std@@YA?AU?$pair@HPAVBaseGameEntity@@@0@$$QAHAAPAVBaseGameEntity@@@Z ; std::make_pair<int,BaseGameEntity * &>
PUBLIC	??$?0HPAVBaseGameEntity@@$0A@@?$pair@$$CBHPAVBaseGameEntity@@@std@@QAE@$$QAU?$pair@HPAVBaseGameEntity@@@1@@Z ; std::pair<int const ,BaseGameEntity *>::pair<int const ,BaseGameEntity *><int,BaseGameEntity *,0>
PUBLIC	??$insert@U?$pair@HPAVBaseGameEntity@@@std@@$0A@@?$map@HPAVBaseGameEntity@@U?$less@H@std@@V?$allocator@U?$pair@$$CBHPAVBaseGameEntity@@@std@@@3@@std@@QAE?AU?$pair@V?$_Tree_iterator@V?$_Tree_val@U?$_Tree_simple_types@U?$pair@$$CBHPAVBaseGameEntity@@@std@@@std@@@std@@@std@@_N@1@$$QAU?$pair@HPAVBaseGameEntity@@@1@@Z ; std::map<int,BaseGameEntity *,std::less<int>,std::allocator<std::pair<int const ,BaseGameEntity *> > >::insert<std::pair<int,BaseGameEntity *>,0>
PUBLIC	??1?$pair@V?$_Tree_iterator@V?$_Tree_val@U?$_Tree_simple_types@U?$pair@$$CBHPAVBaseGameEntity@@@std@@@std@@@std@@@std@@_N@std@@QAE@XZ ; std::pair<std::_Tree_iterator<std::_Tree_val<std::_Tree_simple_types<std::pair<int const ,BaseGameEntity *> > > >,bool>::~pair<std::_Tree_iterator<std::_Tree_val<std::_Tree_simple_types<std::pair<int const ,BaseGameEntity *> > > >,bool>
PUBLIC	??$min@I@std@@YAABIABI0@Z			; std::min<unsigned int>
PUBLIC	??0?$_Tree_unchecked_const_iterator@V?$_Tree_val@U?$_Tree_simple_types@U?$pair@$$CBHPAVBaseGameEntity@@@std@@@std@@@std@@U_Iterator_base0@2@@std@@QAE@PAU?$_Tree_node@U?$pair@$$CBHPAVBaseGameEntity@@@std@@PAX@1@PBV?$_Tree_val@U?$_Tree_simple_types@U?$pair@$$CBHPAVBaseGameEntity@@@std@@@std@@@1@@Z ; std::_Tree_unchecked_const_iterator<std::_Tree_val<std::_Tree_simple_types<std::pair<int const ,BaseGameEntity *> > >,std::_Iterator_base0>::_Tree_unchecked_const_iterator<std::_Tree_val<std::_Tree_simple_types<std::pair<int const ,BaseGameEntity *> > >,std::_Iterator_base0>
PUBLIC	??E?$_Tree_unchecked_const_iterator@V?$_Tree_val@U?$_Tree_simple_types@U?$pair@$$CBHPAVBaseGameEntity@@@std@@@std@@@std@@U_Iterator_base0@2@@std@@QAEAAV01@XZ ; std::_Tree_unchecked_const_iterator<std::_Tree_val<std::_Tree_simple_types<std::pair<int const ,BaseGameEntity *> > >,std::_Iterator_base0>::operator++
PUBLIC	??0?$_Tree_unchecked_iterator@V?$_Tree_val@U?$_Tree_simple_types@U?$pair@$$CBHPAVBaseGameEntity@@@std@@@std@@@std@@@std@@QAE@PAU?$_Tree_node@U?$pair@$$CBHPAVBaseGameEntity@@@std@@PAX@1@PBV?$_Tree_val@U?$_Tree_simple_types@U?$pair@$$CBHPAVBaseGameEntity@@@std@@@std@@@1@@Z ; std::_Tree_unchecked_iterator<std::_Tree_val<std::_Tree_simple_types<std::pair<int const ,BaseGameEntity *> > > >::_Tree_unchecked_iterator<std::_Tree_val<std::_Tree_simple_types<std::pair<int const ,BaseGameEntity *> > > >
PUBLIC	??$forward@H@std@@YA$$QAHAAH@Z			; std::forward<int>
PUBLIC	??$forward@AAPAVBaseGameEntity@@@std@@YAAAPAVBaseGameEntity@@AAPAV1@@Z ; std::forward<BaseGameEntity * &>
PUBLIC	??$?0HAAPAVBaseGameEntity@@$0A@@?$pair@HPAVBaseGameEntity@@@std@@QAE@$$QAHAAPAVBaseGameEntity@@@Z ; std::pair<int,BaseGameEntity *>::pair<int,BaseGameEntity *><int,BaseGameEntity * &,0>
PUBLIC	??$forward@U?$pair@HPAVBaseGameEntity@@@std@@@std@@YA$$QAU?$pair@HPAVBaseGameEntity@@@0@AAU10@@Z ; std::forward<std::pair<int,BaseGameEntity *> >
PUBLIC	??$emplace@U?$pair@HPAVBaseGameEntity@@@std@@@?$_Tree@V?$_Tmap_traits@HPAVBaseGameEntity@@U?$less@H@std@@V?$allocator@U?$pair@$$CBHPAVBaseGameEntity@@@std@@@3@$0A@@std@@@std@@QAE?AU?$pair@V?$_Tree_iterator@V?$_Tree_val@U?$_Tree_simple_types@U?$pair@$$CBHPAVBaseGameEntity@@@std@@@std@@@std@@@std@@_N@1@$$QAU?$pair@HPAVBaseGameEntity@@@1@@Z ; std::_Tree<std::_Tmap_traits<int,BaseGameEntity *,std::less<int>,std::allocator<std::pair<int const ,BaseGameEntity *> >,0> >::emplace<std::pair<int,BaseGameEntity *> >
PUBLIC	?allocate@?$allocator@U_Container_proxy@std@@@std@@QAEPAU_Container_proxy@2@I@Z ; std::allocator<std::_Container_proxy>::allocate
PUBLIC	??$_Delete_plain_internal@V?$allocator@U_Container_proxy@std@@@std@@@std@@YAXAAV?$allocator@U_Container_proxy@std@@@0@QAU_Container_proxy@0@@Z ; std::_Delete_plain_internal<std::allocator<std::_Container_proxy> >
PUBLIC	?pointer_to@?$pointer_traits@PBU?$pair@$$CBHPAVBaseGameEntity@@@std@@@std@@SAPBU?$pair@$$CBHPAVBaseGameEntity@@@2@ABU32@@Z ; std::pointer_traits<std::pair<int const ,BaseGameEntity *> const *>::pointer_to
PUBLIC	??$_Find@H@?$_Tree@V?$_Tmap_traits@HPAVBaseGameEntity@@U?$less@H@std@@V?$allocator@U?$pair@$$CBHPAVBaseGameEntity@@@std@@@3@$0A@@std@@@std@@ABEPAU?$_Tree_node@U?$pair@$$CBHPAVBaseGameEntity@@@std@@PAX@1@ABH@Z ; std::_Tree<std::_Tmap_traits<int,BaseGameEntity *,std::less<int>,std::allocator<std::pair<int const ,BaseGameEntity *> >,0> >::_Find<int>
PUBLIC	??$_Erase_tree@V?$allocator@U?$_Tree_node@U?$pair@$$CBHPAVBaseGameEntity@@@std@@PAX@std@@@std@@@?$_Tree_val@U?$_Tree_simple_types@U?$pair@$$CBHPAVBaseGameEntity@@@std@@@std@@@std@@QAEXAAV?$allocator@U?$_Tree_node@U?$pair@$$CBHPAVBaseGameEntity@@@std@@PAX@std@@@1@PAU?$_Tree_node@U?$pair@$$CBHPAVBaseGameEntity@@@std@@PAX@1@@Z ; std::_Tree_val<std::_Tree_simple_types<std::pair<int const ,BaseGameEntity *> > >::_Erase_tree<std::allocator<std::_Tree_node<std::pair<int const ,BaseGameEntity *>,void *> > >
PUBLIC	??$_Erase_head@V?$allocator@U?$_Tree_node@U?$pair@$$CBHPAVBaseGameEntity@@@std@@PAX@std@@@std@@@?$_Tree_val@U?$_Tree_simple_types@U?$pair@$$CBHPAVBaseGameEntity@@@std@@@std@@@std@@QAEXAAV?$allocator@U?$_Tree_node@U?$pair@$$CBHPAVBaseGameEntity@@@std@@PAX@std@@@1@@Z ; std::_Tree_val<std::_Tree_simple_types<std::pair<int const ,BaseGameEntity *> > >::_Erase_head<std::allocator<std::_Tree_node<std::pair<int const ,BaseGameEntity *>,void *> > >
PUBLIC	??$?0U?$_Tree_node@U?$pair@$$CBHPAVBaseGameEntity@@@std@@PAX@std@@@?$allocator@U_Container_proxy@std@@@std@@QAE@ABV?$allocator@U?$_Tree_node@U?$pair@$$CBHPAVBaseGameEntity@@@std@@PAX@std@@@1@@Z ; std::allocator<std::_Container_proxy>::allocator<std::_Container_proxy><std::_Tree_node<std::pair<int const ,BaseGameEntity *>,void *> >
PUBLIC	??$_Emplace@U?$pair@HPAVBaseGameEntity@@@std@@@?$_Tree@V?$_Tmap_traits@HPAVBaseGameEntity@@U?$less@H@std@@V?$allocator@U?$pair@$$CBHPAVBaseGameEntity@@@std@@@3@$0A@@std@@@std@@IAE?AU?$pair@PAU?$_Tree_node@U?$pair@$$CBHPAVBaseGameEntity@@@std@@PAX@std@@_N@1@$$QAU?$pair@HPAVBaseGameEntity@@@1@@Z ; std::_Tree<std::_Tmap_traits<int,BaseGameEntity *,std::less<int>,std::allocator<std::pair<int const ,BaseGameEntity *> >,0> >::_Emplace<std::pair<int,BaseGameEntity *> >
PUBLIC	??$?0V?$_Tree_iterator@V?$_Tree_val@U?$_Tree_simple_types@U?$pair@$$CBHPAVBaseGameEntity@@@std@@@std@@@std@@@std@@AB_N$0A@@?$pair@V?$_Tree_iterator@V?$_Tree_val@U?$_Tree_simple_types@U?$pair@$$CBHPAVBaseGameEntity@@@std@@@std@@@std@@@std@@_N@std@@QAE@$$QAV?$_Tree_iterator@V?$_Tree_val@U?$_Tree_simple_types@U?$pair@$$CBHPAVBaseGameEntity@@@std@@@std@@@std@@@1@AB_N@Z ; std::pair<std::_Tree_iterator<std::_Tree_val<std::_Tree_simple_types<std::pair<int const ,BaseGameEntity *> > > >,bool>::pair<std::_Tree_iterator<std::_Tree_val<std::_Tree_simple_types<std::pair<int const ,BaseGameEntity *> > > >,bool><std::_Tree_iterator<std::_Tree_val<std::_Tree_simple_types<std::pair<int const ,BaseGameEntity *> > > >,bool const &,0>
PUBLIC	??$_Deallocate_plain@V?$allocator@U_Container_proxy@std@@@std@@@std@@YAXAAV?$allocator@U_Container_proxy@std@@@0@QAU_Container_proxy@0@@Z ; std::_Deallocate_plain<std::allocator<std::_Container_proxy> >
PUBLIC	??$_Unfancy@U_Container_proxy@std@@@std@@YAPAU_Container_proxy@0@PAU10@@Z ; std::_Unfancy<std::_Container_proxy>
PUBLIC	??$_Construct_in_place@U_Container_proxy@std@@PAU_Container_base12@2@@std@@YAXAAU_Container_proxy@0@$$QAPAU_Container_base12@0@@Z ; std::_Construct_in_place<std::_Container_proxy,std::_Container_base12 *>
PUBLIC	??0?$_Container_proxy_ptr12@V?$allocator@U_Container_proxy@std@@@std@@@std@@QAE@AAV?$allocator@U_Container_proxy@std@@@1@AAU_Container_base12@1@@Z ; std::_Container_proxy_ptr12<std::allocator<std::_Container_proxy> >::_Container_proxy_ptr12<std::allocator<std::_Container_proxy> >
PUBLIC	??1?$_Container_proxy_ptr12@V?$allocator@U_Container_proxy@std@@@std@@@std@@QAE@XZ ; std::_Container_proxy_ptr12<std::allocator<std::_Container_proxy> >::~_Container_proxy_ptr12<std::allocator<std::_Container_proxy> >
PUBLIC	??$_Find_lower_bound@H@?$_Tree@V?$_Tmap_traits@HPAVBaseGameEntity@@U?$less@H@std@@V?$allocator@U?$pair@$$CBHPAVBaseGameEntity@@@std@@@3@$0A@@std@@@std@@IBE?AU?$_Tree_find_result@PAU?$_Tree_node@U?$pair@$$CBHPAVBaseGameEntity@@@std@@PAX@std@@@1@ABH@Z ; std::_Tree<std::_Tmap_traits<int,BaseGameEntity *,std::less<int>,std::allocator<std::pair<int const ,BaseGameEntity *> >,0> >::_Find_lower_bound<int>
PUBLIC	??$_Lower_bound_duplicate@H@?$_Tree@V?$_Tmap_traits@HPAVBaseGameEntity@@U?$less@H@std@@V?$allocator@U?$pair@$$CBHPAVBaseGameEntity@@@std@@@3@$0A@@std@@@std@@IBE_NQAU?$_Tree_node@U?$pair@$$CBHPAVBaseGameEntity@@@std@@PAX@1@ABH@Z ; std::_Tree<std::_Tmap_traits<int,BaseGameEntity *,std::less<int>,std::allocator<std::pair<int const ,BaseGameEntity *> >,0> >::_Lower_bound_duplicate<int>
PUBLIC	??$exchange@PAU?$_Tree_node@U?$pair@$$CBHPAVBaseGameEntity@@@std@@PAX@std@@AAPAU12@@std@@YAPAU?$_Tree_node@U?$pair@$$CBHPAVBaseGameEntity@@@std@@PAX@0@AAPAU10@0@Z ; std::exchange<std::_Tree_node<std::pair<int const ,BaseGameEntity *>,void *> *,std::_Tree_node<std::pair<int const ,BaseGameEntity *>,void *> * &>
PUBLIC	??$_Freenode@V?$allocator@U?$_Tree_node@U?$pair@$$CBHPAVBaseGameEntity@@@std@@PAX@std@@@std@@@?$_Tree_node@U?$pair@$$CBHPAVBaseGameEntity@@@std@@PAX@std@@SAXAAV?$allocator@U?$_Tree_node@U?$pair@$$CBHPAVBaseGameEntity@@@std@@PAX@std@@@1@PAU01@@Z ; std::_Tree_node<std::pair<int const ,BaseGameEntity *>,void *>::_Freenode<std::allocator<std::_Tree_node<std::pair<int const ,BaseGameEntity *>,void *> > >
PUBLIC	??$_Freenode0@V?$allocator@U?$_Tree_node@U?$pair@$$CBHPAVBaseGameEntity@@@std@@PAX@std@@@std@@@?$_Tree_node@U?$pair@$$CBHPAVBaseGameEntity@@@std@@PAX@std@@SAXAAV?$allocator@U?$_Tree_node@U?$pair@$$CBHPAVBaseGameEntity@@@std@@PAX@std@@@1@PAU01@@Z ; std::_Tree_node<std::pair<int const ,BaseGameEntity *>,void *>::_Freenode0<std::allocator<std::_Tree_node<std::pair<int const ,BaseGameEntity *>,void *> > >
PUBLIC	??$addressof@$$CBU?$pair@$$CBHPAVBaseGameEntity@@@std@@@std@@YAPBU?$pair@$$CBHPAVBaseGameEntity@@@0@ABU10@@Z ; std::addressof<std::pair<int const ,BaseGameEntity *> const >
PUBLIC	??$addressof@$$CBV?$_Tree_val@U?$_Tree_simple_types@U?$pair@$$CBHPAVBaseGameEntity@@@std@@@std@@@std@@@std@@YAPBV?$_Tree_val@U?$_Tree_simple_types@U?$pair@$$CBHPAVBaseGameEntity@@@std@@@std@@@0@ABV10@@Z ; std::addressof<std::_Tree_val<std::_Tree_simple_types<std::pair<int const ,BaseGameEntity *> > > const >
PUBLIC	??$addressof@V?$_Tree_val@U?$_Tree_simple_types@U?$pair@$$CBHPAVBaseGameEntity@@@std@@@std@@@std@@@std@@YAPAV?$_Tree_val@U?$_Tree_simple_types@U?$pair@$$CBHPAVBaseGameEntity@@@std@@@std@@@0@AAV10@@Z ; std::addressof<std::_Tree_val<std::_Tree_simple_types<std::pair<int const ,BaseGameEntity *> > > >
PUBLIC	??$?0ABU?$less@H@std@@U_Zero_then_variadic_args_t@1@@?$_Compressed_pair@U?$less@H@std@@V?$_Compressed_pair@V?$allocator@U?$_Tree_node@U?$pair@$$CBHPAVBaseGameEntity@@@std@@PAX@std@@@std@@V?$_Tree_val@U?$_Tree_simple_types@U?$pair@$$CBHPAVBaseGameEntity@@@std@@@std@@@2@$00@2@$00@std@@QAE@U_One_then_variadic_args_t@1@ABU?$less@H@1@$$QAU_Zero_then_variadic_args_t@1@@Z ; std::_Compressed_pair<std::less<int>,std::_Compressed_pair<std::allocator<std::_Tree_node<std::pair<int const ,BaseGameEntity *>,void *> >,std::_Tree_val<std::_Tree_simple_types<std::pair<int const ,BaseGameEntity *> > >,1>,1>::_Compressed_pair<std::less<int>,std::_Compressed_pair<std::allocator<std::_Tree_node<std::pair<int const ,BaseGameEntity *>,void *> >,std::_Tree_val<std::_Tree_simple_types<std::pair<int const ,BaseGameEntity *> > >,1>,1><std::less<int> const &,std::_Zero_then_variadic_args_t>
PUBLIC	??$?0$$V@?$_Compressed_pair@V?$allocator@U?$_Tree_node@U?$pair@$$CBHPAVBaseGameEntity@@@std@@PAX@std@@@std@@V?$_Tree_val@U?$_Tree_simple_types@U?$pair@$$CBHPAVBaseGameEntity@@@std@@@std@@@2@$00@std@@QAE@U_Zero_then_variadic_args_t@1@@Z ; std::_Compressed_pair<std::allocator<std::_Tree_node<std::pair<int const ,BaseGameEntity *>,void *> >,std::_Tree_val<std::_Tree_simple_types<std::pair<int const ,BaseGameEntity *> > >,1>::_Compressed_pair<std::allocator<std::_Tree_node<std::pair<int const ,BaseGameEntity *>,void *> >,std::_Tree_val<std::_Tree_simple_types<std::pair<int const ,BaseGameEntity *> > >,1><>
PUBLIC	?_Extract@?$_In_place_key_extract_map_impl@HU?$pair@HPAVBaseGameEntity@@@std@@@std@@SAABHABU?$pair@HPAVBaseGameEntity@@@2@@Z ; std::_In_place_key_extract_map_impl<int,std::pair<int,BaseGameEntity *> >::_Extract
PUBLIC	??$?0AAPAU?$_Tree_node@U?$pair@$$CBHPAVBaseGameEntity@@@std@@PAX@std@@_N$0A@@?$pair@PAU?$_Tree_node@U?$pair@$$CBHPAVBaseGameEntity@@@std@@PAX@std@@_N@std@@QAE@AAPAU?$_Tree_node@U?$pair@$$CBHPAVBaseGameEntity@@@std@@PAX@1@$$QA_N@Z ; std::pair<std::_Tree_node<std::pair<int const ,BaseGameEntity *>,void *> *,bool>::pair<std::_Tree_node<std::pair<int const ,BaseGameEntity *>,void *> *,bool><std::_Tree_node<std::pair<int const ,BaseGameEntity *>,void *> * &,bool,0>
PUBLIC	??0?$_Alloc_construct_ptr@V?$allocator@U?$_Tree_node@U?$pair@$$CBHPAVBaseGameEntity@@@std@@PAX@std@@@std@@@std@@QAE@AAV?$allocator@U?$_Tree_node@U?$pair@$$CBHPAVBaseGameEntity@@@std@@PAX@std@@@1@@Z ; std::_Alloc_construct_ptr<std::allocator<std::_Tree_node<std::pair<int const ,BaseGameEntity *>,void *> > >::_Alloc_construct_ptr<std::allocator<std::_Tree_node<std::pair<int const ,BaseGameEntity *>,void *> > >
PUBLIC	?_Release@?$_Alloc_construct_ptr@V?$allocator@U?$_Tree_node@U?$pair@$$CBHPAVBaseGameEntity@@@std@@PAX@std@@@std@@@std@@QAEPAU?$_Tree_node@U?$pair@$$CBHPAVBaseGameEntity@@@std@@PAX@2@XZ ; std::_Alloc_construct_ptr<std::allocator<std::_Tree_node<std::pair<int const ,BaseGameEntity *>,void *> > >::_Release
PUBLIC	?_Allocate@?$_Alloc_construct_ptr@V?$allocator@U?$_Tree_node@U?$pair@$$CBHPAVBaseGameEntity@@@std@@PAX@std@@@std@@@std@@QAEXXZ ; std::_Alloc_construct_ptr<std::allocator<std::_Tree_node<std::pair<int const ,BaseGameEntity *>,void *> > >::_Allocate
PUBLIC	??1?$_Alloc_construct_ptr@V?$allocator@U?$_Tree_node@U?$pair@$$CBHPAVBaseGameEntity@@@std@@PAX@std@@@std@@@std@@QAE@XZ ; std::_Alloc_construct_ptr<std::allocator<std::_Tree_node<std::pair<int const ,BaseGameEntity *>,void *> > >::~_Alloc_construct_ptr<std::allocator<std::_Tree_node<std::pair<int const ,BaseGameEntity *>,void *> > >
PUBLIC	??0?$_Tree_temp_node_alloc@V?$allocator@U?$_Tree_node@U?$pair@$$CBHPAVBaseGameEntity@@@std@@PAX@std@@@std@@@std@@QAE@AAV?$allocator@U?$_Tree_node@U?$pair@$$CBHPAVBaseGameEntity@@@std@@PAX@std@@@1@@Z ; std::_Tree_temp_node_alloc<std::allocator<std::_Tree_node<std::pair<int const ,BaseGameEntity *>,void *> > >::_Tree_temp_node_alloc<std::allocator<std::_Tree_node<std::pair<int const ,BaseGameEntity *>,void *> > >
PUBLIC	??1?$_Tree_temp_node_alloc@V?$allocator@U?$_Tree_node@U?$pair@$$CBHPAVBaseGameEntity@@@std@@PAX@std@@@std@@@std@@QAE@XZ ; std::_Tree_temp_node_alloc<std::allocator<std::_Tree_node<std::pair<int const ,BaseGameEntity *>,void *> > >::~_Tree_temp_node_alloc<std::allocator<std::_Tree_node<std::pair<int const ,BaseGameEntity *>,void *> > >
PUBLIC	??1?$_Tree_temp_node@V?$allocator@U?$_Tree_node@U?$pair@$$CBHPAVBaseGameEntity@@@std@@PAX@std@@@std@@@std@@QAE@XZ ; std::_Tree_temp_node<std::allocator<std::_Tree_node<std::pair<int const ,BaseGameEntity *>,void *> > >::~_Tree_temp_node<std::allocator<std::_Tree_node<std::pair<int const ,BaseGameEntity *>,void *> > >
PUBLIC	??$?0U?$pair@HPAVBaseGameEntity@@@std@@@?$_Tree_temp_node@V?$allocator@U?$_Tree_node@U?$pair@$$CBHPAVBaseGameEntity@@@std@@PAX@std@@@std@@@std@@QAE@AAV?$allocator@U?$_Tree_node@U?$pair@$$CBHPAVBaseGameEntity@@@std@@PAX@std@@@1@PAU?$_Tree_node@U?$pair@$$CBHPAVBaseGameEntity@@@std@@PAX@1@$$QAU?$pair@HPAVBaseGameEntity@@@1@@Z ; std::_Tree_temp_node<std::allocator<std::_Tree_node<std::pair<int const ,BaseGameEntity *>,void *> > >::_Tree_temp_node<std::allocator<std::_Tree_node<std::pair<int const ,BaseGameEntity *>,void *> > ><std::pair<int,BaseGameEntity *> >
PUBLIC	??$?0PAU?$_Tree_node@U?$pair@$$CBHPAVBaseGameEntity@@@std@@PAX@std@@_N$0A@@?$pair@PAU?$_Tree_node@U?$pair@$$CBHPAVBaseGameEntity@@@std@@PAX@std@@_N@std@@QAE@$$QAPAU?$_Tree_node@U?$pair@$$CBHPAVBaseGameEntity@@@std@@PAX@1@$$QA_N@Z ; std::pair<std::_Tree_node<std::pair<int const ,BaseGameEntity *>,void *> *,bool>::pair<std::_Tree_node<std::pair<int const ,BaseGameEntity *>,void *> *,bool><std::_Tree_node<std::pair<int const ,BaseGameEntity *>,void *> *,bool,0>
PUBLIC	??$forward@V?$_Tree_iterator@V?$_Tree_val@U?$_Tree_simple_types@U?$pair@$$CBHPAVBaseGameEntity@@@std@@@std@@@std@@@std@@@std@@YA$$QAV?$_Tree_iterator@V?$_Tree_val@U?$_Tree_simple_types@U?$pair@$$CBHPAVBaseGameEntity@@@std@@@std@@@std@@@0@AAV10@@Z ; std::forward<std::_Tree_iterator<std::_Tree_val<std::_Tree_simple_types<std::pair<int const ,BaseGameEntity *> > > > >
PUBLIC	??$forward@AB_N@std@@YAAB_NAB_N@Z		; std::forward<bool const &>
PUBLIC	?deallocate@?$_Default_allocator_traits@V?$allocator@U_Container_proxy@std@@@std@@@std@@SAXAAV?$allocator@U_Container_proxy@std@@@2@QAU_Container_proxy@2@I@Z ; std::_Default_allocator_traits<std::allocator<std::_Container_proxy> >::deallocate
PUBLIC	??$addressof@U_Container_proxy@std@@@std@@YAPAU_Container_proxy@0@AAU10@@Z ; std::addressof<std::_Container_proxy>
PUBLIC	??$forward@PAU_Container_base12@std@@@std@@YA$$QAPAU_Container_base12@0@AAPAU10@@Z ; std::forward<std::_Container_base12 *>
PUBLIC	??$_Kfn@$$CBHPAVBaseGameEntity@@@?$_Tmap_traits@HPAVBaseGameEntity@@U?$less@H@std@@V?$allocator@U?$pair@$$CBHPAVBaseGameEntity@@@std@@@3@$0A@@std@@SAABHABU?$pair@$$CBHPAVBaseGameEntity@@@1@@Z ; std::_Tmap_traits<int,BaseGameEntity *,std::less<int>,std::allocator<std::pair<int const ,BaseGameEntity *> >,0>::_Kfn<int const ,BaseGameEntity *>
PUBLIC	??$_Debug_lt_pred@ABU?$less@H@std@@ABHABH@std@@YA_NABU?$less@H@0@ABH1@Z ; std::_Debug_lt_pred<std::less<int> const &,int const &,int const &>
PUBLIC	??$addressof@U?$pair@$$CBHPAVBaseGameEntity@@@std@@@std@@YAPAU?$pair@$$CBHPAVBaseGameEntity@@@0@AAU10@@Z ; std::addressof<std::pair<int const ,BaseGameEntity *> >
PUBLIC	??$destroy@U?$pair@$$CBHPAVBaseGameEntity@@@std@@@?$_Default_allocator_traits@V?$allocator@U?$_Tree_node@U?$pair@$$CBHPAVBaseGameEntity@@@std@@PAX@std@@@std@@@std@@SAXAAV?$allocator@U?$_Tree_node@U?$pair@$$CBHPAVBaseGameEntity@@@std@@PAX@std@@@1@QAU?$pair@$$CBHPAVBaseGameEntity@@@1@@Z ; std::_Default_allocator_traits<std::allocator<std::_Tree_node<std::pair<int const ,BaseGameEntity *>,void *> > >::destroy<std::pair<int const ,BaseGameEntity *> >
PUBLIC	??$_Destroy_in_place@PAU?$_Tree_node@U?$pair@$$CBHPAVBaseGameEntity@@@std@@PAX@std@@@std@@YAXAAPAU?$_Tree_node@U?$pair@$$CBHPAVBaseGameEntity@@@std@@PAX@0@@Z ; std::_Destroy_in_place<std::_Tree_node<std::pair<int const ,BaseGameEntity *>,void *> *>
PUBLIC	??$forward@ABU?$less@H@std@@@std@@YAABU?$less@H@0@ABU10@@Z ; std::forward<std::less<int> const &>
PUBLIC	??$forward@U_Zero_then_variadic_args_t@std@@@std@@YA$$QAU_Zero_then_variadic_args_t@0@AAU10@@Z ; std::forward<std::_Zero_then_variadic_args_t>
PUBLIC	??$addressof@U_Container_base12@std@@@std@@YAPAU_Container_base12@0@AAU10@@Z ; std::addressof<std::_Container_base12>
PUBLIC	??$_Get_size_of_n@$07@std@@YAII@Z		; std::_Get_size_of_n<8>
PUBLIC	??$_Allocate@$07U_Default_allocate_traits@std@@@std@@YAPAXI@Z ; std::_Allocate<8,std::_Default_allocate_traits>
PUBLIC	??$_Deallocate@$07@std@@YAXPAXI@Z		; std::_Deallocate<8>
PUBLIC	??$_Max_limit@H@std@@YAHXZ			; std::_Max_limit<int>
PUBLIC	??$swap@D$0A@@std@@YAXAAD0@Z			; std::swap<char,0>
PUBLIC	??$_Buyheadnode@V?$allocator@U?$_Tree_node@U?$pair@$$CBHPAVBaseGameEntity@@@std@@PAX@std@@@std@@@?$_Tree_node@U?$pair@$$CBHPAVBaseGameEntity@@@std@@PAX@std@@SAPAU01@AAV?$allocator@U?$_Tree_node@U?$pair@$$CBHPAVBaseGameEntity@@@std@@PAX@std@@@1@@Z ; std::_Tree_node<std::pair<int const ,BaseGameEntity *>,void *>::_Buyheadnode<std::allocator<std::_Tree_node<std::pair<int const ,BaseGameEntity *>,void *> > >
PUBLIC	??$forward@AAPAU?$_Tree_node@U?$pair@$$CBHPAVBaseGameEntity@@@std@@PAX@std@@@std@@YAAAPAU?$_Tree_node@U?$pair@$$CBHPAVBaseGameEntity@@@std@@PAX@0@AAPAU10@@Z ; std::forward<std::_Tree_node<std::pair<int const ,BaseGameEntity *>,void *> * &>
PUBLIC	??$forward@_N@std@@YA$$QA_NAA_N@Z		; std::forward<bool>
PUBLIC	??$construct@U?$pair@$$CBHPAVBaseGameEntity@@@std@@U?$pair@HPAVBaseGameEntity@@@2@@?$_Default_allocator_traits@V?$allocator@U?$_Tree_node@U?$pair@$$CBHPAVBaseGameEntity@@@std@@PAX@std@@@std@@@std@@SAXAAV?$allocator@U?$_Tree_node@U?$pair@$$CBHPAVBaseGameEntity@@@std@@PAX@std@@@1@QAU?$pair@$$CBHPAVBaseGameEntity@@@1@$$QAU?$pair@HPAVBaseGameEntity@@@1@@Z ; std::_Default_allocator_traits<std::allocator<std::_Tree_node<std::pair<int const ,BaseGameEntity *>,void *> > >::construct<std::pair<int const ,BaseGameEntity *>,std::pair<int,BaseGameEntity *> >
PUBLIC	??$_Construct_in_place@PAU?$_Tree_node@U?$pair@$$CBHPAVBaseGameEntity@@@std@@PAX@std@@AAPAU12@@std@@YAXAAPAU?$_Tree_node@U?$pair@$$CBHPAVBaseGameEntity@@@std@@PAX@0@0@Z ; std::_Construct_in_place<std::_Tree_node<std::pair<int const ,BaseGameEntity *>,void *> *,std::_Tree_node<std::pair<int const ,BaseGameEntity *>,void *> * &>
PUBLIC	??$forward@PAU?$_Tree_node@U?$pair@$$CBHPAVBaseGameEntity@@@std@@PAX@std@@@std@@YA$$QAPAU?$_Tree_node@U?$pair@$$CBHPAVBaseGameEntity@@@std@@PAX@0@AAPAU10@@Z ; std::forward<std::_Tree_node<std::pair<int const ,BaseGameEntity *>,void *> *>
PUBLIC	??$_Allocate_manually_vector_aligned@U_Default_allocate_traits@std@@@std@@YAPAXI@Z ; std::_Allocate_manually_vector_aligned<std::_Default_allocate_traits>
PUBLIC	??$move@AAD@std@@YA$$QADAAD@Z			; std::move<char &>
PUBLIC	??$_Construct_in_place@PAU?$_Tree_node@U?$pair@$$CBHPAVBaseGameEntity@@@std@@PAX@std@@ABQAU12@@std@@YAXAAPAU?$_Tree_node@U?$pair@$$CBHPAVBaseGameEntity@@@std@@PAX@0@ABQAU10@@Z ; std::_Construct_in_place<std::_Tree_node<std::pair<int const ,BaseGameEntity *>,void *> *,std::_Tree_node<std::pair<int const ,BaseGameEntity *>,void *> * const &>
PUBLIC	??$exchange@PAU?$_Tree_node@U?$pair@$$CBHPAVBaseGameEntity@@@std@@PAX@std@@$$T@std@@YAPAU?$_Tree_node@U?$pair@$$CBHPAVBaseGameEntity@@@std@@PAX@0@AAPAU10@$$QA$$T@Z ; std::exchange<std::_Tree_node<std::pair<int const ,BaseGameEntity *>,void *> *,std::nullptr_t>
PUBLIC	??$addressof@PAU?$_Tree_node@U?$pair@$$CBHPAVBaseGameEntity@@@std@@PAX@std@@@std@@YAPAPAU?$_Tree_node@U?$pair@$$CBHPAVBaseGameEntity@@@std@@PAX@0@AAPAU10@@Z ; std::addressof<std::_Tree_node<std::pair<int const ,BaseGameEntity *>,void *> *>
PUBLIC	??$forward@ABQAU?$_Tree_node@U?$pair@$$CBHPAVBaseGameEntity@@@std@@PAX@std@@@std@@YAABQAU?$_Tree_node@U?$pair@$$CBHPAVBaseGameEntity@@@std@@PAX@0@ABQAU10@@Z ; std::forward<std::_Tree_node<std::pair<int const ,BaseGameEntity *>,void *> * const &>
PUBLIC	??$_Get_size_of_n@$0BI@@std@@YAII@Z		; std::_Get_size_of_n<24>
PUBLIC	??$forward@PAVBaseGameEntity@@@std@@YA$$QAPAVBaseGameEntity@@AAPAV1@@Z ; std::forward<BaseGameEntity *>
PUBLIC	??_7exception@std@@6B@				; std::exception::`vftable'
PUBLIC	??_C@_0BC@EOODALEL@Unknown?5exception@		; `string'
PUBLIC	??_7bad_alloc@std@@6B@				; std::bad_alloc::`vftable'
PUBLIC	??_7bad_array_new_length@std@@6B@		; std::bad_array_new_length::`vftable'
PUBLIC	??_C@_0BF@KINCDENJ@bad?5array?5new?5length@	; `string'
PUBLIC	??_R0?AVexception@std@@@8			; std::exception `RTTI Type Descriptor'
PUBLIC	__CT??_R0?AVexception@std@@@8??0exception@std@@QAE@ABV01@@Z12
PUBLIC	__TI3?AVbad_array_new_length@std@@
PUBLIC	__CTA3?AVbad_array_new_length@std@@
PUBLIC	??_R0?AVbad_array_new_length@std@@@8		; std::bad_array_new_length `RTTI Type Descriptor'
PUBLIC	__CT??_R0?AVbad_array_new_length@std@@@8??0bad_array_new_length@std@@QAE@ABV01@@Z12
PUBLIC	??_R0?AVbad_alloc@std@@@8			; std::bad_alloc `RTTI Type Descriptor'
PUBLIC	__CT??_R0?AVbad_alloc@std@@@8??0bad_alloc@std@@QAE@ABV01@@Z12
PUBLIC	??_C@_0BB@FCMFBGOM@invalid?5argument@		; `string'
PUBLIC	??_C@_02DKCKIIND@?$CFs@				; `string'
PUBLIC	??_C@_0GC@KLECFGLI@C?3?2Program?5Files?2Microsoft?5Visu@ ; `string'
PUBLIC	??_C@_0BJ@LFDBABJJ@ITERATOR?5LIST?5CORRUPTED?$CB@ ; `string'
PUBLIC	??_C@_0BB@GCADKGJO@map?1set?5too?5long@		; `string'
PUBLIC	??_C@_0GD@GOKHNLI@C?3?2Program?5Files?2Microsoft?5Visu@ ; `string'
PUBLIC	??_C@_0DA@GGPHOHEL@map?1set?5erase?5iterator?5from?5inc@ ; `string'
PUBLIC	??_C@_0GA@IINHIBAD@C?3?2Program?5Files?2Microsoft?5Visu@ ; `string'
PUBLIC	??_C@_0CE@JAJNKOFK@cannot?5erase?5map?1set?5end?$CI?$CJ?5iter@ ; `string'
PUBLIC	??_C@_0BP@OLDKBHLM@map?1set?5iterators?5incompatible@ ; `string'
PUBLIC	??_C@_0DG@LCFNIIPB@cannot?5dereference?5value?9initia@ ; `string'
PUBLIC	??_C@_0CI@OKFEHCEB@cannot?5dereference?5end?5map?1set?5@ ; `string'
PUBLIC	??_C@_0DG@KGHKKGBC@null?5pointer?5cannot?5point?5to?5a?5@ ; `string'
PUBLIC	??_C@_0BD@FEEMDEPI@invalid?5comparator@		; `string'
PUBLIC	??_R4exception@std@@6B@				; std::exception::`RTTI Complete Object Locator'
PUBLIC	??_R3exception@std@@8				; std::exception::`RTTI Class Hierarchy Descriptor'
PUBLIC	??_R2exception@std@@8				; std::exception::`RTTI Base Class Array'
PUBLIC	??_R1A@?0A@EA@exception@std@@8			; std::exception::`RTTI Base Class Descriptor at (0,-1,0,64)'
PUBLIC	??_R4bad_array_new_length@std@@6B@		; std::bad_array_new_length::`RTTI Complete Object Locator'
PUBLIC	??_R3bad_array_new_length@std@@8		; std::bad_array_new_length::`RTTI Class Hierarchy Descriptor'
PUBLIC	??_R2bad_array_new_length@std@@8		; std::bad_array_new_length::`RTTI Base Class Array'
PUBLIC	??_R1A@?0A@EA@bad_array_new_length@std@@8	; std::bad_array_new_length::`RTTI Base Class Descriptor at (0,-1,0,64)'
PUBLIC	??_R1A@?0A@EA@bad_alloc@std@@8			; std::bad_alloc::`RTTI Base Class Descriptor at (0,-1,0,64)'
PUBLIC	??_R3bad_alloc@std@@8				; std::bad_alloc::`RTTI Class Hierarchy Descriptor'
PUBLIC	??_R2bad_alloc@std@@8				; std::bad_alloc::`RTTI Base Class Array'
PUBLIC	??_R4bad_alloc@std@@6B@				; std::bad_alloc::`RTTI Complete Object Locator'
EXTRN	??2@YAPAXI@Z:PROC				; operator new
EXTRN	??3@YAXPAXI@Z:PROC				; operator delete
EXTRN	_atexit:PROC
EXTRN	__Init_thread_header:PROC
EXTRN	__Init_thread_abort:PROC
EXTRN	__Init_thread_footer:PROC
EXTRN	__invoke_watson:PROC
EXTRN	__CrtDbgReport:PROC
EXTRN	??0_Lockit@std@@QAE@H@Z:PROC			; std::_Lockit::_Lockit
EXTRN	??1_Lockit@std@@QAE@XZ:PROC			; std::_Lockit::~_Lockit
EXTRN	___std_exception_copy:PROC
EXTRN	___std_exception_destroy:PROC
EXTRN	??_Eexception@std@@UAEPAXI@Z:PROC		; std::exception::`vector deleting destructor'
EXTRN	??_Ebad_alloc@std@@UAEPAXI@Z:PROC		; std::bad_alloc::`vector deleting destructor'
EXTRN	??_Ebad_array_new_length@std@@UAEPAXI@Z:PROC	; std::bad_array_new_length::`vector deleting destructor'
EXTRN	?_Xlength_error@std@@YAXPBD@Z:PROC		; std::_Xlength_error
EXTRN	__wassert:PROC
EXTRN	@_RTC_CheckStackVars@8:PROC
EXTRN	@__security_check_cookie@4:PROC
EXTRN	__CxxThrowException@8:PROC
EXTRN	__RTC_CheckEsp:PROC
EXTRN	__RTC_InitBase:PROC
EXTRN	__RTC_Shutdown:PROC
EXTRN	___CxxFrameHandler3:PROC
EXTRN	__Init_thread_epoch:DWORD
EXTRN	??_7type_info@@6B@:QWORD			; type_info::`vftable'
EXTRN	___security_cookie:DWORD
EXTRN	__tls_array:DWORD
EXTRN	__tls_index:DWORD
;	COMDAT ?instance@?1??Instance@EntityManager@@SAPAV2@XZ@4V2@A
_BSS	SEGMENT
?instance@?1??Instance@EntityManager@@SAPAV2@XZ@4V2@A DB 0cH DUP (?) ; `EntityManager::Instance'::`2'::instance
_BSS	ENDS
;	COMDAT ?$TSS0@?1??Instance@EntityManager@@SAPAV2@XZ@4HA
_BSS	SEGMENT
?$TSS0@?1??Instance@EntityManager@@SAPAV2@XZ@4HA DD 01H DUP (?) ; `EntityManager::Instance'::`2'::$TSS0
_BSS	ENDS
;	COMDAT rtc$TMZ
rtc$TMZ	SEGMENT
__RTC_Shutdown.rtc$TMZ DD FLAT:__RTC_Shutdown
rtc$TMZ	ENDS
;	COMDAT rtc$IMZ
rtc$IMZ	SEGMENT
__RTC_InitBase.rtc$IMZ DD FLAT:__RTC_InitBase
rtc$IMZ	ENDS
;	COMDAT ??_R4bad_alloc@std@@6B@
rdata$r	SEGMENT
??_R4bad_alloc@std@@6B@ DD 00H				; std::bad_alloc::`RTTI Complete Object Locator'
	DD	00H
	DD	00H
	DD	FLAT:??_R0?AVbad_alloc@std@@@8
	DD	FLAT:??_R3bad_alloc@std@@8
rdata$r	ENDS
;	COMDAT ??_R2bad_alloc@std@@8
rdata$r	SEGMENT
??_R2bad_alloc@std@@8 DD FLAT:??_R1A@?0A@EA@bad_alloc@std@@8 ; std::bad_alloc::`RTTI Base Class Array'
	DD	FLAT:??_R1A@?0A@EA@exception@std@@8
rdata$r	ENDS
;	COMDAT ??_R3bad_alloc@std@@8
rdata$r	SEGMENT
??_R3bad_alloc@std@@8 DD 00H				; std::bad_alloc::`RTTI Class Hierarchy Descriptor'
	DD	00H
	DD	02H
	DD	FLAT:??_R2bad_alloc@std@@8
rdata$r	ENDS
;	COMDAT ??_R1A@?0A@EA@bad_alloc@std@@8
rdata$r	SEGMENT
??_R1A@?0A@EA@bad_alloc@std@@8 DD FLAT:??_R0?AVbad_alloc@std@@@8 ; std::bad_alloc::`RTTI Base Class Descriptor at (0,-1,0,64)'
	DD	01H
	DD	00H
	DD	0ffffffffH
	DD	00H
	DD	040H
	DD	FLAT:??_R3bad_alloc@std@@8
rdata$r	ENDS
;	COMDAT ??_R1A@?0A@EA@bad_array_new_length@std@@8
rdata$r	SEGMENT
??_R1A@?0A@EA@bad_array_new_length@std@@8 DD FLAT:??_R0?AVbad_array_new_length@std@@@8 ; std::bad_array_new_length::`RTTI Base Class Descriptor at (0,-1,0,64)'
	DD	02H
	DD	00H
	DD	0ffffffffH
	DD	00H
	DD	040H
	DD	FLAT:??_R3bad_array_new_length@std@@8
rdata$r	ENDS
;	COMDAT ??_R2bad_array_new_length@std@@8
rdata$r	SEGMENT
??_R2bad_array_new_length@std@@8 DD FLAT:??_R1A@?0A@EA@bad_array_new_length@std@@8 ; std::bad_array_new_length::`RTTI Base Class Array'
	DD	FLAT:??_R1A@?0A@EA@bad_alloc@std@@8
	DD	FLAT:??_R1A@?0A@EA@exception@std@@8
rdata$r	ENDS
;	COMDAT ??_R3bad_array_new_length@std@@8
rdata$r	SEGMENT
??_R3bad_array_new_length@std@@8 DD 00H			; std::bad_array_new_length::`RTTI Class Hierarchy Descriptor'
	DD	00H
	DD	03H
	DD	FLAT:??_R2bad_array_new_length@std@@8
rdata$r	ENDS
;	COMDAT ??_R4bad_array_new_length@std@@6B@
rdata$r	SEGMENT
??_R4bad_array_new_length@std@@6B@ DD 00H		; std::bad_array_new_length::`RTTI Complete Object Locator'
	DD	00H
	DD	00H
	DD	FLAT:??_R0?AVbad_array_new_length@std@@@8
	DD	FLAT:??_R3bad_array_new_length@std@@8
rdata$r	ENDS
;	COMDAT ??_R1A@?0A@EA@exception@std@@8
rdata$r	SEGMENT
??_R1A@?0A@EA@exception@std@@8 DD FLAT:??_R0?AVexception@std@@@8 ; std::exception::`RTTI Base Class Descriptor at (0,-1,0,64)'
	DD	00H
	DD	00H
	DD	0ffffffffH
	DD	00H
	DD	040H
	DD	FLAT:??_R3exception@std@@8
rdata$r	ENDS
;	COMDAT ??_R2exception@std@@8
rdata$r	SEGMENT
??_R2exception@std@@8 DD FLAT:??_R1A@?0A@EA@exception@std@@8 ; std::exception::`RTTI Base Class Array'
rdata$r	ENDS
;	COMDAT ??_R3exception@std@@8
rdata$r	SEGMENT
??_R3exception@std@@8 DD 00H				; std::exception::`RTTI Class Hierarchy Descriptor'
	DD	00H
	DD	01H
	DD	FLAT:??_R2exception@std@@8
rdata$r	ENDS
;	COMDAT ??_R4exception@std@@6B@
rdata$r	SEGMENT
??_R4exception@std@@6B@ DD 00H				; std::exception::`RTTI Complete Object Locator'
	DD	00H
	DD	00H
	DD	FLAT:??_R0?AVexception@std@@@8
	DD	FLAT:??_R3exception@std@@8
rdata$r	ENDS
;	COMDAT ??_C@_0BD@FEEMDEPI@invalid?5comparator@
CONST	SEGMENT
??_C@_0BD@FEEMDEPI@invalid?5comparator@ DB 'invalid comparator', 00H ; `string'
CONST	ENDS
;	COMDAT ??_C@_0DG@KGHKKGBC@null?5pointer?5cannot?5point?5to?5a?5@
CONST	SEGMENT
??_C@_0DG@KGHKKGBC@null?5pointer?5cannot?5point?5to?5a?5@ DB 'null pointe'
	DB	'r cannot point to a block of non-zero size', 00H ; `string'
CONST	ENDS
;	COMDAT ??_C@_0CI@OKFEHCEB@cannot?5dereference?5end?5map?1set?5@
CONST	SEGMENT
??_C@_0CI@OKFEHCEB@cannot?5dereference?5end?5map?1set?5@ DB 'cannot deref'
	DB	'erence end map/set iterator', 00H		; `string'
CONST	ENDS
;	COMDAT ??_C@_0DG@LCFNIIPB@cannot?5dereference?5value?9initia@
CONST	SEGMENT
??_C@_0DG@LCFNIIPB@cannot?5dereference?5value?9initia@ DB 'cannot derefer'
	DB	'ence value-initialized map/set iterator', 00H ; `string'
CONST	ENDS
;	COMDAT ??_C@_0BP@OLDKBHLM@map?1set?5iterators?5incompatible@
CONST	SEGMENT
??_C@_0BP@OLDKBHLM@map?1set?5iterators?5incompatible@ DB 'map/set iterato'
	DB	'rs incompatible', 00H			; `string'
CONST	ENDS
;	COMDAT ??_C@_0CE@JAJNKOFK@cannot?5erase?5map?1set?5end?$CI?$CJ?5iter@
CONST	SEGMENT
??_C@_0CE@JAJNKOFK@cannot?5erase?5map?1set?5end?$CI?$CJ?5iter@ DB 'cannot'
	DB	' erase map/set end() iterator', 00H		; `string'
CONST	ENDS
;	COMDAT ??_C@_0GA@IINHIBAD@C?3?2Program?5Files?2Microsoft?5Visu@
CONST	SEGMENT
??_C@_0GA@IINHIBAD@C?3?2Program?5Files?2Microsoft?5Visu@ DB 'C:\Program F'
	DB	'iles\Microsoft Visual Studio\2022\Community\VC\Tools\MSVC\14.'
	DB	'44.35207\include\xtree', 00H		; `string'
CONST	ENDS
;	COMDAT ??_C@_0DA@GGPHOHEL@map?1set?5erase?5iterator?5from?5inc@
CONST	SEGMENT
??_C@_0DA@GGPHOHEL@map?1set?5erase?5iterator?5from?5inc@ DB 'map/set eras'
	DB	'e iterator from incorrect container', 00H	; `string'
CONST	ENDS
;	COMDAT ??_C@_0GD@GOKHNLI@C?3?2Program?5Files?2Microsoft?5Visu@
CONST	SEGMENT
??_C@_0GD@GOKHNLI@C?3?2Program?5Files?2Microsoft?5Visu@ DB 'C:\Program Fi'
	DB	'les\Microsoft Visual Studio\2022\Community\VC\Tools\MSVC\14.4'
	DB	'4.35207\include\xutility', 00H		; `string'
CONST	ENDS
;	COMDAT ??_C@_0BB@GCADKGJO@map?1set?5too?5long@
CONST	SEGMENT
??_C@_0BB@GCADKGJO@map?1set?5too?5long@ DB 'map/set too long', 00H ; `string'
CONST	ENDS
;	COMDAT ??_C@_0BJ@LFDBABJJ@ITERATOR?5LIST?5CORRUPTED?$CB@
CONST	SEGMENT
??_C@_0BJ@LFDBABJJ@ITERATOR?5LIST?5CORRUPTED?$CB@ DB 'ITERATOR LIST CORRU'
	DB	'PTED!', 00H					; `string'
CONST	ENDS
;	COMDAT ??_C@_0GC@KLECFGLI@C?3?2Program?5Files?2Microsoft?5Visu@
CONST	SEGMENT
??_C@_0GC@KLECFGLI@C?3?2Program?5Files?2Microsoft?5Visu@ DB 'C:\Program F'
	DB	'iles\Microsoft Visual Studio\2022\Community\VC\Tools\MSVC\14.'
	DB	'44.35207\include\xmemory', 00H		; `string'
CONST	ENDS
;	COMDAT ??_C@_02DKCKIIND@?$CFs@
CONST	SEGMENT
??_C@_02DKCKIIND@?$CFs@ DB '%s', 00H			; `string'
CONST	ENDS
;	COMDAT ??_C@_0BB@FCMFBGOM@invalid?5argument@
CONST	SEGMENT
??_C@_0BB@FCMFBGOM@invalid?5argument@ DB 'invalid argument', 00H ; `string'
CONST	ENDS
;	COMDAT __CT??_R0?AVbad_alloc@std@@@8??0bad_alloc@std@@QAE@ABV01@@Z12
xdata$x	SEGMENT
__CT??_R0?AVbad_alloc@std@@@8??0bad_alloc@std@@QAE@ABV01@@Z12 DD 010H
	DD	FLAT:??_R0?AVbad_alloc@std@@@8
	DD	00H
	DD	0ffffffffH
	ORG $+4
	DD	0cH
	DD	FLAT:??0bad_alloc@std@@QAE@ABV01@@Z
xdata$x	ENDS
;	COMDAT ??_R0?AVbad_alloc@std@@@8
data$r	SEGMENT
??_R0?AVbad_alloc@std@@@8 DD FLAT:??_7type_info@@6B@	; std::bad_alloc `RTTI Type Descriptor'
	DD	00H
	DB	'.?AVbad_alloc@std@@', 00H
data$r	ENDS
;	COMDAT __CT??_R0?AVbad_array_new_length@std@@@8??0bad_array_new_length@std@@QAE@ABV01@@Z12
xdata$x	SEGMENT
__CT??_R0?AVbad_array_new_length@std@@@8??0bad_array_new_length@std@@QAE@ABV01@@Z12 DD 00H
	DD	FLAT:??_R0?AVbad_array_new_length@std@@@8
	DD	00H
	DD	0ffffffffH
	ORG $+4
	DD	0cH
	DD	FLAT:??0bad_array_new_length@std@@QAE@ABV01@@Z
xdata$x	ENDS
;	COMDAT ??_R0?AVbad_array_new_length@std@@@8
data$r	SEGMENT
??_R0?AVbad_array_new_length@std@@@8 DD FLAT:??_7type_info@@6B@ ; std::bad_array_new_length `RTTI Type Descriptor'
	DD	00H
	DB	'.?AVbad_array_new_length@std@@', 00H
data$r	ENDS
;	COMDAT __CTA3?AVbad_array_new_length@std@@
xdata$x	SEGMENT
__CTA3?AVbad_array_new_length@std@@ DD 03H
	DD	FLAT:__CT??_R0?AVbad_array_new_length@std@@@8??0bad_array_new_length@std@@QAE@ABV01@@Z12
	DD	FLAT:__CT??_R0?AVbad_alloc@std@@@8??0bad_alloc@std@@QAE@ABV01@@Z12
	DD	FLAT:__CT??_R0?AVexception@std@@@8??0exception@std@@QAE@ABV01@@Z12
xdata$x	ENDS
;	COMDAT __TI3?AVbad_array_new_length@std@@
xdata$x	SEGMENT
__TI3?AVbad_array_new_length@std@@ DD 00H
	DD	FLAT:??1bad_array_new_length@std@@UAE@XZ
	DD	00H
	DD	FLAT:__CTA3?AVbad_array_new_length@std@@
xdata$x	ENDS
;	COMDAT __CT??_R0?AVexception@std@@@8??0exception@std@@QAE@ABV01@@Z12
xdata$x	SEGMENT
__CT??_R0?AVexception@std@@@8??0exception@std@@QAE@ABV01@@Z12 DD 00H
	DD	FLAT:??_R0?AVexception@std@@@8
	DD	00H
	DD	0ffffffffH
	ORG $+4
	DD	0cH
	DD	FLAT:??0exception@std@@QAE@ABV01@@Z
xdata$x	ENDS
;	COMDAT ??_R0?AVexception@std@@@8
data$r	SEGMENT
??_R0?AVexception@std@@@8 DD FLAT:??_7type_info@@6B@	; std::exception `RTTI Type Descriptor'
	DD	00H
	DB	'.?AVexception@std@@', 00H
data$r	ENDS
;	COMDAT ??_C@_0BF@KINCDENJ@bad?5array?5new?5length@
CONST	SEGMENT
??_C@_0BF@KINCDENJ@bad?5array?5new?5length@ DB 'bad array new length', 00H ; `string'
CONST	ENDS
;	COMDAT ??_7bad_array_new_length@std@@6B@
CONST	SEGMENT
??_7bad_array_new_length@std@@6B@ DD FLAT:??_R4bad_array_new_length@std@@6B@ ; std::bad_array_new_length::`vftable'
	DD	FLAT:??_Ebad_array_new_length@std@@UAEPAXI@Z
	DD	FLAT:?what@exception@std@@UBEPBDXZ
CONST	ENDS
;	COMDAT ??_7bad_alloc@std@@6B@
CONST	SEGMENT
??_7bad_alloc@std@@6B@ DD FLAT:??_R4bad_alloc@std@@6B@	; std::bad_alloc::`vftable'
	DD	FLAT:??_Ebad_alloc@std@@UAEPAXI@Z
	DD	FLAT:?what@exception@std@@UBEPBDXZ
CONST	ENDS
;	COMDAT ??_C@_0BC@EOODALEL@Unknown?5exception@
CONST	SEGMENT
??_C@_0BC@EOODALEL@Unknown?5exception@ DB 'Unknown exception', 00H ; `string'
CONST	ENDS
;	COMDAT ??_7exception@std@@6B@
CONST	SEGMENT
??_7exception@std@@6B@ DD FLAT:??_R4exception@std@@6B@	; std::exception::`vftable'
	DD	FLAT:??_Eexception@std@@UAEPAXI@Z
	DD	FLAT:?what@exception@std@@UBEPBDXZ
CONST	ENDS
;	COMDAT voltbl
voltbl	SEGMENT
_volmd	DB	09H
voltbl	ENDS
;	COMDAT xdata$x
xdata$x	SEGMENT
__ehfuncinfo$??$_Deallocate@$07@std@@YAXPAXI@Z DD 019930522H
	DD	00H
	DD	00H
	DD	2 DUP(00H)
	DD	2 DUP(00H)
	DD	00H
	DD	05H
xdata$x	ENDS
;	COMDAT voltbl
voltbl	SEGMENT
_volmd	DB	016H
voltbl	ENDS
;	COMDAT xdata$x
xdata$x	SEGMENT
__unwindtable$??$?0U?$pair@HPAVBaseGameEntity@@@std@@@?$_Tree_temp_node@V?$allocator@U?$_Tree_node@U?$pair@$$CBHPAVBaseGameEntity@@@std@@PAX@std@@@std@@@std@@QAE@AAV?$allocator@U?$_Tree_node@U?$pair@$$CBHPAVBaseGameEntity@@@std@@PAX@std@@@1@PAU?$_Tree_node@U?$pair@$$CBHPAVBaseGameEntity@@@std@@PAX@1@$$QAU?$pair@HPAVBaseGameEntity@@@1@@Z DD 0ffffffffH
	DD	FLAT:__unwindfunclet$??$?0U?$pair@HPAVBaseGameEntity@@@std@@@?$_Tree_temp_node@V?$allocator@U?$_Tree_node@U?$pair@$$CBHPAVBaseGameEntity@@@std@@PAX@std@@@std@@@std@@QAE@AAV?$allocator@U?$_Tree_node@U?$pair@$$CBHPAVBaseGameEntity@@@std@@PAX@std@@@1@PAU?$_Tree_node@U?$pair@$$CBHPAVBaseGameEntity@@@std@@PAX@1@$$QAU?$pair@HPAVBaseGameEntity@@@1@@Z$0
__ehfuncinfo$??$?0U?$pair@HPAVBaseGameEntity@@@std@@@?$_Tree_temp_node@V?$allocator@U?$_Tree_node@U?$pair@$$CBHPAVBaseGameEntity@@@std@@PAX@std@@@std@@@std@@QAE@AAV?$allocator@U?$_Tree_node@U?$pair@$$CBHPAVBaseGameEntity@@@std@@PAX@std@@@1@PAU?$_Tree_node@U?$pair@$$CBHPAVBaseGameEntity@@@std@@PAX@1@$$QAU?$pair@HPAVBaseGameEntity@@@1@@Z DD 019930522H
	DD	01H
	DD	FLAT:__unwindtable$??$?0U?$pair@HPAVBaseGameEntity@@@std@@@?$_Tree_temp_node@V?$allocator@U?$_Tree_node@U?$pair@$$CBHPAVBaseGameEntity@@@std@@PAX@std@@@std@@@std@@QAE@AAV?$allocator@U?$_Tree_node@U?$pair@$$CBHPAVBaseGameEntity@@@std@@PAX@std@@@1@PAU?$_Tree_node@U?$pair@$$CBHPAVBaseGameEntity@@@std@@PAX@1@$$QAU?$pair@HPAVBaseGameEntity@@@1@@Z
	DD	2 DUP(00H)
	DD	2 DUP(00H)
	DD	00H
	DD	01H
xdata$x	ENDS
;	COMDAT voltbl
voltbl	SEGMENT
_volmd	DB	09H
voltbl	ENDS
;	COMDAT xdata$x
xdata$x	SEGMENT
__ehfuncinfo$??1?$_Tree_temp_node@V?$allocator@U?$_Tree_node@U?$pair@$$CBHPAVBaseGameEntity@@@std@@PAX@std@@@std@@@std@@QAE@XZ DD 019930522H
	DD	00H
	DD	00H
	DD	2 DUP(00H)
	DD	2 DUP(00H)
	DD	00H
	DD	05H
xdata$x	ENDS
;	COMDAT voltbl
voltbl	SEGMENT
_volmd	DB	016H
voltbl	ENDS
;	COMDAT xdata$x
xdata$x	SEGMENT
__unwindtable$??0?$_Tree_temp_node_alloc@V?$allocator@U?$_Tree_node@U?$pair@$$CBHPAVBaseGameEntity@@@std@@PAX@std@@@std@@@std@@QAE@AAV?$allocator@U?$_Tree_node@U?$pair@$$CBHPAVBaseGameEntity@@@std@@PAX@std@@@1@@Z DD 0ffffffffH
	DD	FLAT:__unwindfunclet$??0?$_Tree_temp_node_alloc@V?$allocator@U?$_Tree_node@U?$pair@$$CBHPAVBaseGameEntity@@@std@@PAX@std@@@std@@@std@@QAE@AAV?$allocator@U?$_Tree_node@U?$pair@$$CBHPAVBaseGameEntity@@@std@@PAX@std@@@1@@Z$0
__ehfuncinfo$??0?$_Tree_temp_node_alloc@V?$allocator@U?$_Tree_node@U?$pair@$$CBHPAVBaseGameEntity@@@std@@PAX@std@@@std@@@std@@QAE@AAV?$allocator@U?$_Tree_node@U?$pair@$$CBHPAVBaseGameEntity@@@std@@PAX@std@@@1@@Z DD 019930522H
	DD	01H
	DD	FLAT:__unwindtable$??0?$_Tree_temp_node_alloc@V?$allocator@U?$_Tree_node@U?$pair@$$CBHPAVBaseGameEntity@@@std@@PAX@std@@@std@@@std@@QAE@AAV?$allocator@U?$_Tree_node@U?$pair@$$CBHPAVBaseGameEntity@@@std@@PAX@std@@@1@@Z
	DD	2 DUP(00H)
	DD	2 DUP(00H)
	DD	00H
	DD	01H
xdata$x	ENDS
;	COMDAT voltbl
voltbl	SEGMENT
_volmd	DB	09H
voltbl	ENDS
;	COMDAT xdata$x
xdata$x	SEGMENT
__ehfuncinfo$??$_Freenode@V?$allocator@U?$_Tree_node@U?$pair@$$CBHPAVBaseGameEntity@@@std@@PAX@std@@@std@@@?$_Tree_node@U?$pair@$$CBHPAVBaseGameEntity@@@std@@PAX@std@@SAXAAV?$allocator@U?$_Tree_node@U?$pair@$$CBHPAVBaseGameEntity@@@std@@PAX@std@@@1@PAU01@@Z DD 019930522H
	DD	00H
	DD	00H
	DD	2 DUP(00H)
	DD	2 DUP(00H)
	DD	00H
	DD	05H
xdata$x	ENDS
voltbl	SEGMENT
_volmd	DD	0ffffffffH
	DDSymXIndex: 	FLAT:__unwindfunclet$?Instance@EntityManager@@SAPAV1@XZ$0
	DD	01aH
voltbl	ENDS
xdata$x	SEGMENT
__unwindtable$?Instance@EntityManager@@SAPAV1@XZ DD 0ffffffffH
	DD	FLAT:__unwindfunclet$?Instance@EntityManager@@SAPAV1@XZ$0
__ehfuncinfo$?Instance@EntityManager@@SAPAV1@XZ DD 019930522H
	DD	01H
	DD	FLAT:__unwindtable$?Instance@EntityManager@@SAPAV1@XZ
	DD	2 DUP(00H)
	DD	2 DUP(00H)
	DD	00H
	DD	01H
xdata$x	ENDS
;	COMDAT voltbl
voltbl	SEGMENT
_volmd	DB	016H
voltbl	ENDS
;	COMDAT xdata$x
xdata$x	SEGMENT
__unwindtable$?_Alloc_sentinel_and_proxy@?$_Tree@V?$_Tmap_traits@HPAVBaseGameEntity@@U?$less@H@std@@V?$allocator@U?$pair@$$CBHPAVBaseGameEntity@@@std@@@3@$0A@@std@@@std@@IAEXXZ DD 0ffffffffH
	DD	FLAT:__unwindfunclet$?_Alloc_sentinel_and_proxy@?$_Tree@V?$_Tmap_traits@HPAVBaseGameEntity@@U?$less@H@std@@V?$allocator@U?$pair@$$CBHPAVBaseGameEntity@@@std@@@3@$0A@@std@@@std@@IAEXXZ$0
__ehfuncinfo$?_Alloc_sentinel_and_proxy@?$_Tree@V?$_Tmap_traits@HPAVBaseGameEntity@@U?$less@H@std@@V?$allocator@U?$pair@$$CBHPAVBaseGameEntity@@@std@@@3@$0A@@std@@@std@@IAEXXZ DD 019930522H
	DD	01H
	DD	FLAT:__unwindtable$?_Alloc_sentinel_and_proxy@?$_Tree@V?$_Tmap_traits@HPAVBaseGameEntity@@U?$less@H@std@@V?$allocator@U?$pair@$$CBHPAVBaseGameEntity@@@std@@@3@$0A@@std@@@std@@IAEXXZ
	DD	2 DUP(00H)
	DD	2 DUP(00H)
	DD	00H
	DD	01H
xdata$x	ENDS
; Function compile flags: /Odtp /RTCsu
; File C:\Program Files\Microsoft Visual Studio\2022\Community\VC\Tools\MSVC\14.44.35207\include\type_traits
;	COMDAT ??$forward@PAVBaseGameEntity@@@std@@YA$$QAPAVBaseGameEntity@@AAPAV1@@Z
_TEXT	SEGMENT
__Arg$ = 8						; size = 4
??$forward@PAVBaseGameEntity@@@std@@YA$$QAPAVBaseGameEntity@@AAPAV1@@Z PROC ; std::forward<BaseGameEntity *>, COMDAT

; 1501 : _NODISCARD _MSVC_INTRINSIC constexpr _Ty&& forward(remove_reference_t<_Ty>& _Arg) noexcept {

	push	ebp
	mov	ebp, esp

; 1502 :     return static_cast<_Ty&&>(_Arg);

	mov	eax, DWORD PTR __Arg$[ebp]

; 1503 : }

	pop	ebp
	ret	0
??$forward@PAVBaseGameEntity@@@std@@YA$$QAPAVBaseGameEntity@@AAPAV1@@Z ENDP ; std::forward<BaseGameEntity *>
_TEXT	ENDS
; Function compile flags: /Odtp /RTCsu
; File C:\Program Files\Microsoft Visual Studio\2022\Community\VC\Tools\MSVC\14.44.35207\include\xmemory
;	COMDAT ??$_Get_size_of_n@$0BI@@std@@YAII@Z
_TEXT	SEGMENT
__Max_possible$1 = -8					; size = 4
__Overflow_is_possible$ = -1				; size = 1
__Count$ = 8						; size = 4
??$_Get_size_of_n@$0BI@@std@@YAII@Z PROC		; std::_Get_size_of_n<24>, COMDAT

; 112  : _NODISCARD constexpr size_t _Get_size_of_n(const size_t _Count) {

	push	ebp
	mov	ebp, esp
	sub	esp, 8
	mov	DWORD PTR [ebp-8], -858993460		; ccccccccH
	mov	DWORD PTR [ebp-4], -858993460		; ccccccccH

; 113  :     constexpr bool _Overflow_is_possible = _Ty_size > 1;

	mov	BYTE PTR __Overflow_is_possible$[ebp], 1

; 114  : 
; 115  :     if constexpr (_Overflow_is_possible) {
; 116  :         constexpr size_t _Max_possible = static_cast<size_t>(-1) / _Ty_size;

	mov	DWORD PTR __Max_possible$1[ebp], 178956970 ; 0aaaaaaaH

; 117  :         if (_Count > _Max_possible) {

	cmp	DWORD PTR __Count$[ebp], 178956970	; 0aaaaaaaH
	jbe	SHORT $LN2@Get_size_o

; 118  :             _Throw_bad_array_new_length(); // multiply overflow

	call	?_Throw_bad_array_new_length@std@@YAXXZ	; std::_Throw_bad_array_new_length
	npad	1
$LN2@Get_size_o:

; 119  :         }
; 120  :     }
; 121  : 
; 122  :     return _Count * _Ty_size;

	imul	eax, DWORD PTR __Count$[ebp], 24
$LN1@Get_size_o:

; 123  : }

	add	esp, 8
	cmp	ebp, esp
	call	__RTC_CheckEsp
	mov	esp, ebp
	pop	ebp
	ret	0
??$_Get_size_of_n@$0BI@@std@@YAII@Z ENDP		; std::_Get_size_of_n<24>
_TEXT	ENDS
; Function compile flags: /Odtp /RTCsu
; File C:\Program Files\Microsoft Visual Studio\2022\Community\VC\Tools\MSVC\14.44.35207\include\type_traits
;	COMDAT ??$forward@ABQAU?$_Tree_node@U?$pair@$$CBHPAVBaseGameEntity@@@std@@PAX@std@@@std@@YAABQAU?$_Tree_node@U?$pair@$$CBHPAVBaseGameEntity@@@std@@PAX@0@ABQAU10@@Z
_TEXT	SEGMENT
__Arg$ = 8						; size = 4
??$forward@ABQAU?$_Tree_node@U?$pair@$$CBHPAVBaseGameEntity@@@std@@PAX@std@@@std@@YAABQAU?$_Tree_node@U?$pair@$$CBHPAVBaseGameEntity@@@std@@PAX@0@ABQAU10@@Z PROC ; std::forward<std::_Tree_node<std::pair<int const ,BaseGameEntity *>,void *> * const &>, COMDAT

; 1501 : _NODISCARD _MSVC_INTRINSIC constexpr _Ty&& forward(remove_reference_t<_Ty>& _Arg) noexcept {

	push	ebp
	mov	ebp, esp

; 1502 :     return static_cast<_Ty&&>(_Arg);

	mov	eax, DWORD PTR __Arg$[ebp]

; 1503 : }

	pop	ebp
	ret	0
??$forward@ABQAU?$_Tree_node@U?$pair@$$CBHPAVBaseGameEntity@@@std@@PAX@std@@@std@@YAABQAU?$_Tree_node@U?$pair@$$CBHPAVBaseGameEntity@@@std@@PAX@0@ABQAU10@@Z ENDP ; std::forward<std::_Tree_node<std::pair<int const ,BaseGameEntity *>,void *> * const &>
_TEXT	ENDS
; Function compile flags: /Odtp /RTCsu
; File C:\Program Files\Microsoft Visual Studio\2022\Community\VC\Tools\MSVC\14.44.35207\include\type_traits
;	COMDAT ??$addressof@PAU?$_Tree_node@U?$pair@$$CBHPAVBaseGameEntity@@@std@@PAX@std@@@std@@YAPAPAU?$_Tree_node@U?$pair@$$CBHPAVBaseGameEntity@@@std@@PAX@0@AAPAU10@@Z
_TEXT	SEGMENT
__Val$ = 8						; size = 4
??$addressof@PAU?$_Tree_node@U?$pair@$$CBHPAVBaseGameEntity@@@std@@PAX@std@@@std@@YAPAPAU?$_Tree_node@U?$pair@$$CBHPAVBaseGameEntity@@@std@@PAX@0@AAPAU10@@Z PROC ; std::addressof<std::_Tree_node<std::pair<int const ,BaseGameEntity *>,void *> *>, COMDAT

; 1524 : _NODISCARD constexpr _Ty* addressof(_Ty& _Val) noexcept {

	push	ebp
	mov	ebp, esp

; 1525 :     return __builtin_addressof(_Val);

	mov	eax, DWORD PTR __Val$[ebp]

; 1526 : }

	pop	ebp
	ret	0
??$addressof@PAU?$_Tree_node@U?$pair@$$CBHPAVBaseGameEntity@@@std@@PAX@std@@@std@@YAPAPAU?$_Tree_node@U?$pair@$$CBHPAVBaseGameEntity@@@std@@PAX@0@AAPAU10@@Z ENDP ; std::addressof<std::_Tree_node<std::pair<int const ,BaseGameEntity *>,void *> *>
_TEXT	ENDS
; Function compile flags: /Odtp /RTCsu
; File C:\Program Files\Microsoft Visual Studio\2022\Community\VC\Tools\MSVC\14.44.35207\include\utility
;	COMDAT ??$exchange@PAU?$_Tree_node@U?$pair@$$CBHPAVBaseGameEntity@@@std@@PAX@std@@$$T@std@@YAPAU?$_Tree_node@U?$pair@$$CBHPAVBaseGameEntity@@@std@@PAX@0@AAPAU10@$$QA$$T@Z
_TEXT	SEGMENT
__Old_val$ = -4						; size = 4
__Val$ = 8						; size = 4
__New_val$ = 12						; size = 4
??$exchange@PAU?$_Tree_node@U?$pair@$$CBHPAVBaseGameEntity@@@std@@PAX@std@@$$T@std@@YAPAU?$_Tree_node@U?$pair@$$CBHPAVBaseGameEntity@@@std@@PAX@0@AAPAU10@$$QA$$T@Z PROC ; std::exchange<std::_Tree_node<std::pair<int const ,BaseGameEntity *>,void *> *,std::nullptr_t>, COMDAT

; 771  :     noexcept(conjunction_v<is_nothrow_move_constructible<_Ty>, is_nothrow_assignable<_Ty&, _Other>>) {

	push	ebp
	mov	ebp, esp
	push	ecx

; 772  :     // assign _New_val to _Val, return previous _Val
; 773  :     _Ty _Old_val = static_cast<_Ty&&>(_Val);

	mov	eax, DWORD PTR __Val$[ebp]
	mov	ecx, DWORD PTR [eax]
	mov	DWORD PTR __Old_val$[ebp], ecx

; 774  :     _Val         = static_cast<_Other&&>(_New_val);

	mov	edx, DWORD PTR __Val$[ebp]
	mov	eax, DWORD PTR __New_val$[ebp]
	mov	ecx, DWORD PTR [eax]
	mov	DWORD PTR [edx], ecx

; 775  :     return _Old_val;

	mov	eax, DWORD PTR __Old_val$[ebp]

; 776  : }

	mov	esp, ebp
	pop	ebp
	ret	0
??$exchange@PAU?$_Tree_node@U?$pair@$$CBHPAVBaseGameEntity@@@std@@PAX@std@@$$T@std@@YAPAU?$_Tree_node@U?$pair@$$CBHPAVBaseGameEntity@@@std@@PAX@0@AAPAU10@$$QA$$T@Z ENDP ; std::exchange<std::_Tree_node<std::pair<int const ,BaseGameEntity *>,void *> *,std::nullptr_t>
_TEXT	ENDS
; Function compile flags: /Odtp /RTCsu
; File C:\Program Files\Microsoft Visual Studio\2022\Community\VC\Tools\MSVC\14.44.35207\include\xutility
;	COMDAT ??$_Construct_in_place@PAU?$_Tree_node@U?$pair@$$CBHPAVBaseGameEntity@@@std@@PAX@std@@ABQAU12@@std@@YAXAAPAU?$_Tree_node@U?$pair@$$CBHPAVBaseGameEntity@@@std@@PAX@0@ABQAU10@@Z
_TEXT	SEGMENT
$T1 = -4						; size = 4
__Obj$ = 8						; size = 4
_<_Args_0>$ = 12					; size = 4
??$_Construct_in_place@PAU?$_Tree_node@U?$pair@$$CBHPAVBaseGameEntity@@@std@@PAX@std@@ABQAU12@@std@@YAXAAPAU?$_Tree_node@U?$pair@$$CBHPAVBaseGameEntity@@@std@@PAX@0@ABQAU10@@Z PROC ; std::_Construct_in_place<std::_Tree_node<std::pair<int const ,BaseGameEntity *>,void *> *,std::_Tree_node<std::pair<int const ,BaseGameEntity *>,void *> * const &>, COMDAT

; 469  :     noexcept(is_nothrow_constructible_v<_Ty, _Types...>) {

	push	ebp
	mov	ebp, esp
	push	ecx
	mov	DWORD PTR [ebp-4], -858993460		; ccccccccH

; 470  : #if _HAS_CXX20
; 471  :     if (_STD is_constant_evaluated()) {
; 472  :         _STD construct_at(_STD addressof(_Obj), _STD forward<_Types>(_Args)...);
; 473  :     } else
; 474  : #endif // _HAS_CXX20
; 475  :     {
; 476  :         ::new (static_cast<void*>(_STD addressof(_Obj))) _Ty(_STD forward<_Types>(_Args)...);

	mov	eax, DWORD PTR __Obj$[ebp]
	push	eax
	call	??$addressof@PAU?$_Tree_node@U?$pair@$$CBHPAVBaseGameEntity@@@std@@PAX@std@@@std@@YAPAPAU?$_Tree_node@U?$pair@$$CBHPAVBaseGameEntity@@@std@@PAX@0@AAPAU10@@Z ; std::addressof<std::_Tree_node<std::pair<int const ,BaseGameEntity *>,void *> *>
	add	esp, 4
	push	eax
	push	4
	call	??2@YAPAXIPAX@Z				; operator new
	add	esp, 8
	mov	DWORD PTR $T1[ebp], eax
	mov	ecx, DWORD PTR _<_Args_0>$[ebp]
	push	ecx
	call	??$forward@ABQAU?$_Tree_node@U?$pair@$$CBHPAVBaseGameEntity@@@std@@PAX@std@@@std@@YAABQAU?$_Tree_node@U?$pair@$$CBHPAVBaseGameEntity@@@std@@PAX@0@ABQAU10@@Z ; std::forward<std::_Tree_node<std::pair<int const ,BaseGameEntity *>,void *> * const &>
	add	esp, 4
	mov	edx, DWORD PTR $T1[ebp]
	mov	eax, DWORD PTR [eax]
	mov	DWORD PTR [edx], eax

; 477  :     }
; 478  : }

	add	esp, 4
	cmp	ebp, esp
	call	__RTC_CheckEsp
	mov	esp, ebp
	pop	ebp
	ret	0
??$_Construct_in_place@PAU?$_Tree_node@U?$pair@$$CBHPAVBaseGameEntity@@@std@@PAX@std@@ABQAU12@@std@@YAXAAPAU?$_Tree_node@U?$pair@$$CBHPAVBaseGameEntity@@@std@@PAX@0@ABQAU10@@Z ENDP ; std::_Construct_in_place<std::_Tree_node<std::pair<int const ,BaseGameEntity *>,void *> *,std::_Tree_node<std::pair<int const ,BaseGameEntity *>,void *> * const &>
_TEXT	ENDS
; Function compile flags: /Odtp /RTCsu
; File C:\Program Files\Microsoft Visual Studio\2022\Community\VC\Tools\MSVC\14.44.35207\include\type_traits
;	COMDAT ??$move@AAD@std@@YA$$QADAAD@Z
_TEXT	SEGMENT
__Arg$ = 8						; size = 4
??$move@AAD@std@@YA$$QADAAD@Z PROC			; std::move<char &>, COMDAT

; 1512 : _NODISCARD _MSVC_INTRINSIC constexpr remove_reference_t<_Ty>&& move(_Ty&& _Arg) noexcept {

	push	ebp
	mov	ebp, esp

; 1513 :     return static_cast<remove_reference_t<_Ty>&&>(_Arg);

	mov	eax, DWORD PTR __Arg$[ebp]

; 1514 : }

	pop	ebp
	ret	0
??$move@AAD@std@@YA$$QADAAD@Z ENDP			; std::move<char &>
_TEXT	ENDS
; Function compile flags: /Odtp /RTCsu
; File C:\Program Files\Microsoft Visual Studio\2022\Community\VC\Tools\MSVC\14.44.35207\include\xmemory
;	COMDAT ??$_Allocate_manually_vector_aligned@U_Default_allocate_traits@std@@@std@@YAPAXI@Z
_TEXT	SEGMENT
__Ptr$ = -12						; size = 4
__Ptr_container$ = -8					; size = 4
__Block_size$ = -4					; size = 4
__Bytes$ = 8						; size = 4
??$_Allocate_manually_vector_aligned@U_Default_allocate_traits@std@@@std@@YAPAXI@Z PROC ; std::_Allocate_manually_vector_aligned<std::_Default_allocate_traits>, COMDAT

; 182  : __declspec(allocator) void* _Allocate_manually_vector_aligned(const size_t _Bytes) {

	push	ebp
	mov	ebp, esp
	sub	esp, 12					; 0000000cH
	mov	DWORD PTR [ebp-12], -858993460		; ccccccccH
	mov	DWORD PTR [ebp-8], -858993460		; ccccccccH
	mov	DWORD PTR [ebp-4], -858993460		; ccccccccH

; 183  :     // allocate _Bytes manually aligned to at least _Big_allocation_alignment
; 184  :     const size_t _Block_size = _Non_user_size + _Bytes;

	mov	eax, DWORD PTR __Bytes$[ebp]
	add	eax, 39					; 00000027H
	mov	DWORD PTR __Block_size$[ebp], eax

; 185  :     if (_Block_size <= _Bytes) {

	mov	ecx, DWORD PTR __Block_size$[ebp]
	cmp	ecx, DWORD PTR __Bytes$[ebp]
	ja	SHORT $LN2@Allocate_m

; 186  :         _Throw_bad_array_new_length(); // add overflow

	call	?_Throw_bad_array_new_length@std@@YAXXZ	; std::_Throw_bad_array_new_length
	npad	1
$LN2@Allocate_m:

; 187  :     }
; 188  : 
; 189  :     const uintptr_t _Ptr_container = reinterpret_cast<uintptr_t>(_Traits::_Allocate(_Block_size));

	mov	edx, DWORD PTR __Block_size$[ebp]
	push	edx
	call	?_Allocate@_Default_allocate_traits@std@@SAPAXI@Z ; std::_Default_allocate_traits::_Allocate
	add	esp, 4
	mov	DWORD PTR __Ptr_container$[ebp], eax

; 190  :     _STL_VERIFY(_Ptr_container != 0, "invalid argument"); // validate even in release since we're doing p[-1]

	cmp	DWORD PTR __Ptr_container$[ebp], 0
	jne	SHORT $LN3@Allocate_m
	push	OFFSET $SG204961
	push	OFFSET $SG204962
	push	0
	push	190					; 000000beH
	push	OFFSET $SG204963
	push	2
	call	__CrtDbgReport
	add	esp, 24					; 00000018H
	cmp	eax, 1
	jne	SHORT $LN5@Allocate_m
	int	3
$LN5@Allocate_m:
	push	0
	push	0
	push	0
	push	0
	push	0
	call	__invoke_watson
	npad	1
$LN3@Allocate_m:

; 191  :     void* const _Ptr = reinterpret_cast<void*>((_Ptr_container + _Non_user_size) & ~(_Big_allocation_alignment - 1));

	mov	ecx, DWORD PTR __Ptr_container$[ebp]
	add	ecx, 39					; 00000027H
	and	ecx, -32				; ffffffe0H
	mov	DWORD PTR __Ptr$[ebp], ecx

; 192  :     static_cast<uintptr_t*>(_Ptr)[-1] = _Ptr_container;

	mov	edx, 4
	imul	eax, edx, -1
	mov	ecx, DWORD PTR __Ptr$[ebp]
	mov	edx, DWORD PTR __Ptr_container$[ebp]
	mov	DWORD PTR [ecx+eax], edx

; 193  : 
; 194  : #ifdef _DEBUG
; 195  :     static_cast<uintptr_t*>(_Ptr)[-2] = _Big_allocation_sentinel;

	mov	eax, 4
	imul	ecx, eax, -2
	mov	edx, DWORD PTR __Ptr$[ebp]
	mov	DWORD PTR [edx+ecx], -84215046		; fafafafaH

; 196  : #endif // defined(_DEBUG)
; 197  :     return _Ptr;

	mov	eax, DWORD PTR __Ptr$[ebp]
$LN1@Allocate_m:

; 198  : }

	add	esp, 12					; 0000000cH
	cmp	ebp, esp
	call	__RTC_CheckEsp
	mov	esp, ebp
	pop	ebp
	ret	0
??$_Allocate_manually_vector_aligned@U_Default_allocate_traits@std@@@std@@YAPAXI@Z ENDP ; std::_Allocate_manually_vector_aligned<std::_Default_allocate_traits>
_TEXT	ENDS
; Function compile flags: /Odtp /RTCsu
; File C:\Program Files\Microsoft Visual Studio\2022\Community\VC\Tools\MSVC\14.44.35207\include\type_traits
;	COMDAT ??$forward@PAU?$_Tree_node@U?$pair@$$CBHPAVBaseGameEntity@@@std@@PAX@std@@@std@@YA$$QAPAU?$_Tree_node@U?$pair@$$CBHPAVBaseGameEntity@@@std@@PAX@0@AAPAU10@@Z
_TEXT	SEGMENT
__Arg$ = 8						; size = 4
??$forward@PAU?$_Tree_node@U?$pair@$$CBHPAVBaseGameEntity@@@std@@PAX@std@@@std@@YA$$QAPAU?$_Tree_node@U?$pair@$$CBHPAVBaseGameEntity@@@std@@PAX@0@AAPAU10@@Z PROC ; std::forward<std::_Tree_node<std::pair<int const ,BaseGameEntity *>,void *> *>, COMDAT

; 1501 : _NODISCARD _MSVC_INTRINSIC constexpr _Ty&& forward(remove_reference_t<_Ty>& _Arg) noexcept {

	push	ebp
	mov	ebp, esp

; 1502 :     return static_cast<_Ty&&>(_Arg);

	mov	eax, DWORD PTR __Arg$[ebp]

; 1503 : }

	pop	ebp
	ret	0
??$forward@PAU?$_Tree_node@U?$pair@$$CBHPAVBaseGameEntity@@@std@@PAX@std@@@std@@YA$$QAPAU?$_Tree_node@U?$pair@$$CBHPAVBaseGameEntity@@@std@@PAX@0@AAPAU10@@Z ENDP ; std::forward<std::_Tree_node<std::pair<int const ,BaseGameEntity *>,void *> *>
_TEXT	ENDS
; Function compile flags: /Odtp /RTCsu
; File C:\Program Files\Microsoft Visual Studio\2022\Community\VC\Tools\MSVC\14.44.35207\include\xutility
;	COMDAT ??$_Construct_in_place@PAU?$_Tree_node@U?$pair@$$CBHPAVBaseGameEntity@@@std@@PAX@std@@AAPAU12@@std@@YAXAAPAU?$_Tree_node@U?$pair@$$CBHPAVBaseGameEntity@@@std@@PAX@0@0@Z
_TEXT	SEGMENT
$T1 = -4						; size = 4
__Obj$ = 8						; size = 4
_<_Args_0>$ = 12					; size = 4
??$_Construct_in_place@PAU?$_Tree_node@U?$pair@$$CBHPAVBaseGameEntity@@@std@@PAX@std@@AAPAU12@@std@@YAXAAPAU?$_Tree_node@U?$pair@$$CBHPAVBaseGameEntity@@@std@@PAX@0@0@Z PROC ; std::_Construct_in_place<std::_Tree_node<std::pair<int const ,BaseGameEntity *>,void *> *,std::_Tree_node<std::pair<int const ,BaseGameEntity *>,void *> * &>, COMDAT

; 469  :     noexcept(is_nothrow_constructible_v<_Ty, _Types...>) {

	push	ebp
	mov	ebp, esp
	push	ecx
	mov	DWORD PTR [ebp-4], -858993460		; ccccccccH

; 470  : #if _HAS_CXX20
; 471  :     if (_STD is_constant_evaluated()) {
; 472  :         _STD construct_at(_STD addressof(_Obj), _STD forward<_Types>(_Args)...);
; 473  :     } else
; 474  : #endif // _HAS_CXX20
; 475  :     {
; 476  :         ::new (static_cast<void*>(_STD addressof(_Obj))) _Ty(_STD forward<_Types>(_Args)...);

	mov	eax, DWORD PTR __Obj$[ebp]
	push	eax
	call	??$addressof@PAU?$_Tree_node@U?$pair@$$CBHPAVBaseGameEntity@@@std@@PAX@std@@@std@@YAPAPAU?$_Tree_node@U?$pair@$$CBHPAVBaseGameEntity@@@std@@PAX@0@AAPAU10@@Z ; std::addressof<std::_Tree_node<std::pair<int const ,BaseGameEntity *>,void *> *>
	add	esp, 4
	push	eax
	push	4
	call	??2@YAPAXIPAX@Z				; operator new
	add	esp, 8
	mov	DWORD PTR $T1[ebp], eax
	mov	ecx, DWORD PTR _<_Args_0>$[ebp]
	push	ecx
	call	??$forward@AAPAU?$_Tree_node@U?$pair@$$CBHPAVBaseGameEntity@@@std@@PAX@std@@@std@@YAAAPAU?$_Tree_node@U?$pair@$$CBHPAVBaseGameEntity@@@std@@PAX@0@AAPAU10@@Z ; std::forward<std::_Tree_node<std::pair<int const ,BaseGameEntity *>,void *> * &>
	add	esp, 4
	mov	edx, DWORD PTR $T1[ebp]
	mov	eax, DWORD PTR [eax]
	mov	DWORD PTR [edx], eax

; 477  :     }
; 478  : }

	add	esp, 4
	cmp	ebp, esp
	call	__RTC_CheckEsp
	mov	esp, ebp
	pop	ebp
	ret	0
??$_Construct_in_place@PAU?$_Tree_node@U?$pair@$$CBHPAVBaseGameEntity@@@std@@PAX@std@@AAPAU12@@std@@YAXAAPAU?$_Tree_node@U?$pair@$$CBHPAVBaseGameEntity@@@std@@PAX@0@0@Z ENDP ; std::_Construct_in_place<std::_Tree_node<std::pair<int const ,BaseGameEntity *>,void *> *,std::_Tree_node<std::pair<int const ,BaseGameEntity *>,void *> * &>
_TEXT	ENDS
; Function compile flags: /Odtp /RTCsu
; File C:\Program Files\Microsoft Visual Studio\2022\Community\VC\Tools\MSVC\14.44.35207\include\xmemory
;	COMDAT ??$construct@U?$pair@$$CBHPAVBaseGameEntity@@@std@@U?$pair@HPAVBaseGameEntity@@@2@@?$_Default_allocator_traits@V?$allocator@U?$_Tree_node@U?$pair@$$CBHPAVBaseGameEntity@@@std@@PAX@std@@@std@@@std@@SAXAAV?$allocator@U?$_Tree_node@U?$pair@$$CBHPAVBaseGameEntity@@@std@@PAX@std@@@1@QAU?$pair@$$CBHPAVBaseGameEntity@@@1@$$QAU?$pair@HPAVBaseGameEntity@@@1@@Z
_TEXT	SEGMENT
$T1 = -4						; size = 4
___formal$ = 8						; size = 4
__Ptr$ = 12						; size = 4
_<_Args_0>$ = 16					; size = 4
??$construct@U?$pair@$$CBHPAVBaseGameEntity@@@std@@U?$pair@HPAVBaseGameEntity@@@2@@?$_Default_allocator_traits@V?$allocator@U?$_Tree_node@U?$pair@$$CBHPAVBaseGameEntity@@@std@@PAX@std@@@std@@@std@@SAXAAV?$allocator@U?$_Tree_node@U?$pair@$$CBHPAVBaseGameEntity@@@std@@PAX@std@@@1@QAU?$pair@$$CBHPAVBaseGameEntity@@@1@$$QAU?$pair@HPAVBaseGameEntity@@@1@@Z PROC ; std::_Default_allocator_traits<std::allocator<std::_Tree_node<std::pair<int const ,BaseGameEntity *>,void *> > >::construct<std::pair<int const ,BaseGameEntity *>,std::pair<int,BaseGameEntity *> >, COMDAT

; 728  :     static _CONSTEXPR20 void construct(_Alloc&, _Objty* const _Ptr, _Types&&... _Args) {

	push	ebp
	mov	ebp, esp
	push	ecx
	mov	DWORD PTR [ebp-4], -858993460		; ccccccccH

; 729  : #if _HAS_CXX20
; 730  :         _STD construct_at(_Ptr, _STD forward<_Types>(_Args)...);
; 731  : #else // ^^^ _HAS_CXX20 / !_HAS_CXX20 vvv
; 732  :         ::new (const_cast<void*>(static_cast<const volatile void*>(_Ptr))) _Objty(_STD forward<_Types>(_Args)...);

	mov	eax, DWORD PTR __Ptr$[ebp]
	push	eax
	push	8
	call	??2@YAPAXIPAX@Z				; operator new
	add	esp, 8
	mov	DWORD PTR $T1[ebp], eax
	mov	ecx, DWORD PTR _<_Args_0>$[ebp]
	push	ecx
	call	??$forward@U?$pair@HPAVBaseGameEntity@@@std@@@std@@YA$$QAU?$pair@HPAVBaseGameEntity@@@0@AAU10@@Z ; std::forward<std::pair<int,BaseGameEntity *> >
	add	esp, 4
	push	eax
	mov	ecx, DWORD PTR $T1[ebp]
	call	??$?0HPAVBaseGameEntity@@$0A@@?$pair@$$CBHPAVBaseGameEntity@@@std@@QAE@$$QAU?$pair@HPAVBaseGameEntity@@@1@@Z ; std::pair<int const ,BaseGameEntity *>::pair<int const ,BaseGameEntity *><int,BaseGameEntity *,0>
	npad	1

; 733  : #endif // ^^^ !_HAS_CXX20 ^^^
; 734  :     }

	add	esp, 4
	cmp	ebp, esp
	call	__RTC_CheckEsp
	mov	esp, ebp
	pop	ebp
	ret	0
??$construct@U?$pair@$$CBHPAVBaseGameEntity@@@std@@U?$pair@HPAVBaseGameEntity@@@2@@?$_Default_allocator_traits@V?$allocator@U?$_Tree_node@U?$pair@$$CBHPAVBaseGameEntity@@@std@@PAX@std@@@std@@@std@@SAXAAV?$allocator@U?$_Tree_node@U?$pair@$$CBHPAVBaseGameEntity@@@std@@PAX@std@@@1@QAU?$pair@$$CBHPAVBaseGameEntity@@@1@$$QAU?$pair@HPAVBaseGameEntity@@@1@@Z ENDP ; std::_Default_allocator_traits<std::allocator<std::_Tree_node<std::pair<int const ,BaseGameEntity *>,void *> > >::construct<std::pair<int const ,BaseGameEntity *>,std::pair<int,BaseGameEntity *> >
_TEXT	ENDS
; Function compile flags: /Odtp /RTCsu
; File C:\Program Files\Microsoft Visual Studio\2022\Community\VC\Tools\MSVC\14.44.35207\include\type_traits
;	COMDAT ??$forward@_N@std@@YA$$QA_NAA_N@Z
_TEXT	SEGMENT
__Arg$ = 8						; size = 4
??$forward@_N@std@@YA$$QA_NAA_N@Z PROC			; std::forward<bool>, COMDAT

; 1501 : _NODISCARD _MSVC_INTRINSIC constexpr _Ty&& forward(remove_reference_t<_Ty>& _Arg) noexcept {

	push	ebp
	mov	ebp, esp

; 1502 :     return static_cast<_Ty&&>(_Arg);

	mov	eax, DWORD PTR __Arg$[ebp]

; 1503 : }

	pop	ebp
	ret	0
??$forward@_N@std@@YA$$QA_NAA_N@Z ENDP			; std::forward<bool>
_TEXT	ENDS
; Function compile flags: /Odtp /RTCsu
; File C:\Program Files\Microsoft Visual Studio\2022\Community\VC\Tools\MSVC\14.44.35207\include\type_traits
;	COMDAT ??$forward@AAPAU?$_Tree_node@U?$pair@$$CBHPAVBaseGameEntity@@@std@@PAX@std@@@std@@YAAAPAU?$_Tree_node@U?$pair@$$CBHPAVBaseGameEntity@@@std@@PAX@0@AAPAU10@@Z
_TEXT	SEGMENT
__Arg$ = 8						; size = 4
??$forward@AAPAU?$_Tree_node@U?$pair@$$CBHPAVBaseGameEntity@@@std@@PAX@std@@@std@@YAAAPAU?$_Tree_node@U?$pair@$$CBHPAVBaseGameEntity@@@std@@PAX@0@AAPAU10@@Z PROC ; std::forward<std::_Tree_node<std::pair<int const ,BaseGameEntity *>,void *> * &>, COMDAT

; 1501 : _NODISCARD _MSVC_INTRINSIC constexpr _Ty&& forward(remove_reference_t<_Ty>& _Arg) noexcept {

	push	ebp
	mov	ebp, esp

; 1502 :     return static_cast<_Ty&&>(_Arg);

	mov	eax, DWORD PTR __Arg$[ebp]

; 1503 : }

	pop	ebp
	ret	0
??$forward@AAPAU?$_Tree_node@U?$pair@$$CBHPAVBaseGameEntity@@@std@@PAX@std@@@std@@YAAAPAU?$_Tree_node@U?$pair@$$CBHPAVBaseGameEntity@@@std@@PAX@0@AAPAU10@@Z ENDP ; std::forward<std::_Tree_node<std::pair<int const ,BaseGameEntity *>,void *> * &>
_TEXT	ENDS
; Function compile flags: /Odtp /RTCsu
; File C:\Program Files\Microsoft Visual Studio\2022\Community\VC\Tools\MSVC\14.44.35207\include\xtree
;	COMDAT ??$_Buyheadnode@V?$allocator@U?$_Tree_node@U?$pair@$$CBHPAVBaseGameEntity@@@std@@PAX@std@@@std@@@?$_Tree_node@U?$pair@$$CBHPAVBaseGameEntity@@@std@@PAX@std@@SAPAU01@AAV?$allocator@U?$_Tree_node@U?$pair@$$CBHPAVBaseGameEntity@@@std@@PAX@std@@@1@@Z
_TEXT	SEGMENT
__Pnode$ = -8						; size = 4
__Al$ = 8						; size = 4
??$_Buyheadnode@V?$allocator@U?$_Tree_node@U?$pair@$$CBHPAVBaseGameEntity@@@std@@PAX@std@@@std@@@?$_Tree_node@U?$pair@$$CBHPAVBaseGameEntity@@@std@@PAX@std@@SAPAU01@AAV?$allocator@U?$_Tree_node@U?$pair@$$CBHPAVBaseGameEntity@@@std@@PAX@std@@@1@@Z PROC ; std::_Tree_node<std::pair<int const ,BaseGameEntity *>,void *>::_Buyheadnode<std::allocator<std::_Tree_node<std::pair<int const ,BaseGameEntity *>,void *> > >, COMDAT

; 343  :     static _Nodeptr _Buyheadnode(_Alloc& _Al) {

	push	ebp
	mov	ebp, esp
	sub	esp, 12					; 0000000cH
	mov	DWORD PTR [ebp-12], -858993460		; ccccccccH
	mov	DWORD PTR [ebp-8], -858993460		; ccccccccH
	mov	DWORD PTR [ebp-4], -858993460		; ccccccccH

; 344  :         static_assert(is_same_v<typename _Alloc::value_type, _Tree_node>, "Bad _Buyheadnode call");
; 345  :         const auto _Pnode = _Al.allocate(1);

	push	1
	mov	ecx, DWORD PTR __Al$[ebp]
	call	?allocate@?$allocator@U?$_Tree_node@U?$pair@$$CBHPAVBaseGameEntity@@@std@@PAX@std@@@std@@QAEPAU?$_Tree_node@U?$pair@$$CBHPAVBaseGameEntity@@@std@@PAX@2@I@Z ; std::allocator<std::_Tree_node<std::pair<int const ,BaseGameEntity *>,void *> >::allocate
	mov	DWORD PTR __Pnode$[ebp], eax

; 346  :         _Construct_in_place(_Pnode->_Left, _Pnode);

	lea	eax, DWORD PTR __Pnode$[ebp]
	push	eax
	mov	ecx, DWORD PTR __Pnode$[ebp]
	push	ecx
	call	??$_Construct_in_place@PAU?$_Tree_node@U?$pair@$$CBHPAVBaseGameEntity@@@std@@PAX@std@@ABQAU12@@std@@YAXAAPAU?$_Tree_node@U?$pair@$$CBHPAVBaseGameEntity@@@std@@PAX@0@ABQAU10@@Z ; std::_Construct_in_place<std::_Tree_node<std::pair<int const ,BaseGameEntity *>,void *> *,std::_Tree_node<std::pair<int const ,BaseGameEntity *>,void *> * const &>
	add	esp, 8

; 347  :         _Construct_in_place(_Pnode->_Parent, _Pnode);

	lea	edx, DWORD PTR __Pnode$[ebp]
	push	edx
	mov	eax, DWORD PTR __Pnode$[ebp]
	add	eax, 4
	push	eax
	call	??$_Construct_in_place@PAU?$_Tree_node@U?$pair@$$CBHPAVBaseGameEntity@@@std@@PAX@std@@ABQAU12@@std@@YAXAAPAU?$_Tree_node@U?$pair@$$CBHPAVBaseGameEntity@@@std@@PAX@0@ABQAU10@@Z ; std::_Construct_in_place<std::_Tree_node<std::pair<int const ,BaseGameEntity *>,void *> *,std::_Tree_node<std::pair<int const ,BaseGameEntity *>,void *> * const &>
	add	esp, 8

; 348  :         _Construct_in_place(_Pnode->_Right, _Pnode);

	lea	ecx, DWORD PTR __Pnode$[ebp]
	push	ecx
	mov	edx, DWORD PTR __Pnode$[ebp]
	add	edx, 8
	push	edx
	call	??$_Construct_in_place@PAU?$_Tree_node@U?$pair@$$CBHPAVBaseGameEntity@@@std@@PAX@std@@ABQAU12@@std@@YAXAAPAU?$_Tree_node@U?$pair@$$CBHPAVBaseGameEntity@@@std@@PAX@0@ABQAU10@@Z ; std::_Construct_in_place<std::_Tree_node<std::pair<int const ,BaseGameEntity *>,void *> *,std::_Tree_node<std::pair<int const ,BaseGameEntity *>,void *> * const &>
	add	esp, 8

; 349  :         _Pnode->_Color = _Black;

	mov	eax, DWORD PTR __Pnode$[ebp]
	mov	BYTE PTR [eax+12], 1

; 350  :         _Pnode->_Isnil = true;

	mov	ecx, DWORD PTR __Pnode$[ebp]
	mov	BYTE PTR [ecx+13], 1

; 351  :         return _Pnode;

	mov	eax, DWORD PTR __Pnode$[ebp]

; 352  :     }

	push	edx
	mov	ecx, ebp
	push	eax
	lea	edx, DWORD PTR $LN5@Buyheadnod
	call	@_RTC_CheckStackVars@8
	pop	eax
	pop	edx
	add	esp, 12					; 0000000cH
	cmp	ebp, esp
	call	__RTC_CheckEsp
	mov	esp, ebp
	pop	ebp
	ret	0
	npad	2
$LN5@Buyheadnod:
	DD	1
	DD	$LN4@Buyheadnod
$LN4@Buyheadnod:
	DD	-8					; fffffff8H
	DD	4
	DD	$LN3@Buyheadnod
$LN3@Buyheadnod:
	DB	95					; 0000005fH
	DB	80					; 00000050H
	DB	110					; 0000006eH
	DB	111					; 0000006fH
	DB	100					; 00000064H
	DB	101					; 00000065H
	DB	0
??$_Buyheadnode@V?$allocator@U?$_Tree_node@U?$pair@$$CBHPAVBaseGameEntity@@@std@@PAX@std@@@std@@@?$_Tree_node@U?$pair@$$CBHPAVBaseGameEntity@@@std@@PAX@std@@SAPAU01@AAV?$allocator@U?$_Tree_node@U?$pair@$$CBHPAVBaseGameEntity@@@std@@PAX@std@@@1@@Z ENDP ; std::_Tree_node<std::pair<int const ,BaseGameEntity *>,void *>::_Buyheadnode<std::allocator<std::_Tree_node<std::pair<int const ,BaseGameEntity *>,void *> > >
_TEXT	ENDS
; Function compile flags: /Odtp /RTCsu
; File C:\Program Files\Microsoft Visual Studio\2022\Community\VC\Tools\MSVC\14.44.35207\include\utility
;	COMDAT ??$swap@D$0A@@std@@YAXAAD0@Z
_TEXT	SEGMENT
__Tmp$ = -5						; size = 1
__Left$ = 8						; size = 4
__Right$ = 12						; size = 4
??$swap@D$0A@@std@@YAXAAD0@Z PROC			; std::swap<char,0>, COMDAT

; 138  :     noexcept(is_nothrow_move_constructible_v<_Ty> && is_nothrow_move_assignable_v<_Ty>) {

	push	ebp
	mov	ebp, esp
	sub	esp, 12					; 0000000cH
	mov	DWORD PTR [ebp-12], -858993460		; ccccccccH
	mov	DWORD PTR [ebp-8], -858993460		; ccccccccH
	mov	DWORD PTR [ebp-4], -858993460		; ccccccccH

; 139  :     _Ty _Tmp = _STD move(_Left);

	mov	eax, DWORD PTR __Left$[ebp]
	push	eax
	call	??$move@AAD@std@@YA$$QADAAD@Z		; std::move<char &>
	add	esp, 4
	mov	cl, BYTE PTR [eax]
	mov	BYTE PTR __Tmp$[ebp], cl

; 140  :     _Left    = _STD move(_Right);

	mov	edx, DWORD PTR __Right$[ebp]
	push	edx
	call	??$move@AAD@std@@YA$$QADAAD@Z		; std::move<char &>
	add	esp, 4
	mov	ecx, DWORD PTR __Left$[ebp]
	mov	dl, BYTE PTR [eax]
	mov	BYTE PTR [ecx], dl

; 141  :     _Right   = _STD move(_Tmp);

	lea	eax, DWORD PTR __Tmp$[ebp]
	push	eax
	call	??$move@AAD@std@@YA$$QADAAD@Z		; std::move<char &>
	add	esp, 4
	mov	ecx, DWORD PTR __Right$[ebp]
	mov	dl, BYTE PTR [eax]
	mov	BYTE PTR [ecx], dl

; 142  : }

	push	edx
	mov	ecx, ebp
	push	eax
	lea	edx, DWORD PTR $LN6@swap
	call	@_RTC_CheckStackVars@8
	pop	eax
	pop	edx
	add	esp, 12					; 0000000cH
	cmp	ebp, esp
	call	__RTC_CheckEsp
	mov	esp, ebp
	pop	ebp
	ret	0
	npad	3
$LN6@swap:
	DD	1
	DD	$LN5@swap
$LN5@swap:
	DD	-5					; fffffffbH
	DD	1
	DD	$LN4@swap
$LN4@swap:
	DB	95					; 0000005fH
	DB	84					; 00000054H
	DB	109					; 0000006dH
	DB	112					; 00000070H
	DB	0
??$swap@D$0A@@std@@YAXAAD0@Z ENDP			; std::swap<char,0>
_TEXT	ENDS
; Function compile flags: /Odtp /RTCsu
; File C:\Program Files\Microsoft Visual Studio\2022\Community\VC\Tools\MSVC\14.44.35207\include\utility
;	COMDAT ??$_Max_limit@H@std@@YAHXZ
_TEXT	SEGMENT
__Unsigned_max$1 = -4					; size = 4
??$_Max_limit@H@std@@YAHXZ PROC				; std::_Max_limit<int>, COMDAT

; 863  : _NODISCARD constexpr _Ty _Max_limit() noexcept { // same as (numeric_limits<_Ty>::max)(), less throughput cost

	push	ebp
	mov	ebp, esp
	push	ecx

; 864  :     _STL_INTERNAL_STATIC_ASSERT(is_integral_v<_Ty>); // doesn't attempt to handle all types
; 865  :     if constexpr (is_signed_v<_Ty>) {
; 866  :         constexpr auto _Unsigned_max = static_cast<make_unsigned_t<_Ty>>(-1);

	mov	DWORD PTR __Unsigned_max$1[ebp], -1

; 867  :         return static_cast<_Ty>(_Unsigned_max >> 1);

	mov	eax, 2147483647				; 7fffffffH

; 868  :     } else {
; 869  :         return static_cast<_Ty>(-1);
; 870  :     }
; 871  : }

	mov	esp, ebp
	pop	ebp
	ret	0
??$_Max_limit@H@std@@YAHXZ ENDP				; std::_Max_limit<int>
_TEXT	ENDS
; Function compile flags: /Odtp /RTCsu
; File C:\Program Files\Microsoft Visual Studio\2022\Community\VC\Tools\MSVC\14.44.35207\include\xmemory
;	COMDAT ??$_Deallocate@$07@std@@YAXPAXI@Z
_TEXT	SEGMENT
__$EHRec$ = -12						; size = 12
__Ptr$ = 8						; size = 4
__Bytes$ = 12						; size = 4
??$_Deallocate@$07@std@@YAXPAXI@Z PROC			; std::_Deallocate<8>, COMDAT

; 261  : _CONSTEXPR20 void _Deallocate(void* _Ptr, size_t _Bytes) noexcept {

	push	ebp
	mov	ebp, esp
	push	-1
	push	__ehhandler$??$_Deallocate@$07@std@@YAXPAXI@Z
	mov	eax, DWORD PTR fs:0
	push	eax
	mov	eax, DWORD PTR ___security_cookie
	xor	eax, ebp
	push	eax
	lea	eax, DWORD PTR __$EHRec$[ebp]
	mov	DWORD PTR fs:0, eax

; 262  :     // deallocate storage allocated by _Allocate
; 263  : #if _HAS_CXX20 // TRANSITION, GH-1532
; 264  :     if (_STD is_constant_evaluated()) {
; 265  :         ::operator delete(_Ptr);
; 266  :         return;
; 267  :     }
; 268  : #endif // _HAS_CXX20
; 269  : 
; 270  : #ifdef __cpp_aligned_new
; 271  :     if constexpr (_Align > __STDCPP_DEFAULT_NEW_ALIGNMENT__) {
; 272  :         size_t _Passed_align = _Align;
; 273  : #if defined(_M_IX86) || defined(_M_X64)
; 274  :         if (_Bytes >= _Big_allocation_threshold) {
; 275  :             // boost the alignment of big allocations to help autovectorization
; 276  :             _Passed_align = (_STD max)(_Align, _Big_allocation_alignment);
; 277  :         }
; 278  : #endif // defined(_M_IX86) || defined(_M_X64)
; 279  :         ::operator delete(_Ptr, _Bytes, align_val_t{_Passed_align});
; 280  :     } else
; 281  : #endif // defined(__cpp_aligned_new)
; 282  :     {
; 283  : #if defined(_M_IX86) || defined(_M_X64)
; 284  :         if (_Bytes >= _Big_allocation_threshold) {

	cmp	DWORD PTR __Bytes$[ebp], 4096		; 00001000H
	jb	SHORT $LN2@Deallocate

; 285  :             // boost the alignment of big allocations to help autovectorization
; 286  :             _Adjust_manually_vector_aligned(_Ptr, _Bytes);

	lea	eax, DWORD PTR __Bytes$[ebp]
	push	eax
	lea	ecx, DWORD PTR __Ptr$[ebp]
	push	ecx
	call	?_Adjust_manually_vector_aligned@std@@YAXAAPAXAAI@Z ; std::_Adjust_manually_vector_aligned
	add	esp, 8
$LN2@Deallocate:

; 287  :         }
; 288  : #endif // defined(_M_IX86) || defined(_M_X64)
; 289  :         ::operator delete(_Ptr, _Bytes);

	mov	edx, DWORD PTR __Bytes$[ebp]
	push	edx
	mov	eax, DWORD PTR __Ptr$[ebp]
	push	eax
	call	??3@YAXPAXI@Z				; operator delete
	add	esp, 8

; 290  :     }
; 291  : }

	mov	ecx, DWORD PTR __$EHRec$[ebp]
	mov	DWORD PTR fs:0, ecx
	pop	ecx
	add	esp, 12					; 0000000cH
	cmp	ebp, esp
	call	__RTC_CheckEsp
	mov	esp, ebp
	pop	ebp
	ret	0
	int	3
	int	3
	int	3
	int	3
	int	3
_TEXT	ENDS
;	COMDAT text$x
text$x	SEGMENT
__ehhandler$??$_Deallocate@$07@std@@YAXPAXI@Z:
	npad	1
	npad	1
	mov	edx, DWORD PTR [esp+8]
	lea	eax, DWORD PTR [edx+12]
	mov	ecx, DWORD PTR [edx-4]
	xor	ecx, eax
	call	@__security_check_cookie@4
	mov	eax, OFFSET __ehfuncinfo$??$_Deallocate@$07@std@@YAXPAXI@Z
	jmp	___CxxFrameHandler3
text$x	ENDS
??$_Deallocate@$07@std@@YAXPAXI@Z ENDP			; std::_Deallocate<8>
; Function compile flags: /Odtp /RTCsu
; File C:\Program Files\Microsoft Visual Studio\2022\Community\VC\Tools\MSVC\14.44.35207\include\xmemory
;	COMDAT ??$_Allocate@$07U_Default_allocate_traits@std@@@std@@YAPAXI@Z
_TEXT	SEGMENT
__Bytes$ = 8						; size = 4
??$_Allocate@$07U_Default_allocate_traits@std@@@std@@YAPAXI@Z PROC ; std::_Allocate<8,std::_Default_allocate_traits>, COMDAT

; 225  : __declspec(allocator) _CONSTEXPR20 void* _Allocate(const size_t _Bytes) {

	push	ebp
	mov	ebp, esp

; 226  :     // allocate _Bytes
; 227  :     if (_Bytes == 0) {

	cmp	DWORD PTR __Bytes$[ebp], 0
	jne	SHORT $LN2@Allocate

; 228  :         return nullptr;

	xor	eax, eax
	jmp	SHORT $LN1@Allocate
$LN2@Allocate:

; 229  :     }
; 230  : 
; 231  : #if _HAS_CXX20 // TRANSITION, GH-1532
; 232  :     if (_STD is_constant_evaluated()) {
; 233  :         return _Traits::_Allocate(_Bytes);
; 234  :     }
; 235  : #endif // _HAS_CXX20
; 236  : 
; 237  : #ifdef __cpp_aligned_new
; 238  :     if constexpr (_Align > __STDCPP_DEFAULT_NEW_ALIGNMENT__) {
; 239  :         size_t _Passed_align = _Align;
; 240  : #if defined(_M_IX86) || defined(_M_X64)
; 241  :         if (_Bytes >= _Big_allocation_threshold) {
; 242  :             // boost the alignment of big allocations to help autovectorization
; 243  :             _Passed_align = (_STD max)(_Align, _Big_allocation_alignment);
; 244  :         }
; 245  : #endif // defined(_M_IX86) || defined(_M_X64)
; 246  :         return _Traits::_Allocate_aligned(_Bytes, _Passed_align);
; 247  :     } else
; 248  : #endif // defined(__cpp_aligned_new)
; 249  :     {
; 250  : #if defined(_M_IX86) || defined(_M_X64)
; 251  :         if (_Bytes >= _Big_allocation_threshold) {

	cmp	DWORD PTR __Bytes$[ebp], 4096		; 00001000H
	jb	SHORT $LN3@Allocate

; 252  :             // boost the alignment of big allocations to help autovectorization
; 253  :             return _Allocate_manually_vector_aligned<_Traits>(_Bytes);

	mov	eax, DWORD PTR __Bytes$[ebp]
	push	eax
	call	??$_Allocate_manually_vector_aligned@U_Default_allocate_traits@std@@@std@@YAPAXI@Z ; std::_Allocate_manually_vector_aligned<std::_Default_allocate_traits>
	add	esp, 4
	jmp	SHORT $LN1@Allocate
$LN3@Allocate:

; 254  :         }
; 255  : #endif // defined(_M_IX86) || defined(_M_X64)
; 256  :         return _Traits::_Allocate(_Bytes);

	mov	ecx, DWORD PTR __Bytes$[ebp]
	push	ecx
	call	?_Allocate@_Default_allocate_traits@std@@SAPAXI@Z ; std::_Default_allocate_traits::_Allocate
	add	esp, 4
$LN1@Allocate:

; 257  :     }
; 258  : }

	cmp	ebp, esp
	call	__RTC_CheckEsp
	pop	ebp
	ret	0
??$_Allocate@$07U_Default_allocate_traits@std@@@std@@YAPAXI@Z ENDP ; std::_Allocate<8,std::_Default_allocate_traits>
_TEXT	ENDS
; Function compile flags: /Odtp /RTCsu
; File C:\Program Files\Microsoft Visual Studio\2022\Community\VC\Tools\MSVC\14.44.35207\include\xmemory
;	COMDAT ??$_Get_size_of_n@$07@std@@YAII@Z
_TEXT	SEGMENT
__Max_possible$1 = -8					; size = 4
__Overflow_is_possible$ = -1				; size = 1
__Count$ = 8						; size = 4
??$_Get_size_of_n@$07@std@@YAII@Z PROC			; std::_Get_size_of_n<8>, COMDAT

; 112  : _NODISCARD constexpr size_t _Get_size_of_n(const size_t _Count) {

	push	ebp
	mov	ebp, esp
	sub	esp, 8
	mov	DWORD PTR [ebp-8], -858993460		; ccccccccH
	mov	DWORD PTR [ebp-4], -858993460		; ccccccccH

; 113  :     constexpr bool _Overflow_is_possible = _Ty_size > 1;

	mov	BYTE PTR __Overflow_is_possible$[ebp], 1

; 114  : 
; 115  :     if constexpr (_Overflow_is_possible) {
; 116  :         constexpr size_t _Max_possible = static_cast<size_t>(-1) / _Ty_size;

	mov	DWORD PTR __Max_possible$1[ebp], 536870911 ; 1fffffffH

; 117  :         if (_Count > _Max_possible) {

	cmp	DWORD PTR __Count$[ebp], 536870911	; 1fffffffH
	jbe	SHORT $LN2@Get_size_o

; 118  :             _Throw_bad_array_new_length(); // multiply overflow

	call	?_Throw_bad_array_new_length@std@@YAXXZ	; std::_Throw_bad_array_new_length
	npad	1
$LN2@Get_size_o:

; 119  :         }
; 120  :     }
; 121  : 
; 122  :     return _Count * _Ty_size;

	mov	eax, DWORD PTR __Count$[ebp]
	shl	eax, 3
$LN1@Get_size_o:

; 123  : }

	add	esp, 8
	cmp	ebp, esp
	call	__RTC_CheckEsp
	mov	esp, ebp
	pop	ebp
	ret	0
??$_Get_size_of_n@$07@std@@YAII@Z ENDP			; std::_Get_size_of_n<8>
_TEXT	ENDS
; Function compile flags: /Odtp /RTCsu
; File C:\Program Files\Microsoft Visual Studio\2022\Community\VC\Tools\MSVC\14.44.35207\include\type_traits
;	COMDAT ??$addressof@U_Container_base12@std@@@std@@YAPAU_Container_base12@0@AAU10@@Z
_TEXT	SEGMENT
__Val$ = 8						; size = 4
??$addressof@U_Container_base12@std@@@std@@YAPAU_Container_base12@0@AAU10@@Z PROC ; std::addressof<std::_Container_base12>, COMDAT

; 1524 : _NODISCARD constexpr _Ty* addressof(_Ty& _Val) noexcept {

	push	ebp
	mov	ebp, esp

; 1525 :     return __builtin_addressof(_Val);

	mov	eax, DWORD PTR __Val$[ebp]

; 1526 : }

	pop	ebp
	ret	0
??$addressof@U_Container_base12@std@@@std@@YAPAU_Container_base12@0@AAU10@@Z ENDP ; std::addressof<std::_Container_base12>
_TEXT	ENDS
; Function compile flags: /Odtp /RTCsu
; File C:\Program Files\Microsoft Visual Studio\2022\Community\VC\Tools\MSVC\14.44.35207\include\type_traits
;	COMDAT ??$forward@U_Zero_then_variadic_args_t@std@@@std@@YA$$QAU_Zero_then_variadic_args_t@0@AAU10@@Z
_TEXT	SEGMENT
__Arg$ = 8						; size = 4
??$forward@U_Zero_then_variadic_args_t@std@@@std@@YA$$QAU_Zero_then_variadic_args_t@0@AAU10@@Z PROC ; std::forward<std::_Zero_then_variadic_args_t>, COMDAT

; 1501 : _NODISCARD _MSVC_INTRINSIC constexpr _Ty&& forward(remove_reference_t<_Ty>& _Arg) noexcept {

	push	ebp
	mov	ebp, esp

; 1502 :     return static_cast<_Ty&&>(_Arg);

	mov	eax, DWORD PTR __Arg$[ebp]

; 1503 : }

	pop	ebp
	ret	0
??$forward@U_Zero_then_variadic_args_t@std@@@std@@YA$$QAU_Zero_then_variadic_args_t@0@AAU10@@Z ENDP ; std::forward<std::_Zero_then_variadic_args_t>
_TEXT	ENDS
; Function compile flags: /Odtp /RTCsu
; File C:\Program Files\Microsoft Visual Studio\2022\Community\VC\Tools\MSVC\14.44.35207\include\type_traits
;	COMDAT ??$forward@ABU?$less@H@std@@@std@@YAABU?$less@H@0@ABU10@@Z
_TEXT	SEGMENT
__Arg$ = 8						; size = 4
??$forward@ABU?$less@H@std@@@std@@YAABU?$less@H@0@ABU10@@Z PROC ; std::forward<std::less<int> const &>, COMDAT

; 1501 : _NODISCARD _MSVC_INTRINSIC constexpr _Ty&& forward(remove_reference_t<_Ty>& _Arg) noexcept {

	push	ebp
	mov	ebp, esp

; 1502 :     return static_cast<_Ty&&>(_Arg);

	mov	eax, DWORD PTR __Arg$[ebp]

; 1503 : }

	pop	ebp
	ret	0
??$forward@ABU?$less@H@std@@@std@@YAABU?$less@H@0@ABU10@@Z ENDP ; std::forward<std::less<int> const &>
_TEXT	ENDS
; Function compile flags: /Odtp /RTCsu
; File C:\Program Files\Microsoft Visual Studio\2022\Community\VC\Tools\MSVC\14.44.35207\include\xmemory
;	COMDAT ??$_Destroy_in_place@PAU?$_Tree_node@U?$pair@$$CBHPAVBaseGameEntity@@@std@@PAX@std@@@std@@YAXAAPAU?$_Tree_node@U?$pair@$$CBHPAVBaseGameEntity@@@std@@PAX@0@@Z
_TEXT	SEGMENT
__Obj$ = 8						; size = 4
??$_Destroy_in_place@PAU?$_Tree_node@U?$pair@$$CBHPAVBaseGameEntity@@@std@@PAX@std@@@std@@YAXAAPAU?$_Tree_node@U?$pair@$$CBHPAVBaseGameEntity@@@std@@PAX@0@@Z PROC ; std::_Destroy_in_place<std::_Tree_node<std::pair<int const ,BaseGameEntity *>,void *> *>, COMDAT

; 320  : _CONSTEXPR20 void _Destroy_in_place(_Ty& _Obj) noexcept {

	push	ebp
	mov	ebp, esp

; 321  :     if constexpr (is_array_v<_Ty>) {
; 322  :         _STD _Destroy_range(_Obj, _Obj + extent_v<_Ty>);
; 323  :     } else {
; 324  :         _Obj.~_Ty();
; 325  :     }
; 326  : }

	pop	ebp
	ret	0
??$_Destroy_in_place@PAU?$_Tree_node@U?$pair@$$CBHPAVBaseGameEntity@@@std@@PAX@std@@@std@@YAXAAPAU?$_Tree_node@U?$pair@$$CBHPAVBaseGameEntity@@@std@@PAX@0@@Z ENDP ; std::_Destroy_in_place<std::_Tree_node<std::pair<int const ,BaseGameEntity *>,void *> *>
_TEXT	ENDS
; Function compile flags: /Odtp /RTCsu
; File C:\Program Files\Microsoft Visual Studio\2022\Community\VC\Tools\MSVC\14.44.35207\include\xmemory
;	COMDAT ??$destroy@U?$pair@$$CBHPAVBaseGameEntity@@@std@@@?$_Default_allocator_traits@V?$allocator@U?$_Tree_node@U?$pair@$$CBHPAVBaseGameEntity@@@std@@PAX@std@@@std@@@std@@SAXAAV?$allocator@U?$_Tree_node@U?$pair@$$CBHPAVBaseGameEntity@@@std@@PAX@std@@@1@QAU?$pair@$$CBHPAVBaseGameEntity@@@1@@Z
_TEXT	SEGMENT
___formal$ = 8						; size = 4
__Ptr$ = 12						; size = 4
??$destroy@U?$pair@$$CBHPAVBaseGameEntity@@@std@@@?$_Default_allocator_traits@V?$allocator@U?$_Tree_node@U?$pair@$$CBHPAVBaseGameEntity@@@std@@PAX@std@@@std@@@std@@SAXAAV?$allocator@U?$_Tree_node@U?$pair@$$CBHPAVBaseGameEntity@@@std@@PAX@std@@@1@QAU?$pair@$$CBHPAVBaseGameEntity@@@1@@Z PROC ; std::_Default_allocator_traits<std::allocator<std::_Tree_node<std::pair<int const ,BaseGameEntity *>,void *> > >::destroy<std::pair<int const ,BaseGameEntity *> >, COMDAT

; 737  :     static _CONSTEXPR20 void destroy(_Alloc&, _Uty* const _Ptr) {

	push	ebp
	mov	ebp, esp

; 738  : #if _HAS_CXX20
; 739  :         _STD destroy_at(_Ptr);
; 740  : #else // ^^^ _HAS_CXX20 / !_HAS_CXX20 vvv
; 741  :         _Ptr->~_Uty();
; 742  : #endif // ^^^ !_HAS_CXX20 ^^^
; 743  :     }

	pop	ebp
	ret	0
??$destroy@U?$pair@$$CBHPAVBaseGameEntity@@@std@@@?$_Default_allocator_traits@V?$allocator@U?$_Tree_node@U?$pair@$$CBHPAVBaseGameEntity@@@std@@PAX@std@@@std@@@std@@SAXAAV?$allocator@U?$_Tree_node@U?$pair@$$CBHPAVBaseGameEntity@@@std@@PAX@std@@@1@QAU?$pair@$$CBHPAVBaseGameEntity@@@1@@Z ENDP ; std::_Default_allocator_traits<std::allocator<std::_Tree_node<std::pair<int const ,BaseGameEntity *>,void *> > >::destroy<std::pair<int const ,BaseGameEntity *> >
_TEXT	ENDS
; Function compile flags: /Odtp /RTCsu
; File C:\Program Files\Microsoft Visual Studio\2022\Community\VC\Tools\MSVC\14.44.35207\include\type_traits
;	COMDAT ??$addressof@U?$pair@$$CBHPAVBaseGameEntity@@@std@@@std@@YAPAU?$pair@$$CBHPAVBaseGameEntity@@@0@AAU10@@Z
_TEXT	SEGMENT
__Val$ = 8						; size = 4
??$addressof@U?$pair@$$CBHPAVBaseGameEntity@@@std@@@std@@YAPAU?$pair@$$CBHPAVBaseGameEntity@@@0@AAU10@@Z PROC ; std::addressof<std::pair<int const ,BaseGameEntity *> >, COMDAT

; 1524 : _NODISCARD constexpr _Ty* addressof(_Ty& _Val) noexcept {

	push	ebp
	mov	ebp, esp

; 1525 :     return __builtin_addressof(_Val);

	mov	eax, DWORD PTR __Val$[ebp]

; 1526 : }

	pop	ebp
	ret	0
??$addressof@U?$pair@$$CBHPAVBaseGameEntity@@@std@@@std@@YAPAU?$pair@$$CBHPAVBaseGameEntity@@@0@AAU10@@Z ENDP ; std::addressof<std::pair<int const ,BaseGameEntity *> >
_TEXT	ENDS
; Function compile flags: /Odtp /RTCsu
; File C:\Program Files\Microsoft Visual Studio\2022\Community\VC\Tools\MSVC\14.44.35207\include\xutility
;	COMDAT ??$_Debug_lt_pred@ABU?$less@H@std@@ABHABH@std@@YA_NABU?$less@H@0@ABH1@Z
_TEXT	SEGMENT
__Result$ = -1						; size = 1
__Pred$ = 8						; size = 4
__Left$ = 12						; size = 4
__Right$ = 16						; size = 4
??$_Debug_lt_pred@ABU?$less@H@std@@ABHABH@std@@YA_NABU?$less@H@0@ABH1@Z PROC ; std::_Debug_lt_pred<std::less<int> const &,int const &,int const &>, COMDAT

; 1597 :     noexcept(noexcept(_Pred(_Left, _Right)) && _Debug_lt_pred_order_check_noexcept<_Pr, _Ty1, _Ty2>) {

	push	ebp
	mov	ebp, esp
	push	ecx
	mov	DWORD PTR [ebp-4], -858993460		; ccccccccH

; 1598 :     const auto _Result = static_cast<bool>(_Pred(_Left, _Right));

	mov	eax, DWORD PTR __Right$[ebp]
	push	eax
	mov	ecx, DWORD PTR __Left$[ebp]
	push	ecx
	mov	ecx, DWORD PTR __Pred$[ebp]
	call	??R?$less@H@std@@QBE_NABH0@Z		; std::less<int>::operator()
	mov	BYTE PTR __Result$[ebp], al

; 1599 : 
; 1600 :     if constexpr (_Enable_debug_lt_pred_order_check<_Pr, _Ty1, _Ty2>) {
; 1601 :         if (_Result) {

	movzx	edx, BYTE PTR __Result$[ebp]
	test	edx, edx
	je	SHORT $LN3@Debug_lt_p

; 1602 :             _STL_VERIFY(!_Pred(_Right, _Left), "invalid comparator");

	mov	eax, DWORD PTR __Left$[ebp]
	push	eax
	mov	ecx, DWORD PTR __Right$[ebp]
	push	ecx
	mov	ecx, DWORD PTR __Pred$[ebp]
	call	??R?$less@H@std@@QBE_NABH0@Z		; std::less<int>::operator()
	movzx	edx, al
	test	edx, edx
	je	SHORT $LN3@Debug_lt_p
	push	OFFSET ??_C@_0BD@FEEMDEPI@invalid?5comparator@
	push	OFFSET ??_C@_02DKCKIIND@?$CFs@
	push	0
	push	1602					; 00000642H
	push	OFFSET ??_C@_0GD@GOKHNLI@C?3?2Program?5Files?2Microsoft?5Visu@
	push	2
	call	__CrtDbgReport
	add	esp, 24					; 00000018H
	cmp	eax, 1
	jne	SHORT $LN5@Debug_lt_p
	int	3
$LN5@Debug_lt_p:
	push	0
	push	0
	push	0
	push	0
	push	0
	call	__invoke_watson
	npad	1
$LN3@Debug_lt_p:

; 1603 :         }
; 1604 :     }
; 1605 : 
; 1606 :     return _Result;

	mov	al, BYTE PTR __Result$[ebp]
$LN1@Debug_lt_p:

; 1607 : }

	add	esp, 4
	cmp	ebp, esp
	call	__RTC_CheckEsp
	mov	esp, ebp
	pop	ebp
	ret	0
??$_Debug_lt_pred@ABU?$less@H@std@@ABHABH@std@@YA_NABU?$less@H@0@ABH1@Z ENDP ; std::_Debug_lt_pred<std::less<int> const &,int const &,int const &>
_TEXT	ENDS
; Function compile flags: /Odtp /RTCsu
; File C:\Program Files\Microsoft Visual Studio\2022\Community\VC\Tools\MSVC\14.44.35207\include\map
;	COMDAT ??$_Kfn@$$CBHPAVBaseGameEntity@@@?$_Tmap_traits@HPAVBaseGameEntity@@U?$less@H@std@@V?$allocator@U?$pair@$$CBHPAVBaseGameEntity@@@std@@@3@$0A@@std@@SAABHABU?$pair@$$CBHPAVBaseGameEntity@@@1@@Z
_TEXT	SEGMENT
__Val$ = 8						; size = 4
??$_Kfn@$$CBHPAVBaseGameEntity@@@?$_Tmap_traits@HPAVBaseGameEntity@@U?$less@H@std@@V?$allocator@U?$pair@$$CBHPAVBaseGameEntity@@@std@@@3@$0A@@std@@SAABHABU?$pair@$$CBHPAVBaseGameEntity@@@1@@Z PROC ; std::_Tmap_traits<int,BaseGameEntity *,std::less<int>,std::allocator<std::pair<int const ,BaseGameEntity *> >,0>::_Kfn<int const ,BaseGameEntity *>, COMDAT

; 66   :     static const _Kty& _Kfn(const pair<_Ty1, _Ty2>& _Val) { // extract key from element value

	push	ebp
	mov	ebp, esp

; 67   :         return _Val.first;

	mov	eax, DWORD PTR __Val$[ebp]

; 68   :     }

	pop	ebp
	ret	0
??$_Kfn@$$CBHPAVBaseGameEntity@@@?$_Tmap_traits@HPAVBaseGameEntity@@U?$less@H@std@@V?$allocator@U?$pair@$$CBHPAVBaseGameEntity@@@std@@@3@$0A@@std@@SAABHABU?$pair@$$CBHPAVBaseGameEntity@@@1@@Z ENDP ; std::_Tmap_traits<int,BaseGameEntity *,std::less<int>,std::allocator<std::pair<int const ,BaseGameEntity *> >,0>::_Kfn<int const ,BaseGameEntity *>
_TEXT	ENDS
; Function compile flags: /Odtp /RTCsu
; File C:\Program Files\Microsoft Visual Studio\2022\Community\VC\Tools\MSVC\14.44.35207\include\type_traits
;	COMDAT ??$forward@PAU_Container_base12@std@@@std@@YA$$QAPAU_Container_base12@0@AAPAU10@@Z
_TEXT	SEGMENT
__Arg$ = 8						; size = 4
??$forward@PAU_Container_base12@std@@@std@@YA$$QAPAU_Container_base12@0@AAPAU10@@Z PROC ; std::forward<std::_Container_base12 *>, COMDAT

; 1501 : _NODISCARD _MSVC_INTRINSIC constexpr _Ty&& forward(remove_reference_t<_Ty>& _Arg) noexcept {

	push	ebp
	mov	ebp, esp

; 1502 :     return static_cast<_Ty&&>(_Arg);

	mov	eax, DWORD PTR __Arg$[ebp]

; 1503 : }

	pop	ebp
	ret	0
??$forward@PAU_Container_base12@std@@@std@@YA$$QAPAU_Container_base12@0@AAPAU10@@Z ENDP ; std::forward<std::_Container_base12 *>
_TEXT	ENDS
; Function compile flags: /Odtp /RTCsu
; File C:\Program Files\Microsoft Visual Studio\2022\Community\VC\Tools\MSVC\14.44.35207\include\type_traits
;	COMDAT ??$addressof@U_Container_proxy@std@@@std@@YAPAU_Container_proxy@0@AAU10@@Z
_TEXT	SEGMENT
__Val$ = 8						; size = 4
??$addressof@U_Container_proxy@std@@@std@@YAPAU_Container_proxy@0@AAU10@@Z PROC ; std::addressof<std::_Container_proxy>, COMDAT

; 1524 : _NODISCARD constexpr _Ty* addressof(_Ty& _Val) noexcept {

	push	ebp
	mov	ebp, esp

; 1525 :     return __builtin_addressof(_Val);

	mov	eax, DWORD PTR __Val$[ebp]

; 1526 : }

	pop	ebp
	ret	0
??$addressof@U_Container_proxy@std@@@std@@YAPAU_Container_proxy@0@AAU10@@Z ENDP ; std::addressof<std::_Container_proxy>
_TEXT	ENDS
; Function compile flags: /Odtp /RTCsu
; File C:\Program Files\Microsoft Visual Studio\2022\Community\VC\Tools\MSVC\14.44.35207\include\xmemory
;	COMDAT ?deallocate@?$_Default_allocator_traits@V?$allocator@U_Container_proxy@std@@@std@@@std@@SAXAAV?$allocator@U_Container_proxy@std@@@2@QAU_Container_proxy@2@I@Z
_TEXT	SEGMENT
__Al$ = 8						; size = 4
__Ptr$ = 12						; size = 4
__Count$ = 16						; size = 4
?deallocate@?$_Default_allocator_traits@V?$allocator@U_Container_proxy@std@@@std@@@std@@SAXAAV?$allocator@U_Container_proxy@std@@@2@QAU_Container_proxy@2@I@Z PROC ; std::_Default_allocator_traits<std::allocator<std::_Container_proxy> >::deallocate, COMDAT

; 714  :     /* strengthened */ {

	push	ebp
	mov	ebp, esp

; 715  :         // no overflow check on the following multiply; we assume _Allocate did that check
; 716  : #if _HAS_CXX20 // TRANSITION, GH-1532
; 717  :         if (_STD is_constant_evaluated()) {
; 718  :             _Al.deallocate(_Ptr, _Count);
; 719  :         } else
; 720  : #endif // _HAS_CXX20
; 721  :         {
; 722  :             (void) _Al;
; 723  :             _STD _Deallocate<_New_alignof<value_type>>(_Ptr, sizeof(value_type) * _Count);

	mov	eax, DWORD PTR __Count$[ebp]
	shl	eax, 3
	push	eax
	mov	ecx, DWORD PTR __Ptr$[ebp]
	push	ecx
	call	??$_Deallocate@$07@std@@YAXPAXI@Z	; std::_Deallocate<8>
	add	esp, 8

; 724  :         }
; 725  :     }

	cmp	ebp, esp
	call	__RTC_CheckEsp
	pop	ebp
	ret	0
?deallocate@?$_Default_allocator_traits@V?$allocator@U_Container_proxy@std@@@std@@@std@@SAXAAV?$allocator@U_Container_proxy@std@@@2@QAU_Container_proxy@2@I@Z ENDP ; std::_Default_allocator_traits<std::allocator<std::_Container_proxy> >::deallocate
_TEXT	ENDS
; Function compile flags: /Odtp /RTCsu
; File C:\Program Files\Microsoft Visual Studio\2022\Community\VC\Tools\MSVC\14.44.35207\include\type_traits
;	COMDAT ??$forward@AB_N@std@@YAAB_NAB_N@Z
_TEXT	SEGMENT
__Arg$ = 8						; size = 4
??$forward@AB_N@std@@YAAB_NAB_N@Z PROC			; std::forward<bool const &>, COMDAT

; 1501 : _NODISCARD _MSVC_INTRINSIC constexpr _Ty&& forward(remove_reference_t<_Ty>& _Arg) noexcept {

	push	ebp
	mov	ebp, esp

; 1502 :     return static_cast<_Ty&&>(_Arg);

	mov	eax, DWORD PTR __Arg$[ebp]

; 1503 : }

	pop	ebp
	ret	0
??$forward@AB_N@std@@YAAB_NAB_N@Z ENDP			; std::forward<bool const &>
_TEXT	ENDS
; Function compile flags: /Odtp /RTCsu
; File C:\Program Files\Microsoft Visual Studio\2022\Community\VC\Tools\MSVC\14.44.35207\include\type_traits
;	COMDAT ??$forward@V?$_Tree_iterator@V?$_Tree_val@U?$_Tree_simple_types@U?$pair@$$CBHPAVBaseGameEntity@@@std@@@std@@@std@@@std@@@std@@YA$$QAV?$_Tree_iterator@V?$_Tree_val@U?$_Tree_simple_types@U?$pair@$$CBHPAVBaseGameEntity@@@std@@@std@@@std@@@0@AAV10@@Z
_TEXT	SEGMENT
__Arg$ = 8						; size = 4
??$forward@V?$_Tree_iterator@V?$_Tree_val@U?$_Tree_simple_types@U?$pair@$$CBHPAVBaseGameEntity@@@std@@@std@@@std@@@std@@@std@@YA$$QAV?$_Tree_iterator@V?$_Tree_val@U?$_Tree_simple_types@U?$pair@$$CBHPAVBaseGameEntity@@@std@@@std@@@std@@@0@AAV10@@Z PROC ; std::forward<std::_Tree_iterator<std::_Tree_val<std::_Tree_simple_types<std::pair<int const ,BaseGameEntity *> > > > >, COMDAT

; 1501 : _NODISCARD _MSVC_INTRINSIC constexpr _Ty&& forward(remove_reference_t<_Ty>& _Arg) noexcept {

	push	ebp
	mov	ebp, esp

; 1502 :     return static_cast<_Ty&&>(_Arg);

	mov	eax, DWORD PTR __Arg$[ebp]

; 1503 : }

	pop	ebp
	ret	0
??$forward@V?$_Tree_iterator@V?$_Tree_val@U?$_Tree_simple_types@U?$pair@$$CBHPAVBaseGameEntity@@@std@@@std@@@std@@@std@@@std@@YA$$QAV?$_Tree_iterator@V?$_Tree_val@U?$_Tree_simple_types@U?$pair@$$CBHPAVBaseGameEntity@@@std@@@std@@@std@@@0@AAV10@@Z ENDP ; std::forward<std::_Tree_iterator<std::_Tree_val<std::_Tree_simple_types<std::pair<int const ,BaseGameEntity *> > > > >
_TEXT	ENDS
; Function compile flags: /Odtp /RTCsu
; File C:\Program Files\Microsoft Visual Studio\2022\Community\VC\Tools\MSVC\14.44.35207\include\utility
;	COMDAT ??$?0PAU?$_Tree_node@U?$pair@$$CBHPAVBaseGameEntity@@@std@@PAX@std@@_N$0A@@?$pair@PAU?$_Tree_node@U?$pair@$$CBHPAVBaseGameEntity@@@std@@PAX@std@@_N@std@@QAE@$$QAPAU?$_Tree_node@U?$pair@$$CBHPAVBaseGameEntity@@@std@@PAX@1@$$QA_N@Z
_TEXT	SEGMENT
_this$ = -4						; size = 4
__Val1$ = 8						; size = 4
__Val2$ = 12						; size = 4
??$?0PAU?$_Tree_node@U?$pair@$$CBHPAVBaseGameEntity@@@std@@PAX@std@@_N$0A@@?$pair@PAU?$_Tree_node@U?$pair@$$CBHPAVBaseGameEntity@@@std@@PAX@std@@_N@std@@QAE@$$QAPAU?$_Tree_node@U?$pair@$$CBHPAVBaseGameEntity@@@std@@PAX@1@$$QA_N@Z PROC ; std::pair<std::_Tree_node<std::pair<int const ,BaseGameEntity *>,void *> *,bool>::pair<std::_Tree_node<std::pair<int const ,BaseGameEntity *>,void *> *,bool><std::_Tree_node<std::pair<int const ,BaseGameEntity *>,void *> *,bool,0>, COMDAT
; _this$ = ecx

; 274  :         : first(_STD forward<_Other1>(_Val1)), second(_STD forward<_Other2>(_Val2)) {

	push	ebp
	mov	ebp, esp
	push	ecx
	mov	DWORD PTR [ebp-4], -858993460		; ccccccccH
	mov	DWORD PTR _this$[ebp], ecx
	mov	eax, DWORD PTR __Val1$[ebp]
	push	eax
	call	??$forward@PAU?$_Tree_node@U?$pair@$$CBHPAVBaseGameEntity@@@std@@PAX@std@@@std@@YA$$QAPAU?$_Tree_node@U?$pair@$$CBHPAVBaseGameEntity@@@std@@PAX@0@AAPAU10@@Z ; std::forward<std::_Tree_node<std::pair<int const ,BaseGameEntity *>,void *> *>
	add	esp, 4
	mov	ecx, DWORD PTR _this$[ebp]
	mov	edx, DWORD PTR [eax]
	mov	DWORD PTR [ecx], edx
	mov	eax, DWORD PTR __Val2$[ebp]
	push	eax
	call	??$forward@_N@std@@YA$$QA_NAA_N@Z	; std::forward<bool>
	add	esp, 4
	mov	ecx, DWORD PTR _this$[ebp]
	mov	dl, BYTE PTR [eax]
	mov	BYTE PTR [ecx+4], dl

; 275  :     }

	mov	eax, DWORD PTR _this$[ebp]
	add	esp, 4
	cmp	ebp, esp
	call	__RTC_CheckEsp
	mov	esp, ebp
	pop	ebp
	ret	8
??$?0PAU?$_Tree_node@U?$pair@$$CBHPAVBaseGameEntity@@@std@@PAX@std@@_N$0A@@?$pair@PAU?$_Tree_node@U?$pair@$$CBHPAVBaseGameEntity@@@std@@PAX@std@@_N@std@@QAE@$$QAPAU?$_Tree_node@U?$pair@$$CBHPAVBaseGameEntity@@@std@@PAX@1@$$QA_N@Z ENDP ; std::pair<std::_Tree_node<std::pair<int const ,BaseGameEntity *>,void *> *,bool>::pair<std::_Tree_node<std::pair<int const ,BaseGameEntity *>,void *> *,bool><std::_Tree_node<std::pair<int const ,BaseGameEntity *>,void *> *,bool,0>
_TEXT	ENDS
; Function compile flags: /Odtp /RTCsu
; File C:\Program Files\Microsoft Visual Studio\2022\Community\VC\Tools\MSVC\14.44.35207\include\xtree
;	COMDAT ??$?0U?$pair@HPAVBaseGameEntity@@@std@@@?$_Tree_temp_node@V?$allocator@U?$_Tree_node@U?$pair@$$CBHPAVBaseGameEntity@@@std@@PAX@std@@@std@@@std@@QAE@AAV?$allocator@U?$_Tree_node@U?$pair@$$CBHPAVBaseGameEntity@@@std@@PAX@std@@@1@PAU?$_Tree_node@U?$pair@$$CBHPAVBaseGameEntity@@@std@@PAX@1@$$QAU?$pair@HPAVBaseGameEntity@@@1@@Z
_TEXT	SEGMENT
_this$ = -16						; size = 4
__$EHRec$ = -12						; size = 12
__Al_$ = 8						; size = 4
__Myhead$ = 12						; size = 4
_<_Vals_0>$ = 16					; size = 4
??$?0U?$pair@HPAVBaseGameEntity@@@std@@@?$_Tree_temp_node@V?$allocator@U?$_Tree_node@U?$pair@$$CBHPAVBaseGameEntity@@@std@@PAX@std@@@std@@@std@@QAE@AAV?$allocator@U?$_Tree_node@U?$pair@$$CBHPAVBaseGameEntity@@@std@@PAX@std@@@1@PAU?$_Tree_node@U?$pair@$$CBHPAVBaseGameEntity@@@std@@PAX@1@$$QAU?$pair@HPAVBaseGameEntity@@@1@@Z PROC ; std::_Tree_temp_node<std::allocator<std::_Tree_node<std::pair<int const ,BaseGameEntity *>,void *> > >::_Tree_temp_node<std::allocator<std::_Tree_node<std::pair<int const ,BaseGameEntity *>,void *> > ><std::pair<int,BaseGameEntity *> >, COMDAT
; _this$ = ecx

; 829  :         : _Tree_temp_node_alloc<_Alnode>(_Al_) {

	push	ebp
	mov	ebp, esp
	push	-1
	push	__ehhandler$??$?0U?$pair@HPAVBaseGameEntity@@@std@@@?$_Tree_temp_node@V?$allocator@U?$_Tree_node@U?$pair@$$CBHPAVBaseGameEntity@@@std@@PAX@std@@@std@@@std@@QAE@AAV?$allocator@U?$_Tree_node@U?$pair@$$CBHPAVBaseGameEntity@@@std@@PAX@std@@@1@PAU?$_Tree_node@U?$pair@$$CBHPAVBaseGameEntity@@@std@@PAX@1@$$QAU?$pair@HPAVBaseGameEntity@@@1@@Z
	mov	eax, DWORD PTR fs:0
	push	eax
	push	ecx
	mov	DWORD PTR [ebp-16], -858993460		; ccccccccH
	mov	eax, DWORD PTR ___security_cookie
	xor	eax, ebp
	push	eax
	lea	eax, DWORD PTR __$EHRec$[ebp]
	mov	DWORD PTR fs:0, eax
	mov	DWORD PTR _this$[ebp], ecx
	mov	eax, DWORD PTR __Al_$[ebp]
	push	eax
	mov	ecx, DWORD PTR _this$[ebp]
	call	??0?$_Tree_temp_node_alloc@V?$allocator@U?$_Tree_node@U?$pair@$$CBHPAVBaseGameEntity@@@std@@PAX@std@@@std@@@std@@QAE@AAV?$allocator@U?$_Tree_node@U?$pair@$$CBHPAVBaseGameEntity@@@std@@PAX@std@@@1@@Z ; std::_Tree_temp_node_alloc<std::allocator<std::_Tree_node<std::pair<int const ,BaseGameEntity *>,void *> > >::_Tree_temp_node_alloc<std::allocator<std::_Tree_node<std::pair<int const ,BaseGameEntity *>,void *> > >
	mov	DWORD PTR __$EHRec$[ebp+8], 0

; 830  :         _Alnode_traits::construct(this->_Al, _STD addressof(this->_Ptr->_Myval), _STD forward<_Valtys>(_Vals)...);

	mov	ecx, DWORD PTR _<_Vals_0>$[ebp]
	push	ecx
	call	??$forward@U?$pair@HPAVBaseGameEntity@@@std@@@std@@YA$$QAU?$pair@HPAVBaseGameEntity@@@0@AAU10@@Z ; std::forward<std::pair<int,BaseGameEntity *> >
	add	esp, 4
	push	eax
	mov	edx, DWORD PTR _this$[ebp]
	mov	eax, DWORD PTR [edx+4]
	add	eax, 16					; 00000010H
	push	eax
	call	??$addressof@U?$pair@$$CBHPAVBaseGameEntity@@@std@@@std@@YAPAU?$pair@$$CBHPAVBaseGameEntity@@@0@AAU10@@Z ; std::addressof<std::pair<int const ,BaseGameEntity *> >
	add	esp, 4
	push	eax
	mov	ecx, DWORD PTR _this$[ebp]
	mov	edx, DWORD PTR [ecx]
	push	edx
	call	??$construct@U?$pair@$$CBHPAVBaseGameEntity@@@std@@U?$pair@HPAVBaseGameEntity@@@2@@?$_Default_allocator_traits@V?$allocator@U?$_Tree_node@U?$pair@$$CBHPAVBaseGameEntity@@@std@@PAX@std@@@std@@@std@@SAXAAV?$allocator@U?$_Tree_node@U?$pair@$$CBHPAVBaseGameEntity@@@std@@PAX@std@@@1@QAU?$pair@$$CBHPAVBaseGameEntity@@@1@$$QAU?$pair@HPAVBaseGameEntity@@@1@@Z ; std::_Default_allocator_traits<std::allocator<std::_Tree_node<std::pair<int const ,BaseGameEntity *>,void *> > >::construct<std::pair<int const ,BaseGameEntity *>,std::pair<int,BaseGameEntity *> >
	add	esp, 12					; 0000000cH

; 831  :         _Construct_in_place(this->_Ptr->_Left, _Myhead);

	lea	eax, DWORD PTR __Myhead$[ebp]
	push	eax
	mov	ecx, DWORD PTR _this$[ebp]
	mov	edx, DWORD PTR [ecx+4]
	push	edx
	call	??$_Construct_in_place@PAU?$_Tree_node@U?$pair@$$CBHPAVBaseGameEntity@@@std@@PAX@std@@AAPAU12@@std@@YAXAAPAU?$_Tree_node@U?$pair@$$CBHPAVBaseGameEntity@@@std@@PAX@0@0@Z ; std::_Construct_in_place<std::_Tree_node<std::pair<int const ,BaseGameEntity *>,void *> *,std::_Tree_node<std::pair<int const ,BaseGameEntity *>,void *> * &>
	add	esp, 8

; 832  :         _Construct_in_place(this->_Ptr->_Parent, _Myhead);

	lea	eax, DWORD PTR __Myhead$[ebp]
	push	eax
	mov	ecx, DWORD PTR _this$[ebp]
	mov	edx, DWORD PTR [ecx+4]
	add	edx, 4
	push	edx
	call	??$_Construct_in_place@PAU?$_Tree_node@U?$pair@$$CBHPAVBaseGameEntity@@@std@@PAX@std@@AAPAU12@@std@@YAXAAPAU?$_Tree_node@U?$pair@$$CBHPAVBaseGameEntity@@@std@@PAX@0@0@Z ; std::_Construct_in_place<std::_Tree_node<std::pair<int const ,BaseGameEntity *>,void *> *,std::_Tree_node<std::pair<int const ,BaseGameEntity *>,void *> * &>
	add	esp, 8

; 833  :         _Construct_in_place(this->_Ptr->_Right, _Myhead);

	lea	eax, DWORD PTR __Myhead$[ebp]
	push	eax
	mov	ecx, DWORD PTR _this$[ebp]
	mov	edx, DWORD PTR [ecx+4]
	add	edx, 8
	push	edx
	call	??$_Construct_in_place@PAU?$_Tree_node@U?$pair@$$CBHPAVBaseGameEntity@@@std@@PAX@std@@AAPAU12@@std@@YAXAAPAU?$_Tree_node@U?$pair@$$CBHPAVBaseGameEntity@@@std@@PAX@0@0@Z ; std::_Construct_in_place<std::_Tree_node<std::pair<int const ,BaseGameEntity *>,void *> *,std::_Tree_node<std::pair<int const ,BaseGameEntity *>,void *> * &>
	add	esp, 8

; 834  :         this->_Ptr->_Color = _Red;

	mov	eax, DWORD PTR _this$[ebp]
	mov	ecx, DWORD PTR [eax+4]
	mov	BYTE PTR [ecx+12], 0

; 835  :         this->_Ptr->_Isnil = false;

	mov	edx, DWORD PTR _this$[ebp]
	mov	eax, DWORD PTR [edx+4]
	mov	BYTE PTR [eax+13], 0

; 836  :     }

	mov	DWORD PTR __$EHRec$[ebp+8], -1
	mov	eax, DWORD PTR _this$[ebp]
	mov	ecx, DWORD PTR __$EHRec$[ebp]
	mov	DWORD PTR fs:0, ecx
	pop	ecx
	add	esp, 16					; 00000010H
	cmp	ebp, esp
	call	__RTC_CheckEsp
	mov	esp, ebp
	pop	ebp
	ret	12					; 0000000cH
_TEXT	ENDS
;	COMDAT text$x
text$x	SEGMENT
__unwindfunclet$??$?0U?$pair@HPAVBaseGameEntity@@@std@@@?$_Tree_temp_node@V?$allocator@U?$_Tree_node@U?$pair@$$CBHPAVBaseGameEntity@@@std@@PAX@std@@@std@@@std@@QAE@AAV?$allocator@U?$_Tree_node@U?$pair@$$CBHPAVBaseGameEntity@@@std@@PAX@std@@@1@PAU?$_Tree_node@U?$pair@$$CBHPAVBaseGameEntity@@@std@@PAX@1@$$QAU?$pair@HPAVBaseGameEntity@@@1@@Z$0:
	mov	ecx, DWORD PTR _this$[ebp]
	jmp	??1?$_Tree_temp_node_alloc@V?$allocator@U?$_Tree_node@U?$pair@$$CBHPAVBaseGameEntity@@@std@@PAX@std@@@std@@@std@@QAE@XZ
	int	3
	int	3
	int	3
	int	3
	int	3
__ehhandler$??$?0U?$pair@HPAVBaseGameEntity@@@std@@@?$_Tree_temp_node@V?$allocator@U?$_Tree_node@U?$pair@$$CBHPAVBaseGameEntity@@@std@@PAX@std@@@std@@@std@@QAE@AAV?$allocator@U?$_Tree_node@U?$pair@$$CBHPAVBaseGameEntity@@@std@@PAX@std@@@1@PAU?$_Tree_node@U?$pair@$$CBHPAVBaseGameEntity@@@std@@PAX@1@$$QAU?$pair@HPAVBaseGameEntity@@@1@@Z:
	npad	1
	npad	1
	mov	edx, DWORD PTR [esp+8]
	lea	eax, DWORD PTR [edx+12]
	mov	ecx, DWORD PTR [edx-8]
	xor	ecx, eax
	call	@__security_check_cookie@4
	mov	eax, OFFSET __ehfuncinfo$??$?0U?$pair@HPAVBaseGameEntity@@@std@@@?$_Tree_temp_node@V?$allocator@U?$_Tree_node@U?$pair@$$CBHPAVBaseGameEntity@@@std@@PAX@std@@@std@@@std@@QAE@AAV?$allocator@U?$_Tree_node@U?$pair@$$CBHPAVBaseGameEntity@@@std@@PAX@std@@@1@PAU?$_Tree_node@U?$pair@$$CBHPAVBaseGameEntity@@@std@@PAX@1@$$QAU?$pair@HPAVBaseGameEntity@@@1@@Z
	jmp	___CxxFrameHandler3
text$x	ENDS
??$?0U?$pair@HPAVBaseGameEntity@@@std@@@?$_Tree_temp_node@V?$allocator@U?$_Tree_node@U?$pair@$$CBHPAVBaseGameEntity@@@std@@PAX@std@@@std@@@std@@QAE@AAV?$allocator@U?$_Tree_node@U?$pair@$$CBHPAVBaseGameEntity@@@std@@PAX@std@@@1@PAU?$_Tree_node@U?$pair@$$CBHPAVBaseGameEntity@@@std@@PAX@1@$$QAU?$pair@HPAVBaseGameEntity@@@1@@Z ENDP ; std::_Tree_temp_node<std::allocator<std::_Tree_node<std::pair<int const ,BaseGameEntity *>,void *> > >::_Tree_temp_node<std::allocator<std::_Tree_node<std::pair<int const ,BaseGameEntity *>,void *> > ><std::pair<int,BaseGameEntity *> >
; Function compile flags: /Odtp /RTCsu
; File C:\Program Files\Microsoft Visual Studio\2022\Community\VC\Tools\MSVC\14.44.35207\include\xtree
;	COMDAT ??1?$_Tree_temp_node@V?$allocator@U?$_Tree_node@U?$pair@$$CBHPAVBaseGameEntity@@@std@@PAX@std@@@std@@@std@@QAE@XZ
_TEXT	SEGMENT
_this$ = -16						; size = 4
__$EHRec$ = -12						; size = 12
??1?$_Tree_temp_node@V?$allocator@U?$_Tree_node@U?$pair@$$CBHPAVBaseGameEntity@@@std@@PAX@std@@@std@@@std@@QAE@XZ PROC ; std::_Tree_temp_node<std::allocator<std::_Tree_node<std::pair<int const ,BaseGameEntity *>,void *> > >::~_Tree_temp_node<std::allocator<std::_Tree_node<std::pair<int const ,BaseGameEntity *>,void *> > >, COMDAT
; _this$ = ecx

; 841  :     ~_Tree_temp_node() {

	push	ebp
	mov	ebp, esp
	push	-1
	push	__ehhandler$??1?$_Tree_temp_node@V?$allocator@U?$_Tree_node@U?$pair@$$CBHPAVBaseGameEntity@@@std@@PAX@std@@@std@@@std@@QAE@XZ
	mov	eax, DWORD PTR fs:0
	push	eax
	push	ecx
	mov	DWORD PTR [ebp-16], -858993460		; ccccccccH
	mov	eax, DWORD PTR ___security_cookie
	xor	eax, ebp
	push	eax
	lea	eax, DWORD PTR __$EHRec$[ebp]
	mov	DWORD PTR fs:0, eax
	mov	DWORD PTR _this$[ebp], ecx

; 842  :         if (this->_Ptr) {

	mov	eax, DWORD PTR _this$[ebp]
	cmp	DWORD PTR [eax+4], 0
	je	SHORT $LN2@Tree_temp_

; 843  :             _Destroy_in_place(this->_Ptr->_Left);

	mov	ecx, DWORD PTR _this$[ebp]
	mov	edx, DWORD PTR [ecx+4]
	push	edx
	call	??$_Destroy_in_place@PAU?$_Tree_node@U?$pair@$$CBHPAVBaseGameEntity@@@std@@PAX@std@@@std@@YAXAAPAU?$_Tree_node@U?$pair@$$CBHPAVBaseGameEntity@@@std@@PAX@0@@Z ; std::_Destroy_in_place<std::_Tree_node<std::pair<int const ,BaseGameEntity *>,void *> *>
	add	esp, 4

; 844  :             _Destroy_in_place(this->_Ptr->_Parent);

	mov	eax, DWORD PTR _this$[ebp]
	mov	ecx, DWORD PTR [eax+4]
	add	ecx, 4
	push	ecx
	call	??$_Destroy_in_place@PAU?$_Tree_node@U?$pair@$$CBHPAVBaseGameEntity@@@std@@PAX@std@@@std@@YAXAAPAU?$_Tree_node@U?$pair@$$CBHPAVBaseGameEntity@@@std@@PAX@0@@Z ; std::_Destroy_in_place<std::_Tree_node<std::pair<int const ,BaseGameEntity *>,void *> *>
	add	esp, 4

; 845  :             _Destroy_in_place(this->_Ptr->_Right);

	mov	edx, DWORD PTR _this$[ebp]
	mov	eax, DWORD PTR [edx+4]
	add	eax, 8
	push	eax
	call	??$_Destroy_in_place@PAU?$_Tree_node@U?$pair@$$CBHPAVBaseGameEntity@@@std@@PAX@std@@@std@@YAXAAPAU?$_Tree_node@U?$pair@$$CBHPAVBaseGameEntity@@@std@@PAX@0@@Z ; std::_Destroy_in_place<std::_Tree_node<std::pair<int const ,BaseGameEntity *>,void *> *>
	add	esp, 4

; 846  :             _Alnode_traits::destroy(this->_Al, _STD addressof(this->_Ptr->_Myval));

	mov	ecx, DWORD PTR _this$[ebp]
	mov	edx, DWORD PTR [ecx+4]
	add	edx, 16					; 00000010H
	push	edx
	call	??$addressof@U?$pair@$$CBHPAVBaseGameEntity@@@std@@@std@@YAPAU?$pair@$$CBHPAVBaseGameEntity@@@0@AAU10@@Z ; std::addressof<std::pair<int const ,BaseGameEntity *> >
	add	esp, 4
	push	eax
	mov	eax, DWORD PTR _this$[ebp]
	mov	ecx, DWORD PTR [eax]
	push	ecx
	call	??$destroy@U?$pair@$$CBHPAVBaseGameEntity@@@std@@@?$_Default_allocator_traits@V?$allocator@U?$_Tree_node@U?$pair@$$CBHPAVBaseGameEntity@@@std@@PAX@std@@@std@@@std@@SAXAAV?$allocator@U?$_Tree_node@U?$pair@$$CBHPAVBaseGameEntity@@@std@@PAX@std@@@1@QAU?$pair@$$CBHPAVBaseGameEntity@@@1@@Z ; std::_Default_allocator_traits<std::allocator<std::_Tree_node<std::pair<int const ,BaseGameEntity *>,void *> > >::destroy<std::pair<int const ,BaseGameEntity *> >
	add	esp, 8
$LN2@Tree_temp_:

; 847  :         }
; 848  :     }

	mov	ecx, DWORD PTR _this$[ebp]
	call	??1?$_Tree_temp_node_alloc@V?$allocator@U?$_Tree_node@U?$pair@$$CBHPAVBaseGameEntity@@@std@@PAX@std@@@std@@@std@@QAE@XZ
	npad	1
	mov	ecx, DWORD PTR __$EHRec$[ebp]
	mov	DWORD PTR fs:0, ecx
	pop	ecx
	add	esp, 16					; 00000010H
	cmp	ebp, esp
	call	__RTC_CheckEsp
	mov	esp, ebp
	pop	ebp
	ret	0
	int	3
	int	3
	int	3
	int	3
	int	3
_TEXT	ENDS
;	COMDAT text$x
text$x	SEGMENT
__ehhandler$??1?$_Tree_temp_node@V?$allocator@U?$_Tree_node@U?$pair@$$CBHPAVBaseGameEntity@@@std@@PAX@std@@@std@@@std@@QAE@XZ:
	npad	1
	npad	1
	mov	edx, DWORD PTR [esp+8]
	lea	eax, DWORD PTR [edx+12]
	mov	ecx, DWORD PTR [edx-8]
	xor	ecx, eax
	call	@__security_check_cookie@4
	mov	eax, OFFSET __ehfuncinfo$??1?$_Tree_temp_node@V?$allocator@U?$_Tree_node@U?$pair@$$CBHPAVBaseGameEntity@@@std@@PAX@std@@@std@@@std@@QAE@XZ
	jmp	___CxxFrameHandler3
text$x	ENDS
??1?$_Tree_temp_node@V?$allocator@U?$_Tree_node@U?$pair@$$CBHPAVBaseGameEntity@@@std@@PAX@std@@@std@@@std@@QAE@XZ ENDP ; std::_Tree_temp_node<std::allocator<std::_Tree_node<std::pair<int const ,BaseGameEntity *>,void *> > >::~_Tree_temp_node<std::allocator<std::_Tree_node<std::pair<int const ,BaseGameEntity *>,void *> > >
; Function compile flags: /Odtp /RTCsu
;	COMDAT ??1?$_Tree_temp_node_alloc@V?$allocator@U?$_Tree_node@U?$pair@$$CBHPAVBaseGameEntity@@@std@@PAX@std@@@std@@@std@@QAE@XZ
_TEXT	SEGMENT
_this$ = -4						; size = 4
??1?$_Tree_temp_node_alloc@V?$allocator@U?$_Tree_node@U?$pair@$$CBHPAVBaseGameEntity@@@std@@PAX@std@@@std@@@std@@QAE@XZ PROC ; std::_Tree_temp_node_alloc<std::allocator<std::_Tree_node<std::pair<int const ,BaseGameEntity *>,void *> > >::~_Tree_temp_node_alloc<std::allocator<std::_Tree_node<std::pair<int const ,BaseGameEntity *>,void *> > >, COMDAT
; _this$ = ecx
	push	ebp
	mov	ebp, esp
	push	ecx
	mov	DWORD PTR [ebp-4], -858993460		; ccccccccH
	mov	DWORD PTR _this$[ebp], ecx
	mov	ecx, DWORD PTR _this$[ebp]
	call	??1?$_Alloc_construct_ptr@V?$allocator@U?$_Tree_node@U?$pair@$$CBHPAVBaseGameEntity@@@std@@PAX@std@@@std@@@std@@QAE@XZ ; std::_Alloc_construct_ptr<std::allocator<std::_Tree_node<std::pair<int const ,BaseGameEntity *>,void *> > >::~_Alloc_construct_ptr<std::allocator<std::_Tree_node<std::pair<int const ,BaseGameEntity *>,void *> > >
	npad	1
	add	esp, 4
	cmp	ebp, esp
	call	__RTC_CheckEsp
	mov	esp, ebp
	pop	ebp
	ret	0
??1?$_Tree_temp_node_alloc@V?$allocator@U?$_Tree_node@U?$pair@$$CBHPAVBaseGameEntity@@@std@@PAX@std@@@std@@@std@@QAE@XZ ENDP ; std::_Tree_temp_node_alloc<std::allocator<std::_Tree_node<std::pair<int const ,BaseGameEntity *>,void *> > >::~_Tree_temp_node_alloc<std::allocator<std::_Tree_node<std::pair<int const ,BaseGameEntity *>,void *> > >
_TEXT	ENDS
; Function compile flags: /Odtp /RTCsu
; File C:\Program Files\Microsoft Visual Studio\2022\Community\VC\Tools\MSVC\14.44.35207\include\xtree
;	COMDAT ??0?$_Tree_temp_node_alloc@V?$allocator@U?$_Tree_node@U?$pair@$$CBHPAVBaseGameEntity@@@std@@PAX@std@@@std@@@std@@QAE@AAV?$allocator@U?$_Tree_node@U?$pair@$$CBHPAVBaseGameEntity@@@std@@PAX@std@@@1@@Z
_TEXT	SEGMENT
_this$ = -16						; size = 4
__$EHRec$ = -12						; size = 12
__Al_$ = 8						; size = 4
??0?$_Tree_temp_node_alloc@V?$allocator@U?$_Tree_node@U?$pair@$$CBHPAVBaseGameEntity@@@std@@PAX@std@@@std@@@std@@QAE@AAV?$allocator@U?$_Tree_node@U?$pair@$$CBHPAVBaseGameEntity@@@std@@PAX@std@@@1@@Z PROC ; std::_Tree_temp_node_alloc<std::allocator<std::_Tree_node<std::pair<int const ,BaseGameEntity *>,void *> > >::_Tree_temp_node_alloc<std::allocator<std::_Tree_node<std::pair<int const ,BaseGameEntity *>,void *> > >, COMDAT
; _this$ = ecx

; 808  :     explicit _Tree_temp_node_alloc(_Alnode& _Al_) : _Alloc_construct_ptr<_Alnode>(_Al_) {

	push	ebp
	mov	ebp, esp
	push	-1
	push	__ehhandler$??0?$_Tree_temp_node_alloc@V?$allocator@U?$_Tree_node@U?$pair@$$CBHPAVBaseGameEntity@@@std@@PAX@std@@@std@@@std@@QAE@AAV?$allocator@U?$_Tree_node@U?$pair@$$CBHPAVBaseGameEntity@@@std@@PAX@std@@@1@@Z
	mov	eax, DWORD PTR fs:0
	push	eax
	push	ecx
	mov	DWORD PTR [ebp-16], -858993460		; ccccccccH
	mov	eax, DWORD PTR ___security_cookie
	xor	eax, ebp
	push	eax
	lea	eax, DWORD PTR __$EHRec$[ebp]
	mov	DWORD PTR fs:0, eax
	mov	DWORD PTR _this$[ebp], ecx
	mov	eax, DWORD PTR __Al_$[ebp]
	push	eax
	mov	ecx, DWORD PTR _this$[ebp]
	call	??0?$_Alloc_construct_ptr@V?$allocator@U?$_Tree_node@U?$pair@$$CBHPAVBaseGameEntity@@@std@@PAX@std@@@std@@@std@@QAE@AAV?$allocator@U?$_Tree_node@U?$pair@$$CBHPAVBaseGameEntity@@@std@@PAX@std@@@1@@Z ; std::_Alloc_construct_ptr<std::allocator<std::_Tree_node<std::pair<int const ,BaseGameEntity *>,void *> > >::_Alloc_construct_ptr<std::allocator<std::_Tree_node<std::pair<int const ,BaseGameEntity *>,void *> > >
	mov	DWORD PTR __$EHRec$[ebp+8], 0

; 809  :         _Alloc_construct_ptr<_Alnode>::_Allocate();

	mov	ecx, DWORD PTR _this$[ebp]
	call	?_Allocate@?$_Alloc_construct_ptr@V?$allocator@U?$_Tree_node@U?$pair@$$CBHPAVBaseGameEntity@@@std@@PAX@std@@@std@@@std@@QAEXXZ ; std::_Alloc_construct_ptr<std::allocator<std::_Tree_node<std::pair<int const ,BaseGameEntity *>,void *> > >::_Allocate
	npad	1

; 810  :     }

	mov	DWORD PTR __$EHRec$[ebp+8], -1
	mov	eax, DWORD PTR _this$[ebp]
	mov	ecx, DWORD PTR __$EHRec$[ebp]
	mov	DWORD PTR fs:0, ecx
	pop	ecx
	add	esp, 16					; 00000010H
	cmp	ebp, esp
	call	__RTC_CheckEsp
	mov	esp, ebp
	pop	ebp
	ret	4
_TEXT	ENDS
;	COMDAT text$x
text$x	SEGMENT
__unwindfunclet$??0?$_Tree_temp_node_alloc@V?$allocator@U?$_Tree_node@U?$pair@$$CBHPAVBaseGameEntity@@@std@@PAX@std@@@std@@@std@@QAE@AAV?$allocator@U?$_Tree_node@U?$pair@$$CBHPAVBaseGameEntity@@@std@@PAX@std@@@1@@Z$0:
	mov	ecx, DWORD PTR _this$[ebp]
	jmp	??1?$_Alloc_construct_ptr@V?$allocator@U?$_Tree_node@U?$pair@$$CBHPAVBaseGameEntity@@@std@@PAX@std@@@std@@@std@@QAE@XZ ; std::_Alloc_construct_ptr<std::allocator<std::_Tree_node<std::pair<int const ,BaseGameEntity *>,void *> > >::~_Alloc_construct_ptr<std::allocator<std::_Tree_node<std::pair<int const ,BaseGameEntity *>,void *> > >
	int	3
	int	3
	int	3
	int	3
	int	3
__ehhandler$??0?$_Tree_temp_node_alloc@V?$allocator@U?$_Tree_node@U?$pair@$$CBHPAVBaseGameEntity@@@std@@PAX@std@@@std@@@std@@QAE@AAV?$allocator@U?$_Tree_node@U?$pair@$$CBHPAVBaseGameEntity@@@std@@PAX@std@@@1@@Z:
	npad	1
	npad	1
	mov	edx, DWORD PTR [esp+8]
	lea	eax, DWORD PTR [edx+12]
	mov	ecx, DWORD PTR [edx-8]
	xor	ecx, eax
	call	@__security_check_cookie@4
	mov	eax, OFFSET __ehfuncinfo$??0?$_Tree_temp_node_alloc@V?$allocator@U?$_Tree_node@U?$pair@$$CBHPAVBaseGameEntity@@@std@@PAX@std@@@std@@@std@@QAE@AAV?$allocator@U?$_Tree_node@U?$pair@$$CBHPAVBaseGameEntity@@@std@@PAX@std@@@1@@Z
	jmp	___CxxFrameHandler3
text$x	ENDS
??0?$_Tree_temp_node_alloc@V?$allocator@U?$_Tree_node@U?$pair@$$CBHPAVBaseGameEntity@@@std@@PAX@std@@@std@@@std@@QAE@AAV?$allocator@U?$_Tree_node@U?$pair@$$CBHPAVBaseGameEntity@@@std@@PAX@std@@@1@@Z ENDP ; std::_Tree_temp_node_alloc<std::allocator<std::_Tree_node<std::pair<int const ,BaseGameEntity *>,void *> > >::_Tree_temp_node_alloc<std::allocator<std::_Tree_node<std::pair<int const ,BaseGameEntity *>,void *> > >
; Function compile flags: /Odtp /RTCsu
; File C:\Program Files\Microsoft Visual Studio\2022\Community\VC\Tools\MSVC\14.44.35207\include\xmemory
;	COMDAT ??1?$_Alloc_construct_ptr@V?$allocator@U?$_Tree_node@U?$pair@$$CBHPAVBaseGameEntity@@@std@@PAX@std@@@std@@@std@@QAE@XZ
_TEXT	SEGMENT
_this$ = -4						; size = 4
??1?$_Alloc_construct_ptr@V?$allocator@U?$_Tree_node@U?$pair@$$CBHPAVBaseGameEntity@@@std@@PAX@std@@@std@@@std@@QAE@XZ PROC ; std::_Alloc_construct_ptr<std::allocator<std::_Tree_node<std::pair<int const ,BaseGameEntity *>,void *> > >::~_Alloc_construct_ptr<std::allocator<std::_Tree_node<std::pair<int const ,BaseGameEntity *>,void *> > >, COMDAT
; _this$ = ecx

; 1171 :     _CONSTEXPR20 ~_Alloc_construct_ptr() { // if this instance is engaged, deallocate storage

	push	ebp
	mov	ebp, esp
	push	ecx
	mov	DWORD PTR [ebp-4], -858993460		; ccccccccH
	mov	DWORD PTR _this$[ebp], ecx

; 1172 :         if (_Ptr) {

	mov	eax, DWORD PTR _this$[ebp]
	cmp	DWORD PTR [eax+4], 0
	je	SHORT $LN2@Alloc_cons

; 1173 :             _Al.deallocate(_Ptr, 1);

	push	1
	mov	ecx, DWORD PTR _this$[ebp]
	mov	edx, DWORD PTR [ecx+4]
	push	edx
	mov	eax, DWORD PTR _this$[ebp]
	mov	ecx, DWORD PTR [eax]
	call	?deallocate@?$allocator@U?$_Tree_node@U?$pair@$$CBHPAVBaseGameEntity@@@std@@PAX@std@@@std@@QAEXQAU?$_Tree_node@U?$pair@$$CBHPAVBaseGameEntity@@@std@@PAX@2@I@Z ; std::allocator<std::_Tree_node<std::pair<int const ,BaseGameEntity *>,void *> >::deallocate
	npad	1
$LN2@Alloc_cons:

; 1174 :         }
; 1175 :     }

	add	esp, 4
	cmp	ebp, esp
	call	__RTC_CheckEsp
	mov	esp, ebp
	pop	ebp
	ret	0
??1?$_Alloc_construct_ptr@V?$allocator@U?$_Tree_node@U?$pair@$$CBHPAVBaseGameEntity@@@std@@PAX@std@@@std@@@std@@QAE@XZ ENDP ; std::_Alloc_construct_ptr<std::allocator<std::_Tree_node<std::pair<int const ,BaseGameEntity *>,void *> > >::~_Alloc_construct_ptr<std::allocator<std::_Tree_node<std::pair<int const ,BaseGameEntity *>,void *> > >
_TEXT	ENDS
; Function compile flags: /Odtp /RTCsu
; File C:\Program Files\Microsoft Visual Studio\2022\Community\VC\Tools\MSVC\14.44.35207\include\xmemory
;	COMDAT ?_Allocate@?$_Alloc_construct_ptr@V?$allocator@U?$_Tree_node@U?$pair@$$CBHPAVBaseGameEntity@@@std@@PAX@std@@@std@@@std@@QAEXXZ
_TEXT	SEGMENT
_this$ = -4						; size = 4
?_Allocate@?$_Alloc_construct_ptr@V?$allocator@U?$_Tree_node@U?$pair@$$CBHPAVBaseGameEntity@@@std@@PAX@std@@@std@@@std@@QAEXXZ PROC ; std::_Alloc_construct_ptr<std::allocator<std::_Tree_node<std::pair<int const ,BaseGameEntity *>,void *> > >::_Allocate, COMDAT
; _this$ = ecx

; 1166 :     _CONSTEXPR20 void _Allocate() { // disengage *this, then allocate a new memory block

	push	ebp
	mov	ebp, esp
	push	ecx
	mov	DWORD PTR [ebp-4], -858993460		; ccccccccH
	mov	DWORD PTR _this$[ebp], ecx

; 1167 :         _Ptr = nullptr; // if allocate throws, prevents double-free

	mov	eax, DWORD PTR _this$[ebp]
	mov	DWORD PTR [eax+4], 0

; 1168 :         _Ptr = _Al.allocate(1);

	push	1
	mov	ecx, DWORD PTR _this$[ebp]
	mov	ecx, DWORD PTR [ecx]
	call	?allocate@?$allocator@U?$_Tree_node@U?$pair@$$CBHPAVBaseGameEntity@@@std@@PAX@std@@@std@@QAEPAU?$_Tree_node@U?$pair@$$CBHPAVBaseGameEntity@@@std@@PAX@2@I@Z ; std::allocator<std::_Tree_node<std::pair<int const ,BaseGameEntity *>,void *> >::allocate
	mov	edx, DWORD PTR _this$[ebp]
	mov	DWORD PTR [edx+4], eax

; 1169 :     }

	add	esp, 4
	cmp	ebp, esp
	call	__RTC_CheckEsp
	mov	esp, ebp
	pop	ebp
	ret	0
?_Allocate@?$_Alloc_construct_ptr@V?$allocator@U?$_Tree_node@U?$pair@$$CBHPAVBaseGameEntity@@@std@@PAX@std@@@std@@@std@@QAEXXZ ENDP ; std::_Alloc_construct_ptr<std::allocator<std::_Tree_node<std::pair<int const ,BaseGameEntity *>,void *> > >::_Allocate
_TEXT	ENDS
; Function compile flags: /Odtp /RTCsu
; File C:\Program Files\Microsoft Visual Studio\2022\Community\VC\Tools\MSVC\14.44.35207\include\xmemory
;	COMDAT ?_Release@?$_Alloc_construct_ptr@V?$allocator@U?$_Tree_node@U?$pair@$$CBHPAVBaseGameEntity@@@std@@PAX@std@@@std@@@std@@QAEPAU?$_Tree_node@U?$pair@$$CBHPAVBaseGameEntity@@@std@@PAX@2@XZ
_TEXT	SEGMENT
$T1 = -8						; size = 4
_this$ = -4						; size = 4
?_Release@?$_Alloc_construct_ptr@V?$allocator@U?$_Tree_node@U?$pair@$$CBHPAVBaseGameEntity@@@std@@PAX@std@@@std@@@std@@QAEPAU?$_Tree_node@U?$pair@$$CBHPAVBaseGameEntity@@@std@@PAX@2@XZ PROC ; std::_Alloc_construct_ptr<std::allocator<std::_Tree_node<std::pair<int const ,BaseGameEntity *>,void *> > >::_Release, COMDAT
; _this$ = ecx

; 1162 :     _NODISCARD _CONSTEXPR20 pointer _Release() noexcept { // disengage *this and return contained pointer

	push	ebp
	mov	ebp, esp
	sub	esp, 8
	mov	DWORD PTR [ebp-8], -858993460		; ccccccccH
	mov	DWORD PTR [ebp-4], -858993460		; ccccccccH
	mov	DWORD PTR _this$[ebp], ecx

; 1163 :         return _STD exchange(_Ptr, nullptr);

	mov	DWORD PTR $T1[ebp], 0
	lea	eax, DWORD PTR $T1[ebp]
	push	eax
	mov	ecx, DWORD PTR _this$[ebp]
	add	ecx, 4
	push	ecx
	call	??$exchange@PAU?$_Tree_node@U?$pair@$$CBHPAVBaseGameEntity@@@std@@PAX@std@@$$T@std@@YAPAU?$_Tree_node@U?$pair@$$CBHPAVBaseGameEntity@@@std@@PAX@0@AAPAU10@$$QA$$T@Z ; std::exchange<std::_Tree_node<std::pair<int const ,BaseGameEntity *>,void *> *,std::nullptr_t>
	add	esp, 8

; 1164 :     }

	add	esp, 8
	cmp	ebp, esp
	call	__RTC_CheckEsp
	mov	esp, ebp
	pop	ebp
	ret	0
?_Release@?$_Alloc_construct_ptr@V?$allocator@U?$_Tree_node@U?$pair@$$CBHPAVBaseGameEntity@@@std@@PAX@std@@@std@@@std@@QAEPAU?$_Tree_node@U?$pair@$$CBHPAVBaseGameEntity@@@std@@PAX@2@XZ ENDP ; std::_Alloc_construct_ptr<std::allocator<std::_Tree_node<std::pair<int const ,BaseGameEntity *>,void *> > >::_Release
_TEXT	ENDS
; Function compile flags: /Odtp /RTCsu
; File C:\Program Files\Microsoft Visual Studio\2022\Community\VC\Tools\MSVC\14.44.35207\include\xmemory
;	COMDAT ??0?$_Alloc_construct_ptr@V?$allocator@U?$_Tree_node@U?$pair@$$CBHPAVBaseGameEntity@@@std@@PAX@std@@@std@@@std@@QAE@AAV?$allocator@U?$_Tree_node@U?$pair@$$CBHPAVBaseGameEntity@@@std@@PAX@std@@@1@@Z
_TEXT	SEGMENT
_this$ = -4						; size = 4
__Al_$ = 8						; size = 4
??0?$_Alloc_construct_ptr@V?$allocator@U?$_Tree_node@U?$pair@$$CBHPAVBaseGameEntity@@@std@@PAX@std@@@std@@@std@@QAE@AAV?$allocator@U?$_Tree_node@U?$pair@$$CBHPAVBaseGameEntity@@@std@@PAX@std@@@1@@Z PROC ; std::_Alloc_construct_ptr<std::allocator<std::_Tree_node<std::pair<int const ,BaseGameEntity *>,void *> > >::_Alloc_construct_ptr<std::allocator<std::_Tree_node<std::pair<int const ,BaseGameEntity *>,void *> > >, COMDAT
; _this$ = ecx

; 1160 :     _CONSTEXPR20 explicit _Alloc_construct_ptr(_Alloc& _Al_) : _Al(_Al_), _Ptr(nullptr) {}

	push	ebp
	mov	ebp, esp
	push	ecx
	mov	DWORD PTR _this$[ebp], ecx
	mov	eax, DWORD PTR _this$[ebp]
	mov	ecx, DWORD PTR __Al_$[ebp]
	mov	DWORD PTR [eax], ecx
	mov	edx, DWORD PTR _this$[ebp]
	mov	DWORD PTR [edx+4], 0
	mov	eax, DWORD PTR _this$[ebp]
	mov	esp, ebp
	pop	ebp
	ret	4
??0?$_Alloc_construct_ptr@V?$allocator@U?$_Tree_node@U?$pair@$$CBHPAVBaseGameEntity@@@std@@PAX@std@@@std@@@std@@QAE@AAV?$allocator@U?$_Tree_node@U?$pair@$$CBHPAVBaseGameEntity@@@std@@PAX@std@@@1@@Z ENDP ; std::_Alloc_construct_ptr<std::allocator<std::_Tree_node<std::pair<int const ,BaseGameEntity *>,void *> > >::_Alloc_construct_ptr<std::allocator<std::_Tree_node<std::pair<int const ,BaseGameEntity *>,void *> > >
_TEXT	ENDS
; Function compile flags: /Odtp /RTCsu
; File C:\Program Files\Microsoft Visual Studio\2022\Community\VC\Tools\MSVC\14.44.35207\include\utility
;	COMDAT ??$?0AAPAU?$_Tree_node@U?$pair@$$CBHPAVBaseGameEntity@@@std@@PAX@std@@_N$0A@@?$pair@PAU?$_Tree_node@U?$pair@$$CBHPAVBaseGameEntity@@@std@@PAX@std@@_N@std@@QAE@AAPAU?$_Tree_node@U?$pair@$$CBHPAVBaseGameEntity@@@std@@PAX@1@$$QA_N@Z
_TEXT	SEGMENT
_this$ = -4						; size = 4
__Val1$ = 8						; size = 4
__Val2$ = 12						; size = 4
??$?0AAPAU?$_Tree_node@U?$pair@$$CBHPAVBaseGameEntity@@@std@@PAX@std@@_N$0A@@?$pair@PAU?$_Tree_node@U?$pair@$$CBHPAVBaseGameEntity@@@std@@PAX@std@@_N@std@@QAE@AAPAU?$_Tree_node@U?$pair@$$CBHPAVBaseGameEntity@@@std@@PAX@1@$$QA_N@Z PROC ; std::pair<std::_Tree_node<std::pair<int const ,BaseGameEntity *>,void *> *,bool>::pair<std::_Tree_node<std::pair<int const ,BaseGameEntity *>,void *> *,bool><std::_Tree_node<std::pair<int const ,BaseGameEntity *>,void *> * &,bool,0>, COMDAT
; _this$ = ecx

; 274  :         : first(_STD forward<_Other1>(_Val1)), second(_STD forward<_Other2>(_Val2)) {

	push	ebp
	mov	ebp, esp
	push	ecx
	mov	DWORD PTR [ebp-4], -858993460		; ccccccccH
	mov	DWORD PTR _this$[ebp], ecx
	mov	eax, DWORD PTR __Val1$[ebp]
	push	eax
	call	??$forward@AAPAU?$_Tree_node@U?$pair@$$CBHPAVBaseGameEntity@@@std@@PAX@std@@@std@@YAAAPAU?$_Tree_node@U?$pair@$$CBHPAVBaseGameEntity@@@std@@PAX@0@AAPAU10@@Z ; std::forward<std::_Tree_node<std::pair<int const ,BaseGameEntity *>,void *> * &>
	add	esp, 4
	mov	ecx, DWORD PTR _this$[ebp]
	mov	edx, DWORD PTR [eax]
	mov	DWORD PTR [ecx], edx
	mov	eax, DWORD PTR __Val2$[ebp]
	push	eax
	call	??$forward@_N@std@@YA$$QA_NAA_N@Z	; std::forward<bool>
	add	esp, 4
	mov	ecx, DWORD PTR _this$[ebp]
	mov	dl, BYTE PTR [eax]
	mov	BYTE PTR [ecx+4], dl

; 275  :     }

	mov	eax, DWORD PTR _this$[ebp]
	add	esp, 4
	cmp	ebp, esp
	call	__RTC_CheckEsp
	mov	esp, ebp
	pop	ebp
	ret	8
??$?0AAPAU?$_Tree_node@U?$pair@$$CBHPAVBaseGameEntity@@@std@@PAX@std@@_N$0A@@?$pair@PAU?$_Tree_node@U?$pair@$$CBHPAVBaseGameEntity@@@std@@PAX@std@@_N@std@@QAE@AAPAU?$_Tree_node@U?$pair@$$CBHPAVBaseGameEntity@@@std@@PAX@1@$$QA_N@Z ENDP ; std::pair<std::_Tree_node<std::pair<int const ,BaseGameEntity *>,void *> *,bool>::pair<std::_Tree_node<std::pair<int const ,BaseGameEntity *>,void *> *,bool><std::_Tree_node<std::pair<int const ,BaseGameEntity *>,void *> * &,bool,0>
_TEXT	ENDS
; Function compile flags: /Odtp /RTCsu
; File C:\Program Files\Microsoft Visual Studio\2022\Community\VC\Tools\MSVC\14.44.35207\include\xmemory
;	COMDAT ?_Extract@?$_In_place_key_extract_map_impl@HU?$pair@HPAVBaseGameEntity@@@std@@@std@@SAABHABU?$pair@HPAVBaseGameEntity@@@2@@Z
_TEXT	SEGMENT
__Val$ = 8						; size = 4
?_Extract@?$_In_place_key_extract_map_impl@HU?$pair@HPAVBaseGameEntity@@@std@@@std@@SAABHABU?$pair@HPAVBaseGameEntity@@@2@@Z PROC ; std::_In_place_key_extract_map_impl<int,std::pair<int,BaseGameEntity *> >::_Extract, COMDAT

; 2174 :     static const _Key& _Extract(const pair<_First, _Second>& _Val) noexcept {

	push	ebp
	mov	ebp, esp

; 2175 :         return _Val.first;

	mov	eax, DWORD PTR __Val$[ebp]

; 2176 :     }

	pop	ebp
	ret	0
?_Extract@?$_In_place_key_extract_map_impl@HU?$pair@HPAVBaseGameEntity@@@std@@@std@@SAABHABU?$pair@HPAVBaseGameEntity@@@2@@Z ENDP ; std::_In_place_key_extract_map_impl<int,std::pair<int,BaseGameEntity *> >::_Extract
_TEXT	ENDS
; Function compile flags: /Odtp /RTCsu
; File C:\Program Files\Microsoft Visual Studio\2022\Community\VC\Tools\MSVC\14.44.35207\include\xmemory
;	COMDAT ??$?0$$V@?$_Compressed_pair@V?$allocator@U?$_Tree_node@U?$pair@$$CBHPAVBaseGameEntity@@@std@@PAX@std@@@std@@V?$_Tree_val@U?$_Tree_simple_types@U?$pair@$$CBHPAVBaseGameEntity@@@std@@@std@@@2@$00@std@@QAE@U_Zero_then_variadic_args_t@1@@Z
_TEXT	SEGMENT
_this$ = -4						; size = 4
___formal$ = 8						; size = 1
??$?0$$V@?$_Compressed_pair@V?$allocator@U?$_Tree_node@U?$pair@$$CBHPAVBaseGameEntity@@@std@@PAX@std@@@std@@V?$_Tree_val@U?$_Tree_simple_types@U?$pair@$$CBHPAVBaseGameEntity@@@std@@@std@@@2@$00@std@@QAE@U_Zero_then_variadic_args_t@1@@Z PROC ; std::_Compressed_pair<std::allocator<std::_Tree_node<std::pair<int const ,BaseGameEntity *>,void *> >,std::_Tree_val<std::_Tree_simple_types<std::pair<int const ,BaseGameEntity *> > >,1>::_Compressed_pair<std::allocator<std::_Tree_node<std::pair<int const ,BaseGameEntity *>,void *> >,std::_Tree_val<std::_Tree_simple_types<std::pair<int const ,BaseGameEntity *> > >,1><>, COMDAT
; _this$ = ecx

; 1531 :         : _Ty1(), _Myval2(_STD forward<_Other2>(_Val2)...) {}

	push	ebp
	mov	ebp, esp
	push	ecx
	mov	DWORD PTR [ebp-4], -858993460		; ccccccccH
	mov	DWORD PTR _this$[ebp], ecx
	mov	ecx, DWORD PTR _this$[ebp]
	call	??0?$allocator@U?$_Tree_node@U?$pair@$$CBHPAVBaseGameEntity@@@std@@PAX@std@@@std@@QAE@XZ ; std::allocator<std::_Tree_node<std::pair<int const ,BaseGameEntity *>,void *> >::allocator<std::_Tree_node<std::pair<int const ,BaseGameEntity *>,void *> >
	mov	ecx, DWORD PTR _this$[ebp]
	call	??0?$_Tree_val@U?$_Tree_simple_types@U?$pair@$$CBHPAVBaseGameEntity@@@std@@@std@@@std@@QAE@XZ ; std::_Tree_val<std::_Tree_simple_types<std::pair<int const ,BaseGameEntity *> > >::_Tree_val<std::_Tree_simple_types<std::pair<int const ,BaseGameEntity *> > >
	npad	1
	mov	eax, DWORD PTR _this$[ebp]
	add	esp, 4
	cmp	ebp, esp
	call	__RTC_CheckEsp
	mov	esp, ebp
	pop	ebp
	ret	4
??$?0$$V@?$_Compressed_pair@V?$allocator@U?$_Tree_node@U?$pair@$$CBHPAVBaseGameEntity@@@std@@PAX@std@@@std@@V?$_Tree_val@U?$_Tree_simple_types@U?$pair@$$CBHPAVBaseGameEntity@@@std@@@std@@@2@$00@std@@QAE@U_Zero_then_variadic_args_t@1@@Z ENDP ; std::_Compressed_pair<std::allocator<std::_Tree_node<std::pair<int const ,BaseGameEntity *>,void *> >,std::_Tree_val<std::_Tree_simple_types<std::pair<int const ,BaseGameEntity *> > >,1>::_Compressed_pair<std::allocator<std::_Tree_node<std::pair<int const ,BaseGameEntity *>,void *> >,std::_Tree_val<std::_Tree_simple_types<std::pair<int const ,BaseGameEntity *> > >,1><>
_TEXT	ENDS
; Function compile flags: /Odtp /RTCsu
; File C:\Program Files\Microsoft Visual Studio\2022\Community\VC\Tools\MSVC\14.44.35207\include\xmemory
;	COMDAT ??$?0ABU?$less@H@std@@U_Zero_then_variadic_args_t@1@@?$_Compressed_pair@U?$less@H@std@@V?$_Compressed_pair@V?$allocator@U?$_Tree_node@U?$pair@$$CBHPAVBaseGameEntity@@@std@@PAX@std@@@std@@V?$_Tree_val@U?$_Tree_simple_types@U?$pair@$$CBHPAVBaseGameEntity@@@std@@@std@@@2@$00@2@$00@std@@QAE@U_One_then_variadic_args_t@1@ABU?$less@H@1@$$QAU_Zero_then_variadic_args_t@1@@Z
_TEXT	SEGMENT
_this$ = -4						; size = 4
___formal$ = 8						; size = 1
__Val1$ = 12						; size = 4
_<_Val2_0>$ = 16					; size = 4
??$?0ABU?$less@H@std@@U_Zero_then_variadic_args_t@1@@?$_Compressed_pair@U?$less@H@std@@V?$_Compressed_pair@V?$allocator@U?$_Tree_node@U?$pair@$$CBHPAVBaseGameEntity@@@std@@PAX@std@@@std@@V?$_Tree_val@U?$_Tree_simple_types@U?$pair@$$CBHPAVBaseGameEntity@@@std@@@std@@@2@$00@2@$00@std@@QAE@U_One_then_variadic_args_t@1@ABU?$less@H@1@$$QAU_Zero_then_variadic_args_t@1@@Z PROC ; std::_Compressed_pair<std::less<int>,std::_Compressed_pair<std::allocator<std::_Tree_node<std::pair<int const ,BaseGameEntity *>,void *> >,std::_Tree_val<std::_Tree_simple_types<std::pair<int const ,BaseGameEntity *> > >,1>,1>::_Compressed_pair<std::less<int>,std::_Compressed_pair<std::allocator<std::_Tree_node<std::pair<int const ,BaseGameEntity *>,void *> >,std::_Tree_val<std::_Tree_simple_types<std::pair<int const ,BaseGameEntity *> > >,1>,1><std::less<int> const &,std::_Zero_then_variadic_args_t>, COMDAT
; _this$ = ecx

; 1536 :         : _Ty1(_STD forward<_Other1>(_Val1)), _Myval2(_STD forward<_Other2>(_Val2)...) {}

	push	ebp
	mov	ebp, esp
	push	ecx
	mov	DWORD PTR [ebp-4], -858993460		; ccccccccH
	mov	DWORD PTR _this$[ebp], ecx
	mov	eax, DWORD PTR __Val1$[ebp]
	push	eax
	call	??$forward@ABU?$less@H@std@@@std@@YAABU?$less@H@0@ABU10@@Z ; std::forward<std::less<int> const &>
	add	esp, 4
	mov	ecx, DWORD PTR _<_Val2_0>$[ebp]
	push	ecx
	call	??$forward@U_Zero_then_variadic_args_t@std@@@std@@YA$$QAU_Zero_then_variadic_args_t@0@AAU10@@Z ; std::forward<std::_Zero_then_variadic_args_t>
	add	esp, 4
	mov	dl, BYTE PTR [eax]
	movzx	eax, dl
	push	eax
	mov	ecx, DWORD PTR _this$[ebp]
	call	??$?0$$V@?$_Compressed_pair@V?$allocator@U?$_Tree_node@U?$pair@$$CBHPAVBaseGameEntity@@@std@@PAX@std@@@std@@V?$_Tree_val@U?$_Tree_simple_types@U?$pair@$$CBHPAVBaseGameEntity@@@std@@@std@@@2@$00@std@@QAE@U_Zero_then_variadic_args_t@1@@Z ; std::_Compressed_pair<std::allocator<std::_Tree_node<std::pair<int const ,BaseGameEntity *>,void *> >,std::_Tree_val<std::_Tree_simple_types<std::pair<int const ,BaseGameEntity *> > >,1>::_Compressed_pair<std::allocator<std::_Tree_node<std::pair<int const ,BaseGameEntity *>,void *> >,std::_Tree_val<std::_Tree_simple_types<std::pair<int const ,BaseGameEntity *> > >,1><>
	npad	1
	mov	eax, DWORD PTR _this$[ebp]
	add	esp, 4
	cmp	ebp, esp
	call	__RTC_CheckEsp
	mov	esp, ebp
	pop	ebp
	ret	12					; 0000000cH
??$?0ABU?$less@H@std@@U_Zero_then_variadic_args_t@1@@?$_Compressed_pair@U?$less@H@std@@V?$_Compressed_pair@V?$allocator@U?$_Tree_node@U?$pair@$$CBHPAVBaseGameEntity@@@std@@PAX@std@@@std@@V?$_Tree_val@U?$_Tree_simple_types@U?$pair@$$CBHPAVBaseGameEntity@@@std@@@std@@@2@$00@2@$00@std@@QAE@U_One_then_variadic_args_t@1@ABU?$less@H@1@$$QAU_Zero_then_variadic_args_t@1@@Z ENDP ; std::_Compressed_pair<std::less<int>,std::_Compressed_pair<std::allocator<std::_Tree_node<std::pair<int const ,BaseGameEntity *>,void *> >,std::_Tree_val<std::_Tree_simple_types<std::pair<int const ,BaseGameEntity *> > >,1>,1>::_Compressed_pair<std::less<int>,std::_Compressed_pair<std::allocator<std::_Tree_node<std::pair<int const ,BaseGameEntity *>,void *> >,std::_Tree_val<std::_Tree_simple_types<std::pair<int const ,BaseGameEntity *> > >,1>,1><std::less<int> const &,std::_Zero_then_variadic_args_t>
_TEXT	ENDS
; Function compile flags: /Odtp /RTCsu
; File C:\Program Files\Microsoft Visual Studio\2022\Community\VC\Tools\MSVC\14.44.35207\include\type_traits
;	COMDAT ??$addressof@V?$_Tree_val@U?$_Tree_simple_types@U?$pair@$$CBHPAVBaseGameEntity@@@std@@@std@@@std@@@std@@YAPAV?$_Tree_val@U?$_Tree_simple_types@U?$pair@$$CBHPAVBaseGameEntity@@@std@@@std@@@0@AAV10@@Z
_TEXT	SEGMENT
__Val$ = 8						; size = 4
??$addressof@V?$_Tree_val@U?$_Tree_simple_types@U?$pair@$$CBHPAVBaseGameEntity@@@std@@@std@@@std@@@std@@YAPAV?$_Tree_val@U?$_Tree_simple_types@U?$pair@$$CBHPAVBaseGameEntity@@@std@@@std@@@0@AAV10@@Z PROC ; std::addressof<std::_Tree_val<std::_Tree_simple_types<std::pair<int const ,BaseGameEntity *> > > >, COMDAT

; 1524 : _NODISCARD constexpr _Ty* addressof(_Ty& _Val) noexcept {

	push	ebp
	mov	ebp, esp

; 1525 :     return __builtin_addressof(_Val);

	mov	eax, DWORD PTR __Val$[ebp]

; 1526 : }

	pop	ebp
	ret	0
??$addressof@V?$_Tree_val@U?$_Tree_simple_types@U?$pair@$$CBHPAVBaseGameEntity@@@std@@@std@@@std@@@std@@YAPAV?$_Tree_val@U?$_Tree_simple_types@U?$pair@$$CBHPAVBaseGameEntity@@@std@@@std@@@0@AAV10@@Z ENDP ; std::addressof<std::_Tree_val<std::_Tree_simple_types<std::pair<int const ,BaseGameEntity *> > > >
_TEXT	ENDS
; Function compile flags: /Odtp /RTCsu
; File C:\Program Files\Microsoft Visual Studio\2022\Community\VC\Tools\MSVC\14.44.35207\include\type_traits
;	COMDAT ??$addressof@$$CBV?$_Tree_val@U?$_Tree_simple_types@U?$pair@$$CBHPAVBaseGameEntity@@@std@@@std@@@std@@@std@@YAPBV?$_Tree_val@U?$_Tree_simple_types@U?$pair@$$CBHPAVBaseGameEntity@@@std@@@std@@@0@ABV10@@Z
_TEXT	SEGMENT
__Val$ = 8						; size = 4
??$addressof@$$CBV?$_Tree_val@U?$_Tree_simple_types@U?$pair@$$CBHPAVBaseGameEntity@@@std@@@std@@@std@@@std@@YAPBV?$_Tree_val@U?$_Tree_simple_types@U?$pair@$$CBHPAVBaseGameEntity@@@std@@@std@@@0@ABV10@@Z PROC ; std::addressof<std::_Tree_val<std::_Tree_simple_types<std::pair<int const ,BaseGameEntity *> > > const >, COMDAT

; 1524 : _NODISCARD constexpr _Ty* addressof(_Ty& _Val) noexcept {

	push	ebp
	mov	ebp, esp

; 1525 :     return __builtin_addressof(_Val);

	mov	eax, DWORD PTR __Val$[ebp]

; 1526 : }

	pop	ebp
	ret	0
??$addressof@$$CBV?$_Tree_val@U?$_Tree_simple_types@U?$pair@$$CBHPAVBaseGameEntity@@@std@@@std@@@std@@@std@@YAPBV?$_Tree_val@U?$_Tree_simple_types@U?$pair@$$CBHPAVBaseGameEntity@@@std@@@std@@@0@ABV10@@Z ENDP ; std::addressof<std::_Tree_val<std::_Tree_simple_types<std::pair<int const ,BaseGameEntity *> > > const >
_TEXT	ENDS
; Function compile flags: /Odtp /RTCsu
; File C:\Program Files\Microsoft Visual Studio\2022\Community\VC\Tools\MSVC\14.44.35207\include\type_traits
;	COMDAT ??$addressof@$$CBU?$pair@$$CBHPAVBaseGameEntity@@@std@@@std@@YAPBU?$pair@$$CBHPAVBaseGameEntity@@@0@ABU10@@Z
_TEXT	SEGMENT
__Val$ = 8						; size = 4
??$addressof@$$CBU?$pair@$$CBHPAVBaseGameEntity@@@std@@@std@@YAPBU?$pair@$$CBHPAVBaseGameEntity@@@0@ABU10@@Z PROC ; std::addressof<std::pair<int const ,BaseGameEntity *> const >, COMDAT

; 1524 : _NODISCARD constexpr _Ty* addressof(_Ty& _Val) noexcept {

	push	ebp
	mov	ebp, esp

; 1525 :     return __builtin_addressof(_Val);

	mov	eax, DWORD PTR __Val$[ebp]

; 1526 : }

	pop	ebp
	ret	0
??$addressof@$$CBU?$pair@$$CBHPAVBaseGameEntity@@@std@@@std@@YAPBU?$pair@$$CBHPAVBaseGameEntity@@@0@ABU10@@Z ENDP ; std::addressof<std::pair<int const ,BaseGameEntity *> const >
_TEXT	ENDS
; Function compile flags: /Odtp /RTCsu
; File C:\Program Files\Microsoft Visual Studio\2022\Community\VC\Tools\MSVC\14.44.35207\include\xtree
;	COMDAT ??$_Freenode0@V?$allocator@U?$_Tree_node@U?$pair@$$CBHPAVBaseGameEntity@@@std@@PAX@std@@@std@@@?$_Tree_node@U?$pair@$$CBHPAVBaseGameEntity@@@std@@PAX@std@@SAXAAV?$allocator@U?$_Tree_node@U?$pair@$$CBHPAVBaseGameEntity@@@std@@PAX@std@@@1@PAU01@@Z
_TEXT	SEGMENT
__Al$ = 8						; size = 4
__Ptr$ = 12						; size = 4
??$_Freenode0@V?$allocator@U?$_Tree_node@U?$pair@$$CBHPAVBaseGameEntity@@@std@@PAX@std@@@std@@@?$_Tree_node@U?$pair@$$CBHPAVBaseGameEntity@@@std@@PAX@std@@SAXAAV?$allocator@U?$_Tree_node@U?$pair@$$CBHPAVBaseGameEntity@@@std@@PAX@std@@@1@PAU01@@Z PROC ; std::_Tree_node<std::pair<int const ,BaseGameEntity *>,void *>::_Freenode0<std::allocator<std::_Tree_node<std::pair<int const ,BaseGameEntity *>,void *> > >, COMDAT

; 370  :     static void _Freenode0(_Alloc& _Al, _Nodeptr _Ptr) noexcept {

	push	ebp
	mov	ebp, esp

; 371  :         static_assert(is_same_v<typename _Alloc::value_type, _Tree_node>, "Bad _Freenode0 call");
; 372  :         _Destroy_in_place(_Ptr->_Left);

	mov	eax, DWORD PTR __Ptr$[ebp]
	push	eax
	call	??$_Destroy_in_place@PAU?$_Tree_node@U?$pair@$$CBHPAVBaseGameEntity@@@std@@PAX@std@@@std@@YAXAAPAU?$_Tree_node@U?$pair@$$CBHPAVBaseGameEntity@@@std@@PAX@0@@Z ; std::_Destroy_in_place<std::_Tree_node<std::pair<int const ,BaseGameEntity *>,void *> *>
	add	esp, 4

; 373  :         _Destroy_in_place(_Ptr->_Parent);

	mov	ecx, DWORD PTR __Ptr$[ebp]
	add	ecx, 4
	push	ecx
	call	??$_Destroy_in_place@PAU?$_Tree_node@U?$pair@$$CBHPAVBaseGameEntity@@@std@@PAX@std@@@std@@YAXAAPAU?$_Tree_node@U?$pair@$$CBHPAVBaseGameEntity@@@std@@PAX@0@@Z ; std::_Destroy_in_place<std::_Tree_node<std::pair<int const ,BaseGameEntity *>,void *> *>
	add	esp, 4

; 374  :         _Destroy_in_place(_Ptr->_Right);

	mov	edx, DWORD PTR __Ptr$[ebp]
	add	edx, 8
	push	edx
	call	??$_Destroy_in_place@PAU?$_Tree_node@U?$pair@$$CBHPAVBaseGameEntity@@@std@@PAX@std@@@std@@YAXAAPAU?$_Tree_node@U?$pair@$$CBHPAVBaseGameEntity@@@std@@PAX@0@@Z ; std::_Destroy_in_place<std::_Tree_node<std::pair<int const ,BaseGameEntity *>,void *> *>
	add	esp, 4

; 375  :         allocator_traits<_Alloc>::deallocate(_Al, _Ptr, 1);

	push	1
	mov	eax, DWORD PTR __Ptr$[ebp]
	push	eax
	mov	ecx, DWORD PTR __Al$[ebp]
	push	ecx
	call	?deallocate@?$_Default_allocator_traits@V?$allocator@U?$_Tree_node@U?$pair@$$CBHPAVBaseGameEntity@@@std@@PAX@std@@@std@@@std@@SAXAAV?$allocator@U?$_Tree_node@U?$pair@$$CBHPAVBaseGameEntity@@@std@@PAX@std@@@2@QAU?$_Tree_node@U?$pair@$$CBHPAVBaseGameEntity@@@std@@PAX@2@I@Z ; std::_Default_allocator_traits<std::allocator<std::_Tree_node<std::pair<int const ,BaseGameEntity *>,void *> > >::deallocate
	add	esp, 12					; 0000000cH

; 376  :     }

	cmp	ebp, esp
	call	__RTC_CheckEsp
	pop	ebp
	ret	0
??$_Freenode0@V?$allocator@U?$_Tree_node@U?$pair@$$CBHPAVBaseGameEntity@@@std@@PAX@std@@@std@@@?$_Tree_node@U?$pair@$$CBHPAVBaseGameEntity@@@std@@PAX@std@@SAXAAV?$allocator@U?$_Tree_node@U?$pair@$$CBHPAVBaseGameEntity@@@std@@PAX@std@@@1@PAU01@@Z ENDP ; std::_Tree_node<std::pair<int const ,BaseGameEntity *>,void *>::_Freenode0<std::allocator<std::_Tree_node<std::pair<int const ,BaseGameEntity *>,void *> > >
_TEXT	ENDS
; Function compile flags: /Odtp /RTCsu
; File C:\Program Files\Microsoft Visual Studio\2022\Community\VC\Tools\MSVC\14.44.35207\include\xtree
;	COMDAT ??$_Freenode@V?$allocator@U?$_Tree_node@U?$pair@$$CBHPAVBaseGameEntity@@@std@@PAX@std@@@std@@@?$_Tree_node@U?$pair@$$CBHPAVBaseGameEntity@@@std@@PAX@std@@SAXAAV?$allocator@U?$_Tree_node@U?$pair@$$CBHPAVBaseGameEntity@@@std@@PAX@std@@@1@PAU01@@Z
_TEXT	SEGMENT
__$EHRec$ = -12						; size = 12
__Al$ = 8						; size = 4
__Ptr$ = 12						; size = 4
??$_Freenode@V?$allocator@U?$_Tree_node@U?$pair@$$CBHPAVBaseGameEntity@@@std@@PAX@std@@@std@@@?$_Tree_node@U?$pair@$$CBHPAVBaseGameEntity@@@std@@PAX@std@@SAXAAV?$allocator@U?$_Tree_node@U?$pair@$$CBHPAVBaseGameEntity@@@std@@PAX@std@@@1@PAU01@@Z PROC ; std::_Tree_node<std::pair<int const ,BaseGameEntity *>,void *>::_Freenode<std::allocator<std::_Tree_node<std::pair<int const ,BaseGameEntity *>,void *> > >, COMDAT

; 379  :     static void _Freenode(_Alloc& _Al, _Nodeptr _Ptr) noexcept {

	push	ebp
	mov	ebp, esp
	push	-1
	push	__ehhandler$??$_Freenode@V?$allocator@U?$_Tree_node@U?$pair@$$CBHPAVBaseGameEntity@@@std@@PAX@std@@@std@@@?$_Tree_node@U?$pair@$$CBHPAVBaseGameEntity@@@std@@PAX@std@@SAXAAV?$allocator@U?$_Tree_node@U?$pair@$$CBHPAVBaseGameEntity@@@std@@PAX@std@@@1@PAU01@@Z
	mov	eax, DWORD PTR fs:0
	push	eax
	mov	eax, DWORD PTR ___security_cookie
	xor	eax, ebp
	push	eax
	lea	eax, DWORD PTR __$EHRec$[ebp]
	mov	DWORD PTR fs:0, eax

; 380  :         static_assert(is_same_v<typename _Alloc::value_type, _Tree_node>, "Bad _Freenode call");
; 381  :         allocator_traits<_Alloc>::destroy(_Al, _STD addressof(_Ptr->_Myval));

	mov	eax, DWORD PTR __Ptr$[ebp]
	add	eax, 16					; 00000010H
	push	eax
	call	??$addressof@U?$pair@$$CBHPAVBaseGameEntity@@@std@@@std@@YAPAU?$pair@$$CBHPAVBaseGameEntity@@@0@AAU10@@Z ; std::addressof<std::pair<int const ,BaseGameEntity *> >
	add	esp, 4
	push	eax
	mov	ecx, DWORD PTR __Al$[ebp]
	push	ecx
	call	??$destroy@U?$pair@$$CBHPAVBaseGameEntity@@@std@@@?$_Default_allocator_traits@V?$allocator@U?$_Tree_node@U?$pair@$$CBHPAVBaseGameEntity@@@std@@PAX@std@@@std@@@std@@SAXAAV?$allocator@U?$_Tree_node@U?$pair@$$CBHPAVBaseGameEntity@@@std@@PAX@std@@@1@QAU?$pair@$$CBHPAVBaseGameEntity@@@1@@Z ; std::_Default_allocator_traits<std::allocator<std::_Tree_node<std::pair<int const ,BaseGameEntity *>,void *> > >::destroy<std::pair<int const ,BaseGameEntity *> >
	add	esp, 8

; 382  :         _Freenode0(_Al, _Ptr);

	mov	edx, DWORD PTR __Ptr$[ebp]
	push	edx
	mov	eax, DWORD PTR __Al$[ebp]
	push	eax
	call	??$_Freenode0@V?$allocator@U?$_Tree_node@U?$pair@$$CBHPAVBaseGameEntity@@@std@@PAX@std@@@std@@@?$_Tree_node@U?$pair@$$CBHPAVBaseGameEntity@@@std@@PAX@std@@SAXAAV?$allocator@U?$_Tree_node@U?$pair@$$CBHPAVBaseGameEntity@@@std@@PAX@std@@@1@PAU01@@Z ; std::_Tree_node<std::pair<int const ,BaseGameEntity *>,void *>::_Freenode0<std::allocator<std::_Tree_node<std::pair<int const ,BaseGameEntity *>,void *> > >
	add	esp, 8

; 383  :     }

	mov	ecx, DWORD PTR __$EHRec$[ebp]
	mov	DWORD PTR fs:0, ecx
	pop	ecx
	add	esp, 12					; 0000000cH
	cmp	ebp, esp
	call	__RTC_CheckEsp
	mov	esp, ebp
	pop	ebp
	ret	0
	int	3
	int	3
	int	3
	int	3
	int	3
_TEXT	ENDS
;	COMDAT text$x
text$x	SEGMENT
__ehhandler$??$_Freenode@V?$allocator@U?$_Tree_node@U?$pair@$$CBHPAVBaseGameEntity@@@std@@PAX@std@@@std@@@?$_Tree_node@U?$pair@$$CBHPAVBaseGameEntity@@@std@@PAX@std@@SAXAAV?$allocator@U?$_Tree_node@U?$pair@$$CBHPAVBaseGameEntity@@@std@@PAX@std@@@1@PAU01@@Z:
	npad	1
	npad	1
	mov	edx, DWORD PTR [esp+8]
	lea	eax, DWORD PTR [edx+12]
	mov	ecx, DWORD PTR [edx-4]
	xor	ecx, eax
	call	@__security_check_cookie@4
	mov	eax, OFFSET __ehfuncinfo$??$_Freenode@V?$allocator@U?$_Tree_node@U?$pair@$$CBHPAVBaseGameEntity@@@std@@PAX@std@@@std@@@?$_Tree_node@U?$pair@$$CBHPAVBaseGameEntity@@@std@@PAX@std@@SAXAAV?$allocator@U?$_Tree_node@U?$pair@$$CBHPAVBaseGameEntity@@@std@@PAX@std@@@1@PAU01@@Z
	jmp	___CxxFrameHandler3
text$x	ENDS
??$_Freenode@V?$allocator@U?$_Tree_node@U?$pair@$$CBHPAVBaseGameEntity@@@std@@PAX@std@@@std@@@?$_Tree_node@U?$pair@$$CBHPAVBaseGameEntity@@@std@@PAX@std@@SAXAAV?$allocator@U?$_Tree_node@U?$pair@$$CBHPAVBaseGameEntity@@@std@@PAX@std@@@1@PAU01@@Z ENDP ; std::_Tree_node<std::pair<int const ,BaseGameEntity *>,void *>::_Freenode<std::allocator<std::_Tree_node<std::pair<int const ,BaseGameEntity *>,void *> > >
; Function compile flags: /Odtp /RTCsu
; File C:\Program Files\Microsoft Visual Studio\2022\Community\VC\Tools\MSVC\14.44.35207\include\utility
;	COMDAT ??$exchange@PAU?$_Tree_node@U?$pair@$$CBHPAVBaseGameEntity@@@std@@PAX@std@@AAPAU12@@std@@YAPAU?$_Tree_node@U?$pair@$$CBHPAVBaseGameEntity@@@std@@PAX@0@AAPAU10@0@Z
_TEXT	SEGMENT
__Old_val$ = -4						; size = 4
__Val$ = 8						; size = 4
__New_val$ = 12						; size = 4
??$exchange@PAU?$_Tree_node@U?$pair@$$CBHPAVBaseGameEntity@@@std@@PAX@std@@AAPAU12@@std@@YAPAU?$_Tree_node@U?$pair@$$CBHPAVBaseGameEntity@@@std@@PAX@0@AAPAU10@0@Z PROC ; std::exchange<std::_Tree_node<std::pair<int const ,BaseGameEntity *>,void *> *,std::_Tree_node<std::pair<int const ,BaseGameEntity *>,void *> * &>, COMDAT

; 771  :     noexcept(conjunction_v<is_nothrow_move_constructible<_Ty>, is_nothrow_assignable<_Ty&, _Other>>) {

	push	ebp
	mov	ebp, esp
	push	ecx

; 772  :     // assign _New_val to _Val, return previous _Val
; 773  :     _Ty _Old_val = static_cast<_Ty&&>(_Val);

	mov	eax, DWORD PTR __Val$[ebp]
	mov	ecx, DWORD PTR [eax]
	mov	DWORD PTR __Old_val$[ebp], ecx

; 774  :     _Val         = static_cast<_Other&&>(_New_val);

	mov	edx, DWORD PTR __Val$[ebp]
	mov	eax, DWORD PTR __New_val$[ebp]
	mov	ecx, DWORD PTR [eax]
	mov	DWORD PTR [edx], ecx

; 775  :     return _Old_val;

	mov	eax, DWORD PTR __Old_val$[ebp]

; 776  : }

	mov	esp, ebp
	pop	ebp
	ret	0
??$exchange@PAU?$_Tree_node@U?$pair@$$CBHPAVBaseGameEntity@@@std@@PAX@std@@AAPAU12@@std@@YAPAU?$_Tree_node@U?$pair@$$CBHPAVBaseGameEntity@@@std@@PAX@0@AAPAU10@0@Z ENDP ; std::exchange<std::_Tree_node<std::pair<int const ,BaseGameEntity *>,void *> *,std::_Tree_node<std::pair<int const ,BaseGameEntity *>,void *> * &>
_TEXT	ENDS
; Function compile flags: /Odtp /RTCsu
; File C:\Program Files\Microsoft Visual Studio\2022\Community\VC\Tools\MSVC\14.44.35207\include\xtree
;	COMDAT ??$_Lower_bound_duplicate@H@?$_Tree@V?$_Tmap_traits@HPAVBaseGameEntity@@U?$less@H@std@@V?$allocator@U?$pair@$$CBHPAVBaseGameEntity@@@std@@@3@$0A@@std@@@std@@IBE_NQAU?$_Tree_node@U?$pair@$$CBHPAVBaseGameEntity@@@std@@PAX@1@ABH@Z
_TEXT	SEGMENT
tv78 = -8						; size = 4
_this$ = -4						; size = 4
__Bound$ = 8						; size = 4
__Keyval$ = 12						; size = 4
??$_Lower_bound_duplicate@H@?$_Tree@V?$_Tmap_traits@HPAVBaseGameEntity@@U?$less@H@std@@V?$allocator@U?$pair@$$CBHPAVBaseGameEntity@@@std@@@3@$0A@@std@@@std@@IBE_NQAU?$_Tree_node@U?$pair@$$CBHPAVBaseGameEntity@@@std@@PAX@1@ABH@Z PROC ; std::_Tree<std::_Tmap_traits<int,BaseGameEntity *,std::less<int>,std::allocator<std::pair<int const ,BaseGameEntity *> >,0> >::_Lower_bound_duplicate<int>, COMDAT
; _this$ = ecx

; 1623 :     bool _Lower_bound_duplicate(const _Nodeptr _Bound, const _Keyty& _Keyval) const {

	push	ebp
	mov	ebp, esp
	sub	esp, 8
	mov	DWORD PTR [ebp-8], -858993460		; ccccccccH
	mov	DWORD PTR [ebp-4], -858993460		; ccccccccH
	mov	DWORD PTR _this$[ebp], ecx

; 1624 :         return !_Bound->_Isnil && !_DEBUG_LT_PRED(_Getcomp(), _Keyval, _Traits::_Kfn(_Bound->_Myval));

	mov	eax, DWORD PTR __Bound$[ebp]
	movsx	ecx, BYTE PTR [eax+13]
	test	ecx, ecx
	jne	SHORT $LN3@Lower_boun
	mov	edx, DWORD PTR __Bound$[ebp]
	add	edx, 16					; 00000010H
	push	edx
	call	??$_Kfn@$$CBHPAVBaseGameEntity@@@?$_Tmap_traits@HPAVBaseGameEntity@@U?$less@H@std@@V?$allocator@U?$pair@$$CBHPAVBaseGameEntity@@@std@@@3@$0A@@std@@SAABHABU?$pair@$$CBHPAVBaseGameEntity@@@1@@Z ; std::_Tmap_traits<int,BaseGameEntity *,std::less<int>,std::allocator<std::pair<int const ,BaseGameEntity *> >,0>::_Kfn<int const ,BaseGameEntity *>
	add	esp, 4
	push	eax
	mov	eax, DWORD PTR __Keyval$[ebp]
	push	eax
	mov	ecx, DWORD PTR _this$[ebp]
	call	?_Getcomp@?$_Tree@V?$_Tmap_traits@HPAVBaseGameEntity@@U?$less@H@std@@V?$allocator@U?$pair@$$CBHPAVBaseGameEntity@@@std@@@3@$0A@@std@@@std@@IBEABU?$less@H@2@XZ ; std::_Tree<std::_Tmap_traits<int,BaseGameEntity *,std::less<int>,std::allocator<std::pair<int const ,BaseGameEntity *> >,0> >::_Getcomp
	push	eax
	call	??$_Debug_lt_pred@ABU?$less@H@std@@ABHABH@std@@YA_NABU?$less@H@0@ABH1@Z ; std::_Debug_lt_pred<std::less<int> const &,int const &,int const &>
	add	esp, 12					; 0000000cH
	movzx	ecx, al
	test	ecx, ecx
	jne	SHORT $LN3@Lower_boun
	mov	DWORD PTR tv78[ebp], 1
	jmp	SHORT $LN4@Lower_boun
$LN3@Lower_boun:
	mov	DWORD PTR tv78[ebp], 0
$LN4@Lower_boun:
	movzx	eax, BYTE PTR tv78[ebp]

; 1625 :     }

	add	esp, 8
	cmp	ebp, esp
	call	__RTC_CheckEsp
	mov	esp, ebp
	pop	ebp
	ret	8
??$_Lower_bound_duplicate@H@?$_Tree@V?$_Tmap_traits@HPAVBaseGameEntity@@U?$less@H@std@@V?$allocator@U?$pair@$$CBHPAVBaseGameEntity@@@std@@@3@$0A@@std@@@std@@IBE_NQAU?$_Tree_node@U?$pair@$$CBHPAVBaseGameEntity@@@std@@PAX@1@ABH@Z ENDP ; std::_Tree<std::_Tmap_traits<int,BaseGameEntity *,std::less<int>,std::allocator<std::pair<int const ,BaseGameEntity *> >,0> >::_Lower_bound_duplicate<int>
_TEXT	ENDS
; Function compile flags: /Odtp /RTCsu
; File C:\Program Files\Microsoft Visual Studio\2022\Community\VC\Tools\MSVC\14.44.35207\include\xtree
;	COMDAT ??$_Find_lower_bound@H@?$_Tree@V?$_Tmap_traits@HPAVBaseGameEntity@@U?$less@H@std@@V?$allocator@U?$pair@$$CBHPAVBaseGameEntity@@@std@@@3@$0A@@std@@@std@@IBE?AU?$_Tree_find_result@PAU?$_Tree_node@U?$pair@$$CBHPAVBaseGameEntity@@@std@@PAX@std@@@1@ABH@Z
_TEXT	SEGMENT
__Trynode$ = -32					; size = 4
__Result$ = -24						; size = 12
__Scary$ = -8						; size = 4
_this$ = -4						; size = 4
___$ReturnUdt$ = 8					; size = 4
__Keyval$ = 12						; size = 4
??$_Find_lower_bound@H@?$_Tree@V?$_Tmap_traits@HPAVBaseGameEntity@@U?$less@H@std@@V?$allocator@U?$pair@$$CBHPAVBaseGameEntity@@@std@@@3@$0A@@std@@@std@@IBE?AU?$_Tree_find_result@PAU?$_Tree_node@U?$pair@$$CBHPAVBaseGameEntity@@@std@@PAX@std@@@1@ABH@Z PROC ; std::_Tree<std::_Tmap_traits<int,BaseGameEntity *,std::less<int>,std::allocator<std::pair<int const ,BaseGameEntity *> >,0> >::_Find_lower_bound<int>, COMDAT
; _this$ = ecx

; 1628 :     _Tree_find_result<_Nodeptr> _Find_lower_bound(const _Keyty& _Keyval) const {

	push	ebp
	mov	ebp, esp
	sub	esp, 32					; 00000020H
	mov	eax, -858993460				; ccccccccH
	mov	DWORD PTR [ebp-32], eax
	mov	DWORD PTR [ebp-28], eax
	mov	DWORD PTR [ebp-24], eax
	mov	DWORD PTR [ebp-20], eax
	mov	DWORD PTR [ebp-16], eax
	mov	DWORD PTR [ebp-12], eax
	mov	DWORD PTR [ebp-8], eax
	mov	DWORD PTR [ebp-4], eax
	mov	DWORD PTR _this$[ebp], ecx

; 1629 :         const auto _Scary = _Get_scary();

	mov	ecx, DWORD PTR _this$[ebp]
	call	?_Get_scary@?$_Tree@V?$_Tmap_traits@HPAVBaseGameEntity@@U?$less@H@std@@V?$allocator@U?$pair@$$CBHPAVBaseGameEntity@@@std@@@3@$0A@@std@@@std@@IBEPBV?$_Tree_val@U?$_Tree_simple_types@U?$pair@$$CBHPAVBaseGameEntity@@@std@@@std@@@2@XZ ; std::_Tree<std::_Tmap_traits<int,BaseGameEntity *,std::less<int>,std::allocator<std::pair<int const ,BaseGameEntity *> >,0> >::_Get_scary
	mov	DWORD PTR __Scary$[ebp], eax

; 1630 :         _Tree_find_result<_Nodeptr> _Result{{_Scary->_Myhead->_Parent, _Tree_child::_Right}, _Scary->_Myhead};

	mov	eax, DWORD PTR __Scary$[ebp]
	mov	ecx, DWORD PTR [eax+4]
	mov	edx, DWORD PTR [ecx+4]
	mov	DWORD PTR __Result$[ebp], edx
	mov	DWORD PTR __Result$[ebp+4], 0
	mov	eax, DWORD PTR __Scary$[ebp]
	mov	ecx, DWORD PTR [eax+4]
	mov	DWORD PTR __Result$[ebp+8], ecx

; 1631 :         _Nodeptr _Trynode = _Result._Location._Parent;

	mov	edx, DWORD PTR __Result$[ebp]
	mov	DWORD PTR __Trynode$[ebp], edx
$LN2@Find_lower:

; 1632 :         while (!_Trynode->_Isnil) {

	mov	eax, DWORD PTR __Trynode$[ebp]
	movsx	ecx, BYTE PTR [eax+13]
	test	ecx, ecx
	jne	SHORT $LN3@Find_lower

; 1633 :             _Result._Location._Parent = _Trynode;

	mov	edx, DWORD PTR __Trynode$[ebp]
	mov	DWORD PTR __Result$[ebp], edx

; 1634 :             if (_DEBUG_LT_PRED(_Getcomp(), _Traits::_Kfn(_Trynode->_Myval), _Keyval)) {

	mov	eax, DWORD PTR __Keyval$[ebp]
	push	eax
	mov	ecx, DWORD PTR __Trynode$[ebp]
	add	ecx, 16					; 00000010H
	push	ecx
	call	??$_Kfn@$$CBHPAVBaseGameEntity@@@?$_Tmap_traits@HPAVBaseGameEntity@@U?$less@H@std@@V?$allocator@U?$pair@$$CBHPAVBaseGameEntity@@@std@@@3@$0A@@std@@SAABHABU?$pair@$$CBHPAVBaseGameEntity@@@1@@Z ; std::_Tmap_traits<int,BaseGameEntity *,std::less<int>,std::allocator<std::pair<int const ,BaseGameEntity *> >,0>::_Kfn<int const ,BaseGameEntity *>
	add	esp, 4
	push	eax
	mov	ecx, DWORD PTR _this$[ebp]
	call	?_Getcomp@?$_Tree@V?$_Tmap_traits@HPAVBaseGameEntity@@U?$less@H@std@@V?$allocator@U?$pair@$$CBHPAVBaseGameEntity@@@std@@@3@$0A@@std@@@std@@IBEABU?$less@H@2@XZ ; std::_Tree<std::_Tmap_traits<int,BaseGameEntity *,std::less<int>,std::allocator<std::pair<int const ,BaseGameEntity *> >,0> >::_Getcomp
	push	eax
	call	??$_Debug_lt_pred@ABU?$less@H@std@@ABHABH@std@@YA_NABU?$less@H@0@ABH1@Z ; std::_Debug_lt_pred<std::less<int> const &,int const &,int const &>
	add	esp, 12					; 0000000cH
	movzx	edx, al
	test	edx, edx
	je	SHORT $LN4@Find_lower

; 1635 :                 _Result._Location._Child = _Tree_child::_Right;

	mov	DWORD PTR __Result$[ebp+4], 0

; 1636 :                 _Trynode                 = _Trynode->_Right;

	mov	eax, DWORD PTR __Trynode$[ebp]
	mov	ecx, DWORD PTR [eax+8]
	mov	DWORD PTR __Trynode$[ebp], ecx

; 1637 :             } else {

	jmp	SHORT $LN5@Find_lower
$LN4@Find_lower:

; 1638 :                 _Result._Location._Child = _Tree_child::_Left;

	mov	DWORD PTR __Result$[ebp+4], 1

; 1639 :                 _Result._Bound           = _Trynode;

	mov	edx, DWORD PTR __Trynode$[ebp]
	mov	DWORD PTR __Result$[ebp+8], edx

; 1640 :                 _Trynode                 = _Trynode->_Left;

	mov	eax, DWORD PTR __Trynode$[ebp]
	mov	ecx, DWORD PTR [eax]
	mov	DWORD PTR __Trynode$[ebp], ecx
$LN5@Find_lower:

; 1641 :             }
; 1642 :         }

	jmp	SHORT $LN2@Find_lower
$LN3@Find_lower:

; 1643 : 
; 1644 :         return _Result;

	mov	edx, DWORD PTR ___$ReturnUdt$[ebp]
	mov	eax, DWORD PTR __Result$[ebp]
	mov	DWORD PTR [edx], eax
	mov	ecx, DWORD PTR __Result$[ebp+4]
	mov	DWORD PTR [edx+4], ecx
	mov	eax, DWORD PTR __Result$[ebp+8]
	mov	DWORD PTR [edx+8], eax
	mov	eax, DWORD PTR ___$ReturnUdt$[ebp]

; 1645 :     }

	push	edx
	mov	ecx, ebp
	push	eax
	lea	edx, DWORD PTR $LN9@Find_lower
	call	@_RTC_CheckStackVars@8
	pop	eax
	pop	edx
	add	esp, 32					; 00000020H
	cmp	ebp, esp
	call	__RTC_CheckEsp
	mov	esp, ebp
	pop	ebp
	ret	8
	npad	3
$LN9@Find_lower:
	DD	1
	DD	$LN8@Find_lower
$LN8@Find_lower:
	DD	-24					; ffffffe8H
	DD	12					; 0000000cH
	DD	$LN7@Find_lower
$LN7@Find_lower:
	DB	95					; 0000005fH
	DB	82					; 00000052H
	DB	101					; 00000065H
	DB	115					; 00000073H
	DB	117					; 00000075H
	DB	108					; 0000006cH
	DB	116					; 00000074H
	DB	0
??$_Find_lower_bound@H@?$_Tree@V?$_Tmap_traits@HPAVBaseGameEntity@@U?$less@H@std@@V?$allocator@U?$pair@$$CBHPAVBaseGameEntity@@@std@@@3@$0A@@std@@@std@@IBE?AU?$_Tree_find_result@PAU?$_Tree_node@U?$pair@$$CBHPAVBaseGameEntity@@@std@@PAX@std@@@1@ABH@Z ENDP ; std::_Tree<std::_Tmap_traits<int,BaseGameEntity *,std::less<int>,std::allocator<std::pair<int const ,BaseGameEntity *> >,0> >::_Find_lower_bound<int>
_TEXT	ENDS
; Function compile flags: /Odtp /RTCsu
; File C:\Program Files\Microsoft Visual Studio\2022\Community\VC\Tools\MSVC\14.44.35207\include\xmemory
;	COMDAT ??1?$_Container_proxy_ptr12@V?$allocator@U_Container_proxy@std@@@std@@@std@@QAE@XZ
_TEXT	SEGMENT
_this$ = -4						; size = 4
??1?$_Container_proxy_ptr12@V?$allocator@U_Container_proxy@std@@@std@@@std@@QAE@XZ PROC ; std::_Container_proxy_ptr12<std::allocator<std::_Container_proxy> >::~_Container_proxy_ptr12<std::allocator<std::_Container_proxy> >, COMDAT
; _this$ = ecx

; 1495 :     _CONSTEXPR20 ~_Container_proxy_ptr12() {

	push	ebp
	mov	ebp, esp
	push	ecx
	mov	DWORD PTR [ebp-4], -858993460		; ccccccccH
	mov	DWORD PTR _this$[ebp], ecx

; 1496 :         if (_Ptr) {

	mov	eax, DWORD PTR _this$[ebp]
	cmp	DWORD PTR [eax], 0
	je	SHORT $LN2@Container_

; 1497 :             _Delete_plain_internal(_Al, _Ptr);

	mov	ecx, DWORD PTR _this$[ebp]
	mov	edx, DWORD PTR [ecx]
	push	edx
	mov	eax, DWORD PTR _this$[ebp]
	mov	ecx, DWORD PTR [eax+4]
	push	ecx
	call	??$_Delete_plain_internal@V?$allocator@U_Container_proxy@std@@@std@@@std@@YAXAAV?$allocator@U_Container_proxy@std@@@0@QAU_Container_proxy@0@@Z ; std::_Delete_plain_internal<std::allocator<std::_Container_proxy> >
	add	esp, 8
$LN2@Container_:

; 1498 :         }
; 1499 :     }

	add	esp, 4
	cmp	ebp, esp
	call	__RTC_CheckEsp
	mov	esp, ebp
	pop	ebp
	ret	0
??1?$_Container_proxy_ptr12@V?$allocator@U_Container_proxy@std@@@std@@@std@@QAE@XZ ENDP ; std::_Container_proxy_ptr12<std::allocator<std::_Container_proxy> >::~_Container_proxy_ptr12<std::allocator<std::_Container_proxy> >
_TEXT	ENDS
; Function compile flags: /Odtp /RTCsu
; File C:\Program Files\Microsoft Visual Studio\2022\Community\VC\Tools\MSVC\14.44.35207\include\xmemory
;	COMDAT ??0?$_Container_proxy_ptr12@V?$allocator@U_Container_proxy@std@@@std@@@std@@QAE@AAV?$allocator@U_Container_proxy@std@@@1@AAU_Container_base12@1@@Z
_TEXT	SEGMENT
$T1 = -8						; size = 4
_this$ = -4						; size = 4
__Al_$ = 8						; size = 4
__Mycont$ = 12						; size = 4
??0?$_Container_proxy_ptr12@V?$allocator@U_Container_proxy@std@@@std@@@std@@QAE@AAV?$allocator@U_Container_proxy@std@@@1@AAU_Container_base12@1@@Z PROC ; std::_Container_proxy_ptr12<std::allocator<std::_Container_proxy> >::_Container_proxy_ptr12<std::allocator<std::_Container_proxy> >, COMDAT
; _this$ = ecx

; 1481 :     _CONSTEXPR20 _Container_proxy_ptr12(_Alloc& _Al_, _Container_base12& _Mycont) : _Al(_Al_) {

	push	ebp
	mov	ebp, esp
	sub	esp, 8
	mov	DWORD PTR [ebp-8], -858993460		; ccccccccH
	mov	DWORD PTR [ebp-4], -858993460		; ccccccccH
	mov	DWORD PTR _this$[ebp], ecx
	mov	ecx, DWORD PTR _this$[ebp]
	call	??0_Basic_container_proxy_ptr12@std@@IAE@XZ ; std::_Basic_container_proxy_ptr12::_Basic_container_proxy_ptr12
	mov	eax, DWORD PTR _this$[ebp]
	mov	ecx, DWORD PTR __Al_$[ebp]
	mov	DWORD PTR [eax+4], ecx

; 1482 :         // create a new _Container_proxy pointing at _Mycont
; 1483 :         _Ptr = _Unfancy(_Al_.allocate(1));

	push	1
	mov	ecx, DWORD PTR __Al_$[ebp]
	call	?allocate@?$allocator@U_Container_proxy@std@@@std@@QAEPAU_Container_proxy@2@I@Z ; std::allocator<std::_Container_proxy>::allocate
	push	eax
	call	??$_Unfancy@U_Container_proxy@std@@@std@@YAPAU_Container_proxy@0@PAU10@@Z ; std::_Unfancy<std::_Container_proxy>
	add	esp, 4
	mov	edx, DWORD PTR _this$[ebp]
	mov	DWORD PTR [edx], eax

; 1484 :         _Construct_in_place(*_Ptr, _STD addressof(_Mycont));

	mov	eax, DWORD PTR __Mycont$[ebp]
	push	eax
	call	??$addressof@U_Container_base12@std@@@std@@YAPAU_Container_base12@0@AAU10@@Z ; std::addressof<std::_Container_base12>
	add	esp, 4
	mov	DWORD PTR $T1[ebp], eax
	lea	ecx, DWORD PTR $T1[ebp]
	push	ecx
	mov	edx, DWORD PTR _this$[ebp]
	mov	eax, DWORD PTR [edx]
	push	eax
	call	??$_Construct_in_place@U_Container_proxy@std@@PAU_Container_base12@2@@std@@YAXAAU_Container_proxy@0@$$QAPAU_Container_base12@0@@Z ; std::_Construct_in_place<std::_Container_proxy,std::_Container_base12 *>
	add	esp, 8

; 1485 :         _Mycont._Myproxy = _Ptr;

	mov	ecx, DWORD PTR __Mycont$[ebp]
	mov	edx, DWORD PTR _this$[ebp]
	mov	eax, DWORD PTR [edx]
	mov	DWORD PTR [ecx], eax

; 1486 :     }

	mov	eax, DWORD PTR _this$[ebp]
	add	esp, 8
	cmp	ebp, esp
	call	__RTC_CheckEsp
	mov	esp, ebp
	pop	ebp
	ret	8
??0?$_Container_proxy_ptr12@V?$allocator@U_Container_proxy@std@@@std@@@std@@QAE@AAV?$allocator@U_Container_proxy@std@@@1@AAU_Container_base12@1@@Z ENDP ; std::_Container_proxy_ptr12<std::allocator<std::_Container_proxy> >::_Container_proxy_ptr12<std::allocator<std::_Container_proxy> >
_TEXT	ENDS
; Function compile flags: /Odtp /RTCsu
; File C:\Program Files\Microsoft Visual Studio\2022\Community\VC\Tools\MSVC\14.44.35207\include\xutility
;	COMDAT ??$_Construct_in_place@U_Container_proxy@std@@PAU_Container_base12@2@@std@@YAXAAU_Container_proxy@0@$$QAPAU_Container_base12@0@@Z
_TEXT	SEGMENT
$T1 = -4						; size = 4
__Obj$ = 8						; size = 4
_<_Args_0>$ = 12					; size = 4
??$_Construct_in_place@U_Container_proxy@std@@PAU_Container_base12@2@@std@@YAXAAU_Container_proxy@0@$$QAPAU_Container_base12@0@@Z PROC ; std::_Construct_in_place<std::_Container_proxy,std::_Container_base12 *>, COMDAT

; 469  :     noexcept(is_nothrow_constructible_v<_Ty, _Types...>) {

	push	ebp
	mov	ebp, esp
	push	ecx
	mov	DWORD PTR [ebp-4], -858993460		; ccccccccH

; 470  : #if _HAS_CXX20
; 471  :     if (_STD is_constant_evaluated()) {
; 472  :         _STD construct_at(_STD addressof(_Obj), _STD forward<_Types>(_Args)...);
; 473  :     } else
; 474  : #endif // _HAS_CXX20
; 475  :     {
; 476  :         ::new (static_cast<void*>(_STD addressof(_Obj))) _Ty(_STD forward<_Types>(_Args)...);

	mov	eax, DWORD PTR __Obj$[ebp]
	push	eax
	call	??$addressof@U_Container_proxy@std@@@std@@YAPAU_Container_proxy@0@AAU10@@Z ; std::addressof<std::_Container_proxy>
	add	esp, 4
	push	eax
	push	8
	call	??2@YAPAXIPAX@Z				; operator new
	add	esp, 8
	mov	DWORD PTR $T1[ebp], eax
	mov	ecx, DWORD PTR _<_Args_0>$[ebp]
	push	ecx
	call	??$forward@PAU_Container_base12@std@@@std@@YA$$QAPAU_Container_base12@0@AAPAU10@@Z ; std::forward<std::_Container_base12 *>
	add	esp, 4
	mov	edx, DWORD PTR [eax]
	push	edx
	mov	ecx, DWORD PTR $T1[ebp]
	call	??0_Container_proxy@std@@QAE@PAU_Container_base12@1@@Z ; std::_Container_proxy::_Container_proxy
	npad	1

; 477  :     }
; 478  : }

	add	esp, 4
	cmp	ebp, esp
	call	__RTC_CheckEsp
	mov	esp, ebp
	pop	ebp
	ret	0
??$_Construct_in_place@U_Container_proxy@std@@PAU_Container_base12@2@@std@@YAXAAU_Container_proxy@0@$$QAPAU_Container_base12@0@@Z ENDP ; std::_Construct_in_place<std::_Container_proxy,std::_Container_base12 *>
_TEXT	ENDS
; Function compile flags: /Odtp /RTCsu
; File C:\Program Files\Microsoft Visual Studio\2022\Community\VC\Tools\MSVC\14.44.35207\include\xmemory
;	COMDAT ??$_Unfancy@U_Container_proxy@std@@@std@@YAPAU_Container_proxy@0@PAU10@@Z
_TEXT	SEGMENT
__Ptr$ = 8						; size = 4
??$_Unfancy@U_Container_proxy@std@@@std@@YAPAU_Container_proxy@0@PAU10@@Z PROC ; std::_Unfancy<std::_Container_proxy>, COMDAT

; 68   : _NODISCARD constexpr _Ty* _Unfancy(_Ty* _Ptr) noexcept { // do nothing for plain pointers

	push	ebp
	mov	ebp, esp

; 69   :     return _Ptr;

	mov	eax, DWORD PTR __Ptr$[ebp]

; 70   : }

	pop	ebp
	ret	0
??$_Unfancy@U_Container_proxy@std@@@std@@YAPAU_Container_proxy@0@PAU10@@Z ENDP ; std::_Unfancy<std::_Container_proxy>
_TEXT	ENDS
; Function compile flags: /Odtp /RTCsu
; File C:\Program Files\Microsoft Visual Studio\2022\Community\VC\Tools\MSVC\14.44.35207\include\xmemory
;	COMDAT ??$_Deallocate_plain@V?$allocator@U_Container_proxy@std@@@std@@@std@@YAXAAV?$allocator@U_Container_proxy@std@@@0@QAU_Container_proxy@0@@Z
_TEXT	SEGMENT
__Al$ = 8						; size = 4
__Ptr$ = 12						; size = 4
??$_Deallocate_plain@V?$allocator@U_Container_proxy@std@@@std@@@std@@YAXAAV?$allocator@U_Container_proxy@std@@@0@QAU_Container_proxy@0@@Z PROC ; std::_Deallocate_plain<std::allocator<std::_Container_proxy> >, COMDAT

; 1135 : _CONSTEXPR20 void _Deallocate_plain(_Alloc& _Al, typename _Alloc::value_type* const _Ptr) noexcept {

	push	ebp
	mov	ebp, esp

; 1136 :     // deallocate a plain pointer using an allocator
; 1137 :     using _Alloc_traits = allocator_traits<_Alloc>;
; 1138 :     if constexpr (is_same_v<_Alloc_ptr_t<_Alloc>, typename _Alloc::value_type*>) {
; 1139 :         _Alloc_traits::deallocate(_Al, _Ptr, 1);

	push	1
	mov	eax, DWORD PTR __Ptr$[ebp]
	push	eax
	mov	ecx, DWORD PTR __Al$[ebp]
	push	ecx
	call	?deallocate@?$_Default_allocator_traits@V?$allocator@U_Container_proxy@std@@@std@@@std@@SAXAAV?$allocator@U_Container_proxy@std@@@2@QAU_Container_proxy@2@I@Z ; std::_Default_allocator_traits<std::allocator<std::_Container_proxy> >::deallocate
	add	esp, 12					; 0000000cH

; 1140 :     } else {
; 1141 :         using _Ptr_traits = pointer_traits<_Alloc_ptr_t<_Alloc>>;
; 1142 :         _Alloc_traits::deallocate(_Al, _Ptr_traits::pointer_to(*_Ptr), 1);
; 1143 :     }
; 1144 : }

	cmp	ebp, esp
	call	__RTC_CheckEsp
	pop	ebp
	ret	0
??$_Deallocate_plain@V?$allocator@U_Container_proxy@std@@@std@@@std@@YAXAAV?$allocator@U_Container_proxy@std@@@0@QAU_Container_proxy@0@@Z ENDP ; std::_Deallocate_plain<std::allocator<std::_Container_proxy> >
_TEXT	ENDS
; Function compile flags: /Odtp /RTCsu
; File C:\Program Files\Microsoft Visual Studio\2022\Community\VC\Tools\MSVC\14.44.35207\include\utility
;	COMDAT ??$?0V?$_Tree_iterator@V?$_Tree_val@U?$_Tree_simple_types@U?$pair@$$CBHPAVBaseGameEntity@@@std@@@std@@@std@@@std@@AB_N$0A@@?$pair@V?$_Tree_iterator@V?$_Tree_val@U?$_Tree_simple_types@U?$pair@$$CBHPAVBaseGameEntity@@@std@@@std@@@std@@@std@@_N@std@@QAE@$$QAV?$_Tree_iterator@V?$_Tree_val@U?$_Tree_simple_types@U?$pair@$$CBHPAVBaseGameEntity@@@std@@@std@@@std@@@1@AB_N@Z
_TEXT	SEGMENT
_this$ = -4						; size = 4
__Val1$ = 8						; size = 4
__Val2$ = 12						; size = 4
??$?0V?$_Tree_iterator@V?$_Tree_val@U?$_Tree_simple_types@U?$pair@$$CBHPAVBaseGameEntity@@@std@@@std@@@std@@@std@@AB_N$0A@@?$pair@V?$_Tree_iterator@V?$_Tree_val@U?$_Tree_simple_types@U?$pair@$$CBHPAVBaseGameEntity@@@std@@@std@@@std@@@std@@_N@std@@QAE@$$QAV?$_Tree_iterator@V?$_Tree_val@U?$_Tree_simple_types@U?$pair@$$CBHPAVBaseGameEntity@@@std@@@std@@@std@@@1@AB_N@Z PROC ; std::pair<std::_Tree_iterator<std::_Tree_val<std::_Tree_simple_types<std::pair<int const ,BaseGameEntity *> > > >,bool>::pair<std::_Tree_iterator<std::_Tree_val<std::_Tree_simple_types<std::pair<int const ,BaseGameEntity *> > > >,bool><std::_Tree_iterator<std::_Tree_val<std::_Tree_simple_types<std::pair<int const ,BaseGameEntity *> > > >,bool const &,0>, COMDAT
; _this$ = ecx

; 274  :         : first(_STD forward<_Other1>(_Val1)), second(_STD forward<_Other2>(_Val2)) {

	push	ebp
	mov	ebp, esp
	push	ecx
	mov	DWORD PTR [ebp-4], -858993460		; ccccccccH
	mov	DWORD PTR _this$[ebp], ecx
	mov	eax, DWORD PTR __Val1$[ebp]
	push	eax
	call	??$forward@V?$_Tree_iterator@V?$_Tree_val@U?$_Tree_simple_types@U?$pair@$$CBHPAVBaseGameEntity@@@std@@@std@@@std@@@std@@@std@@YA$$QAV?$_Tree_iterator@V?$_Tree_val@U?$_Tree_simple_types@U?$pair@$$CBHPAVBaseGameEntity@@@std@@@std@@@std@@@0@AAV10@@Z ; std::forward<std::_Tree_iterator<std::_Tree_val<std::_Tree_simple_types<std::pair<int const ,BaseGameEntity *> > > > >
	add	esp, 4
	push	eax
	mov	ecx, DWORD PTR _this$[ebp]
	call	??0?$_Tree_iterator@V?$_Tree_val@U?$_Tree_simple_types@U?$pair@$$CBHPAVBaseGameEntity@@@std@@@std@@@std@@@std@@QAE@$$QAV01@@Z
	mov	ecx, DWORD PTR __Val2$[ebp]
	push	ecx
	call	??$forward@AB_N@std@@YAAB_NAB_N@Z	; std::forward<bool const &>
	add	esp, 4
	mov	edx, DWORD PTR _this$[ebp]
	movzx	eax, BYTE PTR [eax]
	mov	BYTE PTR [edx+12], al

; 275  :     }

	mov	eax, DWORD PTR _this$[ebp]
	add	esp, 4
	cmp	ebp, esp
	call	__RTC_CheckEsp
	mov	esp, ebp
	pop	ebp
	ret	8
??$?0V?$_Tree_iterator@V?$_Tree_val@U?$_Tree_simple_types@U?$pair@$$CBHPAVBaseGameEntity@@@std@@@std@@@std@@@std@@AB_N$0A@@?$pair@V?$_Tree_iterator@V?$_Tree_val@U?$_Tree_simple_types@U?$pair@$$CBHPAVBaseGameEntity@@@std@@@std@@@std@@@std@@_N@std@@QAE@$$QAV?$_Tree_iterator@V?$_Tree_val@U?$_Tree_simple_types@U?$pair@$$CBHPAVBaseGameEntity@@@std@@@std@@@std@@@1@AB_N@Z ENDP ; std::pair<std::_Tree_iterator<std::_Tree_val<std::_Tree_simple_types<std::pair<int const ,BaseGameEntity *> > > >,bool>::pair<std::_Tree_iterator<std::_Tree_val<std::_Tree_simple_types<std::pair<int const ,BaseGameEntity *> > > >,bool><std::_Tree_iterator<std::_Tree_val<std::_Tree_simple_types<std::pair<int const ,BaseGameEntity *> > > >,bool const &,0>
_TEXT	ENDS
; Function compile flags: /Odtp /RTCsu
; File C:\Program Files\Microsoft Visual Studio\2022\Community\VC\Tools\MSVC\14.44.35207\include\xtree
;	COMDAT ??$_Emplace@U?$pair@HPAVBaseGameEntity@@@std@@@?$_Tree@V?$_Tmap_traits@HPAVBaseGameEntity@@U?$less@H@std@@V?$allocator@U?$pair@$$CBHPAVBaseGameEntity@@@std@@@3@$0A@@std@@@std@@IAE?AU?$pair@PAU?$_Tree_node@U?$pair@$$CBHPAVBaseGameEntity@@@std@@PAX@std@@_N@1@$$QAU?$pair@HPAVBaseGameEntity@@@1@@Z
_TEXT	SEGMENT
tv141 = -72						; size = 4
$T1 = -68						; size = 4
$T2 = -61						; size = 1
$T3 = -60						; size = 8
$T4 = -49						; size = 1
$T5 = -48						; size = 12
__Keyval$6 = -36					; size = 4
__Inserted$ = -32					; size = 4
__Loc$ = -24						; size = 12
__Scary$ = -8						; size = 4
_this$ = -4						; size = 4
___$ReturnUdt$ = 8					; size = 4
_<_Vals_0>$ = 12					; size = 4
??$_Emplace@U?$pair@HPAVBaseGameEntity@@@std@@@?$_Tree@V?$_Tmap_traits@HPAVBaseGameEntity@@U?$less@H@std@@V?$allocator@U?$pair@$$CBHPAVBaseGameEntity@@@std@@@3@$0A@@std@@@std@@IAE?AU?$pair@PAU?$_Tree_node@U?$pair@$$CBHPAVBaseGameEntity@@@std@@PAX@std@@_N@1@$$QAU?$pair@HPAVBaseGameEntity@@@1@@Z PROC ; std::_Tree<std::_Tmap_traits<int,BaseGameEntity *,std::less<int>,std::allocator<std::pair<int const ,BaseGameEntity *> >,0> >::_Emplace<std::pair<int,BaseGameEntity *> >, COMDAT
; _this$ = ecx

; 1010 :     pair<_Nodeptr, bool> _Emplace(_Valtys&&... _Vals) {

	push	ebp
	mov	ebp, esp
	sub	esp, 72					; 00000048H
	push	edi
	push	ecx
	lea	edi, DWORD PTR [ebp-72]
	mov	ecx, 18					; 00000012H
	mov	eax, -858993460				; ccccccccH
	rep stosd
	pop	ecx
	mov	DWORD PTR _this$[ebp], ecx

; 1011 :         using _In_place_key_extractor = typename _Traits::template _In_place_key_extractor<_Valtys...>;
; 1012 :         const auto _Scary             = _Get_scary();

	mov	ecx, DWORD PTR _this$[ebp]
	call	?_Get_scary@?$_Tree@V?$_Tmap_traits@HPAVBaseGameEntity@@U?$less@H@std@@V?$allocator@U?$pair@$$CBHPAVBaseGameEntity@@@std@@@3@$0A@@std@@@std@@IAEPAV?$_Tree_val@U?$_Tree_simple_types@U?$pair@$$CBHPAVBaseGameEntity@@@std@@@std@@@2@XZ ; std::_Tree<std::_Tmap_traits<int,BaseGameEntity *,std::less<int>,std::allocator<std::pair<int const ,BaseGameEntity *> >,0> >::_Get_scary
	mov	DWORD PTR __Scary$[ebp], eax

; 1013 :         _Tree_find_result<_Nodeptr> _Loc;
; 1014 :         _Nodeptr _Inserted;
; 1015 :         if constexpr (!_Multi && _In_place_key_extractor::_Extractable) {
; 1016 :             const auto& _Keyval = _In_place_key_extractor::_Extract(_Vals...);

	mov	eax, DWORD PTR _<_Vals_0>$[ebp]
	push	eax
	call	?_Extract@?$_In_place_key_extract_map_impl@HU?$pair@HPAVBaseGameEntity@@@std@@@std@@SAABHABU?$pair@HPAVBaseGameEntity@@@2@@Z ; std::_In_place_key_extract_map_impl<int,std::pair<int,BaseGameEntity *> >::_Extract
	add	esp, 4
	mov	DWORD PTR __Keyval$6[ebp], eax

; 1017 :             _Loc                = _Find_lower_bound(_Keyval);

	mov	ecx, DWORD PTR __Keyval$6[ebp]
	push	ecx
	lea	edx, DWORD PTR $T5[ebp]
	push	edx
	mov	ecx, DWORD PTR _this$[ebp]
	call	??$_Find_lower_bound@H@?$_Tree@V?$_Tmap_traits@HPAVBaseGameEntity@@U?$less@H@std@@V?$allocator@U?$pair@$$CBHPAVBaseGameEntity@@@std@@@3@$0A@@std@@@std@@IBE?AU?$_Tree_find_result@PAU?$_Tree_node@U?$pair@$$CBHPAVBaseGameEntity@@@std@@PAX@std@@@1@ABH@Z ; std::_Tree<std::_Tmap_traits<int,BaseGameEntity *,std::less<int>,std::allocator<std::pair<int const ,BaseGameEntity *> >,0> >::_Find_lower_bound<int>
	mov	ecx, DWORD PTR [eax]
	mov	DWORD PTR __Loc$[ebp], ecx
	mov	edx, DWORD PTR [eax+4]
	mov	DWORD PTR __Loc$[ebp+4], edx
	mov	eax, DWORD PTR [eax+8]
	mov	DWORD PTR __Loc$[ebp+8], eax

; 1018 :             if (_Lower_bound_duplicate(_Loc._Bound, _Keyval)) {

	mov	ecx, DWORD PTR __Keyval$6[ebp]
	push	ecx
	mov	edx, DWORD PTR __Loc$[ebp+8]
	push	edx
	mov	ecx, DWORD PTR _this$[ebp]
	call	??$_Lower_bound_duplicate@H@?$_Tree@V?$_Tmap_traits@HPAVBaseGameEntity@@U?$less@H@std@@V?$allocator@U?$pair@$$CBHPAVBaseGameEntity@@@std@@@3@$0A@@std@@@std@@IBE_NQAU?$_Tree_node@U?$pair@$$CBHPAVBaseGameEntity@@@std@@PAX@1@ABH@Z ; std::_Tree<std::_Tmap_traits<int,BaseGameEntity *,std::less<int>,std::allocator<std::pair<int const ,BaseGameEntity *> >,0> >::_Lower_bound_duplicate<int>
	movzx	eax, al
	test	eax, eax
	je	SHORT $LN2@Emplace

; 1019 :                 return {_Loc._Bound, false};

	mov	BYTE PTR $T4[ebp], 0
	lea	ecx, DWORD PTR $T4[ebp]
	push	ecx
	lea	edx, DWORD PTR __Loc$[ebp+8]
	push	edx
	mov	ecx, DWORD PTR ___$ReturnUdt$[ebp]
	call	??$?0AAPAU?$_Tree_node@U?$pair@$$CBHPAVBaseGameEntity@@@std@@PAX@std@@_N$0A@@?$pair@PAU?$_Tree_node@U?$pair@$$CBHPAVBaseGameEntity@@@std@@PAX@std@@_N@std@@QAE@AAPAU?$_Tree_node@U?$pair@$$CBHPAVBaseGameEntity@@@std@@PAX@1@$$QA_N@Z ; std::pair<std::_Tree_node<std::pair<int const ,BaseGameEntity *>,void *> *,bool>::pair<std::_Tree_node<std::pair<int const ,BaseGameEntity *>,void *> *,bool><std::_Tree_node<std::pair<int const ,BaseGameEntity *>,void *> * &,bool,0>
	npad	1
	mov	eax, DWORD PTR ___$ReturnUdt$[ebp]
	jmp	SHORT $LN1@Emplace
$LN2@Emplace:

; 1020 :             }
; 1021 : 
; 1022 :             _Check_grow_by_1();

	mov	ecx, DWORD PTR _this$[ebp]
	call	?_Check_grow_by_1@?$_Tree@V?$_Tmap_traits@HPAVBaseGameEntity@@U?$less@H@std@@V?$allocator@U?$pair@$$CBHPAVBaseGameEntity@@@std@@@3@$0A@@std@@@std@@IAEXXZ ; std::_Tree<std::_Tmap_traits<int,BaseGameEntity *,std::less<int>,std::allocator<std::pair<int const ,BaseGameEntity *> >,0> >::_Check_grow_by_1
	npad	1

; 1023 :             _Inserted = _Tree_temp_node<_Alnode>(_Getal(), _Scary->_Myhead, _STD forward<_Valtys>(_Vals)...)._Release();

	mov	eax, DWORD PTR _<_Vals_0>$[ebp]
	push	eax
	call	??$forward@U?$pair@HPAVBaseGameEntity@@@std@@@std@@YA$$QAU?$pair@HPAVBaseGameEntity@@@0@AAU10@@Z ; std::forward<std::pair<int,BaseGameEntity *> >
	add	esp, 4
	push	eax
	mov	ecx, DWORD PTR __Scary$[ebp]
	mov	edx, DWORD PTR [ecx+4]
	push	edx
	mov	ecx, DWORD PTR _this$[ebp]
	call	?_Getal@?$_Tree@V?$_Tmap_traits@HPAVBaseGameEntity@@U?$less@H@std@@V?$allocator@U?$pair@$$CBHPAVBaseGameEntity@@@std@@@3@$0A@@std@@@std@@IAEAAV?$allocator@U?$_Tree_node@U?$pair@$$CBHPAVBaseGameEntity@@@std@@PAX@std@@@2@XZ ; std::_Tree<std::_Tmap_traits<int,BaseGameEntity *,std::less<int>,std::allocator<std::pair<int const ,BaseGameEntity *> >,0> >::_Getal
	push	eax
	lea	ecx, DWORD PTR $T3[ebp]
	call	??$?0U?$pair@HPAVBaseGameEntity@@@std@@@?$_Tree_temp_node@V?$allocator@U?$_Tree_node@U?$pair@$$CBHPAVBaseGameEntity@@@std@@PAX@std@@@std@@@std@@QAE@AAV?$allocator@U?$_Tree_node@U?$pair@$$CBHPAVBaseGameEntity@@@std@@PAX@std@@@1@PAU?$_Tree_node@U?$pair@$$CBHPAVBaseGameEntity@@@std@@PAX@1@$$QAU?$pair@HPAVBaseGameEntity@@@1@@Z ; std::_Tree_temp_node<std::allocator<std::_Tree_node<std::pair<int const ,BaseGameEntity *>,void *> > >::_Tree_temp_node<std::allocator<std::_Tree_node<std::pair<int const ,BaseGameEntity *>,void *> > ><std::pair<int,BaseGameEntity *> >
	mov	DWORD PTR tv141[ebp], eax
	mov	ecx, DWORD PTR tv141[ebp]
	call	?_Release@?$_Alloc_construct_ptr@V?$allocator@U?$_Tree_node@U?$pair@$$CBHPAVBaseGameEntity@@@std@@PAX@std@@@std@@@std@@QAEPAU?$_Tree_node@U?$pair@$$CBHPAVBaseGameEntity@@@std@@PAX@2@XZ ; std::_Alloc_construct_ptr<std::allocator<std::_Tree_node<std::pair<int const ,BaseGameEntity *>,void *> > >::_Release
	mov	DWORD PTR __Inserted$[ebp], eax
	lea	ecx, DWORD PTR $T3[ebp]
	call	??1?$_Tree_temp_node@V?$allocator@U?$_Tree_node@U?$pair@$$CBHPAVBaseGameEntity@@@std@@PAX@std@@@std@@@std@@QAE@XZ ; std::_Tree_temp_node<std::allocator<std::_Tree_node<std::pair<int const ,BaseGameEntity *>,void *> > >::~_Tree_temp_node<std::allocator<std::_Tree_node<std::pair<int const ,BaseGameEntity *>,void *> > >
	npad	1

; 1024 :             // nothrow hereafter
; 1025 :         } else {
; 1026 :             _Tree_temp_node<_Alnode> _Newnode(_Getal(), _Scary->_Myhead, _STD forward<_Valtys>(_Vals)...);
; 1027 :             const auto& _Keyval = _Traits::_Kfn(_Newnode._Ptr->_Myval);
; 1028 :             if constexpr (_Multi) { // duplicate check if unique
; 1029 :                 _Loc = _Find_upper_bound(_Keyval);
; 1030 :             } else {
; 1031 :                 _Loc = _Find_lower_bound(_Keyval);
; 1032 :                 if (_Lower_bound_duplicate(_Loc._Bound, _Keyval)) {
; 1033 :                     return {_Loc._Bound, false};
; 1034 :                 }
; 1035 :             }
; 1036 : 
; 1037 :             _Check_grow_by_1();
; 1038 :             // nothrow hereafter
; 1039 :             _Inserted = _Newnode._Release();
; 1040 :         }
; 1041 : 
; 1042 :         return {_Scary->_Insert_node(_Loc._Location, _Inserted), true};

	mov	eax, DWORD PTR __Inserted$[ebp]
	push	eax
	mov	ecx, DWORD PTR __Loc$[ebp+4]
	push	ecx
	mov	edx, DWORD PTR __Loc$[ebp]
	push	edx
	mov	ecx, DWORD PTR __Scary$[ebp]
	call	?_Insert_node@?$_Tree_val@U?$_Tree_simple_types@U?$pair@$$CBHPAVBaseGameEntity@@@std@@@std@@@std@@QAEPAU?$_Tree_node@U?$pair@$$CBHPAVBaseGameEntity@@@std@@PAX@2@U?$_Tree_id@PAU?$_Tree_node@U?$pair@$$CBHPAVBaseGameEntity@@@std@@PAX@std@@@2@QAU32@@Z ; std::_Tree_val<std::_Tree_simple_types<std::pair<int const ,BaseGameEntity *> > >::_Insert_node
	mov	DWORD PTR $T1[ebp], eax
	mov	BYTE PTR $T2[ebp], 1
	lea	eax, DWORD PTR $T2[ebp]
	push	eax
	lea	ecx, DWORD PTR $T1[ebp]
	push	ecx
	mov	ecx, DWORD PTR ___$ReturnUdt$[ebp]
	call	??$?0PAU?$_Tree_node@U?$pair@$$CBHPAVBaseGameEntity@@@std@@PAX@std@@_N$0A@@?$pair@PAU?$_Tree_node@U?$pair@$$CBHPAVBaseGameEntity@@@std@@PAX@std@@_N@std@@QAE@$$QAPAU?$_Tree_node@U?$pair@$$CBHPAVBaseGameEntity@@@std@@PAX@1@$$QA_N@Z ; std::pair<std::_Tree_node<std::pair<int const ,BaseGameEntity *>,void *> *,bool>::pair<std::_Tree_node<std::pair<int const ,BaseGameEntity *>,void *> *,bool><std::_Tree_node<std::pair<int const ,BaseGameEntity *>,void *> *,bool,0>
	npad	1
	mov	eax, DWORD PTR ___$ReturnUdt$[ebp]
$LN1@Emplace:

; 1043 :     }

	push	edx
	mov	ecx, ebp
	push	eax
	lea	edx, DWORD PTR $LN7@Emplace
	call	@_RTC_CheckStackVars@8
	pop	eax
	pop	edx
	pop	edi
	add	esp, 72					; 00000048H
	cmp	ebp, esp
	call	__RTC_CheckEsp
	mov	esp, ebp
	pop	ebp
	ret	8
	npad	3
$LN7@Emplace:
	DD	1
	DD	$LN6@Emplace
$LN6@Emplace:
	DD	-24					; ffffffe8H
	DD	12					; 0000000cH
	DD	$LN5@Emplace
$LN5@Emplace:
	DB	95					; 0000005fH
	DB	76					; 0000004cH
	DB	111					; 0000006fH
	DB	99					; 00000063H
	DB	0
??$_Emplace@U?$pair@HPAVBaseGameEntity@@@std@@@?$_Tree@V?$_Tmap_traits@HPAVBaseGameEntity@@U?$less@H@std@@V?$allocator@U?$pair@$$CBHPAVBaseGameEntity@@@std@@@3@$0A@@std@@@std@@IAE?AU?$pair@PAU?$_Tree_node@U?$pair@$$CBHPAVBaseGameEntity@@@std@@PAX@std@@_N@1@$$QAU?$pair@HPAVBaseGameEntity@@@1@@Z ENDP ; std::_Tree<std::_Tmap_traits<int,BaseGameEntity *,std::less<int>,std::allocator<std::pair<int const ,BaseGameEntity *> >,0> >::_Emplace<std::pair<int,BaseGameEntity *> >
_TEXT	ENDS
; Function compile flags: /Odtp /RTCsu
; File C:\Program Files\Microsoft Visual Studio\2022\Community\VC\Tools\MSVC\14.44.35207\include\xmemory
;	COMDAT ??$?0U?$_Tree_node@U?$pair@$$CBHPAVBaseGameEntity@@@std@@PAX@std@@@?$allocator@U_Container_proxy@std@@@std@@QAE@ABV?$allocator@U?$_Tree_node@U?$pair@$$CBHPAVBaseGameEntity@@@std@@PAX@std@@@1@@Z
_TEXT	SEGMENT
_this$ = -4						; size = 4
___formal$ = 8						; size = 4
??$?0U?$_Tree_node@U?$pair@$$CBHPAVBaseGameEntity@@@std@@PAX@std@@@?$allocator@U_Container_proxy@std@@@std@@QAE@ABV?$allocator@U?$_Tree_node@U?$pair@$$CBHPAVBaseGameEntity@@@std@@PAX@std@@@1@@Z PROC ; std::allocator<std::_Container_proxy>::allocator<std::_Container_proxy><std::_Tree_node<std::pair<int const ,BaseGameEntity *>,void *> >, COMDAT
; _this$ = ecx

; 978  :     constexpr allocator(const allocator<_Other>&) noexcept {}

	push	ebp
	mov	ebp, esp
	push	ecx
	mov	DWORD PTR _this$[ebp], ecx
	mov	eax, DWORD PTR _this$[ebp]
	mov	esp, ebp
	pop	ebp
	ret	4
??$?0U?$_Tree_node@U?$pair@$$CBHPAVBaseGameEntity@@@std@@PAX@std@@@?$allocator@U_Container_proxy@std@@@std@@QAE@ABV?$allocator@U?$_Tree_node@U?$pair@$$CBHPAVBaseGameEntity@@@std@@PAX@std@@@1@@Z ENDP ; std::allocator<std::_Container_proxy>::allocator<std::_Container_proxy><std::_Tree_node<std::pair<int const ,BaseGameEntity *>,void *> >
_TEXT	ENDS
; Function compile flags: /Odtp /RTCsu
; File C:\Program Files\Microsoft Visual Studio\2022\Community\VC\Tools\MSVC\14.44.35207\include\xtree
;	COMDAT ??$_Erase_head@V?$allocator@U?$_Tree_node@U?$pair@$$CBHPAVBaseGameEntity@@@std@@PAX@std@@@std@@@?$_Tree_val@U?$_Tree_simple_types@U?$pair@$$CBHPAVBaseGameEntity@@@std@@@std@@@std@@QAEXAAV?$allocator@U?$_Tree_node@U?$pair@$$CBHPAVBaseGameEntity@@@std@@PAX@std@@@1@@Z
_TEXT	SEGMENT
_this$ = -4						; size = 4
__Al$ = 8						; size = 4
??$_Erase_head@V?$allocator@U?$_Tree_node@U?$pair@$$CBHPAVBaseGameEntity@@@std@@PAX@std@@@std@@@?$_Tree_val@U?$_Tree_simple_types@U?$pair@$$CBHPAVBaseGameEntity@@@std@@@std@@@std@@QAEXAAV?$allocator@U?$_Tree_node@U?$pair@$$CBHPAVBaseGameEntity@@@std@@PAX@std@@@1@@Z PROC ; std::_Tree_val<std::_Tree_simple_types<std::pair<int const ,BaseGameEntity *> > >::_Erase_head<std::allocator<std::_Tree_node<std::pair<int const ,BaseGameEntity *>,void *> > >, COMDAT
; _this$ = ecx

; 775  :     void _Erase_head(_Alnode& _Al) noexcept {

	push	ebp
	mov	ebp, esp
	push	ecx
	mov	DWORD PTR [ebp-4], -858993460		; ccccccccH
	mov	DWORD PTR _this$[ebp], ecx

; 776  :         this->_Orphan_all();

	mov	ecx, DWORD PTR _this$[ebp]
	call	?_Orphan_all@_Container_base12@std@@QAEXXZ ; std::_Container_base12::_Orphan_all

; 777  :         _Erase_tree(_Al, _Myhead->_Parent);

	mov	eax, DWORD PTR _this$[ebp]
	mov	ecx, DWORD PTR [eax+4]
	mov	edx, DWORD PTR [ecx+4]
	push	edx
	mov	eax, DWORD PTR __Al$[ebp]
	push	eax
	mov	ecx, DWORD PTR _this$[ebp]
	call	??$_Erase_tree@V?$allocator@U?$_Tree_node@U?$pair@$$CBHPAVBaseGameEntity@@@std@@PAX@std@@@std@@@?$_Tree_val@U?$_Tree_simple_types@U?$pair@$$CBHPAVBaseGameEntity@@@std@@@std@@@std@@QAEXAAV?$allocator@U?$_Tree_node@U?$pair@$$CBHPAVBaseGameEntity@@@std@@PAX@std@@@1@PAU?$_Tree_node@U?$pair@$$CBHPAVBaseGameEntity@@@std@@PAX@1@@Z ; std::_Tree_val<std::_Tree_simple_types<std::pair<int const ,BaseGameEntity *> > >::_Erase_tree<std::allocator<std::_Tree_node<std::pair<int const ,BaseGameEntity *>,void *> > >

; 778  :         _Alnode::value_type::_Freenode0(_Al, _Myhead);

	mov	ecx, DWORD PTR _this$[ebp]
	mov	edx, DWORD PTR [ecx+4]
	push	edx
	mov	eax, DWORD PTR __Al$[ebp]
	push	eax
	call	??$_Freenode0@V?$allocator@U?$_Tree_node@U?$pair@$$CBHPAVBaseGameEntity@@@std@@PAX@std@@@std@@@?$_Tree_node@U?$pair@$$CBHPAVBaseGameEntity@@@std@@PAX@std@@SAXAAV?$allocator@U?$_Tree_node@U?$pair@$$CBHPAVBaseGameEntity@@@std@@PAX@std@@@1@PAU01@@Z ; std::_Tree_node<std::pair<int const ,BaseGameEntity *>,void *>::_Freenode0<std::allocator<std::_Tree_node<std::pair<int const ,BaseGameEntity *>,void *> > >
	add	esp, 8

; 779  :     }

	add	esp, 4
	cmp	ebp, esp
	call	__RTC_CheckEsp
	mov	esp, ebp
	pop	ebp
	ret	4
??$_Erase_head@V?$allocator@U?$_Tree_node@U?$pair@$$CBHPAVBaseGameEntity@@@std@@PAX@std@@@std@@@?$_Tree_val@U?$_Tree_simple_types@U?$pair@$$CBHPAVBaseGameEntity@@@std@@@std@@@std@@QAEXAAV?$allocator@U?$_Tree_node@U?$pair@$$CBHPAVBaseGameEntity@@@std@@PAX@std@@@1@@Z ENDP ; std::_Tree_val<std::_Tree_simple_types<std::pair<int const ,BaseGameEntity *> > >::_Erase_head<std::allocator<std::_Tree_node<std::pair<int const ,BaseGameEntity *>,void *> > >
_TEXT	ENDS
; Function compile flags: /Odtp /RTCsu
; File C:\Program Files\Microsoft Visual Studio\2022\Community\VC\Tools\MSVC\14.44.35207\include\xtree
;	COMDAT ??$_Erase_tree@V?$allocator@U?$_Tree_node@U?$pair@$$CBHPAVBaseGameEntity@@@std@@PAX@std@@@std@@@?$_Tree_val@U?$_Tree_simple_types@U?$pair@$$CBHPAVBaseGameEntity@@@std@@@std@@@std@@QAEXAAV?$allocator@U?$_Tree_node@U?$pair@$$CBHPAVBaseGameEntity@@@std@@PAX@std@@@1@PAU?$_Tree_node@U?$pair@$$CBHPAVBaseGameEntity@@@std@@PAX@1@@Z
_TEXT	SEGMENT
_this$ = -4						; size = 4
__Al$ = 8						; size = 4
__Rootnode$ = 12					; size = 4
??$_Erase_tree@V?$allocator@U?$_Tree_node@U?$pair@$$CBHPAVBaseGameEntity@@@std@@PAX@std@@@std@@@?$_Tree_val@U?$_Tree_simple_types@U?$pair@$$CBHPAVBaseGameEntity@@@std@@@std@@@std@@QAEXAAV?$allocator@U?$_Tree_node@U?$pair@$$CBHPAVBaseGameEntity@@@std@@PAX@std@@@1@PAU?$_Tree_node@U?$pair@$$CBHPAVBaseGameEntity@@@std@@PAX@1@@Z PROC ; std::_Tree_val<std::_Tree_simple_types<std::pair<int const ,BaseGameEntity *> > >::_Erase_tree<std::allocator<std::_Tree_node<std::pair<int const ,BaseGameEntity *>,void *> > >, COMDAT
; _this$ = ecx

; 767  :     void _Erase_tree(_Alnode& _Al, _Nodeptr _Rootnode) noexcept {

	push	ebp
	mov	ebp, esp
	push	ecx
	mov	DWORD PTR [ebp-4], -858993460		; ccccccccH
	mov	DWORD PTR _this$[ebp], ecx
$LN2@Erase_tree:

; 768  :         while (!_Rootnode->_Isnil) { // free subtrees, then node

	mov	eax, DWORD PTR __Rootnode$[ebp]
	movsx	ecx, BYTE PTR [eax+13]
	test	ecx, ecx
	jne	SHORT $LN3@Erase_tree

; 769  :             _Erase_tree(_Al, _Rootnode->_Right);

	mov	edx, DWORD PTR __Rootnode$[ebp]
	mov	eax, DWORD PTR [edx+8]
	push	eax
	mov	ecx, DWORD PTR __Al$[ebp]
	push	ecx
	mov	ecx, DWORD PTR _this$[ebp]
	call	??$_Erase_tree@V?$allocator@U?$_Tree_node@U?$pair@$$CBHPAVBaseGameEntity@@@std@@PAX@std@@@std@@@?$_Tree_val@U?$_Tree_simple_types@U?$pair@$$CBHPAVBaseGameEntity@@@std@@@std@@@std@@QAEXAAV?$allocator@U?$_Tree_node@U?$pair@$$CBHPAVBaseGameEntity@@@std@@PAX@std@@@1@PAU?$_Tree_node@U?$pair@$$CBHPAVBaseGameEntity@@@std@@PAX@1@@Z ; std::_Tree_val<std::_Tree_simple_types<std::pair<int const ,BaseGameEntity *> > >::_Erase_tree<std::allocator<std::_Tree_node<std::pair<int const ,BaseGameEntity *>,void *> > >

; 770  :             _Alnode::value_type::_Freenode(_Al, _STD exchange(_Rootnode, _Rootnode->_Left));

	mov	edx, DWORD PTR __Rootnode$[ebp]
	push	edx
	lea	eax, DWORD PTR __Rootnode$[ebp]
	push	eax
	call	??$exchange@PAU?$_Tree_node@U?$pair@$$CBHPAVBaseGameEntity@@@std@@PAX@std@@AAPAU12@@std@@YAPAU?$_Tree_node@U?$pair@$$CBHPAVBaseGameEntity@@@std@@PAX@0@AAPAU10@0@Z ; std::exchange<std::_Tree_node<std::pair<int const ,BaseGameEntity *>,void *> *,std::_Tree_node<std::pair<int const ,BaseGameEntity *>,void *> * &>
	add	esp, 8
	push	eax
	mov	ecx, DWORD PTR __Al$[ebp]
	push	ecx
	call	??$_Freenode@V?$allocator@U?$_Tree_node@U?$pair@$$CBHPAVBaseGameEntity@@@std@@PAX@std@@@std@@@?$_Tree_node@U?$pair@$$CBHPAVBaseGameEntity@@@std@@PAX@std@@SAXAAV?$allocator@U?$_Tree_node@U?$pair@$$CBHPAVBaseGameEntity@@@std@@PAX@std@@@1@PAU01@@Z ; std::_Tree_node<std::pair<int const ,BaseGameEntity *>,void *>::_Freenode<std::allocator<std::_Tree_node<std::pair<int const ,BaseGameEntity *>,void *> > >
	add	esp, 8

; 771  :         }

	jmp	SHORT $LN2@Erase_tree
$LN3@Erase_tree:

; 772  :     }

	add	esp, 4
	cmp	ebp, esp
	call	__RTC_CheckEsp
	mov	esp, ebp
	pop	ebp
	ret	8
??$_Erase_tree@V?$allocator@U?$_Tree_node@U?$pair@$$CBHPAVBaseGameEntity@@@std@@PAX@std@@@std@@@?$_Tree_val@U?$_Tree_simple_types@U?$pair@$$CBHPAVBaseGameEntity@@@std@@@std@@@std@@QAEXAAV?$allocator@U?$_Tree_node@U?$pair@$$CBHPAVBaseGameEntity@@@std@@PAX@std@@@1@PAU?$_Tree_node@U?$pair@$$CBHPAVBaseGameEntity@@@std@@PAX@1@@Z ENDP ; std::_Tree_val<std::_Tree_simple_types<std::pair<int const ,BaseGameEntity *> > >::_Erase_tree<std::allocator<std::_Tree_node<std::pair<int const ,BaseGameEntity *>,void *> > >
_TEXT	ENDS
; Function compile flags: /Odtp /RTCsu
; File C:\Program Files\Microsoft Visual Studio\2022\Community\VC\Tools\MSVC\14.44.35207\include\xtree
;	COMDAT ??$_Find@H@?$_Tree@V?$_Tmap_traits@HPAVBaseGameEntity@@U?$less@H@std@@V?$allocator@U?$pair@$$CBHPAVBaseGameEntity@@@std@@@3@$0A@@std@@@std@@ABEPAU?$_Tree_node@U?$pair@$$CBHPAVBaseGameEntity@@@std@@PAX@1@ABH@Z
_TEXT	SEGMENT
__Loc$ = -20						; size = 12
_this$ = -4						; size = 4
__Keyval$ = 8						; size = 4
??$_Find@H@?$_Tree@V?$_Tmap_traits@HPAVBaseGameEntity@@U?$less@H@std@@V?$allocator@U?$pair@$$CBHPAVBaseGameEntity@@@std@@@3@$0A@@std@@@std@@ABEPAU?$_Tree_node@U?$pair@$$CBHPAVBaseGameEntity@@@std@@PAX@1@ABH@Z PROC ; std::_Tree<std::_Tmap_traits<int,BaseGameEntity *,std::less<int>,std::allocator<std::pair<int const ,BaseGameEntity *> >,0> >::_Find<int>, COMDAT
; _this$ = ecx

; 1383 :     _NODISCARD _Nodeptr _Find(const _Other& _Keyval) const {

	push	ebp
	mov	ebp, esp
	sub	esp, 24					; 00000018H
	mov	eax, -858993460				; ccccccccH
	mov	DWORD PTR [ebp-24], eax
	mov	DWORD PTR [ebp-20], eax
	mov	DWORD PTR [ebp-16], eax
	mov	DWORD PTR [ebp-12], eax
	mov	DWORD PTR [ebp-8], eax
	mov	DWORD PTR [ebp-4], eax
	mov	DWORD PTR _this$[ebp], ecx

; 1384 :         const _Tree_find_result<_Nodeptr> _Loc = _Find_lower_bound(_Keyval);

	mov	eax, DWORD PTR __Keyval$[ebp]
	push	eax
	lea	ecx, DWORD PTR __Loc$[ebp]
	push	ecx
	mov	ecx, DWORD PTR _this$[ebp]
	call	??$_Find_lower_bound@H@?$_Tree@V?$_Tmap_traits@HPAVBaseGameEntity@@U?$less@H@std@@V?$allocator@U?$pair@$$CBHPAVBaseGameEntity@@@std@@@3@$0A@@std@@@std@@IBE?AU?$_Tree_find_result@PAU?$_Tree_node@U?$pair@$$CBHPAVBaseGameEntity@@@std@@PAX@std@@@1@ABH@Z ; std::_Tree<std::_Tmap_traits<int,BaseGameEntity *,std::less<int>,std::allocator<std::pair<int const ,BaseGameEntity *> >,0> >::_Find_lower_bound<int>
	npad	1

; 1385 :         if (_Lower_bound_duplicate(_Loc._Bound, _Keyval)) {

	mov	edx, DWORD PTR __Keyval$[ebp]
	push	edx
	mov	eax, DWORD PTR __Loc$[ebp+8]
	push	eax
	mov	ecx, DWORD PTR _this$[ebp]
	call	??$_Lower_bound_duplicate@H@?$_Tree@V?$_Tmap_traits@HPAVBaseGameEntity@@U?$less@H@std@@V?$allocator@U?$pair@$$CBHPAVBaseGameEntity@@@std@@@3@$0A@@std@@@std@@IBE_NQAU?$_Tree_node@U?$pair@$$CBHPAVBaseGameEntity@@@std@@PAX@1@ABH@Z ; std::_Tree<std::_Tmap_traits<int,BaseGameEntity *,std::less<int>,std::allocator<std::pair<int const ,BaseGameEntity *> >,0> >::_Lower_bound_duplicate<int>
	movzx	ecx, al
	test	ecx, ecx
	je	SHORT $LN2@Find

; 1386 :             return _Loc._Bound;

	mov	eax, DWORD PTR __Loc$[ebp+8]
	jmp	SHORT $LN1@Find
$LN2@Find:

; 1387 :         }
; 1388 : 
; 1389 :         return _Get_scary()->_Myhead;

	mov	ecx, DWORD PTR _this$[ebp]
	call	?_Get_scary@?$_Tree@V?$_Tmap_traits@HPAVBaseGameEntity@@U?$less@H@std@@V?$allocator@U?$pair@$$CBHPAVBaseGameEntity@@@std@@@3@$0A@@std@@@std@@IBEPBV?$_Tree_val@U?$_Tree_simple_types@U?$pair@$$CBHPAVBaseGameEntity@@@std@@@std@@@2@XZ ; std::_Tree<std::_Tmap_traits<int,BaseGameEntity *,std::less<int>,std::allocator<std::pair<int const ,BaseGameEntity *> >,0> >::_Get_scary
	mov	eax, DWORD PTR [eax+4]
$LN1@Find:

; 1390 :     }

	push	edx
	mov	ecx, ebp
	push	eax
	lea	edx, DWORD PTR $LN6@Find
	call	@_RTC_CheckStackVars@8
	pop	eax
	pop	edx
	add	esp, 24					; 00000018H
	cmp	ebp, esp
	call	__RTC_CheckEsp
	mov	esp, ebp
	pop	ebp
	ret	4
	npad	3
$LN6@Find:
	DD	1
	DD	$LN5@Find
$LN5@Find:
	DD	-20					; ffffffecH
	DD	12					; 0000000cH
	DD	$LN4@Find
$LN4@Find:
	DB	95					; 0000005fH
	DB	76					; 0000004cH
	DB	111					; 0000006fH
	DB	99					; 00000063H
	DB	0
??$_Find@H@?$_Tree@V?$_Tmap_traits@HPAVBaseGameEntity@@U?$less@H@std@@V?$allocator@U?$pair@$$CBHPAVBaseGameEntity@@@std@@@3@$0A@@std@@@std@@ABEPAU?$_Tree_node@U?$pair@$$CBHPAVBaseGameEntity@@@std@@PAX@1@ABH@Z ENDP ; std::_Tree<std::_Tmap_traits<int,BaseGameEntity *,std::less<int>,std::allocator<std::pair<int const ,BaseGameEntity *> >,0> >::_Find<int>
_TEXT	ENDS
; Function compile flags: /Odtp /RTCsu
; File C:\Program Files\Microsoft Visual Studio\2022\Community\VC\Tools\MSVC\14.44.35207\include\xutility
;	COMDAT ?pointer_to@?$pointer_traits@PBU?$pair@$$CBHPAVBaseGameEntity@@@std@@@std@@SAPBU?$pair@$$CBHPAVBaseGameEntity@@@2@ABU32@@Z
_TEXT	SEGMENT
__Val$ = 8						; size = 4
?pointer_to@?$pointer_traits@PBU?$pair@$$CBHPAVBaseGameEntity@@@std@@@std@@SAPBU?$pair@$$CBHPAVBaseGameEntity@@@2@ABU32@@Z PROC ; std::pointer_traits<std::pair<int const ,BaseGameEntity *> const *>::pointer_to, COMDAT

; 527  :     _NODISCARD static _CONSTEXPR20 pointer pointer_to(_Reftype _Val) noexcept {

	push	ebp
	mov	ebp, esp

; 528  :         return _STD addressof(_Val);

	mov	eax, DWORD PTR __Val$[ebp]
	push	eax
	call	??$addressof@$$CBU?$pair@$$CBHPAVBaseGameEntity@@@std@@@std@@YAPBU?$pair@$$CBHPAVBaseGameEntity@@@0@ABU10@@Z ; std::addressof<std::pair<int const ,BaseGameEntity *> const >
	add	esp, 4

; 529  :     }

	cmp	ebp, esp
	call	__RTC_CheckEsp
	pop	ebp
	ret	0
?pointer_to@?$pointer_traits@PBU?$pair@$$CBHPAVBaseGameEntity@@@std@@@std@@SAPBU?$pair@$$CBHPAVBaseGameEntity@@@2@ABU32@@Z ENDP ; std::pointer_traits<std::pair<int const ,BaseGameEntity *> const *>::pointer_to
_TEXT	ENDS
; Function compile flags: /Odtp /RTCsu
; File C:\Program Files\Microsoft Visual Studio\2022\Community\VC\Tools\MSVC\14.44.35207\include\xmemory
;	COMDAT ??$_Delete_plain_internal@V?$allocator@U_Container_proxy@std@@@std@@@std@@YAXAAV?$allocator@U_Container_proxy@std@@@0@QAU_Container_proxy@0@@Z
_TEXT	SEGMENT
__Al$ = 8						; size = 4
__Ptr$ = 12						; size = 4
??$_Delete_plain_internal@V?$allocator@U_Container_proxy@std@@@std@@@std@@YAXAAV?$allocator@U_Container_proxy@std@@@0@QAU_Container_proxy@0@@Z PROC ; std::_Delete_plain_internal<std::allocator<std::_Container_proxy> >, COMDAT

; 1147 : _CONSTEXPR20 void _Delete_plain_internal(_Alloc& _Al, typename _Alloc::value_type* const _Ptr) noexcept {

	push	ebp
	mov	ebp, esp

; 1148 :     // destroy *_Ptr in place, then deallocate _Ptr using _Al; used for internal container types the user didn't name
; 1149 :     using _Ty = typename _Alloc::value_type;
; 1150 :     _Ptr->~_Ty();
; 1151 :     _STD _Deallocate_plain(_Al, _Ptr);

	mov	eax, DWORD PTR __Ptr$[ebp]
	push	eax
	mov	ecx, DWORD PTR __Al$[ebp]
	push	ecx
	call	??$_Deallocate_plain@V?$allocator@U_Container_proxy@std@@@std@@@std@@YAXAAV?$allocator@U_Container_proxy@std@@@0@QAU_Container_proxy@0@@Z ; std::_Deallocate_plain<std::allocator<std::_Container_proxy> >
	add	esp, 8

; 1152 : }

	cmp	ebp, esp
	call	__RTC_CheckEsp
	pop	ebp
	ret	0
??$_Delete_plain_internal@V?$allocator@U_Container_proxy@std@@@std@@@std@@YAXAAV?$allocator@U_Container_proxy@std@@@0@QAU_Container_proxy@0@@Z ENDP ; std::_Delete_plain_internal<std::allocator<std::_Container_proxy> >
_TEXT	ENDS
; Function compile flags: /Odtp /RTCsu
; File C:\Program Files\Microsoft Visual Studio\2022\Community\VC\Tools\MSVC\14.44.35207\include\xmemory
;	COMDAT ?allocate@?$allocator@U_Container_proxy@std@@@std@@QAEPAU_Container_proxy@2@I@Z
_TEXT	SEGMENT
_this$ = -4						; size = 4
__Count$ = 8						; size = 4
?allocate@?$allocator@U_Container_proxy@std@@@std@@QAEPAU_Container_proxy@2@I@Z PROC ; std::allocator<std::_Container_proxy>::allocate, COMDAT
; _this$ = ecx

; 988  :     _NODISCARD_RAW_PTR_ALLOC _CONSTEXPR20 __declspec(allocator) _Ty* allocate(_CRT_GUARDOVERFLOW const size_t _Count) {

	push	ebp
	mov	ebp, esp
	push	ecx
	mov	DWORD PTR [ebp-4], -858993460		; ccccccccH
	mov	DWORD PTR _this$[ebp], ecx

; 989  :         static_assert(sizeof(value_type) > 0, "value_type must be complete before calling allocate.");
; 990  :         return static_cast<_Ty*>(_STD _Allocate<_New_alignof<_Ty>>(_Get_size_of_n<sizeof(_Ty)>(_Count)));

	mov	eax, DWORD PTR __Count$[ebp]
	push	eax
	call	??$_Get_size_of_n@$07@std@@YAII@Z	; std::_Get_size_of_n<8>
	add	esp, 4
	push	eax
	call	??$_Allocate@$07U_Default_allocate_traits@std@@@std@@YAPAXI@Z ; std::_Allocate<8,std::_Default_allocate_traits>
	add	esp, 4

; 991  :     }

	add	esp, 4
	cmp	ebp, esp
	call	__RTC_CheckEsp
	mov	esp, ebp
	pop	ebp
	ret	4
?allocate@?$allocator@U_Container_proxy@std@@@std@@QAEPAU_Container_proxy@2@I@Z ENDP ; std::allocator<std::_Container_proxy>::allocate
_TEXT	ENDS
; Function compile flags: /Odtp /RTCsu
; File C:\Program Files\Microsoft Visual Studio\2022\Community\VC\Tools\MSVC\14.44.35207\include\xtree
;	COMDAT ??$emplace@U?$pair@HPAVBaseGameEntity@@@std@@@?$_Tree@V?$_Tmap_traits@HPAVBaseGameEntity@@U?$less@H@std@@V?$allocator@U?$pair@$$CBHPAVBaseGameEntity@@@std@@@3@$0A@@std@@@std@@QAE?AU?$pair@V?$_Tree_iterator@V?$_Tree_val@U?$_Tree_simple_types@U?$pair@$$CBHPAVBaseGameEntity@@@std@@@std@@@std@@@std@@_N@1@$$QAU?$pair@HPAVBaseGameEntity@@@1@@Z
_TEXT	SEGMENT
tv83 = -40						; size = 4
$T1 = -36						; size = 4
$T2 = -32						; size = 12
__Result$ = -16						; size = 8
_this$ = -4						; size = 4
___$ReturnUdt$ = 8					; size = 4
_<_Vals_0>$ = 12					; size = 4
??$emplace@U?$pair@HPAVBaseGameEntity@@@std@@@?$_Tree@V?$_Tmap_traits@HPAVBaseGameEntity@@U?$less@H@std@@V?$allocator@U?$pair@$$CBHPAVBaseGameEntity@@@std@@@3@$0A@@std@@@std@@QAE?AU?$pair@V?$_Tree_iterator@V?$_Tree_val@U?$_Tree_simple_types@U?$pair@$$CBHPAVBaseGameEntity@@@std@@@std@@@std@@@std@@_N@1@$$QAU?$pair@HPAVBaseGameEntity@@@1@@Z PROC ; std::_Tree<std::_Tmap_traits<int,BaseGameEntity *,std::less<int>,std::allocator<std::pair<int const ,BaseGameEntity *> >,0> >::emplace<std::pair<int,BaseGameEntity *> >, COMDAT
; _this$ = ecx

; 1047 :     pair<iterator, bool> emplace(_Valtys&&... _Vals) {

	push	ebp
	mov	ebp, esp
	sub	esp, 40					; 00000028H
	push	edi
	push	ecx
	lea	edi, DWORD PTR [ebp-40]
	mov	ecx, 10					; 0000000aH
	mov	eax, -858993460				; ccccccccH
	rep stosd
	pop	ecx
	mov	DWORD PTR _this$[ebp], ecx
	mov	DWORD PTR $T1[ebp], 0

; 1048 :         const auto _Result = _Emplace(_STD forward<_Valtys>(_Vals)...);

	mov	eax, DWORD PTR _<_Vals_0>$[ebp]
	push	eax
	call	??$forward@U?$pair@HPAVBaseGameEntity@@@std@@@std@@YA$$QAU?$pair@HPAVBaseGameEntity@@@0@AAU10@@Z ; std::forward<std::pair<int,BaseGameEntity *> >
	add	esp, 4
	push	eax
	lea	ecx, DWORD PTR __Result$[ebp]
	push	ecx
	mov	ecx, DWORD PTR _this$[ebp]
	call	??$_Emplace@U?$pair@HPAVBaseGameEntity@@@std@@@?$_Tree@V?$_Tmap_traits@HPAVBaseGameEntity@@U?$less@H@std@@V?$allocator@U?$pair@$$CBHPAVBaseGameEntity@@@std@@@3@$0A@@std@@@std@@IAE?AU?$pair@PAU?$_Tree_node@U?$pair@$$CBHPAVBaseGameEntity@@@std@@PAX@std@@_N@1@$$QAU?$pair@HPAVBaseGameEntity@@@1@@Z ; std::_Tree<std::_Tmap_traits<int,BaseGameEntity *,std::less<int>,std::allocator<std::pair<int const ,BaseGameEntity *> >,0> >::_Emplace<std::pair<int,BaseGameEntity *> >
	npad	1

; 1049 :         return {iterator(_Result.first, _Get_scary()), _Result.second};

	mov	ecx, DWORD PTR _this$[ebp]
	call	?_Get_scary@?$_Tree@V?$_Tmap_traits@HPAVBaseGameEntity@@U?$less@H@std@@V?$allocator@U?$pair@$$CBHPAVBaseGameEntity@@@std@@@3@$0A@@std@@@std@@IAEPAV?$_Tree_val@U?$_Tree_simple_types@U?$pair@$$CBHPAVBaseGameEntity@@@std@@@std@@@2@XZ ; std::_Tree<std::_Tmap_traits<int,BaseGameEntity *,std::less<int>,std::allocator<std::pair<int const ,BaseGameEntity *> >,0> >::_Get_scary
	push	eax
	mov	edx, DWORD PTR __Result$[ebp]
	push	edx
	lea	ecx, DWORD PTR $T2[ebp]
	call	??0?$_Tree_iterator@V?$_Tree_val@U?$_Tree_simple_types@U?$pair@$$CBHPAVBaseGameEntity@@@std@@@std@@@std@@@std@@QAE@PAU?$_Tree_node@U?$pair@$$CBHPAVBaseGameEntity@@@std@@PAX@1@PBV?$_Tree_val@U?$_Tree_simple_types@U?$pair@$$CBHPAVBaseGameEntity@@@std@@@std@@@1@@Z
	mov	DWORD PTR tv83[ebp], eax
	lea	eax, DWORD PTR __Result$[ebp+4]
	push	eax
	mov	ecx, DWORD PTR tv83[ebp]
	push	ecx
	mov	ecx, DWORD PTR ___$ReturnUdt$[ebp]
	call	??$?0V?$_Tree_iterator@V?$_Tree_val@U?$_Tree_simple_types@U?$pair@$$CBHPAVBaseGameEntity@@@std@@@std@@@std@@@std@@AB_N$0A@@?$pair@V?$_Tree_iterator@V?$_Tree_val@U?$_Tree_simple_types@U?$pair@$$CBHPAVBaseGameEntity@@@std@@@std@@@std@@@std@@_N@std@@QAE@$$QAV?$_Tree_iterator@V?$_Tree_val@U?$_Tree_simple_types@U?$pair@$$CBHPAVBaseGameEntity@@@std@@@std@@@std@@@1@AB_N@Z ; std::pair<std::_Tree_iterator<std::_Tree_val<std::_Tree_simple_types<std::pair<int const ,BaseGameEntity *> > > >,bool>::pair<std::_Tree_iterator<std::_Tree_val<std::_Tree_simple_types<std::pair<int const ,BaseGameEntity *> > > >,bool><std::_Tree_iterator<std::_Tree_val<std::_Tree_simple_types<std::pair<int const ,BaseGameEntity *> > > >,bool const &,0>
	mov	edx, DWORD PTR $T1[ebp]
	or	edx, 1
	mov	DWORD PTR $T1[ebp], edx
	lea	ecx, DWORD PTR $T2[ebp]
	call	??1?$_Tree_iterator@V?$_Tree_val@U?$_Tree_simple_types@U?$pair@$$CBHPAVBaseGameEntity@@@std@@@std@@@std@@@std@@QAE@XZ
	npad	1
	mov	eax, DWORD PTR ___$ReturnUdt$[ebp]

; 1050 :     }

	push	edx
	mov	ecx, ebp
	push	eax
	lea	edx, DWORD PTR $LN8@emplace
	call	@_RTC_CheckStackVars@8
	pop	eax
	pop	edx
	pop	edi
	add	esp, 40					; 00000028H
	cmp	ebp, esp
	call	__RTC_CheckEsp
	mov	esp, ebp
	pop	ebp
	ret	8
	npad	1
$LN8@emplace:
	DD	1
	DD	$LN7@emplace
$LN7@emplace:
	DD	-16					; fffffff0H
	DD	8
	DD	$LN6@emplace
$LN6@emplace:
	DB	95					; 0000005fH
	DB	82					; 00000052H
	DB	101					; 00000065H
	DB	115					; 00000073H
	DB	117					; 00000075H
	DB	108					; 0000006cH
	DB	116					; 00000074H
	DB	0
??$emplace@U?$pair@HPAVBaseGameEntity@@@std@@@?$_Tree@V?$_Tmap_traits@HPAVBaseGameEntity@@U?$less@H@std@@V?$allocator@U?$pair@$$CBHPAVBaseGameEntity@@@std@@@3@$0A@@std@@@std@@QAE?AU?$pair@V?$_Tree_iterator@V?$_Tree_val@U?$_Tree_simple_types@U?$pair@$$CBHPAVBaseGameEntity@@@std@@@std@@@std@@@std@@_N@1@$$QAU?$pair@HPAVBaseGameEntity@@@1@@Z ENDP ; std::_Tree<std::_Tmap_traits<int,BaseGameEntity *,std::less<int>,std::allocator<std::pair<int const ,BaseGameEntity *> >,0> >::emplace<std::pair<int,BaseGameEntity *> >
_TEXT	ENDS
; Function compile flags: /Odtp /RTCsu
; File C:\Program Files\Microsoft Visual Studio\2022\Community\VC\Tools\MSVC\14.44.35207\include\type_traits
;	COMDAT ??$forward@U?$pair@HPAVBaseGameEntity@@@std@@@std@@YA$$QAU?$pair@HPAVBaseGameEntity@@@0@AAU10@@Z
_TEXT	SEGMENT
__Arg$ = 8						; size = 4
??$forward@U?$pair@HPAVBaseGameEntity@@@std@@@std@@YA$$QAU?$pair@HPAVBaseGameEntity@@@0@AAU10@@Z PROC ; std::forward<std::pair<int,BaseGameEntity *> >, COMDAT

; 1501 : _NODISCARD _MSVC_INTRINSIC constexpr _Ty&& forward(remove_reference_t<_Ty>& _Arg) noexcept {

	push	ebp
	mov	ebp, esp

; 1502 :     return static_cast<_Ty&&>(_Arg);

	mov	eax, DWORD PTR __Arg$[ebp]

; 1503 : }

	pop	ebp
	ret	0
??$forward@U?$pair@HPAVBaseGameEntity@@@std@@@std@@YA$$QAU?$pair@HPAVBaseGameEntity@@@0@AAU10@@Z ENDP ; std::forward<std::pair<int,BaseGameEntity *> >
_TEXT	ENDS
; Function compile flags: /Odtp /RTCsu
; File C:\Program Files\Microsoft Visual Studio\2022\Community\VC\Tools\MSVC\14.44.35207\include\utility
;	COMDAT ??$?0HAAPAVBaseGameEntity@@$0A@@?$pair@HPAVBaseGameEntity@@@std@@QAE@$$QAHAAPAVBaseGameEntity@@@Z
_TEXT	SEGMENT
_this$ = -4						; size = 4
__Val1$ = 8						; size = 4
__Val2$ = 12						; size = 4
??$?0HAAPAVBaseGameEntity@@$0A@@?$pair@HPAVBaseGameEntity@@@std@@QAE@$$QAHAAPAVBaseGameEntity@@@Z PROC ; std::pair<int,BaseGameEntity *>::pair<int,BaseGameEntity *><int,BaseGameEntity * &,0>, COMDAT
; _this$ = ecx

; 274  :         : first(_STD forward<_Other1>(_Val1)), second(_STD forward<_Other2>(_Val2)) {

	push	ebp
	mov	ebp, esp
	push	ecx
	mov	DWORD PTR [ebp-4], -858993460		; ccccccccH
	mov	DWORD PTR _this$[ebp], ecx
	mov	eax, DWORD PTR __Val1$[ebp]
	push	eax
	call	??$forward@H@std@@YA$$QAHAAH@Z		; std::forward<int>
	add	esp, 4
	mov	ecx, DWORD PTR _this$[ebp]
	mov	edx, DWORD PTR [eax]
	mov	DWORD PTR [ecx], edx
	mov	eax, DWORD PTR __Val2$[ebp]
	push	eax
	call	??$forward@AAPAVBaseGameEntity@@@std@@YAAAPAVBaseGameEntity@@AAPAV1@@Z ; std::forward<BaseGameEntity * &>
	add	esp, 4
	mov	ecx, DWORD PTR _this$[ebp]
	mov	edx, DWORD PTR [eax]
	mov	DWORD PTR [ecx+4], edx

; 275  :     }

	mov	eax, DWORD PTR _this$[ebp]
	add	esp, 4
	cmp	ebp, esp
	call	__RTC_CheckEsp
	mov	esp, ebp
	pop	ebp
	ret	8
??$?0HAAPAVBaseGameEntity@@$0A@@?$pair@HPAVBaseGameEntity@@@std@@QAE@$$QAHAAPAVBaseGameEntity@@@Z ENDP ; std::pair<int,BaseGameEntity *>::pair<int,BaseGameEntity *><int,BaseGameEntity * &,0>
_TEXT	ENDS
; Function compile flags: /Odtp /RTCsu
; File C:\Program Files\Microsoft Visual Studio\2022\Community\VC\Tools\MSVC\14.44.35207\include\type_traits
;	COMDAT ??$forward@AAPAVBaseGameEntity@@@std@@YAAAPAVBaseGameEntity@@AAPAV1@@Z
_TEXT	SEGMENT
__Arg$ = 8						; size = 4
??$forward@AAPAVBaseGameEntity@@@std@@YAAAPAVBaseGameEntity@@AAPAV1@@Z PROC ; std::forward<BaseGameEntity * &>, COMDAT

; 1501 : _NODISCARD _MSVC_INTRINSIC constexpr _Ty&& forward(remove_reference_t<_Ty>& _Arg) noexcept {

	push	ebp
	mov	ebp, esp

; 1502 :     return static_cast<_Ty&&>(_Arg);

	mov	eax, DWORD PTR __Arg$[ebp]

; 1503 : }

	pop	ebp
	ret	0
??$forward@AAPAVBaseGameEntity@@@std@@YAAAPAVBaseGameEntity@@AAPAV1@@Z ENDP ; std::forward<BaseGameEntity * &>
_TEXT	ENDS
; Function compile flags: /Odtp /RTCsu
; File C:\Program Files\Microsoft Visual Studio\2022\Community\VC\Tools\MSVC\14.44.35207\include\type_traits
;	COMDAT ??$forward@H@std@@YA$$QAHAAH@Z
_TEXT	SEGMENT
__Arg$ = 8						; size = 4
??$forward@H@std@@YA$$QAHAAH@Z PROC			; std::forward<int>, COMDAT

; 1501 : _NODISCARD _MSVC_INTRINSIC constexpr _Ty&& forward(remove_reference_t<_Ty>& _Arg) noexcept {

	push	ebp
	mov	ebp, esp

; 1502 :     return static_cast<_Ty&&>(_Arg);

	mov	eax, DWORD PTR __Arg$[ebp]

; 1503 : }

	pop	ebp
	ret	0
??$forward@H@std@@YA$$QAHAAH@Z ENDP			; std::forward<int>
_TEXT	ENDS
; Function compile flags: /Odtp /RTCsu
;	COMDAT ??0?$_Tree_unchecked_iterator@V?$_Tree_val@U?$_Tree_simple_types@U?$pair@$$CBHPAVBaseGameEntity@@@std@@@std@@@std@@@std@@QAE@PAU?$_Tree_node@U?$pair@$$CBHPAVBaseGameEntity@@@std@@PAX@1@PBV?$_Tree_val@U?$_Tree_simple_types@U?$pair@$$CBHPAVBaseGameEntity@@@std@@@std@@@1@@Z
_TEXT	SEGMENT
_this$ = -4						; size = 4
___param0$ = 8						; size = 4
___param1$ = 12						; size = 4
??0?$_Tree_unchecked_iterator@V?$_Tree_val@U?$_Tree_simple_types@U?$pair@$$CBHPAVBaseGameEntity@@@std@@@std@@@std@@@std@@QAE@PAU?$_Tree_node@U?$pair@$$CBHPAVBaseGameEntity@@@std@@PAX@1@PBV?$_Tree_val@U?$_Tree_simple_types@U?$pair@$$CBHPAVBaseGameEntity@@@std@@@std@@@1@@Z PROC ; std::_Tree_unchecked_iterator<std::_Tree_val<std::_Tree_simple_types<std::pair<int const ,BaseGameEntity *> > > >::_Tree_unchecked_iterator<std::_Tree_val<std::_Tree_simple_types<std::pair<int const ,BaseGameEntity *> > > >, COMDAT
; _this$ = ecx
	push	ebp
	mov	ebp, esp
	push	ecx
	mov	DWORD PTR [ebp-4], -858993460		; ccccccccH
	mov	DWORD PTR _this$[ebp], ecx
	mov	eax, DWORD PTR ___param1$[ebp]
	push	eax
	mov	ecx, DWORD PTR ___param0$[ebp]
	push	ecx
	mov	ecx, DWORD PTR _this$[ebp]
	call	??0?$_Tree_unchecked_const_iterator@V?$_Tree_val@U?$_Tree_simple_types@U?$pair@$$CBHPAVBaseGameEntity@@@std@@@std@@@std@@U_Iterator_base0@2@@std@@QAE@PAU?$_Tree_node@U?$pair@$$CBHPAVBaseGameEntity@@@std@@PAX@1@PBV?$_Tree_val@U?$_Tree_simple_types@U?$pair@$$CBHPAVBaseGameEntity@@@std@@@std@@@1@@Z ; std::_Tree_unchecked_const_iterator<std::_Tree_val<std::_Tree_simple_types<std::pair<int const ,BaseGameEntity *> > >,std::_Iterator_base0>::_Tree_unchecked_const_iterator<std::_Tree_val<std::_Tree_simple_types<std::pair<int const ,BaseGameEntity *> > >,std::_Iterator_base0>
	npad	1
	mov	eax, DWORD PTR _this$[ebp]
	add	esp, 4
	cmp	ebp, esp
	call	__RTC_CheckEsp
	mov	esp, ebp
	pop	ebp
	ret	8
??0?$_Tree_unchecked_iterator@V?$_Tree_val@U?$_Tree_simple_types@U?$pair@$$CBHPAVBaseGameEntity@@@std@@@std@@@std@@@std@@QAE@PAU?$_Tree_node@U?$pair@$$CBHPAVBaseGameEntity@@@std@@PAX@1@PBV?$_Tree_val@U?$_Tree_simple_types@U?$pair@$$CBHPAVBaseGameEntity@@@std@@@std@@@1@@Z ENDP ; std::_Tree_unchecked_iterator<std::_Tree_val<std::_Tree_simple_types<std::pair<int const ,BaseGameEntity *> > > >::_Tree_unchecked_iterator<std::_Tree_val<std::_Tree_simple_types<std::pair<int const ,BaseGameEntity *> > > >
_TEXT	ENDS
; Function compile flags: /Odtp /RTCsu
; File C:\Program Files\Microsoft Visual Studio\2022\Community\VC\Tools\MSVC\14.44.35207\include\xtree
;	COMDAT ??E?$_Tree_unchecked_const_iterator@V?$_Tree_val@U?$_Tree_simple_types@U?$pair@$$CBHPAVBaseGameEntity@@@std@@@std@@@std@@U_Iterator_base0@2@@std@@QAEAAV01@XZ
_TEXT	SEGMENT
__Pnode$1 = -8						; size = 4
_this$ = -4						; size = 4
??E?$_Tree_unchecked_const_iterator@V?$_Tree_val@U?$_Tree_simple_types@U?$pair@$$CBHPAVBaseGameEntity@@@std@@@std@@@std@@U_Iterator_base0@2@@std@@QAEAAV01@XZ PROC ; std::_Tree_unchecked_const_iterator<std::_Tree_val<std::_Tree_simple_types<std::pair<int const ,BaseGameEntity *> > >,std::_Iterator_base0>::operator++, COMDAT
; _this$ = ecx

; 49   :     _Tree_unchecked_const_iterator& operator++() noexcept {

	push	ebp
	mov	ebp, esp
	sub	esp, 8
	mov	DWORD PTR [ebp-8], -858993460		; ccccccccH
	mov	DWORD PTR [ebp-4], -858993460		; ccccccccH
	mov	DWORD PTR _this$[ebp], ecx

; 50   :         if (_Ptr->_Right->_Isnil) { // climb looking for right subtree

	mov	eax, DWORD PTR _this$[ebp]
	mov	ecx, DWORD PTR [eax]
	mov	edx, DWORD PTR [ecx+8]
	movsx	eax, BYTE PTR [edx+13]
	test	eax, eax
	je	SHORT $LN4@operator
$LN2@operator:

; 51   :             _Nodeptr _Pnode;
; 52   :             while (!(_Pnode = _Ptr->_Parent)->_Isnil && _Ptr == _Pnode->_Right) {

	mov	ecx, DWORD PTR _this$[ebp]
	mov	edx, DWORD PTR [ecx]
	mov	eax, DWORD PTR [edx+4]
	mov	DWORD PTR __Pnode$1[ebp], eax
	mov	ecx, DWORD PTR __Pnode$1[ebp]
	movsx	edx, BYTE PTR [ecx+13]
	test	edx, edx
	jne	SHORT $LN3@operator
	mov	eax, DWORD PTR _this$[ebp]
	mov	ecx, DWORD PTR __Pnode$1[ebp]
	mov	edx, DWORD PTR [eax]
	cmp	edx, DWORD PTR [ecx+8]
	jne	SHORT $LN3@operator

; 53   :                 _Ptr = _Pnode; // ==> parent while right subtree

	mov	eax, DWORD PTR _this$[ebp]
	mov	ecx, DWORD PTR __Pnode$1[ebp]
	mov	DWORD PTR [eax], ecx

; 54   :             }

	jmp	SHORT $LN2@operator
$LN3@operator:

; 55   : 
; 56   :             _Ptr = _Pnode; // ==> parent (head if end())

	mov	edx, DWORD PTR _this$[ebp]
	mov	eax, DWORD PTR __Pnode$1[ebp]
	mov	DWORD PTR [edx], eax

; 57   :         } else {

	jmp	SHORT $LN5@operator
$LN4@operator:

; 58   :             _Ptr = _Mytree::_Min(_Ptr->_Right); // ==> smallest of right subtree

	mov	ecx, DWORD PTR _this$[ebp]
	mov	edx, DWORD PTR [ecx]
	mov	eax, DWORD PTR [edx+8]
	push	eax
	call	?_Min@?$_Tree_val@U?$_Tree_simple_types@U?$pair@$$CBHPAVBaseGameEntity@@@std@@@std@@@std@@SAPAU?$_Tree_node@U?$pair@$$CBHPAVBaseGameEntity@@@std@@PAX@2@PAU32@@Z ; std::_Tree_val<std::_Tree_simple_types<std::pair<int const ,BaseGameEntity *> > >::_Min
	add	esp, 4
	mov	ecx, DWORD PTR _this$[ebp]
	mov	DWORD PTR [ecx], eax
$LN5@operator:

; 59   :         }
; 60   : 
; 61   :         return *this;

	mov	eax, DWORD PTR _this$[ebp]

; 62   :     }

	add	esp, 8
	cmp	ebp, esp
	call	__RTC_CheckEsp
	mov	esp, ebp
	pop	ebp
	ret	0
??E?$_Tree_unchecked_const_iterator@V?$_Tree_val@U?$_Tree_simple_types@U?$pair@$$CBHPAVBaseGameEntity@@@std@@@std@@@std@@U_Iterator_base0@2@@std@@QAEAAV01@XZ ENDP ; std::_Tree_unchecked_const_iterator<std::_Tree_val<std::_Tree_simple_types<std::pair<int const ,BaseGameEntity *> > >,std::_Iterator_base0>::operator++
_TEXT	ENDS
; Function compile flags: /Odtp /RTCsu
; File C:\Program Files\Microsoft Visual Studio\2022\Community\VC\Tools\MSVC\14.44.35207\include\xtree
;	COMDAT ??0?$_Tree_unchecked_const_iterator@V?$_Tree_val@U?$_Tree_simple_types@U?$pair@$$CBHPAVBaseGameEntity@@@std@@@std@@@std@@U_Iterator_base0@2@@std@@QAE@PAU?$_Tree_node@U?$pair@$$CBHPAVBaseGameEntity@@@std@@PAX@1@PBV?$_Tree_val@U?$_Tree_simple_types@U?$pair@$$CBHPAVBaseGameEntity@@@std@@@std@@@1@@Z
_TEXT	SEGMENT
_this$ = -4						; size = 4
__Pnode$ = 8						; size = 4
__Plist$ = 12						; size = 4
??0?$_Tree_unchecked_const_iterator@V?$_Tree_val@U?$_Tree_simple_types@U?$pair@$$CBHPAVBaseGameEntity@@@std@@@std@@@std@@U_Iterator_base0@2@@std@@QAE@PAU?$_Tree_node@U?$pair@$$CBHPAVBaseGameEntity@@@std@@PAX@1@PBV?$_Tree_val@U?$_Tree_simple_types@U?$pair@$$CBHPAVBaseGameEntity@@@std@@@std@@@1@@Z PROC ; std::_Tree_unchecked_const_iterator<std::_Tree_val<std::_Tree_simple_types<std::pair<int const ,BaseGameEntity *> > >,std::_Iterator_base0>::_Tree_unchecked_const_iterator<std::_Tree_val<std::_Tree_simple_types<std::pair<int const ,BaseGameEntity *> > >,std::_Iterator_base0>, COMDAT
; _this$ = ecx

; 37   :     _Tree_unchecked_const_iterator(_Nodeptr _Pnode, const _Mytree* _Plist) noexcept : _Ptr(_Pnode) {

	push	ebp
	mov	ebp, esp
	push	ecx
	mov	DWORD PTR [ebp-4], -858993460		; ccccccccH
	mov	DWORD PTR _this$[ebp], ecx
	mov	eax, DWORD PTR _this$[ebp]
	mov	ecx, DWORD PTR __Pnode$[ebp]
	mov	DWORD PTR [eax], ecx

; 38   :         this->_Adopt(_Plist);

	mov	edx, DWORD PTR __Plist$[ebp]
	push	edx
	mov	ecx, DWORD PTR _this$[ebp]
	call	?_Adopt@_Iterator_base0@std@@QAEXPBX@Z	; std::_Iterator_base0::_Adopt
	npad	1

; 39   :     }

	mov	eax, DWORD PTR _this$[ebp]
	add	esp, 4
	cmp	ebp, esp
	call	__RTC_CheckEsp
	mov	esp, ebp
	pop	ebp
	ret	8
??0?$_Tree_unchecked_const_iterator@V?$_Tree_val@U?$_Tree_simple_types@U?$pair@$$CBHPAVBaseGameEntity@@@std@@@std@@@std@@U_Iterator_base0@2@@std@@QAE@PAU?$_Tree_node@U?$pair@$$CBHPAVBaseGameEntity@@@std@@PAX@1@PBV?$_Tree_val@U?$_Tree_simple_types@U?$pair@$$CBHPAVBaseGameEntity@@@std@@@std@@@1@@Z ENDP ; std::_Tree_unchecked_const_iterator<std::_Tree_val<std::_Tree_simple_types<std::pair<int const ,BaseGameEntity *> > >,std::_Iterator_base0>::_Tree_unchecked_const_iterator<std::_Tree_val<std::_Tree_simple_types<std::pair<int const ,BaseGameEntity *> > >,std::_Iterator_base0>
_TEXT	ENDS
; Function compile flags: /Odtp /RTCsu
; File C:\Program Files\Microsoft Visual Studio\2022\Community\VC\Tools\MSVC\14.44.35207\include\utility
;	COMDAT ??$min@I@std@@YAABIABI0@Z
_TEXT	SEGMENT
tv65 = -8						; size = 4
$T1 = -4						; size = 4
__Left$ = 8						; size = 4
__Right$ = 12						; size = 4
??$min@I@std@@YAABIABI0@Z PROC				; std::min<unsigned int>, COMDAT

; 99   :         noexcept(noexcept(_Right < _Left)) /* strengthened */ {

	push	ebp
	mov	ebp, esp
	sub	esp, 8

; 100  :     // return smaller of _Left and _Right
; 101  :     return _Right < _Left ? _Right : _Left;

	mov	eax, DWORD PTR __Right$[ebp]
	mov	ecx, DWORD PTR __Left$[ebp]
	mov	edx, DWORD PTR [eax]
	cmp	edx, DWORD PTR [ecx]
	jae	SHORT $LN3@min
	mov	eax, DWORD PTR __Right$[ebp]
	mov	DWORD PTR tv65[ebp], eax
	jmp	SHORT $LN4@min
$LN3@min:
	mov	ecx, DWORD PTR __Left$[ebp]
	mov	DWORD PTR tv65[ebp], ecx
$LN4@min:
	mov	edx, DWORD PTR tv65[ebp]
	mov	DWORD PTR $T1[ebp], edx
	mov	eax, DWORD PTR $T1[ebp]

; 102  : }

	mov	esp, ebp
	pop	ebp
	ret	0
??$min@I@std@@YAABIABI0@Z ENDP				; std::min<unsigned int>
_TEXT	ENDS
; Function compile flags: /Odtp /RTCsu
;	COMDAT ??1?$pair@V?$_Tree_iterator@V?$_Tree_val@U?$_Tree_simple_types@U?$pair@$$CBHPAVBaseGameEntity@@@std@@@std@@@std@@@std@@_N@std@@QAE@XZ
_TEXT	SEGMENT
_this$ = -4						; size = 4
??1?$pair@V?$_Tree_iterator@V?$_Tree_val@U?$_Tree_simple_types@U?$pair@$$CBHPAVBaseGameEntity@@@std@@@std@@@std@@@std@@_N@std@@QAE@XZ PROC ; std::pair<std::_Tree_iterator<std::_Tree_val<std::_Tree_simple_types<std::pair<int const ,BaseGameEntity *> > > >,bool>::~pair<std::_Tree_iterator<std::_Tree_val<std::_Tree_simple_types<std::pair<int const ,BaseGameEntity *> > > >,bool>, COMDAT
; _this$ = ecx
	push	ebp
	mov	ebp, esp
	push	ecx
	mov	DWORD PTR [ebp-4], -858993460		; ccccccccH
	mov	DWORD PTR _this$[ebp], ecx
	mov	ecx, DWORD PTR _this$[ebp]
	call	??1?$_Tree_iterator@V?$_Tree_val@U?$_Tree_simple_types@U?$pair@$$CBHPAVBaseGameEntity@@@std@@@std@@@std@@@std@@QAE@XZ
	npad	1
	add	esp, 4
	cmp	ebp, esp
	call	__RTC_CheckEsp
	mov	esp, ebp
	pop	ebp
	ret	0
??1?$pair@V?$_Tree_iterator@V?$_Tree_val@U?$_Tree_simple_types@U?$pair@$$CBHPAVBaseGameEntity@@@std@@@std@@@std@@@std@@_N@std@@QAE@XZ ENDP ; std::pair<std::_Tree_iterator<std::_Tree_val<std::_Tree_simple_types<std::pair<int const ,BaseGameEntity *> > > >,bool>::~pair<std::_Tree_iterator<std::_Tree_val<std::_Tree_simple_types<std::pair<int const ,BaseGameEntity *> > > >,bool>
_TEXT	ENDS
; Function compile flags: /Odtp /RTCsu
; File C:\Program Files\Microsoft Visual Studio\2022\Community\VC\Tools\MSVC\14.44.35207\include\map
;	COMDAT ??$insert@U?$pair@HPAVBaseGameEntity@@@std@@$0A@@?$map@HPAVBaseGameEntity@@U?$less@H@std@@V?$allocator@U?$pair@$$CBHPAVBaseGameEntity@@@std@@@3@@std@@QAE?AU?$pair@V?$_Tree_iterator@V?$_Tree_val@U?$_Tree_simple_types@U?$pair@$$CBHPAVBaseGameEntity@@@std@@@std@@@std@@@std@@_N@1@$$QAU?$pair@HPAVBaseGameEntity@@@1@@Z
_TEXT	SEGMENT
$T1 = -8						; size = 4
_this$ = -4						; size = 4
___$ReturnUdt$ = 8					; size = 4
__Val$ = 12						; size = 4
??$insert@U?$pair@HPAVBaseGameEntity@@@std@@$0A@@?$map@HPAVBaseGameEntity@@U?$less@H@std@@V?$allocator@U?$pair@$$CBHPAVBaseGameEntity@@@std@@@3@@std@@QAE?AU?$pair@V?$_Tree_iterator@V?$_Tree_val@U?$_Tree_simple_types@U?$pair@$$CBHPAVBaseGameEntity@@@std@@@std@@@std@@@std@@_N@1@$$QAU?$pair@HPAVBaseGameEntity@@@1@@Z PROC ; std::map<int,BaseGameEntity *,std::less<int>,std::allocator<std::pair<int const ,BaseGameEntity *> > >::insert<std::pair<int,BaseGameEntity *>,0>, COMDAT
; _this$ = ecx

; 185  :     pair<iterator, bool> insert(_Valty&& _Val) {

	push	ebp
	mov	ebp, esp
	sub	esp, 8
	mov	DWORD PTR [ebp-8], -858993460		; ccccccccH
	mov	DWORD PTR [ebp-4], -858993460		; ccccccccH
	mov	DWORD PTR _this$[ebp], ecx
	mov	DWORD PTR $T1[ebp], 0

; 186  :         return this->emplace(_STD forward<_Valty>(_Val));

	mov	eax, DWORD PTR __Val$[ebp]
	push	eax
	call	??$forward@U?$pair@HPAVBaseGameEntity@@@std@@@std@@YA$$QAU?$pair@HPAVBaseGameEntity@@@0@AAU10@@Z ; std::forward<std::pair<int,BaseGameEntity *> >
	add	esp, 4
	push	eax
	mov	ecx, DWORD PTR ___$ReturnUdt$[ebp]
	push	ecx
	mov	ecx, DWORD PTR _this$[ebp]
	call	??$emplace@U?$pair@HPAVBaseGameEntity@@@std@@@?$_Tree@V?$_Tmap_traits@HPAVBaseGameEntity@@U?$less@H@std@@V?$allocator@U?$pair@$$CBHPAVBaseGameEntity@@@std@@@3@$0A@@std@@@std@@QAE?AU?$pair@V?$_Tree_iterator@V?$_Tree_val@U?$_Tree_simple_types@U?$pair@$$CBHPAVBaseGameEntity@@@std@@@std@@@std@@@std@@_N@1@$$QAU?$pair@HPAVBaseGameEntity@@@1@@Z ; std::_Tree<std::_Tmap_traits<int,BaseGameEntity *,std::less<int>,std::allocator<std::pair<int const ,BaseGameEntity *> >,0> >::emplace<std::pair<int,BaseGameEntity *> >
	mov	edx, DWORD PTR $T1[ebp]
	or	edx, 1
	mov	DWORD PTR $T1[ebp], edx
	mov	eax, DWORD PTR ___$ReturnUdt$[ebp]

; 187  :     }

	add	esp, 8
	cmp	ebp, esp
	call	__RTC_CheckEsp
	mov	esp, ebp
	pop	ebp
	ret	8
??$insert@U?$pair@HPAVBaseGameEntity@@@std@@$0A@@?$map@HPAVBaseGameEntity@@U?$less@H@std@@V?$allocator@U?$pair@$$CBHPAVBaseGameEntity@@@std@@@3@@std@@QAE?AU?$pair@V?$_Tree_iterator@V?$_Tree_val@U?$_Tree_simple_types@U?$pair@$$CBHPAVBaseGameEntity@@@std@@@std@@@std@@@std@@_N@1@$$QAU?$pair@HPAVBaseGameEntity@@@1@@Z ENDP ; std::map<int,BaseGameEntity *,std::less<int>,std::allocator<std::pair<int const ,BaseGameEntity *> > >::insert<std::pair<int,BaseGameEntity *>,0>
_TEXT	ENDS
; Function compile flags: /Odtp /RTCsu
; File C:\Program Files\Microsoft Visual Studio\2022\Community\VC\Tools\MSVC\14.44.35207\include\utility
;	COMDAT ??$?0HPAVBaseGameEntity@@$0A@@?$pair@$$CBHPAVBaseGameEntity@@@std@@QAE@$$QAU?$pair@HPAVBaseGameEntity@@@1@@Z
_TEXT	SEGMENT
_this$ = -4						; size = 4
__Right$ = 8						; size = 4
??$?0HPAVBaseGameEntity@@$0A@@?$pair@$$CBHPAVBaseGameEntity@@@std@@QAE@$$QAU?$pair@HPAVBaseGameEntity@@@1@@Z PROC ; std::pair<int const ,BaseGameEntity *>::pair<int const ,BaseGameEntity *><int,BaseGameEntity *,0>, COMDAT
; _this$ = ecx

; 303  :         : first(_STD forward<_Other1>(_Right.first)), second(_STD forward<_Other2>(_Right.second)) {}

	push	ebp
	mov	ebp, esp
	push	ecx
	mov	DWORD PTR [ebp-4], -858993460		; ccccccccH
	mov	DWORD PTR _this$[ebp], ecx
	mov	eax, DWORD PTR __Right$[ebp]
	push	eax
	call	??$forward@H@std@@YA$$QAHAAH@Z		; std::forward<int>
	add	esp, 4
	mov	ecx, DWORD PTR _this$[ebp]
	mov	edx, DWORD PTR [eax]
	mov	DWORD PTR [ecx], edx
	mov	eax, DWORD PTR __Right$[ebp]
	add	eax, 4
	push	eax
	call	??$forward@PAVBaseGameEntity@@@std@@YA$$QAPAVBaseGameEntity@@AAPAV1@@Z ; std::forward<BaseGameEntity *>
	add	esp, 4
	mov	ecx, DWORD PTR _this$[ebp]
	mov	edx, DWORD PTR [eax]
	mov	DWORD PTR [ecx+4], edx
	mov	eax, DWORD PTR _this$[ebp]
	add	esp, 4
	cmp	ebp, esp
	call	__RTC_CheckEsp
	mov	esp, ebp
	pop	ebp
	ret	4
??$?0HPAVBaseGameEntity@@$0A@@?$pair@$$CBHPAVBaseGameEntity@@@std@@QAE@$$QAU?$pair@HPAVBaseGameEntity@@@1@@Z ENDP ; std::pair<int const ,BaseGameEntity *>::pair<int const ,BaseGameEntity *><int,BaseGameEntity *,0>
_TEXT	ENDS
; Function compile flags: /Odtp /RTCsu
; File C:\Program Files\Microsoft Visual Studio\2022\Community\VC\Tools\MSVC\14.44.35207\include\utility
;	COMDAT ??$make_pair@HAAPAVBaseGameEntity@@@std@@YA?AU?$pair@HPAVBaseGameEntity@@@0@$$QAHAAPAVBaseGameEntity@@@Z
_TEXT	SEGMENT
___$ReturnUdt$ = 8					; size = 4
__Val1$ = 12						; size = 4
__Val2$ = 16						; size = 4
??$make_pair@HAAPAVBaseGameEntity@@@std@@YA?AU?$pair@HPAVBaseGameEntity@@@0@$$QAHAAPAVBaseGameEntity@@@Z PROC ; std::make_pair<int,BaseGameEntity * &>, COMDAT

; 578  :              && is_nothrow_constructible_v<_Unrefwrap_t<_Ty2>, _Ty2>) /* strengthened */ {

	push	ebp
	mov	ebp, esp

; 579  :     // return pair composed from arguments
; 580  :     using _Mypair = pair<_Unrefwrap_t<_Ty1>, _Unrefwrap_t<_Ty2>>;
; 581  :     return _Mypair(_STD forward<_Ty1>(_Val1), _STD forward<_Ty2>(_Val2));

	mov	eax, DWORD PTR __Val2$[ebp]
	push	eax
	call	??$forward@AAPAVBaseGameEntity@@@std@@YAAAPAVBaseGameEntity@@AAPAV1@@Z ; std::forward<BaseGameEntity * &>
	add	esp, 4
	push	eax
	mov	ecx, DWORD PTR __Val1$[ebp]
	push	ecx
	call	??$forward@H@std@@YA$$QAHAAH@Z		; std::forward<int>
	add	esp, 4
	push	eax
	mov	ecx, DWORD PTR ___$ReturnUdt$[ebp]
	call	??$?0HAAPAVBaseGameEntity@@$0A@@?$pair@HPAVBaseGameEntity@@@std@@QAE@$$QAHAAPAVBaseGameEntity@@@Z ; std::pair<int,BaseGameEntity *>::pair<int,BaseGameEntity *><int,BaseGameEntity * &,0>
	mov	eax, DWORD PTR ___$ReturnUdt$[ebp]

; 582  : }

	cmp	ebp, esp
	call	__RTC_CheckEsp
	pop	ebp
	ret	0
??$make_pair@HAAPAVBaseGameEntity@@@std@@YA?AU?$pair@HPAVBaseGameEntity@@@0@$$QAHAAPAVBaseGameEntity@@@Z ENDP ; std::make_pair<int,BaseGameEntity * &>
_TEXT	ENDS
; Function compile flags: /Odtp /RTCsu
; File C:\Program Files\Microsoft Visual Studio\2022\Community\VC\Tools\MSVC\14.44.35207\include\xtree
;	COMDAT ??$erase@V?$_Tree_iterator@V?$_Tree_val@U?$_Tree_simple_types@U?$pair@$$CBHPAVBaseGameEntity@@@std@@@std@@@std@@@std@@$0A@@?$_Tree@V?$_Tmap_traits@HPAVBaseGameEntity@@U?$less@H@std@@V?$allocator@U?$pair@$$CBHPAVBaseGameEntity@@@std@@@3@$0A@@std@@@std@@QAE?AV?$_Tree_iterator@V?$_Tree_val@U?$_Tree_simple_types@U?$pair@$$CBHPAVBaseGameEntity@@@std@@@std@@@std@@@1@V21@@Z
_TEXT	SEGMENT
$T1 = -16						; size = 4
$T2 = -12						; size = 4
__Scary$ = -8						; size = 4
_this$ = -4						; size = 4
___$ReturnUdt$ = 8					; size = 4
__Where$ = 12						; size = 12
??$erase@V?$_Tree_iterator@V?$_Tree_val@U?$_Tree_simple_types@U?$pair@$$CBHPAVBaseGameEntity@@@std@@@std@@@std@@@std@@$0A@@?$_Tree@V?$_Tmap_traits@HPAVBaseGameEntity@@U?$less@H@std@@V?$allocator@U?$pair@$$CBHPAVBaseGameEntity@@@std@@@3@$0A@@std@@@std@@QAE?AV?$_Tree_iterator@V?$_Tree_val@U?$_Tree_simple_types@U?$pair@$$CBHPAVBaseGameEntity@@@std@@@std@@@std@@@1@V21@@Z PROC ; std::_Tree<std::_Tmap_traits<int,BaseGameEntity *,std::less<int>,std::allocator<std::pair<int const ,BaseGameEntity *> >,0> >::erase<std::_Tree_iterator<std::_Tree_val<std::_Tree_simple_types<std::pair<int const ,BaseGameEntity *> > > >,0>, COMDAT
; _this$ = ecx

; 1335 :     iterator erase(iterator _Where) noexcept /* strengthened */ {

	push	ebp
	mov	ebp, esp
	sub	esp, 16					; 00000010H
	mov	eax, -858993460				; ccccccccH
	mov	DWORD PTR [ebp-16], eax
	mov	DWORD PTR [ebp-12], eax
	mov	DWORD PTR [ebp-8], eax
	mov	DWORD PTR [ebp-4], eax
	mov	DWORD PTR _this$[ebp], ecx

; 1336 :         const auto _Scary = _Get_scary();

	mov	ecx, DWORD PTR _this$[ebp]
	call	?_Get_scary@?$_Tree@V?$_Tmap_traits@HPAVBaseGameEntity@@U?$less@H@std@@V?$allocator@U?$pair@$$CBHPAVBaseGameEntity@@@std@@@3@$0A@@std@@@std@@IAEPAV?$_Tree_val@U?$_Tree_simple_types@U?$pair@$$CBHPAVBaseGameEntity@@@std@@@std@@@2@XZ ; std::_Tree<std::_Tmap_traits<int,BaseGameEntity *,std::less<int>,std::allocator<std::pair<int const ,BaseGameEntity *> >,0> >::_Get_scary
	mov	DWORD PTR __Scary$[ebp], eax

; 1337 : #if _ITERATOR_DEBUG_LEVEL == 2
; 1338 :         _STL_VERIFY(_Where._Getcont() == _Scary, "map/set erase iterator from incorrect container");

	lea	ecx, DWORD PTR __Where$[ebp]
	call	?_Getcont@_Iterator_base12@std@@QBEPBU_Container_base12@2@XZ ; std::_Iterator_base12::_Getcont
	cmp	eax, DWORD PTR __Scary$[ebp]
	je	SHORT $LN2@erase
	push	OFFSET ??_C@_0DA@GGPHOHEL@map?1set?5erase?5iterator?5from?5inc@
	push	OFFSET ??_C@_02DKCKIIND@?$CFs@
	push	0
	push	1338					; 0000053aH
	push	OFFSET ??_C@_0GA@IINHIBAD@C?3?2Program?5Files?2Microsoft?5Visu@
	push	2
	call	__CrtDbgReport
	add	esp, 24					; 00000018H
	cmp	eax, 1
	jne	SHORT $LN5@erase
	int	3
$LN5@erase:
	push	0
	push	0
	push	0
	push	0
	push	0
	call	__invoke_watson
	npad	1
$LN2@erase:

; 1339 :         _STL_VERIFY(!_Where._Ptr->_Isnil, "cannot erase map/set end() iterator");

	mov	ecx, DWORD PTR __Where$[ebp+8]
	movsx	edx, BYTE PTR [ecx+13]
	test	edx, edx
	je	SHORT $LN3@erase
	push	OFFSET ??_C@_0CE@JAJNKOFK@cannot?5erase?5map?1set?5end?$CI?$CJ?5iter@
	push	OFFSET ??_C@_02DKCKIIND@?$CFs@
	push	0
	push	1339					; 0000053bH
	push	OFFSET ??_C@_0GA@IINHIBAD@C?3?2Program?5Files?2Microsoft?5Visu@
	push	2
	call	__CrtDbgReport
	add	esp, 24					; 00000018H
	cmp	eax, 1
	jne	SHORT $LN6@erase
	int	3
$LN6@erase:
	push	0
	push	0
	push	0
	push	0
	push	0
	call	__invoke_watson
	npad	1
$LN3@erase:

; 1340 : #endif // _ITERATOR_DEBUG_LEVEL == 2
; 1341 :         return iterator(_Erase_unchecked(_Where._Unwrapped()), _Scary);

	lea	ecx, DWORD PTR $T1[ebp]
	push	ecx
	lea	ecx, DWORD PTR __Where$[ebp]
	call	?_Unwrapped@?$_Tree_iterator@V?$_Tree_val@U?$_Tree_simple_types@U?$pair@$$CBHPAVBaseGameEntity@@@std@@@std@@@std@@@std@@QBE?AV?$_Tree_unchecked_iterator@V?$_Tree_val@U?$_Tree_simple_types@U?$pair@$$CBHPAVBaseGameEntity@@@std@@@std@@@std@@@2@XZ ; std::_Tree_iterator<std::_Tree_val<std::_Tree_simple_types<std::pair<int const ,BaseGameEntity *> > > >::_Unwrapped
	mov	edx, DWORD PTR [eax]
	mov	DWORD PTR $T2[ebp], edx
	mov	eax, DWORD PTR __Scary$[ebp]
	push	eax
	mov	ecx, DWORD PTR $T2[ebp]
	push	ecx
	mov	ecx, DWORD PTR _this$[ebp]
	call	?_Erase_unchecked@?$_Tree@V?$_Tmap_traits@HPAVBaseGameEntity@@U?$less@H@std@@V?$allocator@U?$pair@$$CBHPAVBaseGameEntity@@@std@@@3@$0A@@std@@@std@@AAEPAU?$_Tree_node@U?$pair@$$CBHPAVBaseGameEntity@@@std@@PAX@2@V?$_Tree_unchecked_const_iterator@V?$_Tree_val@U?$_Tree_simple_types@U?$pair@$$CBHPAVBaseGameEntity@@@std@@@std@@@std@@U_Iterator_base0@2@@2@@Z ; std::_Tree<std::_Tmap_traits<int,BaseGameEntity *,std::less<int>,std::allocator<std::pair<int const ,BaseGameEntity *> >,0> >::_Erase_unchecked
	push	eax
	mov	ecx, DWORD PTR ___$ReturnUdt$[ebp]
	call	??0?$_Tree_iterator@V?$_Tree_val@U?$_Tree_simple_types@U?$pair@$$CBHPAVBaseGameEntity@@@std@@@std@@@std@@@std@@QAE@PAU?$_Tree_node@U?$pair@$$CBHPAVBaseGameEntity@@@std@@PAX@1@PBV?$_Tree_val@U?$_Tree_simple_types@U?$pair@$$CBHPAVBaseGameEntity@@@std@@@std@@@1@@Z
	lea	ecx, DWORD PTR __Where$[ebp]
	call	??1?$_Tree_iterator@V?$_Tree_val@U?$_Tree_simple_types@U?$pair@$$CBHPAVBaseGameEntity@@@std@@@std@@@std@@@std@@QAE@XZ
	npad	1
	mov	eax, DWORD PTR ___$ReturnUdt$[ebp]
$LN1@erase:

; 1342 :     }

	add	esp, 16					; 00000010H
	cmp	ebp, esp
	call	__RTC_CheckEsp
	mov	esp, ebp
	pop	ebp
	ret	16					; 00000010H
??$erase@V?$_Tree_iterator@V?$_Tree_val@U?$_Tree_simple_types@U?$pair@$$CBHPAVBaseGameEntity@@@std@@@std@@@std@@@std@@$0A@@?$_Tree@V?$_Tmap_traits@HPAVBaseGameEntity@@U?$less@H@std@@V?$allocator@U?$pair@$$CBHPAVBaseGameEntity@@@std@@@3@$0A@@std@@@std@@QAE?AV?$_Tree_iterator@V?$_Tree_val@U?$_Tree_simple_types@U?$pair@$$CBHPAVBaseGameEntity@@@std@@@std@@@std@@@1@V21@@Z ENDP ; std::_Tree<std::_Tmap_traits<int,BaseGameEntity *,std::less<int>,std::allocator<std::pair<int const ,BaseGameEntity *> >,0> >::erase<std::_Tree_iterator<std::_Tree_val<std::_Tree_simple_types<std::pair<int const ,BaseGameEntity *> > > >,0>
_TEXT	ENDS
; Function compile flags: /Odtp /RTCsu
;	COMDAT ??0?$_Tree_iterator@V?$_Tree_val@U?$_Tree_simple_types@U?$pair@$$CBHPAVBaseGameEntity@@@std@@@std@@@std@@@std@@QAE@PAU?$_Tree_node@U?$pair@$$CBHPAVBaseGameEntity@@@std@@PAX@1@PBV?$_Tree_val@U?$_Tree_simple_types@U?$pair@$$CBHPAVBaseGameEntity@@@std@@@std@@@1@@Z
_TEXT	SEGMENT
_this$ = -4						; size = 4
___param0$ = 8						; size = 4
___param1$ = 12						; size = 4
??0?$_Tree_iterator@V?$_Tree_val@U?$_Tree_simple_types@U?$pair@$$CBHPAVBaseGameEntity@@@std@@@std@@@std@@@std@@QAE@PAU?$_Tree_node@U?$pair@$$CBHPAVBaseGameEntity@@@std@@PAX@1@PBV?$_Tree_val@U?$_Tree_simple_types@U?$pair@$$CBHPAVBaseGameEntity@@@std@@@std@@@1@@Z PROC ; std::_Tree_iterator<std::_Tree_val<std::_Tree_simple_types<std::pair<int const ,BaseGameEntity *> > > >::_Tree_iterator<std::_Tree_val<std::_Tree_simple_types<std::pair<int const ,BaseGameEntity *> > > >, COMDAT
; _this$ = ecx
	push	ebp
	mov	ebp, esp
	push	ecx
	mov	DWORD PTR [ebp-4], -858993460		; ccccccccH
	mov	DWORD PTR _this$[ebp], ecx
	mov	eax, DWORD PTR ___param1$[ebp]
	push	eax
	mov	ecx, DWORD PTR ___param0$[ebp]
	push	ecx
	mov	ecx, DWORD PTR _this$[ebp]
	call	??0?$_Tree_const_iterator@V?$_Tree_val@U?$_Tree_simple_types@U?$pair@$$CBHPAVBaseGameEntity@@@std@@@std@@@std@@@std@@QAE@PAU?$_Tree_node@U?$pair@$$CBHPAVBaseGameEntity@@@std@@PAX@1@PBV?$_Tree_val@U?$_Tree_simple_types@U?$pair@$$CBHPAVBaseGameEntity@@@std@@@std@@@1@@Z
	npad	1
	mov	eax, DWORD PTR _this$[ebp]
	add	esp, 4
	cmp	ebp, esp
	call	__RTC_CheckEsp
	mov	esp, ebp
	pop	ebp
	ret	8
??0?$_Tree_iterator@V?$_Tree_val@U?$_Tree_simple_types@U?$pair@$$CBHPAVBaseGameEntity@@@std@@@std@@@std@@@std@@QAE@PAU?$_Tree_node@U?$pair@$$CBHPAVBaseGameEntity@@@std@@PAX@1@PBV?$_Tree_val@U?$_Tree_simple_types@U?$pair@$$CBHPAVBaseGameEntity@@@std@@@std@@@1@@Z ENDP ; std::_Tree_iterator<std::_Tree_val<std::_Tree_simple_types<std::pair<int const ,BaseGameEntity *> > > >::_Tree_iterator<std::_Tree_val<std::_Tree_simple_types<std::pair<int const ,BaseGameEntity *> > > >
_TEXT	ENDS
; Function compile flags: /Odtp /RTCsu
;	COMDAT ??0?$_Tree_iterator@V?$_Tree_val@U?$_Tree_simple_types@U?$pair@$$CBHPAVBaseGameEntity@@@std@@@std@@@std@@@std@@QAE@$$QAV01@@Z
_TEXT	SEGMENT
_this$ = -4						; size = 4
___that$ = 8						; size = 4
??0?$_Tree_iterator@V?$_Tree_val@U?$_Tree_simple_types@U?$pair@$$CBHPAVBaseGameEntity@@@std@@@std@@@std@@@std@@QAE@$$QAV01@@Z PROC ; std::_Tree_iterator<std::_Tree_val<std::_Tree_simple_types<std::pair<int const ,BaseGameEntity *> > > >::_Tree_iterator<std::_Tree_val<std::_Tree_simple_types<std::pair<int const ,BaseGameEntity *> > > >, COMDAT
; _this$ = ecx
	push	ebp
	mov	ebp, esp
	push	ecx
	mov	DWORD PTR [ebp-4], -858993460		; ccccccccH
	mov	DWORD PTR _this$[ebp], ecx
	mov	eax, DWORD PTR ___that$[ebp]
	push	eax
	mov	ecx, DWORD PTR _this$[ebp]
	call	??0?$_Tree_const_iterator@V?$_Tree_val@U?$_Tree_simple_types@U?$pair@$$CBHPAVBaseGameEntity@@@std@@@std@@@std@@@std@@QAE@$$QAV01@@Z
	npad	1
	mov	eax, DWORD PTR _this$[ebp]
	add	esp, 4
	cmp	ebp, esp
	call	__RTC_CheckEsp
	mov	esp, ebp
	pop	ebp
	ret	4
??0?$_Tree_iterator@V?$_Tree_val@U?$_Tree_simple_types@U?$pair@$$CBHPAVBaseGameEntity@@@std@@@std@@@std@@@std@@QAE@$$QAV01@@Z ENDP ; std::_Tree_iterator<std::_Tree_val<std::_Tree_simple_types<std::pair<int const ,BaseGameEntity *> > > >::_Tree_iterator<std::_Tree_val<std::_Tree_simple_types<std::pair<int const ,BaseGameEntity *> > > >
_TEXT	ENDS
; Function compile flags: /Odtp /RTCsu
;	COMDAT ??1?$_Tree_iterator@V?$_Tree_val@U?$_Tree_simple_types@U?$pair@$$CBHPAVBaseGameEntity@@@std@@@std@@@std@@@std@@QAE@XZ
_TEXT	SEGMENT
_this$ = -4						; size = 4
??1?$_Tree_iterator@V?$_Tree_val@U?$_Tree_simple_types@U?$pair@$$CBHPAVBaseGameEntity@@@std@@@std@@@std@@@std@@QAE@XZ PROC ; std::_Tree_iterator<std::_Tree_val<std::_Tree_simple_types<std::pair<int const ,BaseGameEntity *> > > >::~_Tree_iterator<std::_Tree_val<std::_Tree_simple_types<std::pair<int const ,BaseGameEntity *> > > >, COMDAT
; _this$ = ecx
	push	ebp
	mov	ebp, esp
	push	ecx
	mov	DWORD PTR [ebp-4], -858993460		; ccccccccH
	mov	DWORD PTR _this$[ebp], ecx
	mov	ecx, DWORD PTR _this$[ebp]
	call	??1?$_Tree_const_iterator@V?$_Tree_val@U?$_Tree_simple_types@U?$pair@$$CBHPAVBaseGameEntity@@@std@@@std@@@std@@@std@@QAE@XZ
	npad	1
	add	esp, 4
	cmp	ebp, esp
	call	__RTC_CheckEsp
	mov	esp, ebp
	pop	ebp
	ret	0
??1?$_Tree_iterator@V?$_Tree_val@U?$_Tree_simple_types@U?$pair@$$CBHPAVBaseGameEntity@@@std@@@std@@@std@@@std@@QAE@XZ ENDP ; std::_Tree_iterator<std::_Tree_val<std::_Tree_simple_types<std::pair<int const ,BaseGameEntity *> > > >::~_Tree_iterator<std::_Tree_val<std::_Tree_simple_types<std::pair<int const ,BaseGameEntity *> > > >
_TEXT	ENDS
; Function compile flags: /Odtp /RTCsu
; File C:\Program Files\Microsoft Visual Studio\2022\Community\VC\Tools\MSVC\14.44.35207\include\xtree
;	COMDAT ?_Unwrapped@?$_Tree_iterator@V?$_Tree_val@U?$_Tree_simple_types@U?$pair@$$CBHPAVBaseGameEntity@@@std@@@std@@@std@@@std@@QBE?AV?$_Tree_unchecked_iterator@V?$_Tree_val@U?$_Tree_simple_types@U?$pair@$$CBHPAVBaseGameEntity@@@std@@@std@@@std@@@2@XZ
_TEXT	SEGMENT
_this$ = -4						; size = 4
___$ReturnUdt$ = 8					; size = 4
?_Unwrapped@?$_Tree_iterator@V?$_Tree_val@U?$_Tree_simple_types@U?$pair@$$CBHPAVBaseGameEntity@@@std@@@std@@@std@@@std@@QBE?AV?$_Tree_unchecked_iterator@V?$_Tree_val@U?$_Tree_simple_types@U?$pair@$$CBHPAVBaseGameEntity@@@std@@@std@@@std@@@2@XZ PROC ; std::_Tree_iterator<std::_Tree_val<std::_Tree_simple_types<std::pair<int const ,BaseGameEntity *> > > >::_Unwrapped, COMDAT
; _this$ = ecx

; 305  :     _NODISCARD _Tree_unchecked_iterator<_Mytree> _Unwrapped() const noexcept {

	push	ebp
	mov	ebp, esp
	push	ecx
	mov	DWORD PTR [ebp-4], -858993460		; ccccccccH
	mov	DWORD PTR _this$[ebp], ecx

; 306  :         return _Tree_unchecked_iterator<_Mytree>(this->_Ptr, static_cast<const _Mytree*>(this->_Getcont()));

	mov	ecx, DWORD PTR _this$[ebp]
	call	?_Getcont@_Iterator_base12@std@@QBEPBU_Container_base12@2@XZ ; std::_Iterator_base12::_Getcont
	push	eax
	mov	eax, DWORD PTR _this$[ebp]
	mov	ecx, DWORD PTR [eax+8]
	push	ecx
	mov	ecx, DWORD PTR ___$ReturnUdt$[ebp]
	call	??0?$_Tree_unchecked_iterator@V?$_Tree_val@U?$_Tree_simple_types@U?$pair@$$CBHPAVBaseGameEntity@@@std@@@std@@@std@@@std@@QAE@PAU?$_Tree_node@U?$pair@$$CBHPAVBaseGameEntity@@@std@@PAX@1@PBV?$_Tree_val@U?$_Tree_simple_types@U?$pair@$$CBHPAVBaseGameEntity@@@std@@@std@@@1@@Z
	mov	eax, DWORD PTR ___$ReturnUdt$[ebp]

; 307  :     }

	add	esp, 4
	cmp	ebp, esp
	call	__RTC_CheckEsp
	mov	esp, ebp
	pop	ebp
	ret	4
?_Unwrapped@?$_Tree_iterator@V?$_Tree_val@U?$_Tree_simple_types@U?$pair@$$CBHPAVBaseGameEntity@@@std@@@std@@@std@@@std@@QBE?AV?$_Tree_unchecked_iterator@V?$_Tree_val@U?$_Tree_simple_types@U?$pair@$$CBHPAVBaseGameEntity@@@std@@@std@@@std@@@2@XZ ENDP ; std::_Tree_iterator<std::_Tree_val<std::_Tree_simple_types<std::pair<int const ,BaseGameEntity *> > > >::_Unwrapped
_TEXT	ENDS
; Function compile flags: /Odtp /RTCsu
;	COMDAT ??0?$_Tree_const_iterator@V?$_Tree_val@U?$_Tree_simple_types@U?$pair@$$CBHPAVBaseGameEntity@@@std@@@std@@@std@@@std@@QAE@PAU?$_Tree_node@U?$pair@$$CBHPAVBaseGameEntity@@@std@@PAX@1@PBV?$_Tree_val@U?$_Tree_simple_types@U?$pair@$$CBHPAVBaseGameEntity@@@std@@@std@@@1@@Z
_TEXT	SEGMENT
_this$ = -4						; size = 4
___param0$ = 8						; size = 4
___param1$ = 12						; size = 4
??0?$_Tree_const_iterator@V?$_Tree_val@U?$_Tree_simple_types@U?$pair@$$CBHPAVBaseGameEntity@@@std@@@std@@@std@@@std@@QAE@PAU?$_Tree_node@U?$pair@$$CBHPAVBaseGameEntity@@@std@@PAX@1@PBV?$_Tree_val@U?$_Tree_simple_types@U?$pair@$$CBHPAVBaseGameEntity@@@std@@@std@@@1@@Z PROC ; std::_Tree_const_iterator<std::_Tree_val<std::_Tree_simple_types<std::pair<int const ,BaseGameEntity *> > > >::_Tree_const_iterator<std::_Tree_val<std::_Tree_simple_types<std::pair<int const ,BaseGameEntity *> > > >, COMDAT
; _this$ = ecx
	push	ebp
	mov	ebp, esp
	push	ecx
	mov	DWORD PTR [ebp-4], -858993460		; ccccccccH
	mov	DWORD PTR _this$[ebp], ecx
	mov	eax, DWORD PTR ___param1$[ebp]
	push	eax
	mov	ecx, DWORD PTR ___param0$[ebp]
	push	ecx
	mov	ecx, DWORD PTR _this$[ebp]
	call	??0?$_Tree_unchecked_const_iterator@V?$_Tree_val@U?$_Tree_simple_types@U?$pair@$$CBHPAVBaseGameEntity@@@std@@@std@@@std@@U_Iterator_base12@2@@std@@QAE@PAU?$_Tree_node@U?$pair@$$CBHPAVBaseGameEntity@@@std@@PAX@1@PBV?$_Tree_val@U?$_Tree_simple_types@U?$pair@$$CBHPAVBaseGameEntity@@@std@@@std@@@1@@Z ; std::_Tree_unchecked_const_iterator<std::_Tree_val<std::_Tree_simple_types<std::pair<int const ,BaseGameEntity *> > >,std::_Iterator_base12>::_Tree_unchecked_const_iterator<std::_Tree_val<std::_Tree_simple_types<std::pair<int const ,BaseGameEntity *> > >,std::_Iterator_base12>
	npad	1
	mov	eax, DWORD PTR _this$[ebp]
	add	esp, 4
	cmp	ebp, esp
	call	__RTC_CheckEsp
	mov	esp, ebp
	pop	ebp
	ret	8
??0?$_Tree_const_iterator@V?$_Tree_val@U?$_Tree_simple_types@U?$pair@$$CBHPAVBaseGameEntity@@@std@@@std@@@std@@@std@@QAE@PAU?$_Tree_node@U?$pair@$$CBHPAVBaseGameEntity@@@std@@PAX@1@PBV?$_Tree_val@U?$_Tree_simple_types@U?$pair@$$CBHPAVBaseGameEntity@@@std@@@std@@@1@@Z ENDP ; std::_Tree_const_iterator<std::_Tree_val<std::_Tree_simple_types<std::pair<int const ,BaseGameEntity *> > > >::_Tree_const_iterator<std::_Tree_val<std::_Tree_simple_types<std::pair<int const ,BaseGameEntity *> > > >
_TEXT	ENDS
; Function compile flags: /Odtp /RTCsu
;	COMDAT ??0?$_Tree_const_iterator@V?$_Tree_val@U?$_Tree_simple_types@U?$pair@$$CBHPAVBaseGameEntity@@@std@@@std@@@std@@@std@@QAE@$$QAV01@@Z
_TEXT	SEGMENT
_this$ = -4						; size = 4
___that$ = 8						; size = 4
??0?$_Tree_const_iterator@V?$_Tree_val@U?$_Tree_simple_types@U?$pair@$$CBHPAVBaseGameEntity@@@std@@@std@@@std@@@std@@QAE@$$QAV01@@Z PROC ; std::_Tree_const_iterator<std::_Tree_val<std::_Tree_simple_types<std::pair<int const ,BaseGameEntity *> > > >::_Tree_const_iterator<std::_Tree_val<std::_Tree_simple_types<std::pair<int const ,BaseGameEntity *> > > >, COMDAT
; _this$ = ecx
	push	ebp
	mov	ebp, esp
	push	ecx
	mov	DWORD PTR [ebp-4], -858993460		; ccccccccH
	mov	DWORD PTR _this$[ebp], ecx
	mov	eax, DWORD PTR ___that$[ebp]
	push	eax
	mov	ecx, DWORD PTR _this$[ebp]
	call	??0?$_Tree_unchecked_const_iterator@V?$_Tree_val@U?$_Tree_simple_types@U?$pair@$$CBHPAVBaseGameEntity@@@std@@@std@@@std@@U_Iterator_base12@2@@std@@QAE@$$QAV01@@Z
	npad	1
	mov	eax, DWORD PTR _this$[ebp]
	add	esp, 4
	cmp	ebp, esp
	call	__RTC_CheckEsp
	mov	esp, ebp
	pop	ebp
	ret	4
??0?$_Tree_const_iterator@V?$_Tree_val@U?$_Tree_simple_types@U?$pair@$$CBHPAVBaseGameEntity@@@std@@@std@@@std@@@std@@QAE@$$QAV01@@Z ENDP ; std::_Tree_const_iterator<std::_Tree_val<std::_Tree_simple_types<std::pair<int const ,BaseGameEntity *> > > >::_Tree_const_iterator<std::_Tree_val<std::_Tree_simple_types<std::pair<int const ,BaseGameEntity *> > > >
_TEXT	ENDS
; Function compile flags: /Odtp /RTCsu
;	COMDAT ??1?$_Tree_const_iterator@V?$_Tree_val@U?$_Tree_simple_types@U?$pair@$$CBHPAVBaseGameEntity@@@std@@@std@@@std@@@std@@QAE@XZ
_TEXT	SEGMENT
_this$ = -4						; size = 4
??1?$_Tree_const_iterator@V?$_Tree_val@U?$_Tree_simple_types@U?$pair@$$CBHPAVBaseGameEntity@@@std@@@std@@@std@@@std@@QAE@XZ PROC ; std::_Tree_const_iterator<std::_Tree_val<std::_Tree_simple_types<std::pair<int const ,BaseGameEntity *> > > >::~_Tree_const_iterator<std::_Tree_val<std::_Tree_simple_types<std::pair<int const ,BaseGameEntity *> > > >, COMDAT
; _this$ = ecx
	push	ebp
	mov	ebp, esp
	push	ecx
	mov	DWORD PTR [ebp-4], -858993460		; ccccccccH
	mov	DWORD PTR _this$[ebp], ecx
	mov	ecx, DWORD PTR _this$[ebp]
	call	??1?$_Tree_unchecked_const_iterator@V?$_Tree_val@U?$_Tree_simple_types@U?$pair@$$CBHPAVBaseGameEntity@@@std@@@std@@@std@@U_Iterator_base12@2@@std@@QAE@XZ
	npad	1
	add	esp, 4
	cmp	ebp, esp
	call	__RTC_CheckEsp
	mov	esp, ebp
	pop	ebp
	ret	0
??1?$_Tree_const_iterator@V?$_Tree_val@U?$_Tree_simple_types@U?$pair@$$CBHPAVBaseGameEntity@@@std@@@std@@@std@@@std@@QAE@XZ ENDP ; std::_Tree_const_iterator<std::_Tree_val<std::_Tree_simple_types<std::pair<int const ,BaseGameEntity *> > > >::~_Tree_const_iterator<std::_Tree_val<std::_Tree_simple_types<std::pair<int const ,BaseGameEntity *> > > >
_TEXT	ENDS
; Function compile flags: /Odtp /RTCsu
; File C:\Program Files\Microsoft Visual Studio\2022\Community\VC\Tools\MSVC\14.44.35207\include\xtree
;	COMDAT ??9?$_Tree_const_iterator@V?$_Tree_val@U?$_Tree_simple_types@U?$pair@$$CBHPAVBaseGameEntity@@@std@@@std@@@std@@@std@@QBE_NABV01@@Z
_TEXT	SEGMENT
tv69 = -8						; size = 4
_this$ = -4						; size = 4
__Right$ = 8						; size = 4
??9?$_Tree_const_iterator@V?$_Tree_val@U?$_Tree_simple_types@U?$pair@$$CBHPAVBaseGameEntity@@@std@@@std@@@std@@@std@@QBE_NABV01@@Z PROC ; std::_Tree_const_iterator<std::_Tree_val<std::_Tree_simple_types<std::pair<int const ,BaseGameEntity *> > > >::operator!=, COMDAT
; _this$ = ecx

; 236  :     _NODISCARD bool operator!=(const _Tree_const_iterator& _Right) const noexcept {

	push	ebp
	mov	ebp, esp
	sub	esp, 8
	mov	DWORD PTR [ebp-8], -858993460		; ccccccccH
	mov	DWORD PTR [ebp-4], -858993460		; ccccccccH
	mov	DWORD PTR _this$[ebp], ecx

; 237  :         return !(*this == _Right);

	mov	eax, DWORD PTR __Right$[ebp]
	push	eax
	mov	ecx, DWORD PTR _this$[ebp]
	call	??8?$_Tree_const_iterator@V?$_Tree_val@U?$_Tree_simple_types@U?$pair@$$CBHPAVBaseGameEntity@@@std@@@std@@@std@@@std@@QBE_NABV01@@Z ; std::_Tree_const_iterator<std::_Tree_val<std::_Tree_simple_types<std::pair<int const ,BaseGameEntity *> > > >::operator==
	movzx	ecx, al
	test	ecx, ecx
	jne	SHORT $LN3@operator
	mov	DWORD PTR tv69[ebp], 1
	jmp	SHORT $LN4@operator
$LN3@operator:
	mov	DWORD PTR tv69[ebp], 0
$LN4@operator:
	movzx	eax, BYTE PTR tv69[ebp]

; 238  :     }

	add	esp, 8
	cmp	ebp, esp
	call	__RTC_CheckEsp
	mov	esp, ebp
	pop	ebp
	ret	4
??9?$_Tree_const_iterator@V?$_Tree_val@U?$_Tree_simple_types@U?$pair@$$CBHPAVBaseGameEntity@@@std@@@std@@@std@@@std@@QBE_NABV01@@Z ENDP ; std::_Tree_const_iterator<std::_Tree_val<std::_Tree_simple_types<std::pair<int const ,BaseGameEntity *> > > >::operator!=
_TEXT	ENDS
; Function compile flags: /Odtp /RTCsu
; File C:\Program Files\Microsoft Visual Studio\2022\Community\VC\Tools\MSVC\14.44.35207\include\xtree
;	COMDAT ??8?$_Tree_const_iterator@V?$_Tree_val@U?$_Tree_simple_types@U?$pair@$$CBHPAVBaseGameEntity@@@std@@@std@@@std@@@std@@QBE_NABV01@@Z
_TEXT	SEGMENT
tv134 = -8						; size = 4
_this$ = -4						; size = 4
__Right$ = 8						; size = 4
??8?$_Tree_const_iterator@V?$_Tree_val@U?$_Tree_simple_types@U?$pair@$$CBHPAVBaseGameEntity@@@std@@@std@@@std@@@std@@QBE_NABV01@@Z PROC ; std::_Tree_const_iterator<std::_Tree_val<std::_Tree_simple_types<std::pair<int const ,BaseGameEntity *> > > >::operator==, COMDAT
; _this$ = ecx

; 227  :     _NODISCARD bool operator==(const _Tree_const_iterator& _Right) const noexcept {

	push	ebp
	mov	ebp, esp
	sub	esp, 8
	push	esi
	mov	DWORD PTR [ebp-8], -858993460		; ccccccccH
	mov	DWORD PTR [ebp-4], -858993460		; ccccccccH
	mov	DWORD PTR _this$[ebp], ecx

; 228  : #if _ITERATOR_DEBUG_LEVEL == 2
; 229  :         _STL_VERIFY(this->_Getcont() == _Right._Getcont(), "map/set iterators incompatible");

	mov	ecx, DWORD PTR _this$[ebp]
	call	?_Getcont@_Iterator_base12@std@@QBEPBU_Container_base12@2@XZ ; std::_Iterator_base12::_Getcont
	mov	esi, eax
	mov	ecx, DWORD PTR __Right$[ebp]
	call	?_Getcont@_Iterator_base12@std@@QBEPBU_Container_base12@2@XZ ; std::_Iterator_base12::_Getcont
	cmp	esi, eax
	je	SHORT $LN2@operator
	push	OFFSET ??_C@_0BP@OLDKBHLM@map?1set?5iterators?5incompatible@
	push	OFFSET ??_C@_02DKCKIIND@?$CFs@
	push	0
	push	229					; 000000e5H
	push	OFFSET ??_C@_0GA@IINHIBAD@C?3?2Program?5Files?2Microsoft?5Visu@
	push	2
	call	__CrtDbgReport
	add	esp, 24					; 00000018H
	cmp	eax, 1
	jne	SHORT $LN4@operator
	int	3
$LN4@operator:
	push	0
	push	0
	push	0
	push	0
	push	0
	call	__invoke_watson
	npad	1
$LN2@operator:

; 230  : #endif // _ITERATOR_DEBUG_LEVEL == 2
; 231  : 
; 232  :         return this->_Ptr == _Right._Ptr;

	mov	ecx, DWORD PTR _this$[ebp]
	mov	edx, DWORD PTR __Right$[ebp]
	mov	eax, DWORD PTR [ecx+8]
	cmp	eax, DWORD PTR [edx+8]
	jne	SHORT $LN5@operator
	mov	DWORD PTR tv134[ebp], 1
	jmp	SHORT $LN6@operator
$LN5@operator:
	mov	DWORD PTR tv134[ebp], 0
$LN6@operator:
	mov	al, BYTE PTR tv134[ebp]
$LN1@operator:

; 233  :     }

	pop	esi
	add	esp, 8
	cmp	ebp, esp
	call	__RTC_CheckEsp
	mov	esp, ebp
	pop	ebp
	ret	4
??8?$_Tree_const_iterator@V?$_Tree_val@U?$_Tree_simple_types@U?$pair@$$CBHPAVBaseGameEntity@@@std@@@std@@@std@@@std@@QBE_NABV01@@Z ENDP ; std::_Tree_const_iterator<std::_Tree_val<std::_Tree_simple_types<std::pair<int const ,BaseGameEntity *> > > >::operator==
_TEXT	ENDS
; Function compile flags: /Odtp /RTCsu
; File C:\Program Files\Microsoft Visual Studio\2022\Community\VC\Tools\MSVC\14.44.35207\include\xtree
;	COMDAT ??C?$_Tree_const_iterator@V?$_Tree_val@U?$_Tree_simple_types@U?$pair@$$CBHPAVBaseGameEntity@@@std@@@std@@@std@@@std@@QBEPBU?$pair@$$CBHPAVBaseGameEntity@@@1@XZ
_TEXT	SEGMENT
_this$ = -4						; size = 4
??C?$_Tree_const_iterator@V?$_Tree_val@U?$_Tree_simple_types@U?$pair@$$CBHPAVBaseGameEntity@@@std@@@std@@@std@@@std@@QBEPBU?$pair@$$CBHPAVBaseGameEntity@@@1@XZ PROC ; std::_Tree_const_iterator<std::_Tree_val<std::_Tree_simple_types<std::pair<int const ,BaseGameEntity *> > > >::operator->, COMDAT
; _this$ = ecx

; 188  :     _NODISCARD pointer operator->() const noexcept {

	push	ebp
	mov	ebp, esp
	push	ecx
	mov	DWORD PTR [ebp-4], -858993460		; ccccccccH
	mov	DWORD PTR _this$[ebp], ecx

; 189  :         return pointer_traits<pointer>::pointer_to(**this);

	mov	ecx, DWORD PTR _this$[ebp]
	call	??D?$_Tree_const_iterator@V?$_Tree_val@U?$_Tree_simple_types@U?$pair@$$CBHPAVBaseGameEntity@@@std@@@std@@@std@@@std@@QBEABU?$pair@$$CBHPAVBaseGameEntity@@@1@XZ ; std::_Tree_const_iterator<std::_Tree_val<std::_Tree_simple_types<std::pair<int const ,BaseGameEntity *> > > >::operator*
	push	eax
	call	?pointer_to@?$pointer_traits@PBU?$pair@$$CBHPAVBaseGameEntity@@@std@@@std@@SAPBU?$pair@$$CBHPAVBaseGameEntity@@@2@ABU32@@Z ; std::pointer_traits<std::pair<int const ,BaseGameEntity *> const *>::pointer_to
	add	esp, 4

; 190  :     }

	add	esp, 4
	cmp	ebp, esp
	call	__RTC_CheckEsp
	mov	esp, ebp
	pop	ebp
	ret	0
??C?$_Tree_const_iterator@V?$_Tree_val@U?$_Tree_simple_types@U?$pair@$$CBHPAVBaseGameEntity@@@std@@@std@@@std@@@std@@QBEPBU?$pair@$$CBHPAVBaseGameEntity@@@1@XZ ENDP ; std::_Tree_const_iterator<std::_Tree_val<std::_Tree_simple_types<std::pair<int const ,BaseGameEntity *> > > >::operator->
_TEXT	ENDS
; Function compile flags: /Odtp /RTCsu
; File C:\Program Files\Microsoft Visual Studio\2022\Community\VC\Tools\MSVC\14.44.35207\include\xtree
;	COMDAT ??D?$_Tree_const_iterator@V?$_Tree_val@U?$_Tree_simple_types@U?$pair@$$CBHPAVBaseGameEntity@@@std@@@std@@@std@@@std@@QBEABU?$pair@$$CBHPAVBaseGameEntity@@@1@XZ
_TEXT	SEGMENT
__Mycont$ = -8						; size = 4
_this$ = -4						; size = 4
??D?$_Tree_const_iterator@V?$_Tree_val@U?$_Tree_simple_types@U?$pair@$$CBHPAVBaseGameEntity@@@std@@@std@@@std@@@std@@QBEABU?$pair@$$CBHPAVBaseGameEntity@@@1@XZ PROC ; std::_Tree_const_iterator<std::_Tree_val<std::_Tree_simple_types<std::pair<int const ,BaseGameEntity *> > > >::operator*, COMDAT
; _this$ = ecx

; 178  :     _NODISCARD reference operator*() const noexcept {

	push	ebp
	mov	ebp, esp
	sub	esp, 8
	mov	DWORD PTR [ebp-8], -858993460		; ccccccccH
	mov	DWORD PTR [ebp-4], -858993460		; ccccccccH
	mov	DWORD PTR _this$[ebp], ecx

; 179  : #if _ITERATOR_DEBUG_LEVEL == 2
; 180  :         const auto _Mycont = static_cast<const _Mytree*>(this->_Getcont());

	mov	ecx, DWORD PTR _this$[ebp]
	call	?_Getcont@_Iterator_base12@std@@QBEPBU_Container_base12@2@XZ ; std::_Iterator_base12::_Getcont
	mov	DWORD PTR __Mycont$[ebp], eax

; 181  :         _STL_VERIFY(_Mycont, "cannot dereference value-initialized map/set iterator");

	cmp	DWORD PTR __Mycont$[ebp], 0
	jne	SHORT $LN2@operator
	push	OFFSET ??_C@_0DG@LCFNIIPB@cannot?5dereference?5value?9initia@
	push	OFFSET ??_C@_02DKCKIIND@?$CFs@
	push	0
	push	181					; 000000b5H
	push	OFFSET ??_C@_0GA@IINHIBAD@C?3?2Program?5Files?2Microsoft?5Visu@
	push	2
	call	__CrtDbgReport
	add	esp, 24					; 00000018H
	cmp	eax, 1
	jne	SHORT $LN5@operator
	int	3
$LN5@operator:
	push	0
	push	0
	push	0
	push	0
	push	0
	call	__invoke_watson
	npad	1
$LN2@operator:

; 182  :         _STL_VERIFY(this->_Ptr != _Mycont->_Myhead, "cannot dereference end map/set iterator");

	mov	ecx, DWORD PTR _this$[ebp]
	mov	edx, DWORD PTR __Mycont$[ebp]
	mov	eax, DWORD PTR [ecx+8]
	cmp	eax, DWORD PTR [edx+4]
	jne	SHORT $LN3@operator
	push	OFFSET ??_C@_0CI@OKFEHCEB@cannot?5dereference?5end?5map?1set?5@
	push	OFFSET ??_C@_02DKCKIIND@?$CFs@
	push	0
	push	182					; 000000b6H
	push	OFFSET ??_C@_0GA@IINHIBAD@C?3?2Program?5Files?2Microsoft?5Visu@
	push	2
	call	__CrtDbgReport
	add	esp, 24					; 00000018H
	cmp	eax, 1
	jne	SHORT $LN6@operator
	int	3
$LN6@operator:
	push	0
	push	0
	push	0
	push	0
	push	0
	call	__invoke_watson
	npad	1
$LN3@operator:

; 183  : #endif // _ITERATOR_DEBUG_LEVEL == 2
; 184  : 
; 185  :         return this->_Ptr->_Myval;

	mov	edx, DWORD PTR _this$[ebp]
	mov	eax, DWORD PTR [edx+8]
	add	eax, 16					; 00000010H
$LN1@operator:

; 186  :     }

	add	esp, 8
	cmp	ebp, esp
	call	__RTC_CheckEsp
	mov	esp, ebp
	pop	ebp
	ret	0
??D?$_Tree_const_iterator@V?$_Tree_val@U?$_Tree_simple_types@U?$pair@$$CBHPAVBaseGameEntity@@@std@@@std@@@std@@@std@@QBEABU?$pair@$$CBHPAVBaseGameEntity@@@1@XZ ENDP ; std::_Tree_const_iterator<std::_Tree_val<std::_Tree_simple_types<std::pair<int const ,BaseGameEntity *> > > >::operator*
_TEXT	ENDS
; Function compile flags: /Odtp /RTCsu
;	COMDAT ??0?$_Tree_unchecked_const_iterator@V?$_Tree_val@U?$_Tree_simple_types@U?$pair@$$CBHPAVBaseGameEntity@@@std@@@std@@@std@@U_Iterator_base12@2@@std@@QAE@$$QAV01@@Z
_TEXT	SEGMENT
_this$ = -4						; size = 4
___that$ = 8						; size = 4
??0?$_Tree_unchecked_const_iterator@V?$_Tree_val@U?$_Tree_simple_types@U?$pair@$$CBHPAVBaseGameEntity@@@std@@@std@@@std@@U_Iterator_base12@2@@std@@QAE@$$QAV01@@Z PROC ; std::_Tree_unchecked_const_iterator<std::_Tree_val<std::_Tree_simple_types<std::pair<int const ,BaseGameEntity *> > >,std::_Iterator_base12>::_Tree_unchecked_const_iterator<std::_Tree_val<std::_Tree_simple_types<std::pair<int const ,BaseGameEntity *> > >,std::_Iterator_base12>, COMDAT
; _this$ = ecx
	push	ebp
	mov	ebp, esp
	push	ecx
	mov	DWORD PTR [ebp-4], -858993460		; ccccccccH
	mov	DWORD PTR _this$[ebp], ecx
	mov	eax, DWORD PTR ___that$[ebp]
	push	eax
	mov	ecx, DWORD PTR _this$[ebp]
	call	??0_Iterator_base12@std@@QAE@ABU01@@Z	; std::_Iterator_base12::_Iterator_base12
	mov	ecx, DWORD PTR _this$[ebp]
	mov	edx, DWORD PTR ___that$[ebp]
	mov	eax, DWORD PTR [edx+8]
	mov	DWORD PTR [ecx+8], eax
	mov	eax, DWORD PTR _this$[ebp]
	add	esp, 4
	cmp	ebp, esp
	call	__RTC_CheckEsp
	mov	esp, ebp
	pop	ebp
	ret	4
??0?$_Tree_unchecked_const_iterator@V?$_Tree_val@U?$_Tree_simple_types@U?$pair@$$CBHPAVBaseGameEntity@@@std@@@std@@@std@@U_Iterator_base12@2@@std@@QAE@$$QAV01@@Z ENDP ; std::_Tree_unchecked_const_iterator<std::_Tree_val<std::_Tree_simple_types<std::pair<int const ,BaseGameEntity *> > >,std::_Iterator_base12>::_Tree_unchecked_const_iterator<std::_Tree_val<std::_Tree_simple_types<std::pair<int const ,BaseGameEntity *> > >,std::_Iterator_base12>
_TEXT	ENDS
; Function compile flags: /Odtp /RTCsu
;	COMDAT ??1?$_Tree_unchecked_const_iterator@V?$_Tree_val@U?$_Tree_simple_types@U?$pair@$$CBHPAVBaseGameEntity@@@std@@@std@@@std@@U_Iterator_base12@2@@std@@QAE@XZ
_TEXT	SEGMENT
_this$ = -4						; size = 4
??1?$_Tree_unchecked_const_iterator@V?$_Tree_val@U?$_Tree_simple_types@U?$pair@$$CBHPAVBaseGameEntity@@@std@@@std@@@std@@U_Iterator_base12@2@@std@@QAE@XZ PROC ; std::_Tree_unchecked_const_iterator<std::_Tree_val<std::_Tree_simple_types<std::pair<int const ,BaseGameEntity *> > >,std::_Iterator_base12>::~_Tree_unchecked_const_iterator<std::_Tree_val<std::_Tree_simple_types<std::pair<int const ,BaseGameEntity *> > >,std::_Iterator_base12>, COMDAT
; _this$ = ecx
	push	ebp
	mov	ebp, esp
	push	ecx
	mov	DWORD PTR [ebp-4], -858993460		; ccccccccH
	mov	DWORD PTR _this$[ebp], ecx
	mov	ecx, DWORD PTR _this$[ebp]
	call	??1_Iterator_base12@std@@QAE@XZ		; std::_Iterator_base12::~_Iterator_base12
	npad	1
	add	esp, 4
	cmp	ebp, esp
	call	__RTC_CheckEsp
	mov	esp, ebp
	pop	ebp
	ret	0
??1?$_Tree_unchecked_const_iterator@V?$_Tree_val@U?$_Tree_simple_types@U?$pair@$$CBHPAVBaseGameEntity@@@std@@@std@@@std@@U_Iterator_base12@2@@std@@QAE@XZ ENDP ; std::_Tree_unchecked_const_iterator<std::_Tree_val<std::_Tree_simple_types<std::pair<int const ,BaseGameEntity *> > >,std::_Iterator_base12>::~_Tree_unchecked_const_iterator<std::_Tree_val<std::_Tree_simple_types<std::pair<int const ,BaseGameEntity *> > >,std::_Iterator_base12>
_TEXT	ENDS
; Function compile flags: /Odtp /RTCsu
; File C:\Program Files\Microsoft Visual Studio\2022\Community\VC\Tools\MSVC\14.44.35207\include\xtree
;	COMDAT ??0?$_Tree_unchecked_const_iterator@V?$_Tree_val@U?$_Tree_simple_types@U?$pair@$$CBHPAVBaseGameEntity@@@std@@@std@@@std@@U_Iterator_base12@2@@std@@QAE@PAU?$_Tree_node@U?$pair@$$CBHPAVBaseGameEntity@@@std@@PAX@1@PBV?$_Tree_val@U?$_Tree_simple_types@U?$pair@$$CBHPAVBaseGameEntity@@@std@@@std@@@1@@Z
_TEXT	SEGMENT
_this$ = -4						; size = 4
__Pnode$ = 8						; size = 4
__Plist$ = 12						; size = 4
??0?$_Tree_unchecked_const_iterator@V?$_Tree_val@U?$_Tree_simple_types@U?$pair@$$CBHPAVBaseGameEntity@@@std@@@std@@@std@@U_Iterator_base12@2@@std@@QAE@PAU?$_Tree_node@U?$pair@$$CBHPAVBaseGameEntity@@@std@@PAX@1@PBV?$_Tree_val@U?$_Tree_simple_types@U?$pair@$$CBHPAVBaseGameEntity@@@std@@@std@@@1@@Z PROC ; std::_Tree_unchecked_const_iterator<std::_Tree_val<std::_Tree_simple_types<std::pair<int const ,BaseGameEntity *> > >,std::_Iterator_base12>::_Tree_unchecked_const_iterator<std::_Tree_val<std::_Tree_simple_types<std::pair<int const ,BaseGameEntity *> > >,std::_Iterator_base12>, COMDAT
; _this$ = ecx

; 37   :     _Tree_unchecked_const_iterator(_Nodeptr _Pnode, const _Mytree* _Plist) noexcept : _Ptr(_Pnode) {

	push	ebp
	mov	ebp, esp
	push	ecx
	mov	DWORD PTR [ebp-4], -858993460		; ccccccccH
	mov	DWORD PTR _this$[ebp], ecx
	mov	ecx, DWORD PTR _this$[ebp]
	call	??0_Iterator_base12@std@@QAE@XZ		; std::_Iterator_base12::_Iterator_base12
	mov	eax, DWORD PTR _this$[ebp]
	mov	ecx, DWORD PTR __Pnode$[ebp]
	mov	DWORD PTR [eax+8], ecx

; 38   :         this->_Adopt(_Plist);

	mov	edx, DWORD PTR __Plist$[ebp]
	push	edx
	mov	ecx, DWORD PTR _this$[ebp]
	call	?_Adopt@_Iterator_base12@std@@QAEXPBU_Container_base12@2@@Z ; std::_Iterator_base12::_Adopt
	npad	1

; 39   :     }

	mov	eax, DWORD PTR _this$[ebp]
	add	esp, 4
	cmp	ebp, esp
	call	__RTC_CheckEsp
	mov	esp, ebp
	pop	ebp
	ret	8
??0?$_Tree_unchecked_const_iterator@V?$_Tree_val@U?$_Tree_simple_types@U?$pair@$$CBHPAVBaseGameEntity@@@std@@@std@@@std@@U_Iterator_base12@2@@std@@QAE@PAU?$_Tree_node@U?$pair@$$CBHPAVBaseGameEntity@@@std@@PAX@1@PBV?$_Tree_val@U?$_Tree_simple_types@U?$pair@$$CBHPAVBaseGameEntity@@@std@@@std@@@1@@Z ENDP ; std::_Tree_unchecked_const_iterator<std::_Tree_val<std::_Tree_simple_types<std::pair<int const ,BaseGameEntity *> > >,std::_Iterator_base12>::_Tree_unchecked_const_iterator<std::_Tree_val<std::_Tree_simple_types<std::pair<int const ,BaseGameEntity *> > >,std::_Iterator_base12>
_TEXT	ENDS
; Function compile flags: /Odtp /RTCsu
;	COMDAT ??__Finstance@?1??Instance@EntityManager@@SAPAV1@XZ@YAXXZ
text$yd	SEGMENT
??__Finstance@?1??Instance@EntityManager@@SAPAV1@XZ@YAXXZ PROC ; `EntityManager::Instance'::`2'::`dynamic atexit destructor for 'instance'', COMDAT
	push	ebp
	mov	ebp, esp
	mov	ecx, OFFSET ?instance@?1??Instance@EntityManager@@SAPAV2@XZ@4V2@A
	call	??1EntityManager@@QAE@XZ
	npad	1
	cmp	ebp, esp
	call	__RTC_CheckEsp
	pop	ebp
	ret	0
??__Finstance@?1??Instance@EntityManager@@SAPAV1@XZ@YAXXZ ENDP ; `EntityManager::Instance'::`2'::`dynamic atexit destructor for 'instance''
text$yd	ENDS
; Function compile flags: /Odtp /RTCsu
; File C:\Users\Hamzzi\Desktop\AI_Practice\Source\VS2010\Common\game\BaseGameEntity.h
;	COMDAT ?ID@BaseGameEntity@@QBEHXZ
_TEXT	SEGMENT
_this$ = -4						; size = 4
?ID@BaseGameEntity@@QBEHXZ PROC				; BaseGameEntity::ID, COMDAT
; _this$ = ecx

; 94   :   int          ID()const{return m_ID;}

	push	ebp
	mov	ebp, esp
	push	ecx
	mov	DWORD PTR _this$[ebp], ecx
	mov	eax, DWORD PTR _this$[ebp]
	mov	eax, DWORD PTR [eax+8]
	mov	esp, ebp
	pop	ebp
	ret	0
?ID@BaseGameEntity@@QBEHXZ ENDP				; BaseGameEntity::ID
_TEXT	ENDS
; Function compile flags: /Odtp /RTCsu
;	COMDAT ??1EntityManager@@QAE@XZ
_TEXT	SEGMENT
_this$ = -4						; size = 4
??1EntityManager@@QAE@XZ PROC				; EntityManager::~EntityManager, COMDAT
; _this$ = ecx
	push	ebp
	mov	ebp, esp
	push	ecx
	mov	DWORD PTR [ebp-4], -858993460		; ccccccccH
	mov	DWORD PTR _this$[ebp], ecx
	mov	ecx, DWORD PTR _this$[ebp]
	call	??1?$map@HPAVBaseGameEntity@@U?$less@H@std@@V?$allocator@U?$pair@$$CBHPAVBaseGameEntity@@@std@@@3@@std@@QAE@XZ
	npad	1
	add	esp, 4
	cmp	ebp, esp
	call	__RTC_CheckEsp
	mov	esp, ebp
	pop	ebp
	ret	0
??1EntityManager@@QAE@XZ ENDP				; EntityManager::~EntityManager
_TEXT	ENDS
; Function compile flags: /Odtp /RTCsu
; File C:\Users\Hamzzi\Desktop\AI_Practice\Source\VS2010\Common\Game\EntityManager.cpp
_TEXT	SEGMENT
tv129 = -28						; size = 4
$T1 = -24						; size = 12
$T2 = -12						; size = 4
$T3 = -8						; size = 4
_this$ = -4						; size = 4
_pEntity$ = 8						; size = 4
?RemoveEntity@EntityManager@@QAEXPAVBaseGameEntity@@@Z PROC ; EntityManager::RemoveEntity
; _this$ = ecx

; 32   : {    

	push	ebp
	mov	ebp, esp
	sub	esp, 28					; 0000001cH
	mov	eax, -858993460				; ccccccccH
	mov	DWORD PTR [ebp-28], eax
	mov	DWORD PTR [ebp-24], eax
	mov	DWORD PTR [ebp-20], eax
	mov	DWORD PTR [ebp-16], eax
	mov	DWORD PTR [ebp-12], eax
	mov	DWORD PTR [ebp-8], eax
	mov	DWORD PTR [ebp-4], eax
	mov	DWORD PTR _this$[ebp], ecx

; 33   :   m_EntityMap.erase(m_EntityMap.find(pEntity->ID()));

	mov	ecx, DWORD PTR _pEntity$[ebp]
	call	?ID@BaseGameEntity@@QBEHXZ		; BaseGameEntity::ID
	mov	DWORD PTR $T2[ebp], eax
	sub	esp, 12					; 0000000cH
	mov	eax, esp
	mov	DWORD PTR $T3[ebp], esp
	lea	ecx, DWORD PTR $T2[ebp]
	push	ecx
	push	eax
	mov	ecx, DWORD PTR _this$[ebp]
	call	?find@?$_Tree@V?$_Tmap_traits@HPAVBaseGameEntity@@U?$less@H@std@@V?$allocator@U?$pair@$$CBHPAVBaseGameEntity@@@std@@@3@$0A@@std@@@std@@QAE?AV?$_Tree_iterator@V?$_Tree_val@U?$_Tree_simple_types@U?$pair@$$CBHPAVBaseGameEntity@@@std@@@std@@@std@@@2@ABH@Z ; std::_Tree<std::_Tmap_traits<int,BaseGameEntity *,std::less<int>,std::allocator<std::pair<int const ,BaseGameEntity *> >,0> >::find
	lea	edx, DWORD PTR $T1[ebp]
	push	edx
	mov	ecx, DWORD PTR _this$[ebp]
	call	??$erase@V?$_Tree_iterator@V?$_Tree_val@U?$_Tree_simple_types@U?$pair@$$CBHPAVBaseGameEntity@@@std@@@std@@@std@@@std@@$0A@@?$_Tree@V?$_Tmap_traits@HPAVBaseGameEntity@@U?$less@H@std@@V?$allocator@U?$pair@$$CBHPAVBaseGameEntity@@@std@@@3@$0A@@std@@@std@@QAE?AV?$_Tree_iterator@V?$_Tree_val@U?$_Tree_simple_types@U?$pair@$$CBHPAVBaseGameEntity@@@std@@@std@@@std@@@1@V21@@Z ; std::_Tree<std::_Tmap_traits<int,BaseGameEntity *,std::less<int>,std::allocator<std::pair<int const ,BaseGameEntity *> >,0> >::erase<std::_Tree_iterator<std::_Tree_val<std::_Tree_simple_types<std::pair<int const ,BaseGameEntity *> > > >,0>
	mov	DWORD PTR tv129[ebp], eax
	lea	ecx, DWORD PTR $T1[ebp]
	call	??1?$_Tree_iterator@V?$_Tree_val@U?$_Tree_simple_types@U?$pair@$$CBHPAVBaseGameEntity@@@std@@@std@@@std@@@std@@QAE@XZ
	npad	1

; 34   : } 

	add	esp, 28					; 0000001cH
	cmp	ebp, esp
	call	__RTC_CheckEsp
	mov	esp, ebp
	pop	ebp
	ret	4
?RemoveEntity@EntityManager@@QAEXPAVBaseGameEntity@@@Z ENDP ; EntityManager::RemoveEntity
_TEXT	ENDS
; Function compile flags: /Odtp /RTCsu
; File C:\Users\Hamzzi\Desktop\AI_Practice\Source\VS2010\Common\Game\EntityManager.cpp
_TEXT	SEGMENT
tv134 = -48						; size = 4
$T1 = -44						; size = 4
$T2 = -40						; size = 4
$T3 = -36						; size = 12
_ent$ = -20						; size = 12
_this$ = -4						; size = 4
_id$ = 8						; size = 4
?GetEntityFromID@EntityManager@@QBEPAVBaseGameEntity@@H@Z PROC ; EntityManager::GetEntityFromID
; _this$ = ecx

; 19   : {

	push	ebp
	mov	ebp, esp
	sub	esp, 48					; 00000030H
	push	edi
	push	ecx
	lea	edi, DWORD PTR [ebp-48]
	mov	ecx, 12					; 0000000cH
	mov	eax, -858993460				; ccccccccH
	rep stosd
	pop	ecx
	mov	DWORD PTR _this$[ebp], ecx
	mov	DWORD PTR $T1[ebp], 0

; 20   :   //find the entity
; 21   :   EntityMap::const_iterator ent = m_EntityMap.find(id);

	lea	eax, DWORD PTR _id$[ebp]
	push	eax
	lea	ecx, DWORD PTR _ent$[ebp]
	push	ecx
	mov	ecx, DWORD PTR _this$[ebp]
	call	?find@?$_Tree@V?$_Tmap_traits@HPAVBaseGameEntity@@U?$less@H@std@@V?$allocator@U?$pair@$$CBHPAVBaseGameEntity@@@std@@@3@$0A@@std@@@std@@QBE?AV?$_Tree_const_iterator@V?$_Tree_val@U?$_Tree_simple_types@U?$pair@$$CBHPAVBaseGameEntity@@@std@@@std@@@std@@@2@ABH@Z ; std::_Tree<std::_Tmap_traits<int,BaseGameEntity *,std::less<int>,std::allocator<std::pair<int const ,BaseGameEntity *> >,0> >::find
	npad	1

; 22   : 
; 23   :   //assert that the entity is a member of the map
; 24   :   assert ( (ent !=  m_EntityMap.end()) && "<EntityManager::GetEntityFromID>: invalid ID");

	lea	edx, DWORD PTR $T3[ebp]
	push	edx
	mov	ecx, DWORD PTR _this$[ebp]
	call	?end@?$_Tree@V?$_Tmap_traits@HPAVBaseGameEntity@@U?$less@H@std@@V?$allocator@U?$pair@$$CBHPAVBaseGameEntity@@@std@@@3@$0A@@std@@@std@@QBE?AV?$_Tree_const_iterator@V?$_Tree_val@U?$_Tree_simple_types@U?$pair@$$CBHPAVBaseGameEntity@@@std@@@std@@@std@@@2@XZ ; std::_Tree<std::_Tmap_traits<int,BaseGameEntity *,std::less<int>,std::allocator<std::pair<int const ,BaseGameEntity *> >,0> >::end
	mov	DWORD PTR tv134[ebp], eax
	mov	eax, DWORD PTR $T1[ebp]
	or	eax, 1
	mov	DWORD PTR $T1[ebp], eax
	mov	ecx, DWORD PTR tv134[ebp]
	push	ecx
	lea	ecx, DWORD PTR _ent$[ebp]
	call	??9?$_Tree_const_iterator@V?$_Tree_val@U?$_Tree_simple_types@U?$pair@$$CBHPAVBaseGameEntity@@@std@@@std@@@std@@@std@@QBE_NABV01@@Z ; std::_Tree_const_iterator<std::_Tree_val<std::_Tree_simple_types<std::pair<int const ,BaseGameEntity *> > > >::operator!=
	movzx	edx, al
	test	edx, edx
	je	SHORT $LN3@GetEntityF
	mov	eax, OFFSET $SG198272
	test	eax, eax
	jne	SHORT $LN4@GetEntityF
$LN3@GetEntityF:
	push	24					; 00000018H
	push	OFFSET $SG198273
	push	OFFSET $SG198274
	call	__wassert
	add	esp, 12					; 0000000cH
$LN4@GetEntityF:
	mov	edx, DWORD PTR $T1[ebp]
	and	edx, 1
	je	SHORT $LN8@GetEntityF
	and	DWORD PTR $T1[ebp], -2			; fffffffeH
	lea	ecx, DWORD PTR $T3[ebp]
	call	??1?$_Tree_const_iterator@V?$_Tree_val@U?$_Tree_simple_types@U?$pair@$$CBHPAVBaseGameEntity@@@std@@@std@@@std@@@std@@QAE@XZ
	npad	1
$LN8@GetEntityF:

; 25   : 
; 26   :   return ent->second;

	lea	ecx, DWORD PTR _ent$[ebp]
	call	??C?$_Tree_const_iterator@V?$_Tree_val@U?$_Tree_simple_types@U?$pair@$$CBHPAVBaseGameEntity@@@std@@@std@@@std@@@std@@QBEPBU?$pair@$$CBHPAVBaseGameEntity@@@1@XZ ; std::_Tree_const_iterator<std::_Tree_val<std::_Tree_simple_types<std::pair<int const ,BaseGameEntity *> > > >::operator->
	mov	eax, DWORD PTR [eax+4]
	mov	DWORD PTR $T2[ebp], eax
	lea	ecx, DWORD PTR _ent$[ebp]
	call	??1?$_Tree_const_iterator@V?$_Tree_val@U?$_Tree_simple_types@U?$pair@$$CBHPAVBaseGameEntity@@@std@@@std@@@std@@@std@@QAE@XZ
	mov	eax, DWORD PTR $T2[ebp]

; 27   : }

	push	edx
	mov	ecx, ebp
	push	eax
	lea	edx, DWORD PTR $LN11@GetEntityF
	call	@_RTC_CheckStackVars@8
	pop	eax
	pop	edx
	pop	edi
	add	esp, 48					; 00000030H
	cmp	ebp, esp
	call	__RTC_CheckEsp
	mov	esp, ebp
	pop	ebp
	ret	4
	npad	1
$LN11@GetEntityF:
	DD	1
	DD	$LN10@GetEntityF
$LN10@GetEntityF:
	DD	-20					; ffffffecH
	DD	12					; 0000000cH
	DD	$LN9@GetEntityF
$LN9@GetEntityF:
	DB	101					; 00000065H
	DB	110					; 0000006eH
	DB	116					; 00000074H
	DB	0
?GetEntityFromID@EntityManager@@QBEPAVBaseGameEntity@@H@Z ENDP ; EntityManager::GetEntityFromID
_TEXT	ENDS
; Function compile flags: /Odtp /RTCsu
; File C:\Users\Hamzzi\Desktop\AI_Practice\Source\VS2010\Common\Game\EntityManager.cpp
_TEXT	SEGMENT
$T1 = -32						; size = 16
$T2 = -16						; size = 8
$T3 = -8						; size = 4
_this$ = -4						; size = 4
_NewEntity$ = 8						; size = 4
?RegisterEntity@EntityManager@@QAEXPAVBaseGameEntity@@@Z PROC ; EntityManager::RegisterEntity
; _this$ = ecx

; 39   : {

	push	ebp
	mov	ebp, esp
	sub	esp, 32					; 00000020H
	mov	eax, -858993460				; ccccccccH
	mov	DWORD PTR [ebp-32], eax
	mov	DWORD PTR [ebp-28], eax
	mov	DWORD PTR [ebp-24], eax
	mov	DWORD PTR [ebp-20], eax
	mov	DWORD PTR [ebp-16], eax
	mov	DWORD PTR [ebp-12], eax
	mov	DWORD PTR [ebp-8], eax
	mov	DWORD PTR [ebp-4], eax
	mov	DWORD PTR _this$[ebp], ecx

; 40   :   m_EntityMap.insert(std::make_pair(NewEntity->ID(), NewEntity));

	mov	ecx, DWORD PTR _NewEntity$[ebp]
	call	?ID@BaseGameEntity@@QBEHXZ		; BaseGameEntity::ID
	mov	DWORD PTR $T3[ebp], eax
	lea	eax, DWORD PTR _NewEntity$[ebp]
	push	eax
	lea	ecx, DWORD PTR $T3[ebp]
	push	ecx
	lea	edx, DWORD PTR $T2[ebp]
	push	edx
	call	??$make_pair@HAAPAVBaseGameEntity@@@std@@YA?AU?$pair@HPAVBaseGameEntity@@@0@$$QAHAAPAVBaseGameEntity@@@Z ; std::make_pair<int,BaseGameEntity * &>
	add	esp, 12					; 0000000cH
	push	eax
	lea	eax, DWORD PTR $T1[ebp]
	push	eax
	mov	ecx, DWORD PTR _this$[ebp]
	call	??$insert@U?$pair@HPAVBaseGameEntity@@@std@@$0A@@?$map@HPAVBaseGameEntity@@U?$less@H@std@@V?$allocator@U?$pair@$$CBHPAVBaseGameEntity@@@std@@@3@@std@@QAE?AU?$pair@V?$_Tree_iterator@V?$_Tree_val@U?$_Tree_simple_types@U?$pair@$$CBHPAVBaseGameEntity@@@std@@@std@@@std@@@std@@_N@1@$$QAU?$pair@HPAVBaseGameEntity@@@1@@Z ; std::map<int,BaseGameEntity *,std::less<int>,std::allocator<std::pair<int const ,BaseGameEntity *> > >::insert<std::pair<int,BaseGameEntity *>,0>
	lea	ecx, DWORD PTR $T1[ebp]
	call	??1?$pair@V?$_Tree_iterator@V?$_Tree_val@U?$_Tree_simple_types@U?$pair@$$CBHPAVBaseGameEntity@@@std@@@std@@@std@@@std@@_N@std@@QAE@XZ
	npad	1

; 41   : }

	add	esp, 32					; 00000020H
	cmp	ebp, esp
	call	__RTC_CheckEsp
	mov	esp, ebp
	pop	ebp
	ret	4
?RegisterEntity@EntityManager@@QAEXPAVBaseGameEntity@@@Z ENDP ; EntityManager::RegisterEntity
_TEXT	ENDS
; Function compile flags: /Odtp /RTCsu
; File C:\Users\Hamzzi\Desktop\AI_Practice\Source\VS2010\Common\Game\EntityManager.cpp
_TEXT	SEGMENT
__$EHRec$ = -12						; size = 12
?Instance@EntityManager@@SAPAV1@XZ PROC			; EntityManager::Instance

; 10   : {

	push	ebp
	mov	ebp, esp
	push	-1
	push	__ehhandler$?Instance@EntityManager@@SAPAV1@XZ
	mov	eax, DWORD PTR fs:0
	push	eax
	mov	eax, DWORD PTR ___security_cookie
	xor	eax, ebp
	push	eax
	lea	eax, DWORD PTR __$EHRec$[ebp]
	mov	DWORD PTR fs:0, eax

; 11   :   static EntityManager instance;

	mov	eax, DWORD PTR __tls_index
	mov	ecx, DWORD PTR fs:__tls_array
	mov	edx, DWORD PTR [ecx+eax*4]
	mov	eax, DWORD PTR ?$TSS0@?1??Instance@EntityManager@@SAPAV2@XZ@4HA
	cmp	eax, DWORD PTR __Init_thread_epoch[edx]
	jle	SHORT $LN2@Instance
	push	OFFSET ?$TSS0@?1??Instance@EntityManager@@SAPAV2@XZ@4HA
	call	__Init_thread_header
	add	esp, 4
	cmp	DWORD PTR ?$TSS0@?1??Instance@EntityManager@@SAPAV2@XZ@4HA, -1
	jne	SHORT $LN2@Instance
	mov	DWORD PTR __$EHRec$[ebp+8], 0
	mov	ecx, OFFSET ?instance@?1??Instance@EntityManager@@SAPAV2@XZ@4V2@A
	call	??0EntityManager@@AAE@XZ		; EntityManager::EntityManager
	push	OFFSET ??__Finstance@?1??Instance@EntityManager@@SAPAV1@XZ@YAXXZ ; `EntityManager::Instance'::`2'::`dynamic atexit destructor for 'instance''
	call	_atexit
	add	esp, 4
	mov	DWORD PTR __$EHRec$[ebp+8], -1
	push	OFFSET ?$TSS0@?1??Instance@EntityManager@@SAPAV2@XZ@4HA
	call	__Init_thread_footer
	add	esp, 4
$LN2@Instance:

; 12   : 
; 13   :   return &instance;

	mov	eax, OFFSET ?instance@?1??Instance@EntityManager@@SAPAV2@XZ@4V2@A

; 14   : }

	mov	ecx, DWORD PTR __$EHRec$[ebp]
	mov	DWORD PTR fs:0, ecx
	pop	ecx
	add	esp, 12					; 0000000cH
	cmp	ebp, esp
	call	__RTC_CheckEsp
	mov	esp, ebp
	pop	ebp
	ret	0
_TEXT	ENDS
text$x	SEGMENT
__unwindfunclet$?Instance@EntityManager@@SAPAV1@XZ$0:
	push	OFFSET ?$TSS0@?1??Instance@EntityManager@@SAPAV2@XZ@4HA
	call	__Init_thread_abort
	pop	ecx
	ret	0
	int	3
	int	3
	int	3
	int	3
	int	3
__ehhandler$?Instance@EntityManager@@SAPAV1@XZ:
	npad	1
	npad	1
	mov	edx, DWORD PTR [esp+8]
	lea	eax, DWORD PTR [edx+12]
	mov	ecx, DWORD PTR [edx-4]
	xor	ecx, eax
	call	@__security_check_cookie@4
	mov	eax, OFFSET __ehfuncinfo$?Instance@EntityManager@@SAPAV1@XZ
	jmp	___CxxFrameHandler3
text$x	ENDS
?Instance@EntityManager@@SAPAV1@XZ ENDP			; EntityManager::Instance
; Function compile flags: /Odtp /RTCsu
; File C:\Users\Hamzzi\Desktop\AI_Practice\Source\VS2010\Common\game\EntityManager.h
;	COMDAT ??0EntityManager@@AAE@XZ
_TEXT	SEGMENT
_this$ = -4						; size = 4
??0EntityManager@@AAE@XZ PROC				; EntityManager::EntityManager, COMDAT
; _this$ = ecx

; 36   :   EntityManager(){}

	push	ebp
	mov	ebp, esp
	push	ecx
	mov	DWORD PTR [ebp-4], -858993460		; ccccccccH
	mov	DWORD PTR _this$[ebp], ecx
	mov	ecx, DWORD PTR _this$[ebp]
	call	??0?$map@HPAVBaseGameEntity@@U?$less@H@std@@V?$allocator@U?$pair@$$CBHPAVBaseGameEntity@@@std@@@3@@std@@QAE@XZ ; std::map<int,BaseGameEntity *,std::less<int>,std::allocator<std::pair<int const ,BaseGameEntity *> > >::map<int,BaseGameEntity *,std::less<int>,std::allocator<std::pair<int const ,BaseGameEntity *> > >
	npad	1
	mov	eax, DWORD PTR _this$[ebp]
	add	esp, 4
	cmp	ebp, esp
	call	__RTC_CheckEsp
	mov	esp, ebp
	pop	ebp
	ret	0
??0EntityManager@@AAE@XZ ENDP				; EntityManager::EntityManager
_TEXT	ENDS
; Function compile flags: /Odtp /RTCsu
;	COMDAT ??1?$map@HPAVBaseGameEntity@@U?$less@H@std@@V?$allocator@U?$pair@$$CBHPAVBaseGameEntity@@@std@@@3@@std@@QAE@XZ
_TEXT	SEGMENT
_this$ = -4						; size = 4
??1?$map@HPAVBaseGameEntity@@U?$less@H@std@@V?$allocator@U?$pair@$$CBHPAVBaseGameEntity@@@std@@@3@@std@@QAE@XZ PROC ; std::map<int,BaseGameEntity *,std::less<int>,std::allocator<std::pair<int const ,BaseGameEntity *> > >::~map<int,BaseGameEntity *,std::less<int>,std::allocator<std::pair<int const ,BaseGameEntity *> > >, COMDAT
; _this$ = ecx
	push	ebp
	mov	ebp, esp
	push	ecx
	mov	DWORD PTR [ebp-4], -858993460		; ccccccccH
	mov	DWORD PTR _this$[ebp], ecx
	mov	ecx, DWORD PTR _this$[ebp]
	call	??1?$_Tree@V?$_Tmap_traits@HPAVBaseGameEntity@@U?$less@H@std@@V?$allocator@U?$pair@$$CBHPAVBaseGameEntity@@@std@@@3@$0A@@std@@@std@@QAE@XZ ; std::_Tree<std::_Tmap_traits<int,BaseGameEntity *,std::less<int>,std::allocator<std::pair<int const ,BaseGameEntity *> >,0> >::~_Tree<std::_Tmap_traits<int,BaseGameEntity *,std::less<int>,std::allocator<std::pair<int const ,BaseGameEntity *> >,0> >
	npad	1
	add	esp, 4
	cmp	ebp, esp
	call	__RTC_CheckEsp
	mov	esp, ebp
	pop	ebp
	ret	0
??1?$map@HPAVBaseGameEntity@@U?$less@H@std@@V?$allocator@U?$pair@$$CBHPAVBaseGameEntity@@@std@@@3@@std@@QAE@XZ ENDP ; std::map<int,BaseGameEntity *,std::less<int>,std::allocator<std::pair<int const ,BaseGameEntity *> > >::~map<int,BaseGameEntity *,std::less<int>,std::allocator<std::pair<int const ,BaseGameEntity *> > >
_TEXT	ENDS
; Function compile flags: /Odtp /RTCsu
; File C:\Program Files\Microsoft Visual Studio\2022\Community\VC\Tools\MSVC\14.44.35207\include\map
;	COMDAT ??0?$map@HPAVBaseGameEntity@@U?$less@H@std@@V?$allocator@U?$pair@$$CBHPAVBaseGameEntity@@@std@@@3@@std@@QAE@XZ
_TEXT	SEGMENT
$T1 = -5						; size = 1
_this$ = -4						; size = 4
??0?$map@HPAVBaseGameEntity@@U?$less@H@std@@V?$allocator@U?$pair@$$CBHPAVBaseGameEntity@@@std@@@3@@std@@QAE@XZ PROC ; std::map<int,BaseGameEntity *,std::less<int>,std::allocator<std::pair<int const ,BaseGameEntity *> > >::map<int,BaseGameEntity *,std::less<int>,std::allocator<std::pair<int const ,BaseGameEntity *> > >, COMDAT
; _this$ = ecx

; 106  :     map() : _Mybase(key_compare()) {}

	push	ebp
	mov	ebp, esp
	sub	esp, 8
	mov	DWORD PTR [ebp-8], -858993460		; ccccccccH
	mov	DWORD PTR [ebp-4], -858993460		; ccccccccH
	mov	DWORD PTR _this$[ebp], ecx
	lea	eax, DWORD PTR $T1[ebp]
	push	eax
	mov	ecx, DWORD PTR _this$[ebp]
	call	??0?$_Tree@V?$_Tmap_traits@HPAVBaseGameEntity@@U?$less@H@std@@V?$allocator@U?$pair@$$CBHPAVBaseGameEntity@@@std@@@3@$0A@@std@@@std@@QAE@ABU?$less@H@1@@Z ; std::_Tree<std::_Tmap_traits<int,BaseGameEntity *,std::less<int>,std::allocator<std::pair<int const ,BaseGameEntity *> >,0> >::_Tree<std::_Tmap_traits<int,BaseGameEntity *,std::less<int>,std::allocator<std::pair<int const ,BaseGameEntity *> >,0> >
	npad	1
	mov	eax, DWORD PTR _this$[ebp]
	add	esp, 8
	cmp	ebp, esp
	call	__RTC_CheckEsp
	mov	esp, ebp
	pop	ebp
	ret	0
??0?$map@HPAVBaseGameEntity@@U?$less@H@std@@V?$allocator@U?$pair@$$CBHPAVBaseGameEntity@@@std@@@3@@std@@QAE@XZ ENDP ; std::map<int,BaseGameEntity *,std::less<int>,std::allocator<std::pair<int const ,BaseGameEntity *> > >::map<int,BaseGameEntity *,std::less<int>,std::allocator<std::pair<int const ,BaseGameEntity *> > >
_TEXT	ENDS
; Function compile flags: /Odtp /RTCsu
; File C:\Program Files\Microsoft Visual Studio\2022\Community\VC\Tools\MSVC\14.44.35207\include\xmemory
;	COMDAT ?_Get_first@?$_Compressed_pair@U?$less@H@std@@V?$_Compressed_pair@V?$allocator@U?$_Tree_node@U?$pair@$$CBHPAVBaseGameEntity@@@std@@PAX@std@@@std@@V?$_Tree_val@U?$_Tree_simple_types@U?$pair@$$CBHPAVBaseGameEntity@@@std@@@std@@@2@$00@2@$00@std@@QBEABU?$less@H@2@XZ
_TEXT	SEGMENT
_this$ = -4						; size = 4
?_Get_first@?$_Compressed_pair@U?$less@H@std@@V?$_Compressed_pair@V?$allocator@U?$_Tree_node@U?$pair@$$CBHPAVBaseGameEntity@@@std@@PAX@std@@@std@@V?$_Tree_val@U?$_Tree_simple_types@U?$pair@$$CBHPAVBaseGameEntity@@@std@@@std@@@2@$00@2@$00@std@@QBEABU?$less@H@2@XZ PROC ; std::_Compressed_pair<std::less<int>,std::_Compressed_pair<std::allocator<std::_Tree_node<std::pair<int const ,BaseGameEntity *>,void *> >,std::_Tree_val<std::_Tree_simple_types<std::pair<int const ,BaseGameEntity *> > >,1>,1>::_Get_first, COMDAT
; _this$ = ecx

; 1542 :     constexpr const _Ty1& _Get_first() const noexcept {

	push	ebp
	mov	ebp, esp
	push	ecx
	mov	DWORD PTR _this$[ebp], ecx

; 1543 :         return *this;

	mov	eax, DWORD PTR _this$[ebp]

; 1544 :     }

	mov	esp, ebp
	pop	ebp
	ret	0
?_Get_first@?$_Compressed_pair@U?$less@H@std@@V?$_Compressed_pair@V?$allocator@U?$_Tree_node@U?$pair@$$CBHPAVBaseGameEntity@@@std@@PAX@std@@@std@@V?$_Tree_val@U?$_Tree_simple_types@U?$pair@$$CBHPAVBaseGameEntity@@@std@@@std@@@2@$00@2@$00@std@@QBEABU?$less@H@2@XZ ENDP ; std::_Compressed_pair<std::less<int>,std::_Compressed_pair<std::allocator<std::_Tree_node<std::pair<int const ,BaseGameEntity *>,void *> >,std::_Tree_val<std::_Tree_simple_types<std::pair<int const ,BaseGameEntity *> > >,1>,1>::_Get_first
_TEXT	ENDS
; Function compile flags: /Odtp /RTCsu
; File C:\Program Files\Microsoft Visual Studio\2022\Community\VC\Tools\MSVC\14.44.35207\include\xmemory
;	COMDAT ?_Get_first@?$_Compressed_pair@V?$allocator@U?$_Tree_node@U?$pair@$$CBHPAVBaseGameEntity@@@std@@PAX@std@@@std@@V?$_Tree_val@U?$_Tree_simple_types@U?$pair@$$CBHPAVBaseGameEntity@@@std@@@std@@@2@$00@std@@QBEABV?$allocator@U?$_Tree_node@U?$pair@$$CBHPAVBaseGameEntity@@@std@@PAX@std@@@2@XZ
_TEXT	SEGMENT
_this$ = -4						; size = 4
?_Get_first@?$_Compressed_pair@V?$allocator@U?$_Tree_node@U?$pair@$$CBHPAVBaseGameEntity@@@std@@PAX@std@@@std@@V?$_Tree_val@U?$_Tree_simple_types@U?$pair@$$CBHPAVBaseGameEntity@@@std@@@std@@@2@$00@std@@QBEABV?$allocator@U?$_Tree_node@U?$pair@$$CBHPAVBaseGameEntity@@@std@@PAX@std@@@2@XZ PROC ; std::_Compressed_pair<std::allocator<std::_Tree_node<std::pair<int const ,BaseGameEntity *>,void *> >,std::_Tree_val<std::_Tree_simple_types<std::pair<int const ,BaseGameEntity *> > >,1>::_Get_first, COMDAT
; _this$ = ecx

; 1542 :     constexpr const _Ty1& _Get_first() const noexcept {

	push	ebp
	mov	ebp, esp
	push	ecx
	mov	DWORD PTR _this$[ebp], ecx

; 1543 :         return *this;

	mov	eax, DWORD PTR _this$[ebp]

; 1544 :     }

	mov	esp, ebp
	pop	ebp
	ret	0
?_Get_first@?$_Compressed_pair@V?$allocator@U?$_Tree_node@U?$pair@$$CBHPAVBaseGameEntity@@@std@@PAX@std@@@std@@V?$_Tree_val@U?$_Tree_simple_types@U?$pair@$$CBHPAVBaseGameEntity@@@std@@@std@@@2@$00@std@@QBEABV?$allocator@U?$_Tree_node@U?$pair@$$CBHPAVBaseGameEntity@@@std@@PAX@std@@@2@XZ ENDP ; std::_Compressed_pair<std::allocator<std::_Tree_node<std::pair<int const ,BaseGameEntity *>,void *> >,std::_Tree_val<std::_Tree_simple_types<std::pair<int const ,BaseGameEntity *> > >,1>::_Get_first
_TEXT	ENDS
; Function compile flags: /Odtp /RTCsu
; File C:\Program Files\Microsoft Visual Studio\2022\Community\VC\Tools\MSVC\14.44.35207\include\xmemory
;	COMDAT ?_Get_first@?$_Compressed_pair@V?$allocator@U?$_Tree_node@U?$pair@$$CBHPAVBaseGameEntity@@@std@@PAX@std@@@std@@V?$_Tree_val@U?$_Tree_simple_types@U?$pair@$$CBHPAVBaseGameEntity@@@std@@@std@@@2@$00@std@@QAEAAV?$allocator@U?$_Tree_node@U?$pair@$$CBHPAVBaseGameEntity@@@std@@PAX@std@@@2@XZ
_TEXT	SEGMENT
_this$ = -4						; size = 4
?_Get_first@?$_Compressed_pair@V?$allocator@U?$_Tree_node@U?$pair@$$CBHPAVBaseGameEntity@@@std@@PAX@std@@@std@@V?$_Tree_val@U?$_Tree_simple_types@U?$pair@$$CBHPAVBaseGameEntity@@@std@@@std@@@2@$00@std@@QAEAAV?$allocator@U?$_Tree_node@U?$pair@$$CBHPAVBaseGameEntity@@@std@@PAX@std@@@2@XZ PROC ; std::_Compressed_pair<std::allocator<std::_Tree_node<std::pair<int const ,BaseGameEntity *>,void *> >,std::_Tree_val<std::_Tree_simple_types<std::pair<int const ,BaseGameEntity *> > >,1>::_Get_first, COMDAT
; _this$ = ecx

; 1538 :     constexpr _Ty1& _Get_first() noexcept {

	push	ebp
	mov	ebp, esp
	push	ecx
	mov	DWORD PTR _this$[ebp], ecx

; 1539 :         return *this;

	mov	eax, DWORD PTR _this$[ebp]

; 1540 :     }

	mov	esp, ebp
	pop	ebp
	ret	0
?_Get_first@?$_Compressed_pair@V?$allocator@U?$_Tree_node@U?$pair@$$CBHPAVBaseGameEntity@@@std@@PAX@std@@@std@@V?$_Tree_val@U?$_Tree_simple_types@U?$pair@$$CBHPAVBaseGameEntity@@@std@@@std@@@2@$00@std@@QAEAAV?$allocator@U?$_Tree_node@U?$pair@$$CBHPAVBaseGameEntity@@@std@@PAX@std@@@2@XZ ENDP ; std::_Compressed_pair<std::allocator<std::_Tree_node<std::pair<int const ,BaseGameEntity *>,void *> >,std::_Tree_val<std::_Tree_simple_types<std::pair<int const ,BaseGameEntity *> > >,1>::_Get_first
_TEXT	ENDS
; Function compile flags: /Odtp /RTCsu
; File C:\Program Files\Microsoft Visual Studio\2022\Community\VC\Tools\MSVC\14.44.35207\include\xtree
;	COMDAT ?_Orphan_ptr@?$_Tree_val@U?$_Tree_simple_types@U?$pair@$$CBHPAVBaseGameEntity@@@std@@@std@@@std@@QAEXQAU?$_Tree_node@U?$pair@$$CBHPAVBaseGameEntity@@@std@@PAX@2@@Z
_TEXT	SEGMENT
__Pnextptr$1 = -24					; size = 4
__Pnext$ = -20						; size = 4
__Lock$ = -12						; size = 4
_this$ = -4						; size = 4
__Ptr$ = 8						; size = 4
?_Orphan_ptr@?$_Tree_val@U?$_Tree_simple_types@U?$pair@$$CBHPAVBaseGameEntity@@@std@@@std@@@std@@QAEXQAU?$_Tree_node@U?$pair@$$CBHPAVBaseGameEntity@@@std@@PAX@2@@Z PROC ; std::_Tree_val<std::_Tree_simple_types<std::pair<int const ,BaseGameEntity *> > >::_Orphan_ptr, COMDAT
; _this$ = ecx

; 738  :     void _Orphan_ptr(const _Nodeptr _Ptr) noexcept {

	push	ebp
	mov	ebp, esp
	sub	esp, 24					; 00000018H
	mov	eax, -858993460				; ccccccccH
	mov	DWORD PTR [ebp-24], eax
	mov	DWORD PTR [ebp-20], eax
	mov	DWORD PTR [ebp-16], eax
	mov	DWORD PTR [ebp-12], eax
	mov	DWORD PTR [ebp-8], eax
	mov	DWORD PTR [ebp-4], eax
	mov	DWORD PTR _this$[ebp], ecx

; 739  : #if _ITERATOR_DEBUG_LEVEL == 2
; 740  :         _Lockit _Lock(_LOCK_DEBUG);

	push	3
	lea	ecx, DWORD PTR __Lock$[ebp]
	call	??0_Lockit@std@@QAE@H@Z			; std::_Lockit::_Lockit

; 741  :         _Iterator_base12** _Pnext = &this->_Myproxy->_Myfirstiter;

	mov	eax, DWORD PTR _this$[ebp]
	mov	ecx, DWORD PTR [eax]
	add	ecx, 4
	mov	DWORD PTR __Pnext$[ebp], ecx
$LN2@Orphan_ptr:

; 742  :         while (*_Pnext) {

	mov	edx, DWORD PTR __Pnext$[ebp]
	cmp	DWORD PTR [edx], 0
	je	SHORT $LN3@Orphan_ptr

; 743  :             const auto _Pnextptr = static_cast<const_iterator&>(**_Pnext)._Ptr;

	mov	eax, DWORD PTR __Pnext$[ebp]
	mov	ecx, DWORD PTR [eax]
	mov	edx, DWORD PTR [ecx+8]
	mov	DWORD PTR __Pnextptr$1[ebp], edx

; 744  :             if (_Pnextptr == _Myhead || (_Ptr != nullptr && _Pnextptr != _Ptr)) {

	mov	eax, DWORD PTR _this$[ebp]
	mov	ecx, DWORD PTR __Pnextptr$1[ebp]
	cmp	ecx, DWORD PTR [eax+4]
	je	SHORT $LN6@Orphan_ptr
	cmp	DWORD PTR __Ptr$[ebp], 0
	je	SHORT $LN4@Orphan_ptr
	mov	edx, DWORD PTR __Pnextptr$1[ebp]
	cmp	edx, DWORD PTR __Ptr$[ebp]
	je	SHORT $LN4@Orphan_ptr
$LN6@Orphan_ptr:

; 745  :                 _Pnext = &(*_Pnext)->_Mynextiter;

	mov	eax, DWORD PTR __Pnext$[ebp]
	mov	ecx, DWORD PTR [eax]
	add	ecx, 4
	mov	DWORD PTR __Pnext$[ebp], ecx

; 746  :             } else { // orphan the iterator

	jmp	SHORT $LN5@Orphan_ptr
$LN4@Orphan_ptr:

; 747  :                 (*_Pnext)->_Myproxy = nullptr;

	mov	edx, DWORD PTR __Pnext$[ebp]
	mov	eax, DWORD PTR [edx]
	mov	DWORD PTR [eax], 0

; 748  :                 *_Pnext             = (*_Pnext)->_Mynextiter;

	mov	ecx, DWORD PTR __Pnext$[ebp]
	mov	edx, DWORD PTR [ecx]
	mov	eax, DWORD PTR __Pnext$[ebp]
	mov	ecx, DWORD PTR [edx+4]
	mov	DWORD PTR [eax], ecx
$LN5@Orphan_ptr:

; 749  :             }
; 750  :         }

	jmp	SHORT $LN2@Orphan_ptr
$LN3@Orphan_ptr:

; 751  : #else // ^^^ _ITERATOR_DEBUG_LEVEL == 2 / _ITERATOR_DEBUG_LEVEL != 2 vvv
; 752  :         (void) _Ptr;
; 753  : #endif // ^^^ _ITERATOR_DEBUG_LEVEL != 2 ^^^
; 754  :     }

	lea	ecx, DWORD PTR __Lock$[ebp]
	call	??1_Lockit@std@@QAE@XZ			; std::_Lockit::~_Lockit
	npad	1
	push	edx
	mov	ecx, ebp
	push	eax
	lea	edx, DWORD PTR $LN11@Orphan_ptr
	call	@_RTC_CheckStackVars@8
	pop	eax
	pop	edx
	add	esp, 24					; 00000018H
	cmp	ebp, esp
	call	__RTC_CheckEsp
	mov	esp, ebp
	pop	ebp
	ret	4
	npad	2
$LN11@Orphan_ptr:
	DD	1
	DD	$LN10@Orphan_ptr
$LN10@Orphan_ptr:
	DD	-12					; fffffff4H
	DD	4
	DD	$LN9@Orphan_ptr
$LN9@Orphan_ptr:
	DB	95					; 0000005fH
	DB	76					; 0000004cH
	DB	111					; 0000006fH
	DB	99					; 00000063H
	DB	107					; 0000006bH
	DB	0
?_Orphan_ptr@?$_Tree_val@U?$_Tree_simple_types@U?$pair@$$CBHPAVBaseGameEntity@@@std@@@std@@@std@@QAEXQAU?$_Tree_node@U?$pair@$$CBHPAVBaseGameEntity@@@std@@PAX@2@@Z ENDP ; std::_Tree_val<std::_Tree_simple_types<std::pair<int const ,BaseGameEntity *> > >::_Orphan_ptr
_TEXT	ENDS
; Function compile flags: /Odtp /RTCsu
; File C:\Program Files\Microsoft Visual Studio\2022\Community\VC\Tools\MSVC\14.44.35207\include\xtree
;	COMDAT ?_Insert_node@?$_Tree_val@U?$_Tree_simple_types@U?$pair@$$CBHPAVBaseGameEntity@@@std@@@std@@@std@@QAEPAU?$_Tree_node@U?$pair@$$CBHPAVBaseGameEntity@@@std@@PAX@2@U?$_Tree_id@PAU?$_Tree_node@U?$pair@$$CBHPAVBaseGameEntity@@@std@@PAX@std@@@2@QAU32@@Z
_TEXT	SEGMENT
__Parent_sibling$1 = -20				; size = 4
__Parent_sibling$2 = -16				; size = 4
__Pnode$3 = -12						; size = 4
__Head$ = -8						; size = 4
_this$ = -4						; size = 4
__Loc$ = 8						; size = 8
__Newnode$ = 16						; size = 4
?_Insert_node@?$_Tree_val@U?$_Tree_simple_types@U?$pair@$$CBHPAVBaseGameEntity@@@std@@@std@@@std@@QAEPAU?$_Tree_node@U?$pair@$$CBHPAVBaseGameEntity@@@std@@PAX@2@U?$_Tree_id@PAU?$_Tree_node@U?$pair@$$CBHPAVBaseGameEntity@@@std@@PAX@std@@@2@QAU32@@Z PROC ; std::_Tree_val<std::_Tree_simple_types<std::pair<int const ,BaseGameEntity *> > >::_Insert_node, COMDAT
; _this$ = ecx

; 669  :     _Nodeptr _Insert_node(const _Tree_id<_Nodeptr> _Loc, const _Nodeptr _Newnode) noexcept {

	push	ebp
	mov	ebp, esp
	sub	esp, 20					; 00000014H
	mov	eax, -858993460				; ccccccccH
	mov	DWORD PTR [ebp-20], eax
	mov	DWORD PTR [ebp-16], eax
	mov	DWORD PTR [ebp-12], eax
	mov	DWORD PTR [ebp-8], eax
	mov	DWORD PTR [ebp-4], eax
	mov	DWORD PTR _this$[ebp], ecx

; 670  :         ++_Mysize;

	mov	eax, DWORD PTR _this$[ebp]
	mov	ecx, DWORD PTR [eax+8]
	add	ecx, 1
	mov	edx, DWORD PTR _this$[ebp]
	mov	DWORD PTR [edx+8], ecx

; 671  :         const auto _Head  = _Myhead;

	mov	eax, DWORD PTR _this$[ebp]
	mov	ecx, DWORD PTR [eax+4]
	mov	DWORD PTR __Head$[ebp], ecx

; 672  :         _Newnode->_Parent = _Loc._Parent;

	mov	edx, DWORD PTR __Newnode$[ebp]
	mov	eax, DWORD PTR __Loc$[ebp]
	mov	DWORD PTR [edx+4], eax

; 673  :         if (_Loc._Parent == _Head) { // first node in tree, just set head values

	mov	ecx, DWORD PTR __Loc$[ebp]
	cmp	ecx, DWORD PTR __Head$[ebp]
	jne	SHORT $LN5@Insert_nod

; 674  :             _Head->_Left     = _Newnode;

	mov	edx, DWORD PTR __Head$[ebp]
	mov	eax, DWORD PTR __Newnode$[ebp]
	mov	DWORD PTR [edx], eax

; 675  :             _Head->_Parent   = _Newnode;

	mov	ecx, DWORD PTR __Head$[ebp]
	mov	edx, DWORD PTR __Newnode$[ebp]
	mov	DWORD PTR [ecx+4], edx

; 676  :             _Head->_Right    = _Newnode;

	mov	eax, DWORD PTR __Head$[ebp]
	mov	ecx, DWORD PTR __Newnode$[ebp]
	mov	DWORD PTR [eax+8], ecx

; 677  :             _Newnode->_Color = _Black; // the root is black

	mov	edx, DWORD PTR __Newnode$[ebp]
	mov	BYTE PTR [edx+12], 1

; 678  :             return _Newnode;

	mov	eax, DWORD PTR __Newnode$[ebp]
	jmp	$LN1@Insert_nod
$LN5@Insert_nod:

; 679  :         }
; 680  : 
; 681  :         _STL_INTERNAL_CHECK(_Loc._Child != _Tree_child::_Unused);
; 682  :         if (_Loc._Child == _Tree_child::_Right) { // add to right of _Loc._Parent

	cmp	DWORD PTR __Loc$[ebp+4], 0
	jne	SHORT $LN6@Insert_nod

; 683  :             _STL_INTERNAL_CHECK(_Loc._Parent->_Right->_Isnil);
; 684  :             _Loc._Parent->_Right = _Newnode;

	mov	eax, DWORD PTR __Loc$[ebp]
	mov	ecx, DWORD PTR __Newnode$[ebp]
	mov	DWORD PTR [eax+8], ecx

; 685  :             if (_Loc._Parent == _Head->_Right) { // remember rightmost node

	mov	edx, DWORD PTR __Head$[ebp]
	mov	eax, DWORD PTR __Loc$[ebp]
	cmp	eax, DWORD PTR [edx+8]
	jne	SHORT $LN8@Insert_nod

; 686  :                 _Head->_Right = _Newnode;

	mov	ecx, DWORD PTR __Head$[ebp]
	mov	edx, DWORD PTR __Newnode$[ebp]
	mov	DWORD PTR [ecx+8], edx
$LN8@Insert_nod:

; 687  :             }
; 688  :         } else { // add to left of _Loc._Parent

	jmp	SHORT $LN9@Insert_nod
$LN6@Insert_nod:

; 689  :             _STL_INTERNAL_CHECK(_Loc._Parent->_Left->_Isnil);
; 690  :             _Loc._Parent->_Left = _Newnode;

	mov	eax, DWORD PTR __Loc$[ebp]
	mov	ecx, DWORD PTR __Newnode$[ebp]
	mov	DWORD PTR [eax], ecx

; 691  :             if (_Loc._Parent == _Head->_Left) { // remember leftmost node

	mov	edx, DWORD PTR __Head$[ebp]
	mov	eax, DWORD PTR __Loc$[ebp]
	cmp	eax, DWORD PTR [edx]
	jne	SHORT $LN9@Insert_nod

; 692  :                 _Head->_Left = _Newnode;

	mov	ecx, DWORD PTR __Head$[ebp]
	mov	edx, DWORD PTR __Newnode$[ebp]
	mov	DWORD PTR [ecx], edx
$LN9@Insert_nod:

; 693  :             }
; 694  :         }
; 695  : 
; 696  :         for (_Nodeptr _Pnode = _Newnode; _Pnode->_Parent->_Color == _Red;) {

	mov	eax, DWORD PTR __Newnode$[ebp]
	mov	DWORD PTR __Pnode$3[ebp], eax
$LN2@Insert_nod:
	mov	ecx, DWORD PTR __Pnode$3[ebp]
	mov	edx, DWORD PTR [ecx+4]
	movsx	eax, BYTE PTR [edx+12]
	test	eax, eax
	jne	$LN3@Insert_nod

; 697  :             if (_Pnode->_Parent == _Pnode->_Parent->_Parent->_Left) { // fixup red-red in left subtree

	mov	ecx, DWORD PTR __Pnode$3[ebp]
	mov	edx, DWORD PTR [ecx+4]
	mov	eax, DWORD PTR [edx+4]
	mov	ecx, DWORD PTR __Pnode$3[ebp]
	mov	edx, DWORD PTR [ecx+4]
	cmp	edx, DWORD PTR [eax]
	jne	$LN10@Insert_nod

; 698  :                 const auto _Parent_sibling = _Pnode->_Parent->_Parent->_Right;

	mov	eax, DWORD PTR __Pnode$3[ebp]
	mov	ecx, DWORD PTR [eax+4]
	mov	edx, DWORD PTR [ecx+4]
	mov	eax, DWORD PTR [edx+8]
	mov	DWORD PTR __Parent_sibling$2[ebp], eax

; 699  :                 if (_Parent_sibling->_Color == _Red) { // parent's sibling has two red children, blacken both

	mov	ecx, DWORD PTR __Parent_sibling$2[ebp]
	movsx	edx, BYTE PTR [ecx+12]
	test	edx, edx
	jne	SHORT $LN12@Insert_nod

; 700  :                     _Pnode->_Parent->_Color          = _Black;

	mov	eax, DWORD PTR __Pnode$3[ebp]
	mov	ecx, DWORD PTR [eax+4]
	mov	BYTE PTR [ecx+12], 1

; 701  :                     _Parent_sibling->_Color          = _Black;

	mov	edx, DWORD PTR __Parent_sibling$2[ebp]
	mov	BYTE PTR [edx+12], 1

; 702  :                     _Pnode->_Parent->_Parent->_Color = _Red;

	mov	eax, DWORD PTR __Pnode$3[ebp]
	mov	ecx, DWORD PTR [eax+4]
	mov	edx, DWORD PTR [ecx+4]
	mov	BYTE PTR [edx+12], 0

; 703  :                     _Pnode                           = _Pnode->_Parent->_Parent;

	mov	eax, DWORD PTR __Pnode$3[ebp]
	mov	ecx, DWORD PTR [eax+4]
	mov	edx, DWORD PTR [ecx+4]
	mov	DWORD PTR __Pnode$3[ebp], edx

; 704  :                 } else { // parent's sibling has red and black children

	jmp	SHORT $LN13@Insert_nod
$LN12@Insert_nod:

; 705  :                     if (_Pnode == _Pnode->_Parent->_Right) { // rotate right child to left

	mov	eax, DWORD PTR __Pnode$3[ebp]
	mov	ecx, DWORD PTR [eax+4]
	mov	edx, DWORD PTR __Pnode$3[ebp]
	cmp	edx, DWORD PTR [ecx+8]
	jne	SHORT $LN14@Insert_nod

; 706  :                         _Pnode = _Pnode->_Parent;

	mov	eax, DWORD PTR __Pnode$3[ebp]
	mov	ecx, DWORD PTR [eax+4]
	mov	DWORD PTR __Pnode$3[ebp], ecx

; 707  :                         _Lrotate(_Pnode);

	mov	edx, DWORD PTR __Pnode$3[ebp]
	push	edx
	mov	ecx, DWORD PTR _this$[ebp]
	call	?_Lrotate@?$_Tree_val@U?$_Tree_simple_types@U?$pair@$$CBHPAVBaseGameEntity@@@std@@@std@@@std@@QAEXPAU?$_Tree_node@U?$pair@$$CBHPAVBaseGameEntity@@@std@@PAX@2@@Z ; std::_Tree_val<std::_Tree_simple_types<std::pair<int const ,BaseGameEntity *> > >::_Lrotate
	npad	1
$LN14@Insert_nod:

; 708  :                     }
; 709  : 
; 710  :                     _Pnode->_Parent->_Color          = _Black; // propagate red up

	mov	eax, DWORD PTR __Pnode$3[ebp]
	mov	ecx, DWORD PTR [eax+4]
	mov	BYTE PTR [ecx+12], 1

; 711  :                     _Pnode->_Parent->_Parent->_Color = _Red;

	mov	edx, DWORD PTR __Pnode$3[ebp]
	mov	eax, DWORD PTR [edx+4]
	mov	ecx, DWORD PTR [eax+4]
	mov	BYTE PTR [ecx+12], 0

; 712  :                     _Rrotate(_Pnode->_Parent->_Parent);

	mov	edx, DWORD PTR __Pnode$3[ebp]
	mov	eax, DWORD PTR [edx+4]
	mov	ecx, DWORD PTR [eax+4]
	push	ecx
	mov	ecx, DWORD PTR _this$[ebp]
	call	?_Rrotate@?$_Tree_val@U?$_Tree_simple_types@U?$pair@$$CBHPAVBaseGameEntity@@@std@@@std@@@std@@QAEXPAU?$_Tree_node@U?$pair@$$CBHPAVBaseGameEntity@@@std@@PAX@2@@Z ; std::_Tree_val<std::_Tree_simple_types<std::pair<int const ,BaseGameEntity *> > >::_Rrotate
	npad	1
$LN13@Insert_nod:

; 713  :                 }
; 714  :             } else { // fixup red-red in right subtree

	jmp	$LN16@Insert_nod
$LN10@Insert_nod:

; 715  :                 const auto _Parent_sibling = _Pnode->_Parent->_Parent->_Left;

	mov	edx, DWORD PTR __Pnode$3[ebp]
	mov	eax, DWORD PTR [edx+4]
	mov	ecx, DWORD PTR [eax+4]
	mov	edx, DWORD PTR [ecx]
	mov	DWORD PTR __Parent_sibling$1[ebp], edx

; 716  :                 if (_Parent_sibling->_Color == _Red) { // parent's sibling has two red children, blacken both

	mov	eax, DWORD PTR __Parent_sibling$1[ebp]
	movsx	ecx, BYTE PTR [eax+12]
	test	ecx, ecx
	jne	SHORT $LN15@Insert_nod

; 717  :                     _Pnode->_Parent->_Color          = _Black;

	mov	edx, DWORD PTR __Pnode$3[ebp]
	mov	eax, DWORD PTR [edx+4]
	mov	BYTE PTR [eax+12], 1

; 718  :                     _Parent_sibling->_Color          = _Black;

	mov	ecx, DWORD PTR __Parent_sibling$1[ebp]
	mov	BYTE PTR [ecx+12], 1

; 719  :                     _Pnode->_Parent->_Parent->_Color = _Red;

	mov	edx, DWORD PTR __Pnode$3[ebp]
	mov	eax, DWORD PTR [edx+4]
	mov	ecx, DWORD PTR [eax+4]
	mov	BYTE PTR [ecx+12], 0

; 720  :                     _Pnode                           = _Pnode->_Parent->_Parent;

	mov	edx, DWORD PTR __Pnode$3[ebp]
	mov	eax, DWORD PTR [edx+4]
	mov	ecx, DWORD PTR [eax+4]
	mov	DWORD PTR __Pnode$3[ebp], ecx

; 721  :                 } else { // parent's sibling has red and black children

	jmp	SHORT $LN16@Insert_nod
$LN15@Insert_nod:

; 722  :                     if (_Pnode == _Pnode->_Parent->_Left) { // rotate left child to right

	mov	edx, DWORD PTR __Pnode$3[ebp]
	mov	eax, DWORD PTR [edx+4]
	mov	ecx, DWORD PTR __Pnode$3[ebp]
	cmp	ecx, DWORD PTR [eax]
	jne	SHORT $LN17@Insert_nod

; 723  :                         _Pnode = _Pnode->_Parent;

	mov	edx, DWORD PTR __Pnode$3[ebp]
	mov	eax, DWORD PTR [edx+4]
	mov	DWORD PTR __Pnode$3[ebp], eax

; 724  :                         _Rrotate(_Pnode);

	mov	ecx, DWORD PTR __Pnode$3[ebp]
	push	ecx
	mov	ecx, DWORD PTR _this$[ebp]
	call	?_Rrotate@?$_Tree_val@U?$_Tree_simple_types@U?$pair@$$CBHPAVBaseGameEntity@@@std@@@std@@@std@@QAEXPAU?$_Tree_node@U?$pair@$$CBHPAVBaseGameEntity@@@std@@PAX@2@@Z ; std::_Tree_val<std::_Tree_simple_types<std::pair<int const ,BaseGameEntity *> > >::_Rrotate
	npad	1
$LN17@Insert_nod:

; 725  :                     }
; 726  : 
; 727  :                     _Pnode->_Parent->_Color          = _Black; // propagate red up

	mov	edx, DWORD PTR __Pnode$3[ebp]
	mov	eax, DWORD PTR [edx+4]
	mov	BYTE PTR [eax+12], 1

; 728  :                     _Pnode->_Parent->_Parent->_Color = _Red;

	mov	ecx, DWORD PTR __Pnode$3[ebp]
	mov	edx, DWORD PTR [ecx+4]
	mov	eax, DWORD PTR [edx+4]
	mov	BYTE PTR [eax+12], 0

; 729  :                     _Lrotate(_Pnode->_Parent->_Parent);

	mov	ecx, DWORD PTR __Pnode$3[ebp]
	mov	edx, DWORD PTR [ecx+4]
	mov	eax, DWORD PTR [edx+4]
	push	eax
	mov	ecx, DWORD PTR _this$[ebp]
	call	?_Lrotate@?$_Tree_val@U?$_Tree_simple_types@U?$pair@$$CBHPAVBaseGameEntity@@@std@@@std@@@std@@QAEXPAU?$_Tree_node@U?$pair@$$CBHPAVBaseGameEntity@@@std@@PAX@2@@Z ; std::_Tree_val<std::_Tree_simple_types<std::pair<int const ,BaseGameEntity *> > >::_Lrotate
	npad	1
$LN16@Insert_nod:

; 730  :                 }
; 731  :             }
; 732  :         }

	jmp	$LN2@Insert_nod
$LN3@Insert_nod:

; 733  : 
; 734  :         _Head->_Parent->_Color = _Black; // root is always black

	mov	ecx, DWORD PTR __Head$[ebp]
	mov	edx, DWORD PTR [ecx+4]
	mov	BYTE PTR [edx+12], 1

; 735  :         return _Newnode;

	mov	eax, DWORD PTR __Newnode$[ebp]
$LN1@Insert_nod:

; 736  :     }

	add	esp, 20					; 00000014H
	cmp	ebp, esp
	call	__RTC_CheckEsp
	mov	esp, ebp
	pop	ebp
	ret	12					; 0000000cH
?_Insert_node@?$_Tree_val@U?$_Tree_simple_types@U?$pair@$$CBHPAVBaseGameEntity@@@std@@@std@@@std@@QAEPAU?$_Tree_node@U?$pair@$$CBHPAVBaseGameEntity@@@std@@PAX@2@U?$_Tree_id@PAU?$_Tree_node@U?$pair@$$CBHPAVBaseGameEntity@@@std@@PAX@std@@@2@QAU32@@Z ENDP ; std::_Tree_val<std::_Tree_simple_types<std::pair<int const ,BaseGameEntity *> > >::_Insert_node
_TEXT	ENDS
; Function compile flags: /Odtp /RTCsu
; File C:\Program Files\Microsoft Visual Studio\2022\Community\VC\Tools\MSVC\14.44.35207\include\xtree
;	COMDAT ?_Extract@?$_Tree_val@U?$_Tree_simple_types@U?$pair@$$CBHPAVBaseGameEntity@@@std@@@std@@@std@@QAEPAU?$_Tree_node@U?$pair@$$CBHPAVBaseGameEntity@@@std@@PAX@2@V?$_Tree_unchecked_const_iterator@V?$_Tree_val@U?$_Tree_simple_types@U?$pair@$$CBHPAVBaseGameEntity@@@std@@@std@@@std@@U_Iterator_base0@2@@2@@Z
_TEXT	SEGMENT
tv144 = -28						; size = 4
tv133 = -24						; size = 4
__Pnode$ = -20						; size = 4
__Fixnodeparent$ = -16					; size = 4
__Fixnode$ = -12					; size = 4
__Erasednode$ = -8					; size = 4
_this$ = -4						; size = 4
__Where$ = 8						; size = 4
?_Extract@?$_Tree_val@U?$_Tree_simple_types@U?$pair@$$CBHPAVBaseGameEntity@@@std@@@std@@@std@@QAEPAU?$_Tree_node@U?$pair@$$CBHPAVBaseGameEntity@@@std@@PAX@2@V?$_Tree_unchecked_const_iterator@V?$_Tree_val@U?$_Tree_simple_types@U?$pair@$$CBHPAVBaseGameEntity@@@std@@@std@@@std@@U_Iterator_base0@2@@2@@Z PROC ; std::_Tree_val<std::_Tree_simple_types<std::pair<int const ,BaseGameEntity *> > >::_Extract, COMDAT
; _this$ = ecx

; 527  :     _Nodeptr _Extract(_Unchecked_const_iterator _Where) noexcept {

	push	ebp
	mov	ebp, esp
	sub	esp, 28					; 0000001cH
	mov	eax, -858993460				; ccccccccH
	mov	DWORD PTR [ebp-28], eax
	mov	DWORD PTR [ebp-24], eax
	mov	DWORD PTR [ebp-20], eax
	mov	DWORD PTR [ebp-16], eax
	mov	DWORD PTR [ebp-12], eax
	mov	DWORD PTR [ebp-8], eax
	mov	DWORD PTR [ebp-4], eax
	mov	DWORD PTR _this$[ebp], ecx

; 528  :         _Nodeptr _Erasednode = _Where._Ptr; // node to erase

	mov	eax, DWORD PTR __Where$[ebp]
	mov	DWORD PTR __Erasednode$[ebp], eax

; 529  :         ++_Where; // save successor iterator for return

	lea	ecx, DWORD PTR __Where$[ebp]
	call	??E?$_Tree_unchecked_const_iterator@V?$_Tree_val@U?$_Tree_simple_types@U?$pair@$$CBHPAVBaseGameEntity@@@std@@@std@@@std@@U_Iterator_base0@2@@std@@QAEAAV01@XZ ; std::_Tree_unchecked_const_iterator<std::_Tree_val<std::_Tree_simple_types<std::pair<int const ,BaseGameEntity *> > >,std::_Iterator_base0>::operator++

; 530  : 
; 531  :         _Nodeptr _Fixnode; // the node to recolor as needed
; 532  :         _Nodeptr _Fixnodeparent; // parent of _Fixnode (which may be nil)
; 533  :         _Nodeptr _Pnode = _Erasednode;

	mov	ecx, DWORD PTR __Erasednode$[ebp]
	mov	DWORD PTR __Pnode$[ebp], ecx

; 534  : 
; 535  :         if (_Pnode->_Left->_Isnil) {

	mov	edx, DWORD PTR __Pnode$[ebp]
	mov	eax, DWORD PTR [edx]
	movsx	ecx, BYTE PTR [eax+13]
	test	ecx, ecx
	je	SHORT $LN5@Extract

; 536  :             _Fixnode = _Pnode->_Right; // stitch up right subtree

	mov	edx, DWORD PTR __Pnode$[ebp]
	mov	eax, DWORD PTR [edx+8]
	mov	DWORD PTR __Fixnode$[ebp], eax
	jmp	SHORT $LN8@Extract
$LN5@Extract:

; 537  :         } else if (_Pnode->_Right->_Isnil) {

	mov	ecx, DWORD PTR __Pnode$[ebp]
	mov	edx, DWORD PTR [ecx+8]
	movsx	eax, BYTE PTR [edx+13]
	test	eax, eax
	je	SHORT $LN7@Extract

; 538  :             _Fixnode = _Pnode->_Left; // stitch up left subtree

	mov	ecx, DWORD PTR __Pnode$[ebp]
	mov	edx, DWORD PTR [ecx]
	mov	DWORD PTR __Fixnode$[ebp], edx

; 539  :         } else { // two subtrees, must lift successor node to replace erased

	jmp	SHORT $LN8@Extract
$LN7@Extract:

; 540  :             _Pnode   = _Where._Ptr; // _Pnode is successor node

	mov	eax, DWORD PTR __Where$[ebp]
	mov	DWORD PTR __Pnode$[ebp], eax

; 541  :             _Fixnode = _Pnode->_Right; // _Fixnode is only subtree

	mov	ecx, DWORD PTR __Pnode$[ebp]
	mov	edx, DWORD PTR [ecx+8]
	mov	DWORD PTR __Fixnode$[ebp], edx
$LN8@Extract:

; 542  :         }
; 543  : 
; 544  :         if (_Pnode == _Erasednode) { // at most one subtree, relink it

	mov	eax, DWORD PTR __Pnode$[ebp]
	cmp	eax, DWORD PTR __Erasednode$[ebp]
	jne	$LN9@Extract

; 545  :             _Fixnodeparent = _Erasednode->_Parent;

	mov	ecx, DWORD PTR __Erasednode$[ebp]
	mov	edx, DWORD PTR [ecx+4]
	mov	DWORD PTR __Fixnodeparent$[ebp], edx

; 546  :             if (!_Fixnode->_Isnil) {

	mov	eax, DWORD PTR __Fixnode$[ebp]
	movsx	ecx, BYTE PTR [eax+13]
	test	ecx, ecx
	jne	SHORT $LN11@Extract

; 547  :                 _Fixnode->_Parent = _Fixnodeparent; // link up

	mov	edx, DWORD PTR __Fixnode$[ebp]
	mov	eax, DWORD PTR __Fixnodeparent$[ebp]
	mov	DWORD PTR [edx+4], eax
$LN11@Extract:

; 548  :             }
; 549  : 
; 550  :             if (_Myhead->_Parent == _Erasednode) {

	mov	ecx, DWORD PTR _this$[ebp]
	mov	edx, DWORD PTR [ecx+4]
	mov	eax, DWORD PTR [edx+4]
	cmp	eax, DWORD PTR __Erasednode$[ebp]
	jne	SHORT $LN12@Extract

; 551  :                 _Myhead->_Parent = _Fixnode; // link down from root

	mov	ecx, DWORD PTR _this$[ebp]
	mov	edx, DWORD PTR [ecx+4]
	mov	eax, DWORD PTR __Fixnode$[ebp]
	mov	DWORD PTR [edx+4], eax
	jmp	SHORT $LN15@Extract
$LN12@Extract:

; 552  :             } else if (_Fixnodeparent->_Left == _Erasednode) {

	mov	ecx, DWORD PTR __Fixnodeparent$[ebp]
	mov	edx, DWORD PTR [ecx]
	cmp	edx, DWORD PTR __Erasednode$[ebp]
	jne	SHORT $LN14@Extract

; 553  :                 _Fixnodeparent->_Left = _Fixnode; // link down to left

	mov	eax, DWORD PTR __Fixnodeparent$[ebp]
	mov	ecx, DWORD PTR __Fixnode$[ebp]
	mov	DWORD PTR [eax], ecx

; 554  :             } else {

	jmp	SHORT $LN15@Extract
$LN14@Extract:

; 555  :                 _Fixnodeparent->_Right = _Fixnode; // link down to right

	mov	edx, DWORD PTR __Fixnodeparent$[ebp]
	mov	eax, DWORD PTR __Fixnode$[ebp]
	mov	DWORD PTR [edx+8], eax
$LN15@Extract:

; 556  :             }
; 557  : 
; 558  :             if (_Myhead->_Left == _Erasednode) {

	mov	ecx, DWORD PTR _this$[ebp]
	mov	edx, DWORD PTR [ecx+4]
	mov	eax, DWORD PTR [edx]
	cmp	eax, DWORD PTR __Erasednode$[ebp]
	jne	SHORT $LN16@Extract

; 559  :                 _Myhead->_Left = _Fixnode->_Isnil ? _Fixnodeparent // smallest is parent of erased node

	mov	ecx, DWORD PTR __Fixnode$[ebp]
	movsx	edx, BYTE PTR [ecx+13]
	test	edx, edx
	je	SHORT $LN42@Extract
	mov	eax, DWORD PTR __Fixnodeparent$[ebp]
	mov	DWORD PTR tv133[ebp], eax
	jmp	SHORT $LN43@Extract
$LN42@Extract:
	mov	ecx, DWORD PTR __Fixnode$[ebp]
	push	ecx
	call	?_Min@?$_Tree_val@U?$_Tree_simple_types@U?$pair@$$CBHPAVBaseGameEntity@@@std@@@std@@@std@@SAPAU?$_Tree_node@U?$pair@$$CBHPAVBaseGameEntity@@@std@@PAX@2@PAU32@@Z ; std::_Tree_val<std::_Tree_simple_types<std::pair<int const ,BaseGameEntity *> > >::_Min
	add	esp, 4
	mov	DWORD PTR tv133[ebp], eax
$LN43@Extract:
	mov	edx, DWORD PTR _this$[ebp]
	mov	eax, DWORD PTR [edx+4]
	mov	ecx, DWORD PTR tv133[ebp]
	mov	DWORD PTR [eax], ecx
$LN16@Extract:

; 560  :                                                   : _Min(_Fixnode); // smallest in relinked subtree
; 561  :             }
; 562  : 
; 563  :             if (_Myhead->_Right == _Erasednode) {

	mov	edx, DWORD PTR _this$[ebp]
	mov	eax, DWORD PTR [edx+4]
	mov	ecx, DWORD PTR [eax+8]
	cmp	ecx, DWORD PTR __Erasednode$[ebp]
	jne	SHORT $LN17@Extract

; 564  :                 _Myhead->_Right = _Fixnode->_Isnil ? _Fixnodeparent // largest is parent of erased node

	mov	edx, DWORD PTR __Fixnode$[ebp]
	movsx	eax, BYTE PTR [edx+13]
	test	eax, eax
	je	SHORT $LN44@Extract
	mov	ecx, DWORD PTR __Fixnodeparent$[ebp]
	mov	DWORD PTR tv144[ebp], ecx
	jmp	SHORT $LN45@Extract
$LN44@Extract:
	mov	edx, DWORD PTR __Fixnode$[ebp]
	push	edx
	call	?_Max@?$_Tree_val@U?$_Tree_simple_types@U?$pair@$$CBHPAVBaseGameEntity@@@std@@@std@@@std@@SAPAU?$_Tree_node@U?$pair@$$CBHPAVBaseGameEntity@@@std@@PAX@2@PAU32@@Z ; std::_Tree_val<std::_Tree_simple_types<std::pair<int const ,BaseGameEntity *> > >::_Max
	add	esp, 4
	mov	DWORD PTR tv144[ebp], eax
$LN45@Extract:
	mov	eax, DWORD PTR _this$[ebp]
	mov	ecx, DWORD PTR [eax+4]
	mov	edx, DWORD PTR tv144[ebp]
	mov	DWORD PTR [ecx+8], edx
$LN17@Extract:

; 565  :                                                    : _Max(_Fixnode); // largest in relinked subtree
; 566  :             }
; 567  :         } else { // erased has two subtrees, _Pnode is successor to erased

	jmp	$LN10@Extract
$LN9@Extract:

; 568  :             _Erasednode->_Left->_Parent = _Pnode; // link left up

	mov	eax, DWORD PTR __Erasednode$[ebp]
	mov	ecx, DWORD PTR [eax]
	mov	edx, DWORD PTR __Pnode$[ebp]
	mov	DWORD PTR [ecx+4], edx

; 569  :             _Pnode->_Left               = _Erasednode->_Left; // link successor down

	mov	eax, DWORD PTR __Pnode$[ebp]
	mov	ecx, DWORD PTR __Erasednode$[ebp]
	mov	edx, DWORD PTR [ecx]
	mov	DWORD PTR [eax], edx

; 570  : 
; 571  :             if (_Pnode == _Erasednode->_Right) {

	mov	eax, DWORD PTR __Erasednode$[ebp]
	mov	ecx, DWORD PTR __Pnode$[ebp]
	cmp	ecx, DWORD PTR [eax+8]
	jne	SHORT $LN18@Extract

; 572  :                 _Fixnodeparent = _Pnode; // successor is next to erased

	mov	edx, DWORD PTR __Pnode$[ebp]
	mov	DWORD PTR __Fixnodeparent$[ebp], edx

; 573  :             } else { // successor further down, link in place of erased

	jmp	SHORT $LN19@Extract
$LN18@Extract:

; 574  :                 _Fixnodeparent = _Pnode->_Parent; // parent is successor's

	mov	eax, DWORD PTR __Pnode$[ebp]
	mov	ecx, DWORD PTR [eax+4]
	mov	DWORD PTR __Fixnodeparent$[ebp], ecx

; 575  :                 if (!_Fixnode->_Isnil) {

	mov	edx, DWORD PTR __Fixnode$[ebp]
	movsx	eax, BYTE PTR [edx+13]
	test	eax, eax
	jne	SHORT $LN20@Extract

; 576  :                     _Fixnode->_Parent = _Fixnodeparent; // link fix up

	mov	ecx, DWORD PTR __Fixnode$[ebp]
	mov	edx, DWORD PTR __Fixnodeparent$[ebp]
	mov	DWORD PTR [ecx+4], edx
$LN20@Extract:

; 577  :                 }
; 578  : 
; 579  :                 _Fixnodeparent->_Left        = _Fixnode; // link fix down

	mov	eax, DWORD PTR __Fixnodeparent$[ebp]
	mov	ecx, DWORD PTR __Fixnode$[ebp]
	mov	DWORD PTR [eax], ecx

; 580  :                 _Pnode->_Right               = _Erasednode->_Right; // link next down

	mov	edx, DWORD PTR __Pnode$[ebp]
	mov	eax, DWORD PTR __Erasednode$[ebp]
	mov	ecx, DWORD PTR [eax+8]
	mov	DWORD PTR [edx+8], ecx

; 581  :                 _Erasednode->_Right->_Parent = _Pnode; // right up

	mov	edx, DWORD PTR __Erasednode$[ebp]
	mov	eax, DWORD PTR [edx+8]
	mov	ecx, DWORD PTR __Pnode$[ebp]
	mov	DWORD PTR [eax+4], ecx
$LN19@Extract:

; 582  :             }
; 583  : 
; 584  :             if (_Myhead->_Parent == _Erasednode) {

	mov	edx, DWORD PTR _this$[ebp]
	mov	eax, DWORD PTR [edx+4]
	mov	ecx, DWORD PTR [eax+4]
	cmp	ecx, DWORD PTR __Erasednode$[ebp]
	jne	SHORT $LN21@Extract

; 585  :                 _Myhead->_Parent = _Pnode; // link down from root

	mov	edx, DWORD PTR _this$[ebp]
	mov	eax, DWORD PTR [edx+4]
	mov	ecx, DWORD PTR __Pnode$[ebp]
	mov	DWORD PTR [eax+4], ecx
	jmp	SHORT $LN24@Extract
$LN21@Extract:

; 586  :             } else if (_Erasednode->_Parent->_Left == _Erasednode) {

	mov	edx, DWORD PTR __Erasednode$[ebp]
	mov	eax, DWORD PTR [edx+4]
	mov	ecx, DWORD PTR [eax]
	cmp	ecx, DWORD PTR __Erasednode$[ebp]
	jne	SHORT $LN23@Extract

; 587  :                 _Erasednode->_Parent->_Left = _Pnode; // link down to left

	mov	edx, DWORD PTR __Erasednode$[ebp]
	mov	eax, DWORD PTR [edx+4]
	mov	ecx, DWORD PTR __Pnode$[ebp]
	mov	DWORD PTR [eax], ecx

; 588  :             } else {

	jmp	SHORT $LN24@Extract
$LN23@Extract:

; 589  :                 _Erasednode->_Parent->_Right = _Pnode; // link down to right

	mov	edx, DWORD PTR __Erasednode$[ebp]
	mov	eax, DWORD PTR [edx+4]
	mov	ecx, DWORD PTR __Pnode$[ebp]
	mov	DWORD PTR [eax+8], ecx
$LN24@Extract:

; 590  :             }
; 591  : 
; 592  :             _Pnode->_Parent = _Erasednode->_Parent; // link successor up

	mov	edx, DWORD PTR __Pnode$[ebp]
	mov	eax, DWORD PTR __Erasednode$[ebp]
	mov	ecx, DWORD PTR [eax+4]
	mov	DWORD PTR [edx+4], ecx

; 593  :             _STD swap(_Pnode->_Color, _Erasednode->_Color); // recolor it

	mov	edx, DWORD PTR __Erasednode$[ebp]
	add	edx, 12					; 0000000cH
	push	edx
	mov	eax, DWORD PTR __Pnode$[ebp]
	add	eax, 12					; 0000000cH
	push	eax
	call	??$swap@D$0A@@std@@YAXAAD0@Z		; std::swap<char,0>
	add	esp, 8
$LN10@Extract:

; 594  :         }
; 595  : 
; 596  :         if (_Erasednode->_Color == _Black) { // erasing black link, must recolor/rebalance tree

	mov	ecx, DWORD PTR __Erasednode$[ebp]
	movsx	edx, BYTE PTR [ecx+12]
	cmp	edx, 1
	jne	$LN25@Extract

; 597  :             for (; _Fixnode != _Myhead->_Parent && _Fixnode->_Color == _Black; _Fixnodeparent = _Fixnode->_Parent) {

	jmp	SHORT $LN4@Extract
$LN2@Extract:
	mov	eax, DWORD PTR __Fixnode$[ebp]
	mov	ecx, DWORD PTR [eax+4]
	mov	DWORD PTR __Fixnodeparent$[ebp], ecx
$LN4@Extract:
	mov	edx, DWORD PTR _this$[ebp]
	mov	eax, DWORD PTR [edx+4]
	mov	ecx, DWORD PTR __Fixnode$[ebp]
	cmp	ecx, DWORD PTR [eax+4]
	je	$LN3@Extract
	mov	edx, DWORD PTR __Fixnode$[ebp]
	movsx	eax, BYTE PTR [edx+12]
	cmp	eax, 1
	jne	$LN3@Extract

; 598  :                 if (_Fixnode == _Fixnodeparent->_Left) { // fixup left subtree

	mov	ecx, DWORD PTR __Fixnodeparent$[ebp]
	mov	edx, DWORD PTR __Fixnode$[ebp]
	cmp	edx, DWORD PTR [ecx]
	jne	$LN26@Extract

; 599  :                     _Pnode = _Fixnodeparent->_Right;

	mov	eax, DWORD PTR __Fixnodeparent$[ebp]
	mov	ecx, DWORD PTR [eax+8]
	mov	DWORD PTR __Pnode$[ebp], ecx

; 600  :                     if (_Pnode->_Color == _Red) { // rotate red up from right subtree

	mov	edx, DWORD PTR __Pnode$[ebp]
	movsx	eax, BYTE PTR [edx+12]
	test	eax, eax
	jne	SHORT $LN28@Extract

; 601  :                         _Pnode->_Color         = _Black;

	mov	ecx, DWORD PTR __Pnode$[ebp]
	mov	BYTE PTR [ecx+12], 1

; 602  :                         _Fixnodeparent->_Color = _Red;

	mov	edx, DWORD PTR __Fixnodeparent$[ebp]
	mov	BYTE PTR [edx+12], 0

; 603  :                         _Lrotate(_Fixnodeparent);

	mov	eax, DWORD PTR __Fixnodeparent$[ebp]
	push	eax
	mov	ecx, DWORD PTR _this$[ebp]
	call	?_Lrotate@?$_Tree_val@U?$_Tree_simple_types@U?$pair@$$CBHPAVBaseGameEntity@@@std@@@std@@@std@@QAEXPAU?$_Tree_node@U?$pair@$$CBHPAVBaseGameEntity@@@std@@PAX@2@@Z ; std::_Tree_val<std::_Tree_simple_types<std::pair<int const ,BaseGameEntity *> > >::_Lrotate

; 604  :                         _Pnode = _Fixnodeparent->_Right;

	mov	ecx, DWORD PTR __Fixnodeparent$[ebp]
	mov	edx, DWORD PTR [ecx+8]
	mov	DWORD PTR __Pnode$[ebp], edx
$LN28@Extract:

; 605  :                     }
; 606  : 
; 607  :                     if (_Pnode->_Isnil) {

	mov	eax, DWORD PTR __Pnode$[ebp]
	movsx	ecx, BYTE PTR [eax+13]
	test	ecx, ecx
	je	SHORT $LN29@Extract

; 608  :                         _Fixnode = _Fixnodeparent; // shouldn't happen

	mov	edx, DWORD PTR __Fixnodeparent$[ebp]
	mov	DWORD PTR __Fixnode$[ebp], edx

; 609  :                     } else if (_Pnode->_Left->_Color == _Black

	jmp	$LN32@Extract
$LN29@Extract:

; 610  :                                && _Pnode->_Right->_Color == _Black) { // redden right subtree with black children

	mov	eax, DWORD PTR __Pnode$[ebp]
	mov	ecx, DWORD PTR [eax]
	movsx	edx, BYTE PTR [ecx+12]
	cmp	edx, 1
	jne	SHORT $LN31@Extract
	mov	eax, DWORD PTR __Pnode$[ebp]
	mov	ecx, DWORD PTR [eax+8]
	movsx	edx, BYTE PTR [ecx+12]
	cmp	edx, 1
	jne	SHORT $LN31@Extract

; 611  :                         _Pnode->_Color = _Red;

	mov	eax, DWORD PTR __Pnode$[ebp]
	mov	BYTE PTR [eax+12], 0

; 612  :                         _Fixnode       = _Fixnodeparent;

	mov	ecx, DWORD PTR __Fixnodeparent$[ebp]
	mov	DWORD PTR __Fixnode$[ebp], ecx

; 613  :                     } else { // must rearrange right subtree

	jmp	SHORT $LN32@Extract
$LN31@Extract:

; 614  :                         if (_Pnode->_Right->_Color == _Black) { // rotate red up from left sub-subtree

	mov	edx, DWORD PTR __Pnode$[ebp]
	mov	eax, DWORD PTR [edx+8]
	movsx	ecx, BYTE PTR [eax+12]
	cmp	ecx, 1
	jne	SHORT $LN33@Extract

; 615  :                             _Pnode->_Left->_Color = _Black;

	mov	edx, DWORD PTR __Pnode$[ebp]
	mov	eax, DWORD PTR [edx]
	mov	BYTE PTR [eax+12], 1

; 616  :                             _Pnode->_Color        = _Red;

	mov	ecx, DWORD PTR __Pnode$[ebp]
	mov	BYTE PTR [ecx+12], 0

; 617  :                             _Rrotate(_Pnode);

	mov	edx, DWORD PTR __Pnode$[ebp]
	push	edx
	mov	ecx, DWORD PTR _this$[ebp]
	call	?_Rrotate@?$_Tree_val@U?$_Tree_simple_types@U?$pair@$$CBHPAVBaseGameEntity@@@std@@@std@@@std@@QAEXPAU?$_Tree_node@U?$pair@$$CBHPAVBaseGameEntity@@@std@@PAX@2@@Z ; std::_Tree_val<std::_Tree_simple_types<std::pair<int const ,BaseGameEntity *> > >::_Rrotate

; 618  :                             _Pnode = _Fixnodeparent->_Right;

	mov	eax, DWORD PTR __Fixnodeparent$[ebp]
	mov	ecx, DWORD PTR [eax+8]
	mov	DWORD PTR __Pnode$[ebp], ecx
$LN33@Extract:

; 619  :                         }
; 620  : 
; 621  :                         _Pnode->_Color         = _Fixnodeparent->_Color;

	mov	edx, DWORD PTR __Pnode$[ebp]
	mov	eax, DWORD PTR __Fixnodeparent$[ebp]
	mov	cl, BYTE PTR [eax+12]
	mov	BYTE PTR [edx+12], cl

; 622  :                         _Fixnodeparent->_Color = _Black;

	mov	edx, DWORD PTR __Fixnodeparent$[ebp]
	mov	BYTE PTR [edx+12], 1

; 623  :                         _Pnode->_Right->_Color = _Black;

	mov	eax, DWORD PTR __Pnode$[ebp]
	mov	ecx, DWORD PTR [eax+8]
	mov	BYTE PTR [ecx+12], 1

; 624  :                         _Lrotate(_Fixnodeparent);

	mov	edx, DWORD PTR __Fixnodeparent$[ebp]
	push	edx
	mov	ecx, DWORD PTR _this$[ebp]
	call	?_Lrotate@?$_Tree_val@U?$_Tree_simple_types@U?$pair@$$CBHPAVBaseGameEntity@@@std@@@std@@@std@@QAEXPAU?$_Tree_node@U?$pair@$$CBHPAVBaseGameEntity@@@std@@PAX@2@@Z ; std::_Tree_val<std::_Tree_simple_types<std::pair<int const ,BaseGameEntity *> > >::_Lrotate
	npad	1

; 625  :                         break; // tree now recolored/rebalanced

	jmp	$LN3@Extract
$LN32@Extract:

; 626  :                     }
; 627  :                 } else { // fixup right subtree

	jmp	$LN38@Extract
$LN26@Extract:

; 628  :                     _Pnode = _Fixnodeparent->_Left;

	mov	eax, DWORD PTR __Fixnodeparent$[ebp]
	mov	ecx, DWORD PTR [eax]
	mov	DWORD PTR __Pnode$[ebp], ecx

; 629  :                     if (_Pnode->_Color == _Red) { // rotate red up from left subtree

	mov	edx, DWORD PTR __Pnode$[ebp]
	movsx	eax, BYTE PTR [edx+12]
	test	eax, eax
	jne	SHORT $LN34@Extract

; 630  :                         _Pnode->_Color         = _Black;

	mov	ecx, DWORD PTR __Pnode$[ebp]
	mov	BYTE PTR [ecx+12], 1

; 631  :                         _Fixnodeparent->_Color = _Red;

	mov	edx, DWORD PTR __Fixnodeparent$[ebp]
	mov	BYTE PTR [edx+12], 0

; 632  :                         _Rrotate(_Fixnodeparent);

	mov	eax, DWORD PTR __Fixnodeparent$[ebp]
	push	eax
	mov	ecx, DWORD PTR _this$[ebp]
	call	?_Rrotate@?$_Tree_val@U?$_Tree_simple_types@U?$pair@$$CBHPAVBaseGameEntity@@@std@@@std@@@std@@QAEXPAU?$_Tree_node@U?$pair@$$CBHPAVBaseGameEntity@@@std@@PAX@2@@Z ; std::_Tree_val<std::_Tree_simple_types<std::pair<int const ,BaseGameEntity *> > >::_Rrotate

; 633  :                         _Pnode = _Fixnodeparent->_Left;

	mov	ecx, DWORD PTR __Fixnodeparent$[ebp]
	mov	edx, DWORD PTR [ecx]
	mov	DWORD PTR __Pnode$[ebp], edx
$LN34@Extract:

; 634  :                     }
; 635  : 
; 636  :                     if (_Pnode->_Isnil) {

	mov	eax, DWORD PTR __Pnode$[ebp]
	movsx	ecx, BYTE PTR [eax+13]
	test	ecx, ecx
	je	SHORT $LN35@Extract

; 637  :                         _Fixnode = _Fixnodeparent; // shouldn't happen

	mov	edx, DWORD PTR __Fixnodeparent$[ebp]
	mov	DWORD PTR __Fixnode$[ebp], edx

; 638  :                     } else if (_Pnode->_Right->_Color == _Black

	jmp	$LN38@Extract
$LN35@Extract:

; 639  :                                && _Pnode->_Left->_Color == _Black) { // redden left subtree with black children

	mov	eax, DWORD PTR __Pnode$[ebp]
	mov	ecx, DWORD PTR [eax+8]
	movsx	edx, BYTE PTR [ecx+12]
	cmp	edx, 1
	jne	SHORT $LN37@Extract
	mov	eax, DWORD PTR __Pnode$[ebp]
	mov	ecx, DWORD PTR [eax]
	movsx	edx, BYTE PTR [ecx+12]
	cmp	edx, 1
	jne	SHORT $LN37@Extract

; 640  :                         _Pnode->_Color = _Red;

	mov	eax, DWORD PTR __Pnode$[ebp]
	mov	BYTE PTR [eax+12], 0

; 641  :                         _Fixnode       = _Fixnodeparent;

	mov	ecx, DWORD PTR __Fixnodeparent$[ebp]
	mov	DWORD PTR __Fixnode$[ebp], ecx

; 642  :                     } else { // must rearrange left subtree

	jmp	SHORT $LN38@Extract
$LN37@Extract:

; 643  :                         if (_Pnode->_Left->_Color == _Black) { // rotate red up from right sub-subtree

	mov	edx, DWORD PTR __Pnode$[ebp]
	mov	eax, DWORD PTR [edx]
	movsx	ecx, BYTE PTR [eax+12]
	cmp	ecx, 1
	jne	SHORT $LN39@Extract

; 644  :                             _Pnode->_Right->_Color = _Black;

	mov	edx, DWORD PTR __Pnode$[ebp]
	mov	eax, DWORD PTR [edx+8]
	mov	BYTE PTR [eax+12], 1

; 645  :                             _Pnode->_Color         = _Red;

	mov	ecx, DWORD PTR __Pnode$[ebp]
	mov	BYTE PTR [ecx+12], 0

; 646  :                             _Lrotate(_Pnode);

	mov	edx, DWORD PTR __Pnode$[ebp]
	push	edx
	mov	ecx, DWORD PTR _this$[ebp]
	call	?_Lrotate@?$_Tree_val@U?$_Tree_simple_types@U?$pair@$$CBHPAVBaseGameEntity@@@std@@@std@@@std@@QAEXPAU?$_Tree_node@U?$pair@$$CBHPAVBaseGameEntity@@@std@@PAX@2@@Z ; std::_Tree_val<std::_Tree_simple_types<std::pair<int const ,BaseGameEntity *> > >::_Lrotate

; 647  :                             _Pnode = _Fixnodeparent->_Left;

	mov	eax, DWORD PTR __Fixnodeparent$[ebp]
	mov	ecx, DWORD PTR [eax]
	mov	DWORD PTR __Pnode$[ebp], ecx
$LN39@Extract:

; 648  :                         }
; 649  : 
; 650  :                         _Pnode->_Color         = _Fixnodeparent->_Color;

	mov	edx, DWORD PTR __Pnode$[ebp]
	mov	eax, DWORD PTR __Fixnodeparent$[ebp]
	mov	cl, BYTE PTR [eax+12]
	mov	BYTE PTR [edx+12], cl

; 651  :                         _Fixnodeparent->_Color = _Black;

	mov	edx, DWORD PTR __Fixnodeparent$[ebp]
	mov	BYTE PTR [edx+12], 1

; 652  :                         _Pnode->_Left->_Color  = _Black;

	mov	eax, DWORD PTR __Pnode$[ebp]
	mov	ecx, DWORD PTR [eax]
	mov	BYTE PTR [ecx+12], 1

; 653  :                         _Rrotate(_Fixnodeparent);

	mov	edx, DWORD PTR __Fixnodeparent$[ebp]
	push	edx
	mov	ecx, DWORD PTR _this$[ebp]
	call	?_Rrotate@?$_Tree_val@U?$_Tree_simple_types@U?$pair@$$CBHPAVBaseGameEntity@@@std@@@std@@@std@@QAEXPAU?$_Tree_node@U?$pair@$$CBHPAVBaseGameEntity@@@std@@PAX@2@@Z ; std::_Tree_val<std::_Tree_simple_types<std::pair<int const ,BaseGameEntity *> > >::_Rrotate
	npad	1

; 654  :                         break; // tree now recolored/rebalanced

	jmp	SHORT $LN3@Extract
$LN38@Extract:

; 655  :                     }
; 656  :                 }
; 657  :             }

	jmp	$LN2@Extract
$LN3@Extract:

; 658  : 
; 659  :             _Fixnode->_Color = _Black; // stopping node is black

	mov	eax, DWORD PTR __Fixnode$[ebp]
	mov	BYTE PTR [eax+12], 1
$LN25@Extract:

; 660  :         }
; 661  : 
; 662  :         if (0 < _Mysize) {

	mov	ecx, DWORD PTR _this$[ebp]
	cmp	DWORD PTR [ecx+8], 0
	jbe	SHORT $LN40@Extract

; 663  :             --_Mysize;

	mov	edx, DWORD PTR _this$[ebp]
	mov	eax, DWORD PTR [edx+8]
	sub	eax, 1
	mov	ecx, DWORD PTR _this$[ebp]
	mov	DWORD PTR [ecx+8], eax
$LN40@Extract:

; 664  :         }
; 665  : 
; 666  :         return _Erasednode;

	mov	eax, DWORD PTR __Erasednode$[ebp]

; 667  :     }

	add	esp, 28					; 0000001cH
	cmp	ebp, esp
	call	__RTC_CheckEsp
	mov	esp, ebp
	pop	ebp
	ret	4
?_Extract@?$_Tree_val@U?$_Tree_simple_types@U?$pair@$$CBHPAVBaseGameEntity@@@std@@@std@@@std@@QAEPAU?$_Tree_node@U?$pair@$$CBHPAVBaseGameEntity@@@std@@PAX@2@V?$_Tree_unchecked_const_iterator@V?$_Tree_val@U?$_Tree_simple_types@U?$pair@$$CBHPAVBaseGameEntity@@@std@@@std@@@std@@U_Iterator_base0@2@@2@@Z ENDP ; std::_Tree_val<std::_Tree_simple_types<std::pair<int const ,BaseGameEntity *> > >::_Extract
_TEXT	ENDS
; Function compile flags: /Odtp /RTCsu
; File C:\Program Files\Microsoft Visual Studio\2022\Community\VC\Tools\MSVC\14.44.35207\include\xtree
;	COMDAT ?_Rrotate@?$_Tree_val@U?$_Tree_simple_types@U?$pair@$$CBHPAVBaseGameEntity@@@std@@@std@@@std@@QAEXPAU?$_Tree_node@U?$pair@$$CBHPAVBaseGameEntity@@@std@@PAX@2@@Z
_TEXT	SEGMENT
__Pnode$ = -8						; size = 4
_this$ = -4						; size = 4
__Wherenode$ = 8					; size = 4
?_Rrotate@?$_Tree_val@U?$_Tree_simple_types@U?$pair@$$CBHPAVBaseGameEntity@@@std@@@std@@@std@@QAEXPAU?$_Tree_node@U?$pair@$$CBHPAVBaseGameEntity@@@std@@PAX@2@@Z PROC ; std::_Tree_val<std::_Tree_simple_types<std::pair<int const ,BaseGameEntity *> > >::_Rrotate, COMDAT
; _this$ = ecx

; 505  :     void _Rrotate(_Nodeptr _Wherenode) noexcept { // promote left node to root of subtree

	push	ebp
	mov	ebp, esp
	sub	esp, 8
	mov	DWORD PTR _this$[ebp], ecx

; 506  :         _Nodeptr _Pnode   = _Wherenode->_Left;

	mov	eax, DWORD PTR __Wherenode$[ebp]
	mov	ecx, DWORD PTR [eax]
	mov	DWORD PTR __Pnode$[ebp], ecx

; 507  :         _Wherenode->_Left = _Pnode->_Right;

	mov	edx, DWORD PTR __Wherenode$[ebp]
	mov	eax, DWORD PTR __Pnode$[ebp]
	mov	ecx, DWORD PTR [eax+8]
	mov	DWORD PTR [edx], ecx

; 508  : 
; 509  :         if (!_Pnode->_Right->_Isnil) {

	mov	edx, DWORD PTR __Pnode$[ebp]
	mov	eax, DWORD PTR [edx+8]
	movsx	ecx, BYTE PTR [eax+13]
	test	ecx, ecx
	jne	SHORT $LN2@Rrotate

; 510  :             _Pnode->_Right->_Parent = _Wherenode;

	mov	edx, DWORD PTR __Pnode$[ebp]
	mov	eax, DWORD PTR [edx+8]
	mov	ecx, DWORD PTR __Wherenode$[ebp]
	mov	DWORD PTR [eax+4], ecx
$LN2@Rrotate:

; 511  :         }
; 512  : 
; 513  :         _Pnode->_Parent = _Wherenode->_Parent;

	mov	edx, DWORD PTR __Pnode$[ebp]
	mov	eax, DWORD PTR __Wherenode$[ebp]
	mov	ecx, DWORD PTR [eax+4]
	mov	DWORD PTR [edx+4], ecx

; 514  : 
; 515  :         if (_Wherenode == _Myhead->_Parent) {

	mov	edx, DWORD PTR _this$[ebp]
	mov	eax, DWORD PTR [edx+4]
	mov	ecx, DWORD PTR __Wherenode$[ebp]
	cmp	ecx, DWORD PTR [eax+4]
	jne	SHORT $LN3@Rrotate

; 516  :             _Myhead->_Parent = _Pnode;

	mov	edx, DWORD PTR _this$[ebp]
	mov	eax, DWORD PTR [edx+4]
	mov	ecx, DWORD PTR __Pnode$[ebp]
	mov	DWORD PTR [eax+4], ecx
	jmp	SHORT $LN6@Rrotate
$LN3@Rrotate:

; 517  :         } else if (_Wherenode == _Wherenode->_Parent->_Right) {

	mov	edx, DWORD PTR __Wherenode$[ebp]
	mov	eax, DWORD PTR [edx+4]
	mov	ecx, DWORD PTR __Wherenode$[ebp]
	cmp	ecx, DWORD PTR [eax+8]
	jne	SHORT $LN5@Rrotate

; 518  :             _Wherenode->_Parent->_Right = _Pnode;

	mov	edx, DWORD PTR __Wherenode$[ebp]
	mov	eax, DWORD PTR [edx+4]
	mov	ecx, DWORD PTR __Pnode$[ebp]
	mov	DWORD PTR [eax+8], ecx

; 519  :         } else {

	jmp	SHORT $LN6@Rrotate
$LN5@Rrotate:

; 520  :             _Wherenode->_Parent->_Left = _Pnode;

	mov	edx, DWORD PTR __Wherenode$[ebp]
	mov	eax, DWORD PTR [edx+4]
	mov	ecx, DWORD PTR __Pnode$[ebp]
	mov	DWORD PTR [eax], ecx
$LN6@Rrotate:

; 521  :         }
; 522  : 
; 523  :         _Pnode->_Right      = _Wherenode;

	mov	edx, DWORD PTR __Pnode$[ebp]
	mov	eax, DWORD PTR __Wherenode$[ebp]
	mov	DWORD PTR [edx+8], eax

; 524  :         _Wherenode->_Parent = _Pnode;

	mov	ecx, DWORD PTR __Wherenode$[ebp]
	mov	edx, DWORD PTR __Pnode$[ebp]
	mov	DWORD PTR [ecx+4], edx

; 525  :     }

	mov	esp, ebp
	pop	ebp
	ret	4
?_Rrotate@?$_Tree_val@U?$_Tree_simple_types@U?$pair@$$CBHPAVBaseGameEntity@@@std@@@std@@@std@@QAEXPAU?$_Tree_node@U?$pair@$$CBHPAVBaseGameEntity@@@std@@PAX@2@@Z ENDP ; std::_Tree_val<std::_Tree_simple_types<std::pair<int const ,BaseGameEntity *> > >::_Rrotate
_TEXT	ENDS
; Function compile flags: /Odtp /RTCsu
; File C:\Program Files\Microsoft Visual Studio\2022\Community\VC\Tools\MSVC\14.44.35207\include\xtree
;	COMDAT ?_Lrotate@?$_Tree_val@U?$_Tree_simple_types@U?$pair@$$CBHPAVBaseGameEntity@@@std@@@std@@@std@@QAEXPAU?$_Tree_node@U?$pair@$$CBHPAVBaseGameEntity@@@std@@PAX@2@@Z
_TEXT	SEGMENT
__Pnode$ = -8						; size = 4
_this$ = -4						; size = 4
__Wherenode$ = 8					; size = 4
?_Lrotate@?$_Tree_val@U?$_Tree_simple_types@U?$pair@$$CBHPAVBaseGameEntity@@@std@@@std@@@std@@QAEXPAU?$_Tree_node@U?$pair@$$CBHPAVBaseGameEntity@@@std@@PAX@2@@Z PROC ; std::_Tree_val<std::_Tree_simple_types<std::pair<int const ,BaseGameEntity *> > >::_Lrotate, COMDAT
; _this$ = ecx

; 483  :     void _Lrotate(_Nodeptr _Wherenode) noexcept { // promote right node to root of subtree

	push	ebp
	mov	ebp, esp
	sub	esp, 8
	mov	DWORD PTR _this$[ebp], ecx

; 484  :         _Nodeptr _Pnode    = _Wherenode->_Right;

	mov	eax, DWORD PTR __Wherenode$[ebp]
	mov	ecx, DWORD PTR [eax+8]
	mov	DWORD PTR __Pnode$[ebp], ecx

; 485  :         _Wherenode->_Right = _Pnode->_Left;

	mov	edx, DWORD PTR __Wherenode$[ebp]
	mov	eax, DWORD PTR __Pnode$[ebp]
	mov	ecx, DWORD PTR [eax]
	mov	DWORD PTR [edx+8], ecx

; 486  : 
; 487  :         if (!_Pnode->_Left->_Isnil) {

	mov	edx, DWORD PTR __Pnode$[ebp]
	mov	eax, DWORD PTR [edx]
	movsx	ecx, BYTE PTR [eax+13]
	test	ecx, ecx
	jne	SHORT $LN2@Lrotate

; 488  :             _Pnode->_Left->_Parent = _Wherenode;

	mov	edx, DWORD PTR __Pnode$[ebp]
	mov	eax, DWORD PTR [edx]
	mov	ecx, DWORD PTR __Wherenode$[ebp]
	mov	DWORD PTR [eax+4], ecx
$LN2@Lrotate:

; 489  :         }
; 490  : 
; 491  :         _Pnode->_Parent = _Wherenode->_Parent;

	mov	edx, DWORD PTR __Pnode$[ebp]
	mov	eax, DWORD PTR __Wherenode$[ebp]
	mov	ecx, DWORD PTR [eax+4]
	mov	DWORD PTR [edx+4], ecx

; 492  : 
; 493  :         if (_Wherenode == _Myhead->_Parent) {

	mov	edx, DWORD PTR _this$[ebp]
	mov	eax, DWORD PTR [edx+4]
	mov	ecx, DWORD PTR __Wherenode$[ebp]
	cmp	ecx, DWORD PTR [eax+4]
	jne	SHORT $LN3@Lrotate

; 494  :             _Myhead->_Parent = _Pnode;

	mov	edx, DWORD PTR _this$[ebp]
	mov	eax, DWORD PTR [edx+4]
	mov	ecx, DWORD PTR __Pnode$[ebp]
	mov	DWORD PTR [eax+4], ecx
	jmp	SHORT $LN6@Lrotate
$LN3@Lrotate:

; 495  :         } else if (_Wherenode == _Wherenode->_Parent->_Left) {

	mov	edx, DWORD PTR __Wherenode$[ebp]
	mov	eax, DWORD PTR [edx+4]
	mov	ecx, DWORD PTR __Wherenode$[ebp]
	cmp	ecx, DWORD PTR [eax]
	jne	SHORT $LN5@Lrotate

; 496  :             _Wherenode->_Parent->_Left = _Pnode;

	mov	edx, DWORD PTR __Wherenode$[ebp]
	mov	eax, DWORD PTR [edx+4]
	mov	ecx, DWORD PTR __Pnode$[ebp]
	mov	DWORD PTR [eax], ecx

; 497  :         } else {

	jmp	SHORT $LN6@Lrotate
$LN5@Lrotate:

; 498  :             _Wherenode->_Parent->_Right = _Pnode;

	mov	edx, DWORD PTR __Wherenode$[ebp]
	mov	eax, DWORD PTR [edx+4]
	mov	ecx, DWORD PTR __Pnode$[ebp]
	mov	DWORD PTR [eax+8], ecx
$LN6@Lrotate:

; 499  :         }
; 500  : 
; 501  :         _Pnode->_Left       = _Wherenode;

	mov	edx, DWORD PTR __Pnode$[ebp]
	mov	eax, DWORD PTR __Wherenode$[ebp]
	mov	DWORD PTR [edx], eax

; 502  :         _Wherenode->_Parent = _Pnode;

	mov	ecx, DWORD PTR __Wherenode$[ebp]
	mov	edx, DWORD PTR __Pnode$[ebp]
	mov	DWORD PTR [ecx+4], edx

; 503  :     }

	mov	esp, ebp
	pop	ebp
	ret	4
?_Lrotate@?$_Tree_val@U?$_Tree_simple_types@U?$pair@$$CBHPAVBaseGameEntity@@@std@@@std@@@std@@QAEXPAU?$_Tree_node@U?$pair@$$CBHPAVBaseGameEntity@@@std@@PAX@2@@Z ENDP ; std::_Tree_val<std::_Tree_simple_types<std::pair<int const ,BaseGameEntity *> > >::_Lrotate
_TEXT	ENDS
; Function compile flags: /Odtp /RTCsu
; File C:\Program Files\Microsoft Visual Studio\2022\Community\VC\Tools\MSVC\14.44.35207\include\xtree
;	COMDAT ?_Min@?$_Tree_val@U?$_Tree_simple_types@U?$pair@$$CBHPAVBaseGameEntity@@@std@@@std@@@std@@SAPAU?$_Tree_node@U?$pair@$$CBHPAVBaseGameEntity@@@std@@PAX@2@PAU32@@Z
_TEXT	SEGMENT
__Pnode$ = 8						; size = 4
?_Min@?$_Tree_val@U?$_Tree_simple_types@U?$pair@$$CBHPAVBaseGameEntity@@@std@@@std@@@std@@SAPAU?$_Tree_node@U?$pair@$$CBHPAVBaseGameEntity@@@std@@PAX@2@PAU32@@Z PROC ; std::_Tree_val<std::_Tree_simple_types<std::pair<int const ,BaseGameEntity *> > >::_Min, COMDAT

; 475  :     static _Nodeptr _Min(_Nodeptr _Pnode) noexcept { // return leftmost node in subtree at _Pnode

	push	ebp
	mov	ebp, esp
$LN2@Min:

; 476  :         while (!_Pnode->_Left->_Isnil) {

	mov	eax, DWORD PTR __Pnode$[ebp]
	mov	ecx, DWORD PTR [eax]
	movsx	edx, BYTE PTR [ecx+13]
	test	edx, edx
	jne	SHORT $LN3@Min

; 477  :             _Pnode = _Pnode->_Left;

	mov	eax, DWORD PTR __Pnode$[ebp]
	mov	ecx, DWORD PTR [eax]
	mov	DWORD PTR __Pnode$[ebp], ecx

; 478  :         }

	jmp	SHORT $LN2@Min
$LN3@Min:

; 479  : 
; 480  :         return _Pnode;

	mov	eax, DWORD PTR __Pnode$[ebp]

; 481  :     }

	pop	ebp
	ret	0
?_Min@?$_Tree_val@U?$_Tree_simple_types@U?$pair@$$CBHPAVBaseGameEntity@@@std@@@std@@@std@@SAPAU?$_Tree_node@U?$pair@$$CBHPAVBaseGameEntity@@@std@@PAX@2@PAU32@@Z ENDP ; std::_Tree_val<std::_Tree_simple_types<std::pair<int const ,BaseGameEntity *> > >::_Min
_TEXT	ENDS
; Function compile flags: /Odtp /RTCsu
; File C:\Program Files\Microsoft Visual Studio\2022\Community\VC\Tools\MSVC\14.44.35207\include\xtree
;	COMDAT ?_Max@?$_Tree_val@U?$_Tree_simple_types@U?$pair@$$CBHPAVBaseGameEntity@@@std@@@std@@@std@@SAPAU?$_Tree_node@U?$pair@$$CBHPAVBaseGameEntity@@@std@@PAX@2@PAU32@@Z
_TEXT	SEGMENT
__Pnode$ = 8						; size = 4
?_Max@?$_Tree_val@U?$_Tree_simple_types@U?$pair@$$CBHPAVBaseGameEntity@@@std@@@std@@@std@@SAPAU?$_Tree_node@U?$pair@$$CBHPAVBaseGameEntity@@@std@@PAX@2@PAU32@@Z PROC ; std::_Tree_val<std::_Tree_simple_types<std::pair<int const ,BaseGameEntity *> > >::_Max, COMDAT

; 467  :     static _Nodeptr _Max(_Nodeptr _Pnode) noexcept { // return rightmost node in subtree at _Pnode

	push	ebp
	mov	ebp, esp
$LN2@Max:

; 468  :         while (!_Pnode->_Right->_Isnil) {

	mov	eax, DWORD PTR __Pnode$[ebp]
	mov	ecx, DWORD PTR [eax+8]
	movsx	edx, BYTE PTR [ecx+13]
	test	edx, edx
	jne	SHORT $LN3@Max

; 469  :             _Pnode = _Pnode->_Right;

	mov	eax, DWORD PTR __Pnode$[ebp]
	mov	ecx, DWORD PTR [eax+8]
	mov	DWORD PTR __Pnode$[ebp], ecx

; 470  :         }

	jmp	SHORT $LN2@Max
$LN3@Max:

; 471  : 
; 472  :         return _Pnode;

	mov	eax, DWORD PTR __Pnode$[ebp]

; 473  :     }

	pop	ebp
	ret	0
?_Max@?$_Tree_val@U?$_Tree_simple_types@U?$pair@$$CBHPAVBaseGameEntity@@@std@@@std@@@std@@SAPAU?$_Tree_node@U?$pair@$$CBHPAVBaseGameEntity@@@std@@PAX@2@PAU32@@Z ENDP ; std::_Tree_val<std::_Tree_simple_types<std::pair<int const ,BaseGameEntity *> > >::_Max
_TEXT	ENDS
; Function compile flags: /Odtp /RTCsu
; File C:\Program Files\Microsoft Visual Studio\2022\Community\VC\Tools\MSVC\14.44.35207\include\xtree
;	COMDAT ??0?$_Tree_val@U?$_Tree_simple_types@U?$pair@$$CBHPAVBaseGameEntity@@@std@@@std@@@std@@QAE@XZ
_TEXT	SEGMENT
_this$ = -4						; size = 4
??0?$_Tree_val@U?$_Tree_simple_types@U?$pair@$$CBHPAVBaseGameEntity@@@std@@@std@@@std@@QAE@XZ PROC ; std::_Tree_val<std::_Tree_simple_types<std::pair<int const ,BaseGameEntity *> > >::_Tree_val<std::_Tree_simple_types<std::pair<int const ,BaseGameEntity *> > >, COMDAT
; _this$ = ecx

; 450  :     _Tree_val() noexcept : _Myhead(), _Mysize(0) {}

	push	ebp
	mov	ebp, esp
	push	ecx
	mov	DWORD PTR [ebp-4], -858993460		; ccccccccH
	mov	DWORD PTR _this$[ebp], ecx
	mov	ecx, DWORD PTR _this$[ebp]
	call	??0_Container_base12@std@@QAE@XZ	; std::_Container_base12::_Container_base12
	mov	eax, DWORD PTR _this$[ebp]
	mov	DWORD PTR [eax+4], 0
	mov	ecx, DWORD PTR _this$[ebp]
	mov	DWORD PTR [ecx+8], 0
	mov	eax, DWORD PTR _this$[ebp]
	add	esp, 4
	cmp	ebp, esp
	call	__RTC_CheckEsp
	mov	esp, ebp
	pop	ebp
	ret	0
??0?$_Tree_val@U?$_Tree_simple_types@U?$pair@$$CBHPAVBaseGameEntity@@@std@@@std@@@std@@QAE@XZ ENDP ; std::_Tree_val<std::_Tree_simple_types<std::pair<int const ,BaseGameEntity *> > >::_Tree_val<std::_Tree_simple_types<std::pair<int const ,BaseGameEntity *> > >
_TEXT	ENDS
; Function compile flags: /Odtp /RTCsu
; File C:\Program Files\Microsoft Visual Studio\2022\Community\VC\Tools\MSVC\14.44.35207\include\type_traits
;	COMDAT ??R?$less@H@std@@QBE_NABH0@Z
_TEXT	SEGMENT
tv65 = -8						; size = 4
_this$ = -4						; size = 4
__Left$ = 8						; size = 4
__Right$ = 12						; size = 4
??R?$less@H@std@@QBE_NABH0@Z PROC			; std::less<int>::operator(), COMDAT
; _this$ = ecx

; 2379 :         noexcept(noexcept(_STD _Fake_copy_init<bool>(_Left < _Right))) /* strengthened */ {

	push	ebp
	mov	ebp, esp
	sub	esp, 8
	mov	DWORD PTR _this$[ebp], ecx

; 2380 :         return _Left < _Right;

	mov	eax, DWORD PTR __Left$[ebp]
	mov	ecx, DWORD PTR __Right$[ebp]
	mov	edx, DWORD PTR [eax]
	cmp	edx, DWORD PTR [ecx]
	jge	SHORT $LN3@operator
	mov	DWORD PTR tv65[ebp], 1
	jmp	SHORT $LN4@operator
$LN3@operator:
	mov	DWORD PTR tv65[ebp], 0
$LN4@operator:
	movzx	eax, BYTE PTR tv65[ebp]

; 2381 :     }

	mov	esp, ebp
	pop	ebp
	ret	8
??R?$less@H@std@@QBE_NABH0@Z ENDP			; std::less<int>::operator()
_TEXT	ENDS
; Function compile flags: /Odtp /RTCsu
; File C:\Program Files\Microsoft Visual Studio\2022\Community\VC\Tools\MSVC\14.44.35207\include\xtree
;	COMDAT ?_Get_scary@?$_Tree@V?$_Tmap_traits@HPAVBaseGameEntity@@U?$less@H@std@@V?$allocator@U?$pair@$$CBHPAVBaseGameEntity@@@std@@@3@$0A@@std@@@std@@IBEPBV?$_Tree_val@U?$_Tree_simple_types@U?$pair@$$CBHPAVBaseGameEntity@@@std@@@std@@@2@XZ
_TEXT	SEGMENT
_this$ = -4						; size = 4
?_Get_scary@?$_Tree@V?$_Tmap_traits@HPAVBaseGameEntity@@U?$less@H@std@@V?$allocator@U?$pair@$$CBHPAVBaseGameEntity@@@std@@@3@$0A@@std@@@std@@IBEPBV?$_Tree_val@U?$_Tree_simple_types@U?$pair@$$CBHPAVBaseGameEntity@@@std@@@std@@@2@XZ PROC ; std::_Tree<std::_Tmap_traits<int,BaseGameEntity *,std::less<int>,std::allocator<std::pair<int const ,BaseGameEntity *> >,0> >::_Get_scary, COMDAT
; _this$ = ecx

; 1986 :     const _Scary_val* _Get_scary() const noexcept {

	push	ebp
	mov	ebp, esp
	push	ecx
	mov	DWORD PTR [ebp-4], -858993460		; ccccccccH
	mov	DWORD PTR _this$[ebp], ecx

; 1987 :         return _STD addressof(_Mypair._Myval2._Myval2);

	mov	eax, DWORD PTR _this$[ebp]
	push	eax
	call	??$addressof@$$CBV?$_Tree_val@U?$_Tree_simple_types@U?$pair@$$CBHPAVBaseGameEntity@@@std@@@std@@@std@@@std@@YAPBV?$_Tree_val@U?$_Tree_simple_types@U?$pair@$$CBHPAVBaseGameEntity@@@std@@@std@@@0@ABV10@@Z ; std::addressof<std::_Tree_val<std::_Tree_simple_types<std::pair<int const ,BaseGameEntity *> > > const >
	add	esp, 4

; 1988 :     }

	add	esp, 4
	cmp	ebp, esp
	call	__RTC_CheckEsp
	mov	esp, ebp
	pop	ebp
	ret	0
?_Get_scary@?$_Tree@V?$_Tmap_traits@HPAVBaseGameEntity@@U?$less@H@std@@V?$allocator@U?$pair@$$CBHPAVBaseGameEntity@@@std@@@3@$0A@@std@@@std@@IBEPBV?$_Tree_val@U?$_Tree_simple_types@U?$pair@$$CBHPAVBaseGameEntity@@@std@@@std@@@2@XZ ENDP ; std::_Tree<std::_Tmap_traits<int,BaseGameEntity *,std::less<int>,std::allocator<std::pair<int const ,BaseGameEntity *> >,0> >::_Get_scary
_TEXT	ENDS
; Function compile flags: /Odtp /RTCsu
; File C:\Program Files\Microsoft Visual Studio\2022\Community\VC\Tools\MSVC\14.44.35207\include\xtree
;	COMDAT ?_Get_scary@?$_Tree@V?$_Tmap_traits@HPAVBaseGameEntity@@U?$less@H@std@@V?$allocator@U?$pair@$$CBHPAVBaseGameEntity@@@std@@@3@$0A@@std@@@std@@IAEPAV?$_Tree_val@U?$_Tree_simple_types@U?$pair@$$CBHPAVBaseGameEntity@@@std@@@std@@@2@XZ
_TEXT	SEGMENT
_this$ = -4						; size = 4
?_Get_scary@?$_Tree@V?$_Tmap_traits@HPAVBaseGameEntity@@U?$less@H@std@@V?$allocator@U?$pair@$$CBHPAVBaseGameEntity@@@std@@@3@$0A@@std@@@std@@IAEPAV?$_Tree_val@U?$_Tree_simple_types@U?$pair@$$CBHPAVBaseGameEntity@@@std@@@std@@@2@XZ PROC ; std::_Tree<std::_Tmap_traits<int,BaseGameEntity *,std::less<int>,std::allocator<std::pair<int const ,BaseGameEntity *> >,0> >::_Get_scary, COMDAT
; _this$ = ecx

; 1982 :     _Scary_val* _Get_scary() noexcept {

	push	ebp
	mov	ebp, esp
	push	ecx
	mov	DWORD PTR [ebp-4], -858993460		; ccccccccH
	mov	DWORD PTR _this$[ebp], ecx

; 1983 :         return _STD addressof(_Mypair._Myval2._Myval2);

	mov	eax, DWORD PTR _this$[ebp]
	push	eax
	call	??$addressof@V?$_Tree_val@U?$_Tree_simple_types@U?$pair@$$CBHPAVBaseGameEntity@@@std@@@std@@@std@@@std@@YAPAV?$_Tree_val@U?$_Tree_simple_types@U?$pair@$$CBHPAVBaseGameEntity@@@std@@@std@@@0@AAV10@@Z ; std::addressof<std::_Tree_val<std::_Tree_simple_types<std::pair<int const ,BaseGameEntity *> > > >
	add	esp, 4

; 1984 :     }

	add	esp, 4
	cmp	ebp, esp
	call	__RTC_CheckEsp
	mov	esp, ebp
	pop	ebp
	ret	0
?_Get_scary@?$_Tree@V?$_Tmap_traits@HPAVBaseGameEntity@@U?$less@H@std@@V?$allocator@U?$pair@$$CBHPAVBaseGameEntity@@@std@@@3@$0A@@std@@@std@@IAEPAV?$_Tree_val@U?$_Tree_simple_types@U?$pair@$$CBHPAVBaseGameEntity@@@std@@@std@@@2@XZ ENDP ; std::_Tree<std::_Tmap_traits<int,BaseGameEntity *,std::less<int>,std::allocator<std::pair<int const ,BaseGameEntity *> >,0> >::_Get_scary
_TEXT	ENDS
; Function compile flags: /Odtp /RTCsu
; File C:\Program Files\Microsoft Visual Studio\2022\Community\VC\Tools\MSVC\14.44.35207\include\xtree
;	COMDAT ?_Getal@?$_Tree@V?$_Tmap_traits@HPAVBaseGameEntity@@U?$less@H@std@@V?$allocator@U?$pair@$$CBHPAVBaseGameEntity@@@std@@@3@$0A@@std@@@std@@IBEABV?$allocator@U?$_Tree_node@U?$pair@$$CBHPAVBaseGameEntity@@@std@@PAX@std@@@2@XZ
_TEXT	SEGMENT
_this$ = -4						; size = 4
?_Getal@?$_Tree@V?$_Tmap_traits@HPAVBaseGameEntity@@U?$less@H@std@@V?$allocator@U?$pair@$$CBHPAVBaseGameEntity@@@std@@@3@$0A@@std@@@std@@IBEABV?$allocator@U?$_Tree_node@U?$pair@$$CBHPAVBaseGameEntity@@@std@@PAX@std@@@2@XZ PROC ; std::_Tree<std::_Tmap_traits<int,BaseGameEntity *,std::less<int>,std::allocator<std::pair<int const ,BaseGameEntity *> >,0> >::_Getal, COMDAT
; _this$ = ecx

; 1978 :     const _Alnode& _Getal() const noexcept {

	push	ebp
	mov	ebp, esp
	push	ecx
	mov	DWORD PTR [ebp-4], -858993460		; ccccccccH
	mov	DWORD PTR _this$[ebp], ecx

; 1979 :         return _Mypair._Myval2._Get_first();

	mov	ecx, DWORD PTR _this$[ebp]
	call	?_Get_first@?$_Compressed_pair@V?$allocator@U?$_Tree_node@U?$pair@$$CBHPAVBaseGameEntity@@@std@@PAX@std@@@std@@V?$_Tree_val@U?$_Tree_simple_types@U?$pair@$$CBHPAVBaseGameEntity@@@std@@@std@@@2@$00@std@@QBEABV?$allocator@U?$_Tree_node@U?$pair@$$CBHPAVBaseGameEntity@@@std@@PAX@std@@@2@XZ ; std::_Compressed_pair<std::allocator<std::_Tree_node<std::pair<int const ,BaseGameEntity *>,void *> >,std::_Tree_val<std::_Tree_simple_types<std::pair<int const ,BaseGameEntity *> > >,1>::_Get_first

; 1980 :     }

	add	esp, 4
	cmp	ebp, esp
	call	__RTC_CheckEsp
	mov	esp, ebp
	pop	ebp
	ret	0
?_Getal@?$_Tree@V?$_Tmap_traits@HPAVBaseGameEntity@@U?$less@H@std@@V?$allocator@U?$pair@$$CBHPAVBaseGameEntity@@@std@@@3@$0A@@std@@@std@@IBEABV?$allocator@U?$_Tree_node@U?$pair@$$CBHPAVBaseGameEntity@@@std@@PAX@std@@@2@XZ ENDP ; std::_Tree<std::_Tmap_traits<int,BaseGameEntity *,std::less<int>,std::allocator<std::pair<int const ,BaseGameEntity *> >,0> >::_Getal
_TEXT	ENDS
; Function compile flags: /Odtp /RTCsu
; File C:\Program Files\Microsoft Visual Studio\2022\Community\VC\Tools\MSVC\14.44.35207\include\xtree
;	COMDAT ?_Getal@?$_Tree@V?$_Tmap_traits@HPAVBaseGameEntity@@U?$less@H@std@@V?$allocator@U?$pair@$$CBHPAVBaseGameEntity@@@std@@@3@$0A@@std@@@std@@IAEAAV?$allocator@U?$_Tree_node@U?$pair@$$CBHPAVBaseGameEntity@@@std@@PAX@std@@@2@XZ
_TEXT	SEGMENT
_this$ = -4						; size = 4
?_Getal@?$_Tree@V?$_Tmap_traits@HPAVBaseGameEntity@@U?$less@H@std@@V?$allocator@U?$pair@$$CBHPAVBaseGameEntity@@@std@@@3@$0A@@std@@@std@@IAEAAV?$allocator@U?$_Tree_node@U?$pair@$$CBHPAVBaseGameEntity@@@std@@PAX@std@@@2@XZ PROC ; std::_Tree<std::_Tmap_traits<int,BaseGameEntity *,std::less<int>,std::allocator<std::pair<int const ,BaseGameEntity *> >,0> >::_Getal, COMDAT
; _this$ = ecx

; 1974 :     _Alnode& _Getal() noexcept {

	push	ebp
	mov	ebp, esp
	push	ecx
	mov	DWORD PTR [ebp-4], -858993460		; ccccccccH
	mov	DWORD PTR _this$[ebp], ecx

; 1975 :         return _Mypair._Myval2._Get_first();

	mov	ecx, DWORD PTR _this$[ebp]
	call	?_Get_first@?$_Compressed_pair@V?$allocator@U?$_Tree_node@U?$pair@$$CBHPAVBaseGameEntity@@@std@@PAX@std@@@std@@V?$_Tree_val@U?$_Tree_simple_types@U?$pair@$$CBHPAVBaseGameEntity@@@std@@@std@@@2@$00@std@@QAEAAV?$allocator@U?$_Tree_node@U?$pair@$$CBHPAVBaseGameEntity@@@std@@PAX@std@@@2@XZ ; std::_Compressed_pair<std::allocator<std::_Tree_node<std::pair<int const ,BaseGameEntity *>,void *> >,std::_Tree_val<std::_Tree_simple_types<std::pair<int const ,BaseGameEntity *> > >,1>::_Get_first

; 1976 :     }

	add	esp, 4
	cmp	ebp, esp
	call	__RTC_CheckEsp
	mov	esp, ebp
	pop	ebp
	ret	0
?_Getal@?$_Tree@V?$_Tmap_traits@HPAVBaseGameEntity@@U?$less@H@std@@V?$allocator@U?$pair@$$CBHPAVBaseGameEntity@@@std@@@3@$0A@@std@@@std@@IAEAAV?$allocator@U?$_Tree_node@U?$pair@$$CBHPAVBaseGameEntity@@@std@@PAX@std@@@2@XZ ENDP ; std::_Tree<std::_Tmap_traits<int,BaseGameEntity *,std::less<int>,std::allocator<std::pair<int const ,BaseGameEntity *> >,0> >::_Getal
_TEXT	ENDS
; Function compile flags: /Odtp /RTCsu
; File C:\Program Files\Microsoft Visual Studio\2022\Community\VC\Tools\MSVC\14.44.35207\include\xtree
;	COMDAT ?_Getcomp@?$_Tree@V?$_Tmap_traits@HPAVBaseGameEntity@@U?$less@H@std@@V?$allocator@U?$pair@$$CBHPAVBaseGameEntity@@@std@@@3@$0A@@std@@@std@@IBEABU?$less@H@2@XZ
_TEXT	SEGMENT
_this$ = -4						; size = 4
?_Getcomp@?$_Tree@V?$_Tmap_traits@HPAVBaseGameEntity@@U?$less@H@std@@V?$allocator@U?$pair@$$CBHPAVBaseGameEntity@@@std@@@3@$0A@@std@@@std@@IBEABU?$less@H@2@XZ PROC ; std::_Tree<std::_Tmap_traits<int,BaseGameEntity *,std::less<int>,std::allocator<std::pair<int const ,BaseGameEntity *> >,0> >::_Getcomp, COMDAT
; _this$ = ecx

; 1970 :     const key_compare& _Getcomp() const noexcept {

	push	ebp
	mov	ebp, esp
	push	ecx
	mov	DWORD PTR [ebp-4], -858993460		; ccccccccH
	mov	DWORD PTR _this$[ebp], ecx

; 1971 :         return _Mypair._Get_first();

	mov	ecx, DWORD PTR _this$[ebp]
	call	?_Get_first@?$_Compressed_pair@U?$less@H@std@@V?$_Compressed_pair@V?$allocator@U?$_Tree_node@U?$pair@$$CBHPAVBaseGameEntity@@@std@@PAX@std@@@std@@V?$_Tree_val@U?$_Tree_simple_types@U?$pair@$$CBHPAVBaseGameEntity@@@std@@@std@@@2@$00@2@$00@std@@QBEABU?$less@H@2@XZ ; std::_Compressed_pair<std::less<int>,std::_Compressed_pair<std::allocator<std::_Tree_node<std::pair<int const ,BaseGameEntity *>,void *> >,std::_Tree_val<std::_Tree_simple_types<std::pair<int const ,BaseGameEntity *> > >,1>,1>::_Get_first

; 1972 :     }

	add	esp, 4
	cmp	ebp, esp
	call	__RTC_CheckEsp
	mov	esp, ebp
	pop	ebp
	ret	0
?_Getcomp@?$_Tree@V?$_Tmap_traits@HPAVBaseGameEntity@@U?$less@H@std@@V?$allocator@U?$pair@$$CBHPAVBaseGameEntity@@@std@@@3@$0A@@std@@@std@@IBEABU?$less@H@2@XZ ENDP ; std::_Tree<std::_Tmap_traits<int,BaseGameEntity *,std::less<int>,std::allocator<std::pair<int const ,BaseGameEntity *> >,0> >::_Getcomp
_TEXT	ENDS
; Function compile flags: /Odtp /RTCsu
; File C:\Program Files\Microsoft Visual Studio\2022\Community\VC\Tools\MSVC\14.44.35207\include\xtree
;	COMDAT ?_Alloc_sentinel_and_proxy@?$_Tree@V?$_Tmap_traits@HPAVBaseGameEntity@@U?$less@H@std@@V?$allocator@U?$pair@$$CBHPAVBaseGameEntity@@@std@@@3@$0A@@std@@@std@@IAEXXZ
_TEXT	SEGMENT
__Proxy$ = -48						; size = 8
_$S17$ = -29						; size = 1
__Alproxy$ = -24					; size = 4
__Scary$ = -20						; size = 4
_this$ = -16						; size = 4
__$EHRec$ = -12						; size = 12
?_Alloc_sentinel_and_proxy@?$_Tree@V?$_Tmap_traits@HPAVBaseGameEntity@@U?$less@H@std@@V?$allocator@U?$pair@$$CBHPAVBaseGameEntity@@@std@@@3@$0A@@std@@@std@@IAEXXZ PROC ; std::_Tree<std::_Tmap_traits<int,BaseGameEntity *,std::less<int>,std::allocator<std::pair<int const ,BaseGameEntity *> >,0> >::_Alloc_sentinel_and_proxy, COMDAT
; _this$ = ecx

; 1953 :     void _Alloc_sentinel_and_proxy() {

	push	ebp
	mov	ebp, esp
	push	-1
	push	__ehhandler$?_Alloc_sentinel_and_proxy@?$_Tree@V?$_Tmap_traits@HPAVBaseGameEntity@@U?$less@H@std@@V?$allocator@U?$pair@$$CBHPAVBaseGameEntity@@@std@@@3@$0A@@std@@@std@@IAEXXZ
	mov	eax, DWORD PTR fs:0
	push	eax
	sub	esp, 40					; 00000028H
	push	edi
	push	ecx
	lea	edi, DWORD PTR [ebp-52]
	mov	ecx, 10					; 0000000aH
	mov	eax, -858993460				; ccccccccH
	rep stosd
	pop	ecx
	mov	eax, DWORD PTR ___security_cookie
	xor	eax, ebp
	push	eax
	lea	eax, DWORD PTR __$EHRec$[ebp]
	mov	DWORD PTR fs:0, eax
	mov	DWORD PTR _this$[ebp], ecx

; 1954 :         const auto _Scary = _Get_scary();

	mov	ecx, DWORD PTR _this$[ebp]
	call	?_Get_scary@?$_Tree@V?$_Tmap_traits@HPAVBaseGameEntity@@U?$less@H@std@@V?$allocator@U?$pair@$$CBHPAVBaseGameEntity@@@std@@@3@$0A@@std@@@std@@IAEPAV?$_Tree_val@U?$_Tree_simple_types@U?$pair@$$CBHPAVBaseGameEntity@@@std@@@std@@@2@XZ ; std::_Tree<std::_Tmap_traits<int,BaseGameEntity *,std::less<int>,std::allocator<std::pair<int const ,BaseGameEntity *> >,0> >::_Get_scary
	mov	DWORD PTR __Scary$[ebp], eax

; 1955 :         auto&& _Alproxy   = _GET_PROXY_ALLOCATOR(_Alnode, _Getal());

	mov	ecx, DWORD PTR _this$[ebp]
	call	?_Getal@?$_Tree@V?$_Tmap_traits@HPAVBaseGameEntity@@U?$less@H@std@@V?$allocator@U?$pair@$$CBHPAVBaseGameEntity@@@std@@@3@$0A@@std@@@std@@IAEAAV?$allocator@U?$_Tree_node@U?$pair@$$CBHPAVBaseGameEntity@@@std@@PAX@std@@@2@XZ ; std::_Tree<std::_Tmap_traits<int,BaseGameEntity *,std::less<int>,std::allocator<std::pair<int const ,BaseGameEntity *> >,0> >::_Getal
	push	eax
	lea	ecx, DWORD PTR _$S17$[ebp]
	call	??$?0U?$_Tree_node@U?$pair@$$CBHPAVBaseGameEntity@@@std@@PAX@std@@@?$allocator@U_Container_proxy@std@@@std@@QAE@ABV?$allocator@U?$_Tree_node@U?$pair@$$CBHPAVBaseGameEntity@@@std@@PAX@std@@@1@@Z ; std::allocator<std::_Container_proxy>::allocator<std::_Container_proxy><std::_Tree_node<std::pair<int const ,BaseGameEntity *>,void *> >
	lea	eax, DWORD PTR _$S17$[ebp]
	mov	DWORD PTR __Alproxy$[ebp], eax

; 1956 :         _Container_proxy_ptr<_Alnode> _Proxy(_Alproxy, *_Scary);

	mov	ecx, DWORD PTR __Scary$[ebp]
	push	ecx
	mov	edx, DWORD PTR __Alproxy$[ebp]
	push	edx
	lea	ecx, DWORD PTR __Proxy$[ebp]
	call	??0?$_Container_proxy_ptr12@V?$allocator@U_Container_proxy@std@@@std@@@std@@QAE@AAV?$allocator@U_Container_proxy@std@@@1@AAU_Container_base12@1@@Z ; std::_Container_proxy_ptr12<std::allocator<std::_Container_proxy> >::_Container_proxy_ptr12<std::allocator<std::_Container_proxy> >
	mov	DWORD PTR __$EHRec$[ebp+8], 0

; 1957 :         _Scary->_Myhead = _Node::_Buyheadnode(_Getal());

	mov	ecx, DWORD PTR _this$[ebp]
	call	?_Getal@?$_Tree@V?$_Tmap_traits@HPAVBaseGameEntity@@U?$less@H@std@@V?$allocator@U?$pair@$$CBHPAVBaseGameEntity@@@std@@@3@$0A@@std@@@std@@IAEAAV?$allocator@U?$_Tree_node@U?$pair@$$CBHPAVBaseGameEntity@@@std@@PAX@std@@@2@XZ ; std::_Tree<std::_Tmap_traits<int,BaseGameEntity *,std::less<int>,std::allocator<std::pair<int const ,BaseGameEntity *> >,0> >::_Getal
	push	eax
	call	??$_Buyheadnode@V?$allocator@U?$_Tree_node@U?$pair@$$CBHPAVBaseGameEntity@@@std@@PAX@std@@@std@@@?$_Tree_node@U?$pair@$$CBHPAVBaseGameEntity@@@std@@PAX@std@@SAPAU01@AAV?$allocator@U?$_Tree_node@U?$pair@$$CBHPAVBaseGameEntity@@@std@@PAX@std@@@1@@Z ; std::_Tree_node<std::pair<int const ,BaseGameEntity *>,void *>::_Buyheadnode<std::allocator<std::_Tree_node<std::pair<int const ,BaseGameEntity *>,void *> > >
	add	esp, 4
	mov	ecx, DWORD PTR __Scary$[ebp]
	mov	DWORD PTR [ecx+4], eax

; 1958 :         _Proxy._Release();

	lea	ecx, DWORD PTR __Proxy$[ebp]
	call	?_Release@_Basic_container_proxy_ptr12@std@@QAEXXZ ; std::_Basic_container_proxy_ptr12::_Release

; 1959 :     }

	mov	DWORD PTR __$EHRec$[ebp+8], -1
	lea	ecx, DWORD PTR __Proxy$[ebp]
	call	??1?$_Container_proxy_ptr12@V?$allocator@U_Container_proxy@std@@@std@@@std@@QAE@XZ ; std::_Container_proxy_ptr12<std::allocator<std::_Container_proxy> >::~_Container_proxy_ptr12<std::allocator<std::_Container_proxy> >
	npad	1
	push	edx
	mov	ecx, ebp
	push	eax
	lea	edx, DWORD PTR $LN8@Alloc_sent
	call	@_RTC_CheckStackVars@8
	pop	eax
	pop	edx
	mov	ecx, DWORD PTR __$EHRec$[ebp]
	mov	DWORD PTR fs:0, ecx
	pop	ecx
	pop	edi
	add	esp, 52					; 00000034H
	cmp	ebp, esp
	call	__RTC_CheckEsp
	mov	esp, ebp
	pop	ebp
	ret	0
	npad	3
$LN8@Alloc_sent:
	DD	2
	DD	$LN7@Alloc_sent
$LN7@Alloc_sent:
	DD	-29					; ffffffe3H
	DD	1
	DD	$LN4@Alloc_sent
	DD	-48					; ffffffd0H
	DD	8
	DD	$LN5@Alloc_sent
$LN5@Alloc_sent:
	DB	95					; 0000005fH
	DB	80					; 00000050H
	DB	114					; 00000072H
	DB	111					; 0000006fH
	DB	120					; 00000078H
	DB	121					; 00000079H
	DB	0
$LN4@Alloc_sent:
	DB	36					; 00000024H
	DB	83					; 00000053H
	DB	49					; 00000031H
	DB	55					; 00000037H
	DB	0
_TEXT	ENDS
;	COMDAT text$x
text$x	SEGMENT
__unwindfunclet$?_Alloc_sentinel_and_proxy@?$_Tree@V?$_Tmap_traits@HPAVBaseGameEntity@@U?$less@H@std@@V?$allocator@U?$pair@$$CBHPAVBaseGameEntity@@@std@@@3@$0A@@std@@@std@@IAEXXZ$0:
	lea	ecx, DWORD PTR __Proxy$[ebp]
	jmp	??1?$_Container_proxy_ptr12@V?$allocator@U_Container_proxy@std@@@std@@@std@@QAE@XZ ; std::_Container_proxy_ptr12<std::allocator<std::_Container_proxy> >::~_Container_proxy_ptr12<std::allocator<std::_Container_proxy> >
	int	3
	int	3
	int	3
	int	3
	int	3
__ehhandler$?_Alloc_sentinel_and_proxy@?$_Tree@V?$_Tmap_traits@HPAVBaseGameEntity@@U?$less@H@std@@V?$allocator@U?$pair@$$CBHPAVBaseGameEntity@@@std@@@3@$0A@@std@@@std@@IAEXXZ:
	npad	1
	npad	1
	mov	edx, DWORD PTR [esp+8]
	lea	eax, DWORD PTR [edx+12]
	mov	ecx, DWORD PTR [edx-48]
	xor	ecx, eax
	call	@__security_check_cookie@4
	mov	eax, OFFSET __ehfuncinfo$?_Alloc_sentinel_and_proxy@?$_Tree@V?$_Tmap_traits@HPAVBaseGameEntity@@U?$less@H@std@@V?$allocator@U?$pair@$$CBHPAVBaseGameEntity@@@std@@@3@$0A@@std@@@std@@IAEXXZ
	jmp	___CxxFrameHandler3
text$x	ENDS
?_Alloc_sentinel_and_proxy@?$_Tree@V?$_Tmap_traits@HPAVBaseGameEntity@@U?$less@H@std@@V?$allocator@U?$pair@$$CBHPAVBaseGameEntity@@@std@@@3@$0A@@std@@@std@@IAEXXZ ENDP ; std::_Tree<std::_Tmap_traits<int,BaseGameEntity *,std::less<int>,std::allocator<std::pair<int const ,BaseGameEntity *> >,0> >::_Alloc_sentinel_and_proxy
; Function compile flags: /Odtp /RTCsu
; File C:\Program Files\Microsoft Visual Studio\2022\Community\VC\Tools\MSVC\14.44.35207\include\xtree
;	COMDAT ?_Check_grow_by_1@?$_Tree@V?$_Tmap_traits@HPAVBaseGameEntity@@U?$less@H@std@@V?$allocator@U?$pair@$$CBHPAVBaseGameEntity@@@std@@@3@$0A@@std@@@std@@IAEXXZ
_TEXT	SEGMENT
_this$ = -4						; size = 4
?_Check_grow_by_1@?$_Tree@V?$_Tmap_traits@HPAVBaseGameEntity@@U?$less@H@std@@V?$allocator@U?$pair@$$CBHPAVBaseGameEntity@@@std@@@3@$0A@@std@@@std@@IAEXXZ PROC ; std::_Tree<std::_Tmap_traits<int,BaseGameEntity *,std::less<int>,std::allocator<std::pair<int const ,BaseGameEntity *> >,0> >::_Check_grow_by_1, COMDAT
; _this$ = ecx

; 1647 :     void _Check_grow_by_1() {

	push	ebp
	mov	ebp, esp
	push	ecx
	push	esi
	mov	DWORD PTR [ebp-4], -858993460		; ccccccccH
	mov	DWORD PTR _this$[ebp], ecx

; 1648 :         if (max_size() == _Get_scary()->_Mysize) {

	mov	ecx, DWORD PTR _this$[ebp]
	call	?max_size@?$_Tree@V?$_Tmap_traits@HPAVBaseGameEntity@@U?$less@H@std@@V?$allocator@U?$pair@$$CBHPAVBaseGameEntity@@@std@@@3@$0A@@std@@@std@@QBEIXZ ; std::_Tree<std::_Tmap_traits<int,BaseGameEntity *,std::less<int>,std::allocator<std::pair<int const ,BaseGameEntity *> >,0> >::max_size
	mov	esi, eax
	mov	ecx, DWORD PTR _this$[ebp]
	call	?_Get_scary@?$_Tree@V?$_Tmap_traits@HPAVBaseGameEntity@@U?$less@H@std@@V?$allocator@U?$pair@$$CBHPAVBaseGameEntity@@@std@@@3@$0A@@std@@@std@@IAEPAV?$_Tree_val@U?$_Tree_simple_types@U?$pair@$$CBHPAVBaseGameEntity@@@std@@@std@@@2@XZ ; std::_Tree<std::_Tmap_traits<int,BaseGameEntity *,std::less<int>,std::allocator<std::pair<int const ,BaseGameEntity *> >,0> >::_Get_scary
	cmp	esi, DWORD PTR [eax+8]
	jne	SHORT $LN2@Check_grow

; 1649 :             _Throw_tree_length_error();

	call	?_Throw_tree_length_error@std@@YAXXZ	; std::_Throw_tree_length_error
	npad	1
$LN2@Check_grow:
$LN1@Check_grow:

; 1650 :         }
; 1651 :     }

	pop	esi
	add	esp, 4
	cmp	ebp, esp
	call	__RTC_CheckEsp
	mov	esp, ebp
	pop	ebp
	ret	0
?_Check_grow_by_1@?$_Tree@V?$_Tmap_traits@HPAVBaseGameEntity@@U?$less@H@std@@V?$allocator@U?$pair@$$CBHPAVBaseGameEntity@@@std@@@3@$0A@@std@@@std@@IAEXXZ ENDP ; std::_Tree<std::_Tmap_traits<int,BaseGameEntity *,std::less<int>,std::allocator<std::pair<int const ,BaseGameEntity *> >,0> >::_Check_grow_by_1
_TEXT	ENDS
; Function compile flags: /Odtp /RTCsu
; File C:\Program Files\Microsoft Visual Studio\2022\Community\VC\Tools\MSVC\14.44.35207\include\xtree
;	COMDAT ?find@?$_Tree@V?$_Tmap_traits@HPAVBaseGameEntity@@U?$less@H@std@@V?$allocator@U?$pair@$$CBHPAVBaseGameEntity@@@std@@@3@$0A@@std@@@std@@QBE?AV?$_Tree_const_iterator@V?$_Tree_val@U?$_Tree_simple_types@U?$pair@$$CBHPAVBaseGameEntity@@@std@@@std@@@std@@@2@ABH@Z
_TEXT	SEGMENT
$T1 = -8						; size = 4
_this$ = -4						; size = 4
___$ReturnUdt$ = 8					; size = 4
__Keyval$ = 12						; size = 4
?find@?$_Tree@V?$_Tmap_traits@HPAVBaseGameEntity@@U?$less@H@std@@V?$allocator@U?$pair@$$CBHPAVBaseGameEntity@@@std@@@3@$0A@@std@@@std@@QBE?AV?$_Tree_const_iterator@V?$_Tree_val@U?$_Tree_simple_types@U?$pair@$$CBHPAVBaseGameEntity@@@std@@@std@@@std@@@2@ABH@Z PROC ; std::_Tree<std::_Tmap_traits<int,BaseGameEntity *,std::less<int>,std::allocator<std::pair<int const ,BaseGameEntity *> >,0> >::find, COMDAT
; _this$ = ecx

; 1397 :     _NODISCARD const_iterator find(const key_type& _Keyval) const {

	push	ebp
	mov	ebp, esp
	sub	esp, 8
	mov	DWORD PTR [ebp-8], -858993460		; ccccccccH
	mov	DWORD PTR [ebp-4], -858993460		; ccccccccH
	mov	DWORD PTR _this$[ebp], ecx
	mov	DWORD PTR $T1[ebp], 0

; 1398 :         return const_iterator(_Find(_Keyval), _Get_scary());

	mov	ecx, DWORD PTR _this$[ebp]
	call	?_Get_scary@?$_Tree@V?$_Tmap_traits@HPAVBaseGameEntity@@U?$less@H@std@@V?$allocator@U?$pair@$$CBHPAVBaseGameEntity@@@std@@@3@$0A@@std@@@std@@IBEPBV?$_Tree_val@U?$_Tree_simple_types@U?$pair@$$CBHPAVBaseGameEntity@@@std@@@std@@@2@XZ ; std::_Tree<std::_Tmap_traits<int,BaseGameEntity *,std::less<int>,std::allocator<std::pair<int const ,BaseGameEntity *> >,0> >::_Get_scary
	push	eax
	mov	eax, DWORD PTR __Keyval$[ebp]
	push	eax
	mov	ecx, DWORD PTR _this$[ebp]
	call	??$_Find@H@?$_Tree@V?$_Tmap_traits@HPAVBaseGameEntity@@U?$less@H@std@@V?$allocator@U?$pair@$$CBHPAVBaseGameEntity@@@std@@@3@$0A@@std@@@std@@ABEPAU?$_Tree_node@U?$pair@$$CBHPAVBaseGameEntity@@@std@@PAX@1@ABH@Z ; std::_Tree<std::_Tmap_traits<int,BaseGameEntity *,std::less<int>,std::allocator<std::pair<int const ,BaseGameEntity *> >,0> >::_Find<int>
	push	eax
	mov	ecx, DWORD PTR ___$ReturnUdt$[ebp]
	call	??0?$_Tree_const_iterator@V?$_Tree_val@U?$_Tree_simple_types@U?$pair@$$CBHPAVBaseGameEntity@@@std@@@std@@@std@@@std@@QAE@PAU?$_Tree_node@U?$pair@$$CBHPAVBaseGameEntity@@@std@@PAX@1@PBV?$_Tree_val@U?$_Tree_simple_types@U?$pair@$$CBHPAVBaseGameEntity@@@std@@@std@@@1@@Z
	mov	ecx, DWORD PTR $T1[ebp]
	or	ecx, 1
	mov	DWORD PTR $T1[ebp], ecx
	mov	eax, DWORD PTR ___$ReturnUdt$[ebp]

; 1399 :     }

	add	esp, 8
	cmp	ebp, esp
	call	__RTC_CheckEsp
	mov	esp, ebp
	pop	ebp
	ret	8
?find@?$_Tree@V?$_Tmap_traits@HPAVBaseGameEntity@@U?$less@H@std@@V?$allocator@U?$pair@$$CBHPAVBaseGameEntity@@@std@@@3@$0A@@std@@@std@@QBE?AV?$_Tree_const_iterator@V?$_Tree_val@U?$_Tree_simple_types@U?$pair@$$CBHPAVBaseGameEntity@@@std@@@std@@@std@@@2@ABH@Z ENDP ; std::_Tree<std::_Tmap_traits<int,BaseGameEntity *,std::less<int>,std::allocator<std::pair<int const ,BaseGameEntity *> >,0> >::find
_TEXT	ENDS
; Function compile flags: /Odtp /RTCsu
; File C:\Program Files\Microsoft Visual Studio\2022\Community\VC\Tools\MSVC\14.44.35207\include\xtree
;	COMDAT ?find@?$_Tree@V?$_Tmap_traits@HPAVBaseGameEntity@@U?$less@H@std@@V?$allocator@U?$pair@$$CBHPAVBaseGameEntity@@@std@@@3@$0A@@std@@@std@@QAE?AV?$_Tree_iterator@V?$_Tree_val@U?$_Tree_simple_types@U?$pair@$$CBHPAVBaseGameEntity@@@std@@@std@@@std@@@2@ABH@Z
_TEXT	SEGMENT
$T1 = -8						; size = 4
_this$ = -4						; size = 4
___$ReturnUdt$ = 8					; size = 4
__Keyval$ = 12						; size = 4
?find@?$_Tree@V?$_Tmap_traits@HPAVBaseGameEntity@@U?$less@H@std@@V?$allocator@U?$pair@$$CBHPAVBaseGameEntity@@@std@@@3@$0A@@std@@@std@@QAE?AV?$_Tree_iterator@V?$_Tree_val@U?$_Tree_simple_types@U?$pair@$$CBHPAVBaseGameEntity@@@std@@@std@@@std@@@2@ABH@Z PROC ; std::_Tree<std::_Tmap_traits<int,BaseGameEntity *,std::less<int>,std::allocator<std::pair<int const ,BaseGameEntity *> >,0> >::find, COMDAT
; _this$ = ecx

; 1393 :     _NODISCARD iterator find(const key_type& _Keyval) {

	push	ebp
	mov	ebp, esp
	sub	esp, 8
	mov	DWORD PTR [ebp-8], -858993460		; ccccccccH
	mov	DWORD PTR [ebp-4], -858993460		; ccccccccH
	mov	DWORD PTR _this$[ebp], ecx
	mov	DWORD PTR $T1[ebp], 0

; 1394 :         return iterator(_Find(_Keyval), _Get_scary());

	mov	ecx, DWORD PTR _this$[ebp]
	call	?_Get_scary@?$_Tree@V?$_Tmap_traits@HPAVBaseGameEntity@@U?$less@H@std@@V?$allocator@U?$pair@$$CBHPAVBaseGameEntity@@@std@@@3@$0A@@std@@@std@@IAEPAV?$_Tree_val@U?$_Tree_simple_types@U?$pair@$$CBHPAVBaseGameEntity@@@std@@@std@@@2@XZ ; std::_Tree<std::_Tmap_traits<int,BaseGameEntity *,std::less<int>,std::allocator<std::pair<int const ,BaseGameEntity *> >,0> >::_Get_scary
	push	eax
	mov	eax, DWORD PTR __Keyval$[ebp]
	push	eax
	mov	ecx, DWORD PTR _this$[ebp]
	call	??$_Find@H@?$_Tree@V?$_Tmap_traits@HPAVBaseGameEntity@@U?$less@H@std@@V?$allocator@U?$pair@$$CBHPAVBaseGameEntity@@@std@@@3@$0A@@std@@@std@@ABEPAU?$_Tree_node@U?$pair@$$CBHPAVBaseGameEntity@@@std@@PAX@1@ABH@Z ; std::_Tree<std::_Tmap_traits<int,BaseGameEntity *,std::less<int>,std::allocator<std::pair<int const ,BaseGameEntity *> >,0> >::_Find<int>
	push	eax
	mov	ecx, DWORD PTR ___$ReturnUdt$[ebp]
	call	??0?$_Tree_iterator@V?$_Tree_val@U?$_Tree_simple_types@U?$pair@$$CBHPAVBaseGameEntity@@@std@@@std@@@std@@@std@@QAE@PAU?$_Tree_node@U?$pair@$$CBHPAVBaseGameEntity@@@std@@PAX@1@PBV?$_Tree_val@U?$_Tree_simple_types@U?$pair@$$CBHPAVBaseGameEntity@@@std@@@std@@@1@@Z
	mov	ecx, DWORD PTR $T1[ebp]
	or	ecx, 1
	mov	DWORD PTR $T1[ebp], ecx
	mov	eax, DWORD PTR ___$ReturnUdt$[ebp]

; 1395 :     }

	add	esp, 8
	cmp	ebp, esp
	call	__RTC_CheckEsp
	mov	esp, ebp
	pop	ebp
	ret	8
?find@?$_Tree@V?$_Tmap_traits@HPAVBaseGameEntity@@U?$less@H@std@@V?$allocator@U?$pair@$$CBHPAVBaseGameEntity@@@std@@@3@$0A@@std@@@std@@QAE?AV?$_Tree_iterator@V?$_Tree_val@U?$_Tree_simple_types@U?$pair@$$CBHPAVBaseGameEntity@@@std@@@std@@@std@@@2@ABH@Z ENDP ; std::_Tree<std::_Tmap_traits<int,BaseGameEntity *,std::less<int>,std::allocator<std::pair<int const ,BaseGameEntity *> >,0> >::find
_TEXT	ENDS
; Function compile flags: /Odtp /RTCsu
; File C:\Program Files\Microsoft Visual Studio\2022\Community\VC\Tools\MSVC\14.44.35207\include\xtree
;	COMDAT ?_Erase_unchecked@?$_Tree@V?$_Tmap_traits@HPAVBaseGameEntity@@U?$less@H@std@@V?$allocator@U?$pair@$$CBHPAVBaseGameEntity@@@std@@@3@$0A@@std@@@std@@AAEPAU?$_Tree_node@U?$pair@$$CBHPAVBaseGameEntity@@@std@@PAX@2@V?$_Tree_unchecked_const_iterator@V?$_Tree_val@U?$_Tree_simple_types@U?$pair@$$CBHPAVBaseGameEntity@@@std@@@std@@@std@@U_Iterator_base0@2@@2@@Z
_TEXT	SEGMENT
__Erasednode$ = -24					; size = 4
__Successor$ = -16					; size = 4
__Scary$ = -8						; size = 4
_this$ = -4						; size = 4
__Where$ = 8						; size = 4
?_Erase_unchecked@?$_Tree@V?$_Tmap_traits@HPAVBaseGameEntity@@U?$less@H@std@@V?$allocator@U?$pair@$$CBHPAVBaseGameEntity@@@std@@@3@$0A@@std@@@std@@AAEPAU?$_Tree_node@U?$pair@$$CBHPAVBaseGameEntity@@@std@@PAX@2@V?$_Tree_unchecked_const_iterator@V?$_Tree_val@U?$_Tree_simple_types@U?$pair@$$CBHPAVBaseGameEntity@@@std@@@std@@@std@@U_Iterator_base0@2@@2@@Z PROC ; std::_Tree<std::_Tmap_traits<int,BaseGameEntity *,std::less<int>,std::allocator<std::pair<int const ,BaseGameEntity *> >,0> >::_Erase_unchecked, COMDAT
; _this$ = ecx

; 1299 :     _Nodeptr _Erase_unchecked(_Unchecked_const_iterator _Where) noexcept {

	push	ebp
	mov	ebp, esp
	sub	esp, 24					; 00000018H
	mov	eax, -858993460				; ccccccccH
	mov	DWORD PTR [ebp-24], eax
	mov	DWORD PTR [ebp-20], eax
	mov	DWORD PTR [ebp-16], eax
	mov	DWORD PTR [ebp-12], eax
	mov	DWORD PTR [ebp-8], eax
	mov	DWORD PTR [ebp-4], eax
	mov	DWORD PTR _this$[ebp], ecx

; 1300 :         const auto _Scary                    = _Get_scary();

	mov	ecx, DWORD PTR _this$[ebp]
	call	?_Get_scary@?$_Tree@V?$_Tmap_traits@HPAVBaseGameEntity@@U?$less@H@std@@V?$allocator@U?$pair@$$CBHPAVBaseGameEntity@@@std@@@3@$0A@@std@@@std@@IAEPAV?$_Tree_val@U?$_Tree_simple_types@U?$pair@$$CBHPAVBaseGameEntity@@@std@@@std@@@2@XZ ; std::_Tree<std::_Tmap_traits<int,BaseGameEntity *,std::less<int>,std::allocator<std::pair<int const ,BaseGameEntity *> >,0> >::_Get_scary
	mov	DWORD PTR __Scary$[ebp], eax

; 1301 :         _Unchecked_const_iterator _Successor = _Where;

	mov	eax, DWORD PTR __Where$[ebp]
	mov	DWORD PTR __Successor$[ebp], eax

; 1302 :         ++_Successor; // save successor iterator for return

	lea	ecx, DWORD PTR __Successor$[ebp]
	call	??E?$_Tree_unchecked_const_iterator@V?$_Tree_val@U?$_Tree_simple_types@U?$pair@$$CBHPAVBaseGameEntity@@@std@@@std@@@std@@U_Iterator_base0@2@@std@@QAEAAV01@XZ ; std::_Tree_unchecked_const_iterator<std::_Tree_val<std::_Tree_simple_types<std::pair<int const ,BaseGameEntity *> > >,std::_Iterator_base0>::operator++

; 1303 :         _Nodeptr _Erasednode = _Scary->_Extract(_Where); // node to erase

	mov	ecx, DWORD PTR __Where$[ebp]
	push	ecx
	mov	ecx, DWORD PTR __Scary$[ebp]
	call	?_Extract@?$_Tree_val@U?$_Tree_simple_types@U?$pair@$$CBHPAVBaseGameEntity@@@std@@@std@@@std@@QAEPAU?$_Tree_node@U?$pair@$$CBHPAVBaseGameEntity@@@std@@PAX@2@V?$_Tree_unchecked_const_iterator@V?$_Tree_val@U?$_Tree_simple_types@U?$pair@$$CBHPAVBaseGameEntity@@@std@@@std@@@std@@U_Iterator_base0@2@@2@@Z ; std::_Tree_val<std::_Tree_simple_types<std::pair<int const ,BaseGameEntity *> > >::_Extract
	mov	DWORD PTR __Erasednode$[ebp], eax

; 1304 :         _Scary->_Orphan_ptr(_Erasednode);

	mov	edx, DWORD PTR __Erasednode$[ebp]
	push	edx
	mov	ecx, DWORD PTR __Scary$[ebp]
	call	?_Orphan_ptr@?$_Tree_val@U?$_Tree_simple_types@U?$pair@$$CBHPAVBaseGameEntity@@@std@@@std@@@std@@QAEXQAU?$_Tree_node@U?$pair@$$CBHPAVBaseGameEntity@@@std@@PAX@2@@Z ; std::_Tree_val<std::_Tree_simple_types<std::pair<int const ,BaseGameEntity *> > >::_Orphan_ptr

; 1305 :         _Node::_Freenode(_Getal(), _Erasednode); // delete erased node

	mov	eax, DWORD PTR __Erasednode$[ebp]
	push	eax
	mov	ecx, DWORD PTR _this$[ebp]
	call	?_Getal@?$_Tree@V?$_Tmap_traits@HPAVBaseGameEntity@@U?$less@H@std@@V?$allocator@U?$pair@$$CBHPAVBaseGameEntity@@@std@@@3@$0A@@std@@@std@@IAEAAV?$allocator@U?$_Tree_node@U?$pair@$$CBHPAVBaseGameEntity@@@std@@PAX@std@@@2@XZ ; std::_Tree<std::_Tmap_traits<int,BaseGameEntity *,std::less<int>,std::allocator<std::pair<int const ,BaseGameEntity *> >,0> >::_Getal
	push	eax
	call	??$_Freenode@V?$allocator@U?$_Tree_node@U?$pair@$$CBHPAVBaseGameEntity@@@std@@PAX@std@@@std@@@?$_Tree_node@U?$pair@$$CBHPAVBaseGameEntity@@@std@@PAX@std@@SAXAAV?$allocator@U?$_Tree_node@U?$pair@$$CBHPAVBaseGameEntity@@@std@@PAX@std@@@1@PAU01@@Z ; std::_Tree_node<std::pair<int const ,BaseGameEntity *>,void *>::_Freenode<std::allocator<std::_Tree_node<std::pair<int const ,BaseGameEntity *>,void *> > >
	add	esp, 8

; 1306 :         return _Successor._Ptr; // return successor nodeptr

	mov	eax, DWORD PTR __Successor$[ebp]

; 1307 :     }

	push	edx
	mov	ecx, ebp
	push	eax
	lea	edx, DWORD PTR $LN6@Erase_unch
	call	@_RTC_CheckStackVars@8
	pop	eax
	pop	edx
	add	esp, 24					; 00000018H
	cmp	ebp, esp
	call	__RTC_CheckEsp
	mov	esp, ebp
	pop	ebp
	ret	4
	npad	3
$LN6@Erase_unch:
	DD	1
	DD	$LN5@Erase_unch
$LN5@Erase_unch:
	DD	-16					; fffffff0H
	DD	4
	DD	$LN4@Erase_unch
$LN4@Erase_unch:
	DB	95					; 0000005fH
	DB	83					; 00000053H
	DB	117					; 00000075H
	DB	99					; 00000063H
	DB	99					; 00000063H
	DB	101					; 00000065H
	DB	115					; 00000073H
	DB	115					; 00000073H
	DB	111					; 0000006fH
	DB	114					; 00000072H
	DB	0
?_Erase_unchecked@?$_Tree@V?$_Tmap_traits@HPAVBaseGameEntity@@U?$less@H@std@@V?$allocator@U?$pair@$$CBHPAVBaseGameEntity@@@std@@@3@$0A@@std@@@std@@AAEPAU?$_Tree_node@U?$pair@$$CBHPAVBaseGameEntity@@@std@@PAX@2@V?$_Tree_unchecked_const_iterator@V?$_Tree_val@U?$_Tree_simple_types@U?$pair@$$CBHPAVBaseGameEntity@@@std@@@std@@@std@@U_Iterator_base0@2@@2@@Z ENDP ; std::_Tree<std::_Tmap_traits<int,BaseGameEntity *,std::less<int>,std::allocator<std::pair<int const ,BaseGameEntity *> >,0> >::_Erase_unchecked
_TEXT	ENDS
; Function compile flags: /Odtp /RTCsu
; File C:\Program Files\Microsoft Visual Studio\2022\Community\VC\Tools\MSVC\14.44.35207\include\xtree
;	COMDAT ?max_size@?$_Tree@V?$_Tmap_traits@HPAVBaseGameEntity@@U?$less@H@std@@V?$allocator@U?$pair@$$CBHPAVBaseGameEntity@@@std@@@3@$0A@@std@@@std@@QBEIXZ
_TEXT	SEGMENT
$T1 = -12						; size = 4
$T2 = -8						; size = 4
_this$ = -4						; size = 4
?max_size@?$_Tree@V?$_Tmap_traits@HPAVBaseGameEntity@@U?$less@H@std@@V?$allocator@U?$pair@$$CBHPAVBaseGameEntity@@@std@@@3@$0A@@std@@@std@@QBEIXZ PROC ; std::_Tree<std::_Tmap_traits<int,BaseGameEntity *,std::less<int>,std::allocator<std::pair<int const ,BaseGameEntity *> >,0> >::max_size, COMDAT
; _this$ = ecx

; 1212 :     _NODISCARD size_type max_size() const noexcept {

	push	ebp
	mov	ebp, esp
	sub	esp, 12					; 0000000cH
	mov	DWORD PTR [ebp-12], -858993460		; ccccccccH
	mov	DWORD PTR [ebp-8], -858993460		; ccccccccH
	mov	DWORD PTR [ebp-4], -858993460		; ccccccccH
	mov	DWORD PTR _this$[ebp], ecx

; 1213 :         return (_STD min)(

	mov	ecx, DWORD PTR _this$[ebp]
	call	?_Getal@?$_Tree@V?$_Tmap_traits@HPAVBaseGameEntity@@U?$less@H@std@@V?$allocator@U?$pair@$$CBHPAVBaseGameEntity@@@std@@@3@$0A@@std@@@std@@IBEABV?$allocator@U?$_Tree_node@U?$pair@$$CBHPAVBaseGameEntity@@@std@@PAX@std@@@2@XZ ; std::_Tree<std::_Tmap_traits<int,BaseGameEntity *,std::less<int>,std::allocator<std::pair<int const ,BaseGameEntity *> >,0> >::_Getal
	push	eax
	call	?max_size@?$_Default_allocator_traits@V?$allocator@U?$_Tree_node@U?$pair@$$CBHPAVBaseGameEntity@@@std@@PAX@std@@@std@@@std@@SAIABV?$allocator@U?$_Tree_node@U?$pair@$$CBHPAVBaseGameEntity@@@std@@PAX@std@@@2@@Z ; std::_Default_allocator_traits<std::allocator<std::_Tree_node<std::pair<int const ,BaseGameEntity *>,void *> > >::max_size
	add	esp, 4
	mov	DWORD PTR $T2[ebp], eax
	call	??$_Max_limit@H@std@@YAHXZ		; std::_Max_limit<int>
	mov	DWORD PTR $T1[ebp], eax
	lea	eax, DWORD PTR $T2[ebp]
	push	eax
	lea	ecx, DWORD PTR $T1[ebp]
	push	ecx
	call	??$min@I@std@@YAABIABI0@Z		; std::min<unsigned int>
	add	esp, 8
	mov	eax, DWORD PTR [eax]

; 1214 :             static_cast<size_type>(_STD _Max_limit<difference_type>()), _Alnode_traits::max_size(_Getal()));
; 1215 :     }

	add	esp, 12					; 0000000cH
	cmp	ebp, esp
	call	__RTC_CheckEsp
	mov	esp, ebp
	pop	ebp
	ret	0
?max_size@?$_Tree@V?$_Tmap_traits@HPAVBaseGameEntity@@U?$less@H@std@@V?$allocator@U?$pair@$$CBHPAVBaseGameEntity@@@std@@@3@$0A@@std@@@std@@QBEIXZ ENDP ; std::_Tree<std::_Tmap_traits<int,BaseGameEntity *,std::less<int>,std::allocator<std::pair<int const ,BaseGameEntity *> >,0> >::max_size
_TEXT	ENDS
; Function compile flags: /Odtp /RTCsu
; File C:\Program Files\Microsoft Visual Studio\2022\Community\VC\Tools\MSVC\14.44.35207\include\xtree
;	COMDAT ?end@?$_Tree@V?$_Tmap_traits@HPAVBaseGameEntity@@U?$less@H@std@@V?$allocator@U?$pair@$$CBHPAVBaseGameEntity@@@std@@@3@$0A@@std@@@std@@QBE?AV?$_Tree_const_iterator@V?$_Tree_val@U?$_Tree_simple_types@U?$pair@$$CBHPAVBaseGameEntity@@@std@@@std@@@std@@@2@XZ
_TEXT	SEGMENT
__Scary$ = -8						; size = 4
_this$ = -4						; size = 4
___$ReturnUdt$ = 8					; size = 4
?end@?$_Tree@V?$_Tmap_traits@HPAVBaseGameEntity@@U?$less@H@std@@V?$allocator@U?$pair@$$CBHPAVBaseGameEntity@@@std@@@3@$0A@@std@@@std@@QBE?AV?$_Tree_const_iterator@V?$_Tree_val@U?$_Tree_simple_types@U?$pair@$$CBHPAVBaseGameEntity@@@std@@@std@@@std@@@2@XZ PROC ; std::_Tree<std::_Tmap_traits<int,BaseGameEntity *,std::less<int>,std::allocator<std::pair<int const ,BaseGameEntity *> >,0> >::end, COMDAT
; _this$ = ecx

; 1155 :     _NODISCARD const_iterator end() const noexcept {

	push	ebp
	mov	ebp, esp
	sub	esp, 8
	mov	DWORD PTR [ebp-8], -858993460		; ccccccccH
	mov	DWORD PTR [ebp-4], -858993460		; ccccccccH
	mov	DWORD PTR _this$[ebp], ecx

; 1156 :         const auto _Scary = _Get_scary();

	mov	ecx, DWORD PTR _this$[ebp]
	call	?_Get_scary@?$_Tree@V?$_Tmap_traits@HPAVBaseGameEntity@@U?$less@H@std@@V?$allocator@U?$pair@$$CBHPAVBaseGameEntity@@@std@@@3@$0A@@std@@@std@@IBEPBV?$_Tree_val@U?$_Tree_simple_types@U?$pair@$$CBHPAVBaseGameEntity@@@std@@@std@@@2@XZ ; std::_Tree<std::_Tmap_traits<int,BaseGameEntity *,std::less<int>,std::allocator<std::pair<int const ,BaseGameEntity *> >,0> >::_Get_scary
	mov	DWORD PTR __Scary$[ebp], eax

; 1157 :         return const_iterator(_Scary->_Myhead, _Scary);

	mov	eax, DWORD PTR __Scary$[ebp]
	push	eax
	mov	ecx, DWORD PTR __Scary$[ebp]
	mov	edx, DWORD PTR [ecx+4]
	push	edx
	mov	ecx, DWORD PTR ___$ReturnUdt$[ebp]
	call	??0?$_Tree_const_iterator@V?$_Tree_val@U?$_Tree_simple_types@U?$pair@$$CBHPAVBaseGameEntity@@@std@@@std@@@std@@@std@@QAE@PAU?$_Tree_node@U?$pair@$$CBHPAVBaseGameEntity@@@std@@PAX@1@PBV?$_Tree_val@U?$_Tree_simple_types@U?$pair@$$CBHPAVBaseGameEntity@@@std@@@std@@@1@@Z
	mov	eax, DWORD PTR ___$ReturnUdt$[ebp]

; 1158 :     }

	add	esp, 8
	cmp	ebp, esp
	call	__RTC_CheckEsp
	mov	esp, ebp
	pop	ebp
	ret	4
?end@?$_Tree@V?$_Tmap_traits@HPAVBaseGameEntity@@U?$less@H@std@@V?$allocator@U?$pair@$$CBHPAVBaseGameEntity@@@std@@@3@$0A@@std@@@std@@QBE?AV?$_Tree_const_iterator@V?$_Tree_val@U?$_Tree_simple_types@U?$pair@$$CBHPAVBaseGameEntity@@@std@@@std@@@std@@@2@XZ ENDP ; std::_Tree<std::_Tmap_traits<int,BaseGameEntity *,std::less<int>,std::allocator<std::pair<int const ,BaseGameEntity *> >,0> >::end
_TEXT	ENDS
; Function compile flags: /Odtp /RTCsu
; File C:\Program Files\Microsoft Visual Studio\2022\Community\VC\Tools\MSVC\14.44.35207\include\xtree
;	COMDAT ??1?$_Tree@V?$_Tmap_traits@HPAVBaseGameEntity@@U?$less@H@std@@V?$allocator@U?$pair@$$CBHPAVBaseGameEntity@@@std@@@3@$0A@@std@@@std@@QAE@XZ
_TEXT	SEGMENT
_$S6$ = -17						; size = 1
__Alproxy$ = -12					; size = 4
__Scary$ = -8						; size = 4
_this$ = -4						; size = 4
??1?$_Tree@V?$_Tmap_traits@HPAVBaseGameEntity@@U?$less@H@std@@V?$allocator@U?$pair@$$CBHPAVBaseGameEntity@@@std@@@3@$0A@@std@@@std@@QAE@XZ PROC ; std::_Tree<std::_Tmap_traits<int,BaseGameEntity *,std::less<int>,std::allocator<std::pair<int const ,BaseGameEntity *> >,0> >::~_Tree<std::_Tmap_traits<int,BaseGameEntity *,std::less<int>,std::allocator<std::pair<int const ,BaseGameEntity *> >,0> >, COMDAT
; _this$ = ecx

; 1095 :     ~_Tree() noexcept {

	push	ebp
	mov	ebp, esp
	sub	esp, 24					; 00000018H
	mov	eax, -858993460				; ccccccccH
	mov	DWORD PTR [ebp-24], eax
	mov	DWORD PTR [ebp-20], eax
	mov	DWORD PTR [ebp-16], eax
	mov	DWORD PTR [ebp-12], eax
	mov	DWORD PTR [ebp-8], eax
	mov	DWORD PTR [ebp-4], eax
	mov	DWORD PTR _this$[ebp], ecx

; 1096 :         const auto _Scary = _Get_scary();

	mov	ecx, DWORD PTR _this$[ebp]
	call	?_Get_scary@?$_Tree@V?$_Tmap_traits@HPAVBaseGameEntity@@U?$less@H@std@@V?$allocator@U?$pair@$$CBHPAVBaseGameEntity@@@std@@@3@$0A@@std@@@std@@IAEPAV?$_Tree_val@U?$_Tree_simple_types@U?$pair@$$CBHPAVBaseGameEntity@@@std@@@std@@@2@XZ ; std::_Tree<std::_Tmap_traits<int,BaseGameEntity *,std::less<int>,std::allocator<std::pair<int const ,BaseGameEntity *> >,0> >::_Get_scary
	mov	DWORD PTR __Scary$[ebp], eax

; 1097 :         _Scary->_Erase_head(_Getal());

	mov	ecx, DWORD PTR _this$[ebp]
	call	?_Getal@?$_Tree@V?$_Tmap_traits@HPAVBaseGameEntity@@U?$less@H@std@@V?$allocator@U?$pair@$$CBHPAVBaseGameEntity@@@std@@@3@$0A@@std@@@std@@IAEAAV?$allocator@U?$_Tree_node@U?$pair@$$CBHPAVBaseGameEntity@@@std@@PAX@std@@@2@XZ ; std::_Tree<std::_Tmap_traits<int,BaseGameEntity *,std::less<int>,std::allocator<std::pair<int const ,BaseGameEntity *> >,0> >::_Getal
	push	eax
	mov	ecx, DWORD PTR __Scary$[ebp]
	call	??$_Erase_head@V?$allocator@U?$_Tree_node@U?$pair@$$CBHPAVBaseGameEntity@@@std@@PAX@std@@@std@@@?$_Tree_val@U?$_Tree_simple_types@U?$pair@$$CBHPAVBaseGameEntity@@@std@@@std@@@std@@QAEXAAV?$allocator@U?$_Tree_node@U?$pair@$$CBHPAVBaseGameEntity@@@std@@PAX@std@@@1@@Z ; std::_Tree_val<std::_Tree_simple_types<std::pair<int const ,BaseGameEntity *> > >::_Erase_head<std::allocator<std::_Tree_node<std::pair<int const ,BaseGameEntity *>,void *> > >

; 1098 : #if _ITERATOR_DEBUG_LEVEL != 0 // TRANSITION, ABI
; 1099 :         auto&& _Alproxy = _GET_PROXY_ALLOCATOR(_Alnode, _Getal());

	mov	ecx, DWORD PTR _this$[ebp]
	call	?_Getal@?$_Tree@V?$_Tmap_traits@HPAVBaseGameEntity@@U?$less@H@std@@V?$allocator@U?$pair@$$CBHPAVBaseGameEntity@@@std@@@3@$0A@@std@@@std@@IAEAAV?$allocator@U?$_Tree_node@U?$pair@$$CBHPAVBaseGameEntity@@@std@@PAX@std@@@2@XZ ; std::_Tree<std::_Tmap_traits<int,BaseGameEntity *,std::less<int>,std::allocator<std::pair<int const ,BaseGameEntity *> >,0> >::_Getal
	push	eax
	lea	ecx, DWORD PTR _$S6$[ebp]
	call	??$?0U?$_Tree_node@U?$pair@$$CBHPAVBaseGameEntity@@@std@@PAX@std@@@?$allocator@U_Container_proxy@std@@@std@@QAE@ABV?$allocator@U?$_Tree_node@U?$pair@$$CBHPAVBaseGameEntity@@@std@@PAX@std@@@1@@Z ; std::allocator<std::_Container_proxy>::allocator<std::_Container_proxy><std::_Tree_node<std::pair<int const ,BaseGameEntity *>,void *> >
	lea	eax, DWORD PTR _$S6$[ebp]
	mov	DWORD PTR __Alproxy$[ebp], eax

; 1100 :         _Delete_plain_internal(_Alproxy, _Scary->_Myproxy);

	mov	ecx, DWORD PTR __Scary$[ebp]
	mov	edx, DWORD PTR [ecx]
	push	edx
	mov	eax, DWORD PTR __Alproxy$[ebp]
	push	eax
	call	??$_Delete_plain_internal@V?$allocator@U_Container_proxy@std@@@std@@@std@@YAXAAV?$allocator@U_Container_proxy@std@@@0@QAU_Container_proxy@0@@Z ; std::_Delete_plain_internal<std::allocator<std::_Container_proxy> >
	add	esp, 8

; 1101 : #endif // _ITERATOR_DEBUG_LEVEL != 0
; 1102 :     }

	push	edx
	mov	ecx, ebp
	push	eax
	lea	edx, DWORD PTR $LN6@Tree
	call	@_RTC_CheckStackVars@8
	pop	eax
	pop	edx
	add	esp, 24					; 00000018H
	cmp	ebp, esp
	call	__RTC_CheckEsp
	mov	esp, ebp
	pop	ebp
	ret	0
$LN6@Tree:
	DD	1
	DD	$LN5@Tree
$LN5@Tree:
	DD	-17					; ffffffefH
	DD	1
	DD	$LN4@Tree
$LN4@Tree:
	DB	36					; 00000024H
	DB	83					; 00000053H
	DB	54					; 00000036H
	DB	0
??1?$_Tree@V?$_Tmap_traits@HPAVBaseGameEntity@@U?$less@H@std@@V?$allocator@U?$pair@$$CBHPAVBaseGameEntity@@@std@@@3@$0A@@std@@@std@@QAE@XZ ENDP ; std::_Tree<std::_Tmap_traits<int,BaseGameEntity *,std::less<int>,std::allocator<std::pair<int const ,BaseGameEntity *> >,0> >::~_Tree<std::_Tmap_traits<int,BaseGameEntity *,std::less<int>,std::allocator<std::pair<int const ,BaseGameEntity *> >,0> >
_TEXT	ENDS
; Function compile flags: /Odtp /RTCsu
; File C:\Program Files\Microsoft Visual Studio\2022\Community\VC\Tools\MSVC\14.44.35207\include\xtree
;	COMDAT ??0?$_Tree@V?$_Tmap_traits@HPAVBaseGameEntity@@U?$less@H@std@@V?$allocator@U?$pair@$$CBHPAVBaseGameEntity@@@std@@@3@$0A@@std@@@std@@QAE@ABU?$less@H@1@@Z
_TEXT	SEGMENT
$T1 = -6						; size = 1
$T2 = -5						; size = 1
_this$ = -4						; size = 4
__Parg$ = 8						; size = 4
??0?$_Tree@V?$_Tmap_traits@HPAVBaseGameEntity@@U?$less@H@std@@V?$allocator@U?$pair@$$CBHPAVBaseGameEntity@@@std@@@3@$0A@@std@@@std@@QAE@ABU?$less@H@1@@Z PROC ; std::_Tree<std::_Tmap_traits<int,BaseGameEntity *,std::less<int>,std::allocator<std::pair<int const ,BaseGameEntity *> >,0> >::_Tree<std::_Tmap_traits<int,BaseGameEntity *,std::less<int>,std::allocator<std::pair<int const ,BaseGameEntity *> >,0> >, COMDAT
; _this$ = ecx

; 904  :     _Tree(const key_compare& _Parg) : _Mypair(_One_then_variadic_args_t{}, _Parg, _Zero_then_variadic_args_t{}) {

	push	ebp
	mov	ebp, esp
	sub	esp, 8
	mov	DWORD PTR [ebp-8], -858993460		; ccccccccH
	mov	DWORD PTR [ebp-4], -858993460		; ccccccccH
	mov	DWORD PTR _this$[ebp], ecx
	lea	eax, DWORD PTR $T2[ebp]
	push	eax
	mov	ecx, DWORD PTR __Parg$[ebp]
	push	ecx
	movzx	edx, BYTE PTR $T1[ebp]
	push	edx
	mov	ecx, DWORD PTR _this$[ebp]
	call	??$?0ABU?$less@H@std@@U_Zero_then_variadic_args_t@1@@?$_Compressed_pair@U?$less@H@std@@V?$_Compressed_pair@V?$allocator@U?$_Tree_node@U?$pair@$$CBHPAVBaseGameEntity@@@std@@PAX@std@@@std@@V?$_Tree_val@U?$_Tree_simple_types@U?$pair@$$CBHPAVBaseGameEntity@@@std@@@std@@@2@$00@2@$00@std@@QAE@U_One_then_variadic_args_t@1@ABU?$less@H@1@$$QAU_Zero_then_variadic_args_t@1@@Z ; std::_Compressed_pair<std::less<int>,std::_Compressed_pair<std::allocator<std::_Tree_node<std::pair<int const ,BaseGameEntity *>,void *> >,std::_Tree_val<std::_Tree_simple_types<std::pair<int const ,BaseGameEntity *> > >,1>,1>::_Compressed_pair<std::less<int>,std::_Compressed_pair<std::allocator<std::_Tree_node<std::pair<int const ,BaseGameEntity *>,void *> >,std::_Tree_val<std::_Tree_simple_types<std::pair<int const ,BaseGameEntity *> > >,1>,1><std::less<int> const &,std::_Zero_then_variadic_args_t>
	npad	1

; 905  :         _Alloc_sentinel_and_proxy();

	mov	ecx, DWORD PTR _this$[ebp]
	call	?_Alloc_sentinel_and_proxy@?$_Tree@V?$_Tmap_traits@HPAVBaseGameEntity@@U?$less@H@std@@V?$allocator@U?$pair@$$CBHPAVBaseGameEntity@@@std@@@3@$0A@@std@@@std@@IAEXXZ ; std::_Tree<std::_Tmap_traits<int,BaseGameEntity *,std::less<int>,std::allocator<std::pair<int const ,BaseGameEntity *> >,0> >::_Alloc_sentinel_and_proxy
	npad	1

; 906  :     }

	mov	eax, DWORD PTR _this$[ebp]
	add	esp, 8
	cmp	ebp, esp
	call	__RTC_CheckEsp
	mov	esp, ebp
	pop	ebp
	ret	4
??0?$_Tree@V?$_Tmap_traits@HPAVBaseGameEntity@@U?$less@H@std@@V?$allocator@U?$pair@$$CBHPAVBaseGameEntity@@@std@@@3@$0A@@std@@@std@@QAE@ABU?$less@H@1@@Z ENDP ; std::_Tree<std::_Tmap_traits<int,BaseGameEntity *,std::less<int>,std::allocator<std::pair<int const ,BaseGameEntity *> >,0> >::_Tree<std::_Tmap_traits<int,BaseGameEntity *,std::less<int>,std::allocator<std::pair<int const ,BaseGameEntity *> >,0> >
_TEXT	ENDS
; Function compile flags: /Odtp /RTCsu
; File C:\Program Files\Microsoft Visual Studio\2022\Community\VC\Tools\MSVC\14.44.35207\include\xmemory
;	COMDAT ?max_size@?$_Default_allocator_traits@V?$allocator@U?$_Tree_node@U?$pair@$$CBHPAVBaseGameEntity@@@std@@PAX@std@@@std@@@std@@SAIABV?$allocator@U?$_Tree_node@U?$pair@$$CBHPAVBaseGameEntity@@@std@@PAX@std@@@2@@Z
_TEXT	SEGMENT
___formal$ = 8						; size = 4
?max_size@?$_Default_allocator_traits@V?$allocator@U?$_Tree_node@U?$pair@$$CBHPAVBaseGameEntity@@@std@@PAX@std@@@std@@@std@@SAIABV?$allocator@U?$_Tree_node@U?$pair@$$CBHPAVBaseGameEntity@@@std@@PAX@std@@@2@@Z PROC ; std::_Default_allocator_traits<std::allocator<std::_Tree_node<std::pair<int const ,BaseGameEntity *>,void *> > >::max_size, COMDAT

; 745  :     _NODISCARD static _CONSTEXPR20 size_type max_size(const _Alloc&) noexcept {

	push	ebp
	mov	ebp, esp

; 746  :         return static_cast<size_t>(-1) / sizeof(value_type);

	mov	eax, 178956970				; 0aaaaaaaH

; 747  :     }

	pop	ebp
	ret	0
?max_size@?$_Default_allocator_traits@V?$allocator@U?$_Tree_node@U?$pair@$$CBHPAVBaseGameEntity@@@std@@PAX@std@@@std@@@std@@SAIABV?$allocator@U?$_Tree_node@U?$pair@$$CBHPAVBaseGameEntity@@@std@@PAX@std@@@2@@Z ENDP ; std::_Default_allocator_traits<std::allocator<std::_Tree_node<std::pair<int const ,BaseGameEntity *>,void *> > >::max_size
_TEXT	ENDS
; Function compile flags: /Odtp /RTCsu
; File C:\Program Files\Microsoft Visual Studio\2022\Community\VC\Tools\MSVC\14.44.35207\include\xmemory
;	COMDAT ?deallocate@?$_Default_allocator_traits@V?$allocator@U?$_Tree_node@U?$pair@$$CBHPAVBaseGameEntity@@@std@@PAX@std@@@std@@@std@@SAXAAV?$allocator@U?$_Tree_node@U?$pair@$$CBHPAVBaseGameEntity@@@std@@PAX@std@@@2@QAU?$_Tree_node@U?$pair@$$CBHPAVBaseGameEntity@@@std@@PAX@2@I@Z
_TEXT	SEGMENT
__Al$ = 8						; size = 4
__Ptr$ = 12						; size = 4
__Count$ = 16						; size = 4
?deallocate@?$_Default_allocator_traits@V?$allocator@U?$_Tree_node@U?$pair@$$CBHPAVBaseGameEntity@@@std@@PAX@std@@@std@@@std@@SAXAAV?$allocator@U?$_Tree_node@U?$pair@$$CBHPAVBaseGameEntity@@@std@@PAX@std@@@2@QAU?$_Tree_node@U?$pair@$$CBHPAVBaseGameEntity@@@std@@PAX@2@I@Z PROC ; std::_Default_allocator_traits<std::allocator<std::_Tree_node<std::pair<int const ,BaseGameEntity *>,void *> > >::deallocate, COMDAT

; 714  :     /* strengthened */ {

	push	ebp
	mov	ebp, esp

; 715  :         // no overflow check on the following multiply; we assume _Allocate did that check
; 716  : #if _HAS_CXX20 // TRANSITION, GH-1532
; 717  :         if (_STD is_constant_evaluated()) {
; 718  :             _Al.deallocate(_Ptr, _Count);
; 719  :         } else
; 720  : #endif // _HAS_CXX20
; 721  :         {
; 722  :             (void) _Al;
; 723  :             _STD _Deallocate<_New_alignof<value_type>>(_Ptr, sizeof(value_type) * _Count);

	imul	eax, DWORD PTR __Count$[ebp], 24
	push	eax
	mov	ecx, DWORD PTR __Ptr$[ebp]
	push	ecx
	call	??$_Deallocate@$07@std@@YAXPAXI@Z	; std::_Deallocate<8>
	add	esp, 8

; 724  :         }
; 725  :     }

	cmp	ebp, esp
	call	__RTC_CheckEsp
	pop	ebp
	ret	0
?deallocate@?$_Default_allocator_traits@V?$allocator@U?$_Tree_node@U?$pair@$$CBHPAVBaseGameEntity@@@std@@PAX@std@@@std@@@std@@SAXAAV?$allocator@U?$_Tree_node@U?$pair@$$CBHPAVBaseGameEntity@@@std@@PAX@std@@@2@QAU?$_Tree_node@U?$pair@$$CBHPAVBaseGameEntity@@@std@@PAX@2@I@Z ENDP ; std::_Default_allocator_traits<std::allocator<std::_Tree_node<std::pair<int const ,BaseGameEntity *>,void *> > >::deallocate
_TEXT	ENDS
; Function compile flags: /Odtp /RTCsu
; File C:\Program Files\Microsoft Visual Studio\2022\Community\VC\Tools\MSVC\14.44.35207\include\xmemory
;	COMDAT ?allocate@?$allocator@U?$_Tree_node@U?$pair@$$CBHPAVBaseGameEntity@@@std@@PAX@std@@@std@@QAEPAU?$_Tree_node@U?$pair@$$CBHPAVBaseGameEntity@@@std@@PAX@2@I@Z
_TEXT	SEGMENT
_this$ = -4						; size = 4
__Count$ = 8						; size = 4
?allocate@?$allocator@U?$_Tree_node@U?$pair@$$CBHPAVBaseGameEntity@@@std@@PAX@std@@@std@@QAEPAU?$_Tree_node@U?$pair@$$CBHPAVBaseGameEntity@@@std@@PAX@2@I@Z PROC ; std::allocator<std::_Tree_node<std::pair<int const ,BaseGameEntity *>,void *> >::allocate, COMDAT
; _this$ = ecx

; 988  :     _NODISCARD_RAW_PTR_ALLOC _CONSTEXPR20 __declspec(allocator) _Ty* allocate(_CRT_GUARDOVERFLOW const size_t _Count) {

	push	ebp
	mov	ebp, esp
	push	ecx
	mov	DWORD PTR [ebp-4], -858993460		; ccccccccH
	mov	DWORD PTR _this$[ebp], ecx

; 989  :         static_assert(sizeof(value_type) > 0, "value_type must be complete before calling allocate.");
; 990  :         return static_cast<_Ty*>(_STD _Allocate<_New_alignof<_Ty>>(_Get_size_of_n<sizeof(_Ty)>(_Count)));

	mov	eax, DWORD PTR __Count$[ebp]
	push	eax
	call	??$_Get_size_of_n@$0BI@@std@@YAII@Z	; std::_Get_size_of_n<24>
	add	esp, 4
	push	eax
	call	??$_Allocate@$07U_Default_allocate_traits@std@@@std@@YAPAXI@Z ; std::_Allocate<8,std::_Default_allocate_traits>
	add	esp, 4

; 991  :     }

	add	esp, 4
	cmp	ebp, esp
	call	__RTC_CheckEsp
	mov	esp, ebp
	pop	ebp
	ret	4
?allocate@?$allocator@U?$_Tree_node@U?$pair@$$CBHPAVBaseGameEntity@@@std@@PAX@std@@@std@@QAEPAU?$_Tree_node@U?$pair@$$CBHPAVBaseGameEntity@@@std@@PAX@2@I@Z ENDP ; std::allocator<std::_Tree_node<std::pair<int const ,BaseGameEntity *>,void *> >::allocate
_TEXT	ENDS
; Function compile flags: /Odtp /RTCsu
; File C:\Program Files\Microsoft Visual Studio\2022\Community\VC\Tools\MSVC\14.44.35207\include\xmemory
;	COMDAT ?deallocate@?$allocator@U?$_Tree_node@U?$pair@$$CBHPAVBaseGameEntity@@@std@@PAX@std@@@std@@QAEXQAU?$_Tree_node@U?$pair@$$CBHPAVBaseGameEntity@@@std@@PAX@2@I@Z
_TEXT	SEGMENT
_this$ = -4						; size = 4
__Ptr$ = 8						; size = 4
__Count$ = 12						; size = 4
?deallocate@?$allocator@U?$_Tree_node@U?$pair@$$CBHPAVBaseGameEntity@@@std@@PAX@std@@@std@@QAEXQAU?$_Tree_node@U?$pair@$$CBHPAVBaseGameEntity@@@std@@PAX@2@I@Z PROC ; std::allocator<std::_Tree_node<std::pair<int const ,BaseGameEntity *>,void *> >::deallocate, COMDAT
; _this$ = ecx

; 982  :     _CONSTEXPR20 void deallocate(_Ty* const _Ptr, const size_t _Count) noexcept /* strengthened */ {

	push	ebp
	mov	ebp, esp
	push	ecx
	mov	DWORD PTR [ebp-4], -858993460		; ccccccccH
	mov	DWORD PTR _this$[ebp], ecx

; 983  :         _STL_ASSERT(_Ptr != nullptr || _Count == 0, "null pointer cannot point to a block of non-zero size");

	cmp	DWORD PTR __Ptr$[ebp], 0
	jne	SHORT $LN2@deallocate
	cmp	DWORD PTR __Count$[ebp], 0
	je	SHORT $LN2@deallocate
	push	OFFSET ??_C@_0DG@KGHKKGBC@null?5pointer?5cannot?5point?5to?5a?5@
	push	OFFSET ??_C@_02DKCKIIND@?$CFs@
	push	0
	push	983					; 000003d7H
	push	OFFSET ??_C@_0GC@KLECFGLI@C?3?2Program?5Files?2Microsoft?5Visu@
	push	2
	call	__CrtDbgReport
	add	esp, 24					; 00000018H
	cmp	eax, 1
	jne	SHORT $LN4@deallocate
	int	3
$LN4@deallocate:
	push	0
	push	0
	push	0
	push	0
	push	0
	call	__invoke_watson
	npad	1
$LN2@deallocate:

; 984  :         // no overflow check on the following multiply; we assume _Allocate did that check
; 985  :         _STD _Deallocate<_New_alignof<_Ty>>(_Ptr, sizeof(_Ty) * _Count);

	imul	ecx, DWORD PTR __Count$[ebp], 24
	push	ecx
	mov	edx, DWORD PTR __Ptr$[ebp]
	push	edx
	call	??$_Deallocate@$07@std@@YAXPAXI@Z	; std::_Deallocate<8>
	add	esp, 8
$LN1@deallocate:

; 986  :     }

	add	esp, 4
	cmp	ebp, esp
	call	__RTC_CheckEsp
	mov	esp, ebp
	pop	ebp
	ret	8
?deallocate@?$allocator@U?$_Tree_node@U?$pair@$$CBHPAVBaseGameEntity@@@std@@PAX@std@@@std@@QAEXQAU?$_Tree_node@U?$pair@$$CBHPAVBaseGameEntity@@@std@@PAX@2@I@Z ENDP ; std::allocator<std::_Tree_node<std::pair<int const ,BaseGameEntity *>,void *> >::deallocate
_TEXT	ENDS
; Function compile flags: /Odtp /RTCsu
; File C:\Program Files\Microsoft Visual Studio\2022\Community\VC\Tools\MSVC\14.44.35207\include\xmemory
;	COMDAT ??0?$allocator@U?$_Tree_node@U?$pair@$$CBHPAVBaseGameEntity@@@std@@PAX@std@@@std@@QAE@XZ
_TEXT	SEGMENT
_this$ = -4						; size = 4
??0?$allocator@U?$_Tree_node@U?$pair@$$CBHPAVBaseGameEntity@@@std@@PAX@std@@@std@@QAE@XZ PROC ; std::allocator<std::_Tree_node<std::pair<int const ,BaseGameEntity *>,void *> >::allocator<std::_Tree_node<std::pair<int const ,BaseGameEntity *>,void *> >, COMDAT
; _this$ = ecx

; 974  :     constexpr allocator() noexcept {}

	push	ebp
	mov	ebp, esp
	push	ecx
	mov	DWORD PTR _this$[ebp], ecx
	mov	eax, DWORD PTR _this$[ebp]
	mov	esp, ebp
	pop	ebp
	ret	0
??0?$allocator@U?$_Tree_node@U?$pair@$$CBHPAVBaseGameEntity@@@std@@PAX@std@@@std@@QAE@XZ ENDP ; std::allocator<std::_Tree_node<std::pair<int const ,BaseGameEntity *>,void *> >::allocator<std::_Tree_node<std::pair<int const ,BaseGameEntity *>,void *> >
_TEXT	ENDS
; Function compile flags: /Odtp /RTCsu
; File C:\Program Files\Microsoft Visual Studio\2022\Community\VC\Tools\MSVC\14.44.35207\include\xtree
;	COMDAT ?_Throw_tree_length_error@std@@YAXXZ
_TEXT	SEGMENT
?_Throw_tree_length_error@std@@YAXXZ PROC		; std::_Throw_tree_length_error, COMDAT

; 416  : [[noreturn]] inline void _Throw_tree_length_error() {

	push	ebp
	mov	ebp, esp

; 417  :     _Xlength_error("map/set too long");

	push	OFFSET ??_C@_0BB@GCADKGJO@map?1set?5too?5long@
	call	?_Xlength_error@std@@YAXPBD@Z		; std::_Xlength_error
	npad	1
$LN1@Throw_tree:

; 418  : }

	cmp	ebp, esp
	call	__RTC_CheckEsp
	pop	ebp
	ret	0
?_Throw_tree_length_error@std@@YAXXZ ENDP		; std::_Throw_tree_length_error
_TEXT	ENDS
; Function compile flags: /Odtp /RTCsu
; File C:\Program Files\Microsoft Visual Studio\2022\Community\VC\Tools\MSVC\14.44.35207\include\xmemory
;	COMDAT ??0_Basic_container_proxy_ptr12@std@@IAE@XZ
_TEXT	SEGMENT
_this$ = -4						; size = 4
??0_Basic_container_proxy_ptr12@std@@IAE@XZ PROC	; std::_Basic_container_proxy_ptr12::_Basic_container_proxy_ptr12, COMDAT
; _this$ = ecx

; 1465 :     _CONSTEXPR20 _Basic_container_proxy_ptr12()                       = default;

	push	ebp
	mov	ebp, esp
	push	ecx
	mov	DWORD PTR _this$[ebp], ecx

; 1458 :     _Container_proxy* _Ptr = nullptr;

	mov	eax, DWORD PTR _this$[ebp]
	mov	DWORD PTR [eax], 0

; 1465 :     _CONSTEXPR20 _Basic_container_proxy_ptr12()                       = default;

	mov	eax, DWORD PTR _this$[ebp]
	mov	esp, ebp
	pop	ebp
	ret	0
??0_Basic_container_proxy_ptr12@std@@IAE@XZ ENDP	; std::_Basic_container_proxy_ptr12::_Basic_container_proxy_ptr12
_TEXT	ENDS
; Function compile flags: /Odtp /RTCsu
; File C:\Program Files\Microsoft Visual Studio\2022\Community\VC\Tools\MSVC\14.44.35207\include\xmemory
;	COMDAT ?_Release@_Basic_container_proxy_ptr12@std@@QAEXXZ
_TEXT	SEGMENT
_this$ = -4						; size = 4
?_Release@_Basic_container_proxy_ptr12@std@@QAEXXZ PROC	; std::_Basic_container_proxy_ptr12::_Release, COMDAT
; _this$ = ecx

; 1460 :     constexpr void _Release() noexcept { // disengage this _Basic_container_proxy_ptr12

	push	ebp
	mov	ebp, esp
	push	ecx
	mov	DWORD PTR _this$[ebp], ecx

; 1461 :         _Ptr = nullptr;

	mov	eax, DWORD PTR _this$[ebp]
	mov	DWORD PTR [eax], 0

; 1462 :     }

	mov	esp, ebp
	pop	ebp
	ret	0
?_Release@_Basic_container_proxy_ptr12@std@@QAEXXZ ENDP	; std::_Basic_container_proxy_ptr12::_Release
_TEXT	ENDS
; Function compile flags: /Odtp /RTCsu
; File C:\Program Files\Microsoft Visual Studio\2022\Community\VC\Tools\MSVC\14.44.35207\include\utility
;	COMDAT ??$exchange@PAU_Iterator_base12@std@@$$T@std@@YAPAU_Iterator_base12@0@AAPAU10@$$QA$$T@Z
_TEXT	SEGMENT
__Old_val$ = -4						; size = 4
__Val$ = 8						; size = 4
__New_val$ = 12						; size = 4
??$exchange@PAU_Iterator_base12@std@@$$T@std@@YAPAU_Iterator_base12@0@AAPAU10@$$QA$$T@Z PROC ; std::exchange<std::_Iterator_base12 *,std::nullptr_t>, COMDAT

; 771  :     noexcept(conjunction_v<is_nothrow_move_constructible<_Ty>, is_nothrow_assignable<_Ty&, _Other>>) {

	push	ebp
	mov	ebp, esp
	push	ecx

; 772  :     // assign _New_val to _Val, return previous _Val
; 773  :     _Ty _Old_val = static_cast<_Ty&&>(_Val);

	mov	eax, DWORD PTR __Val$[ebp]
	mov	ecx, DWORD PTR [eax]
	mov	DWORD PTR __Old_val$[ebp], ecx

; 774  :     _Val         = static_cast<_Other&&>(_New_val);

	mov	edx, DWORD PTR __Val$[ebp]
	mov	eax, DWORD PTR __New_val$[ebp]
	mov	ecx, DWORD PTR [eax]
	mov	DWORD PTR [edx], ecx

; 775  :     return _Old_val;

	mov	eax, DWORD PTR __Old_val$[ebp]

; 776  : }

	mov	esp, ebp
	pop	ebp
	ret	0
??$exchange@PAU_Iterator_base12@std@@$$T@std@@YAPAU_Iterator_base12@0@AAPAU10@$$QA$$T@Z ENDP ; std::exchange<std::_Iterator_base12 *,std::nullptr_t>
_TEXT	ENDS
; Function compile flags: /Odtp /RTCsu
; File C:\Program Files\Microsoft Visual Studio\2022\Community\VC\Tools\MSVC\14.44.35207\include\xmemory
;	COMDAT ?_Orphan_me_locked_v3@_Iterator_base12@std@@AAEXXZ
_TEXT	SEGMENT
__Lock$ = -12						; size = 4
_this$ = -4						; size = 4
?_Orphan_me_locked_v3@_Iterator_base12@std@@AAEXXZ PROC	; std::_Iterator_base12::_Orphan_me_locked_v3, COMDAT
; _this$ = ecx

; 1374 :     void _Orphan_me_locked_v3() noexcept {

	push	ebp
	mov	ebp, esp
	sub	esp, 16					; 00000010H
	mov	eax, -858993460				; ccccccccH
	mov	DWORD PTR [ebp-16], eax
	mov	DWORD PTR [ebp-12], eax
	mov	DWORD PTR [ebp-8], eax
	mov	DWORD PTR [ebp-4], eax
	mov	DWORD PTR _this$[ebp], ecx

; 1375 :         _Lockit _Lock(_LOCK_DEBUG);

	push	3
	lea	ecx, DWORD PTR __Lock$[ebp]
	call	??0_Lockit@std@@QAE@H@Z			; std::_Lockit::_Lockit

; 1376 :         _Orphan_me_unlocked_v3();

	mov	ecx, DWORD PTR _this$[ebp]
	call	?_Orphan_me_unlocked_v3@_Iterator_base12@std@@AAEXXZ ; std::_Iterator_base12::_Orphan_me_unlocked_v3

; 1377 :     }

	lea	ecx, DWORD PTR __Lock$[ebp]
	call	??1_Lockit@std@@QAE@XZ			; std::_Lockit::~_Lockit
	npad	1
	push	edx
	mov	ecx, ebp
	push	eax
	lea	edx, DWORD PTR $LN6@Orphan_me_
	call	@_RTC_CheckStackVars@8
	pop	eax
	pop	edx
	add	esp, 16					; 00000010H
	cmp	ebp, esp
	call	__RTC_CheckEsp
	mov	esp, ebp
	pop	ebp
	ret	0
$LN6@Orphan_me_:
	DD	1
	DD	$LN5@Orphan_me_
$LN5@Orphan_me_:
	DD	-12					; fffffff4H
	DD	4
	DD	$LN4@Orphan_me_
$LN4@Orphan_me_:
	DB	95					; 0000005fH
	DB	76					; 0000004cH
	DB	111					; 0000006fH
	DB	99					; 00000063H
	DB	107					; 0000006bH
	DB	0
?_Orphan_me_locked_v3@_Iterator_base12@std@@AAEXXZ ENDP	; std::_Iterator_base12::_Orphan_me_locked_v3
_TEXT	ENDS
; Function compile flags: /Odtp /RTCsu
; File C:\Program Files\Microsoft Visual Studio\2022\Community\VC\Tools\MSVC\14.44.35207\include\xmemory
;	COMDAT ?_Orphan_me_unlocked_v3@_Iterator_base12@std@@AAEXXZ
_TEXT	SEGMENT
__Pnext$ = -8						; size = 4
_this$ = -4						; size = 4
?_Orphan_me_unlocked_v3@_Iterator_base12@std@@AAEXXZ PROC ; std::_Iterator_base12::_Orphan_me_unlocked_v3, COMDAT
; _this$ = ecx

; 1358 :     _CONSTEXPR20 void _Orphan_me_unlocked_v3() noexcept {

	push	ebp
	mov	ebp, esp
	sub	esp, 8
	mov	DWORD PTR [ebp-8], -858993460		; ccccccccH
	mov	DWORD PTR [ebp-4], -858993460		; ccccccccH
	mov	DWORD PTR _this$[ebp], ecx

; 1359 :         if (!_Myproxy) { // already orphaned

	mov	eax, DWORD PTR _this$[ebp]
	cmp	DWORD PTR [eax], 0
	jne	SHORT $LN4@Orphan_me_

; 1360 :             return;

	jmp	SHORT $LN1@Orphan_me_
$LN4@Orphan_me_:

; 1361 :         }
; 1362 : 
; 1363 :         // adopted, remove self from list
; 1364 :         _Iterator_base12** _Pnext = &_Myproxy->_Myfirstiter;

	mov	ecx, DWORD PTR _this$[ebp]
	mov	edx, DWORD PTR [ecx]
	add	edx, 4
	mov	DWORD PTR __Pnext$[ebp], edx
$LN2@Orphan_me_:

; 1365 :         while (*_Pnext && *_Pnext != this) {

	mov	eax, DWORD PTR __Pnext$[ebp]
	cmp	DWORD PTR [eax], 0
	je	SHORT $LN3@Orphan_me_
	mov	ecx, DWORD PTR __Pnext$[ebp]
	mov	edx, DWORD PTR [ecx]
	cmp	edx, DWORD PTR _this$[ebp]
	je	SHORT $LN3@Orphan_me_

; 1366 :             _Pnext = &(*_Pnext)->_Mynextiter;

	mov	eax, DWORD PTR __Pnext$[ebp]
	mov	ecx, DWORD PTR [eax]
	add	ecx, 4
	mov	DWORD PTR __Pnext$[ebp], ecx

; 1367 :         }

	jmp	SHORT $LN2@Orphan_me_
$LN3@Orphan_me_:

; 1368 : 
; 1369 :         _STL_VERIFY(*_Pnext, "ITERATOR LIST CORRUPTED!");

	mov	edx, DWORD PTR __Pnext$[ebp]
	cmp	DWORD PTR [edx], 0
	jne	SHORT $LN5@Orphan_me_
	push	OFFSET ??_C@_0BJ@LFDBABJJ@ITERATOR?5LIST?5CORRUPTED?$CB@
	push	OFFSET ??_C@_02DKCKIIND@?$CFs@
	push	0
	push	1369					; 00000559H
	push	OFFSET ??_C@_0GC@KLECFGLI@C?3?2Program?5Files?2Microsoft?5Visu@
	push	2
	call	__CrtDbgReport
	add	esp, 24					; 00000018H
	cmp	eax, 1
	jne	SHORT $LN7@Orphan_me_
	int	3
$LN7@Orphan_me_:
	push	0
	push	0
	push	0
	push	0
	push	0
	call	__invoke_watson
	npad	1
$LN5@Orphan_me_:

; 1370 :         *_Pnext  = _Mynextiter;

	mov	ecx, DWORD PTR __Pnext$[ebp]
	mov	edx, DWORD PTR _this$[ebp]
	mov	eax, DWORD PTR [edx+4]
	mov	DWORD PTR [ecx], eax

; 1371 :         _Myproxy = nullptr;

	mov	ecx, DWORD PTR _this$[ebp]
	mov	DWORD PTR [ecx], 0
$LN1@Orphan_me_:

; 1372 :     }

	add	esp, 8
	cmp	ebp, esp
	call	__RTC_CheckEsp
	mov	esp, ebp
	pop	ebp
	ret	0
?_Orphan_me_unlocked_v3@_Iterator_base12@std@@AAEXXZ ENDP ; std::_Iterator_base12::_Orphan_me_unlocked_v3
_TEXT	ENDS
; Function compile flags: /Odtp /RTCsu
; File C:\Program Files\Microsoft Visual Studio\2022\Community\VC\Tools\MSVC\14.44.35207\include\xmemory
;	COMDAT ?_Adopt_locked@_Iterator_base12@std@@AAEXPBU_Container_base12@2@@Z
_TEXT	SEGMENT
__Lock$ = -12						; size = 4
_this$ = -4						; size = 4
__Parent$ = 8						; size = 4
?_Adopt_locked@_Iterator_base12@std@@AAEXPBU_Container_base12@2@@Z PROC ; std::_Iterator_base12::_Adopt_locked, COMDAT
; _this$ = ecx

; 1353 :     void _Adopt_locked(const _Container_base12* _Parent) noexcept {

	push	ebp
	mov	ebp, esp
	sub	esp, 16					; 00000010H
	mov	eax, -858993460				; ccccccccH
	mov	DWORD PTR [ebp-16], eax
	mov	DWORD PTR [ebp-12], eax
	mov	DWORD PTR [ebp-8], eax
	mov	DWORD PTR [ebp-4], eax
	mov	DWORD PTR _this$[ebp], ecx

; 1354 :         _Lockit _Lock(_LOCK_DEBUG);

	push	3
	lea	ecx, DWORD PTR __Lock$[ebp]
	call	??0_Lockit@std@@QAE@H@Z			; std::_Lockit::_Lockit

; 1355 :         _Adopt_unlocked(_Parent);

	mov	eax, DWORD PTR __Parent$[ebp]
	push	eax
	mov	ecx, DWORD PTR _this$[ebp]
	call	?_Adopt_unlocked@_Iterator_base12@std@@AAEXPBU_Container_base12@2@@Z ; std::_Iterator_base12::_Adopt_unlocked

; 1356 :     }

	lea	ecx, DWORD PTR __Lock$[ebp]
	call	??1_Lockit@std@@QAE@XZ			; std::_Lockit::~_Lockit
	npad	1
	push	edx
	mov	ecx, ebp
	push	eax
	lea	edx, DWORD PTR $LN6@Adopt_lock
	call	@_RTC_CheckStackVars@8
	pop	eax
	pop	edx
	add	esp, 16					; 00000010H
	cmp	ebp, esp
	call	__RTC_CheckEsp
	mov	esp, ebp
	pop	ebp
	ret	4
	npad	2
$LN6@Adopt_lock:
	DD	1
	DD	$LN5@Adopt_lock
$LN5@Adopt_lock:
	DD	-12					; fffffff4H
	DD	4
	DD	$LN4@Adopt_lock
$LN4@Adopt_lock:
	DB	95					; 0000005fH
	DB	76					; 0000004cH
	DB	111					; 0000006fH
	DB	99					; 00000063H
	DB	107					; 0000006bH
	DB	0
?_Adopt_locked@_Iterator_base12@std@@AAEXPBU_Container_base12@2@@Z ENDP ; std::_Iterator_base12::_Adopt_locked
_TEXT	ENDS
; Function compile flags: /Odtp /RTCsu
; File C:\Program Files\Microsoft Visual Studio\2022\Community\VC\Tools\MSVC\14.44.35207\include\xmemory
;	COMDAT ?_Adopt_unlocked@_Iterator_base12@std@@AAEXPBU_Container_base12@2@@Z
_TEXT	SEGMENT
__Parent_proxy$ = -8					; size = 4
_this$ = -4						; size = 4
__Parent$ = 8						; size = 4
?_Adopt_unlocked@_Iterator_base12@std@@AAEXPBU_Container_base12@2@@Z PROC ; std::_Iterator_base12::_Adopt_unlocked, COMDAT
; _this$ = ecx

; 1336 :     _CONSTEXPR20 void _Adopt_unlocked(const _Container_base12* _Parent) noexcept {

	push	ebp
	mov	ebp, esp
	sub	esp, 8
	mov	DWORD PTR [ebp-8], -858993460		; ccccccccH
	mov	DWORD PTR [ebp-4], -858993460		; ccccccccH
	mov	DWORD PTR _this$[ebp], ecx

; 1337 :         if (!_Parent) {

	cmp	DWORD PTR __Parent$[ebp], 0
	jne	SHORT $LN2@Adopt_unlo

; 1338 :             _Orphan_me_unlocked_v3();

	mov	ecx, DWORD PTR _this$[ebp]
	call	?_Orphan_me_unlocked_v3@_Iterator_base12@std@@AAEXXZ ; std::_Iterator_base12::_Orphan_me_unlocked_v3
	npad	1

; 1339 :             return;

	jmp	SHORT $LN1@Adopt_unlo
$LN2@Adopt_unlo:

; 1340 :         }
; 1341 : 
; 1342 :         _Container_proxy* _Parent_proxy = _Parent->_Myproxy;

	mov	eax, DWORD PTR __Parent$[ebp]
	mov	ecx, DWORD PTR [eax]
	mov	DWORD PTR __Parent_proxy$[ebp], ecx

; 1343 :         if (_Myproxy != _Parent_proxy) { // change parentage

	mov	edx, DWORD PTR _this$[ebp]
	mov	eax, DWORD PTR [edx]
	cmp	eax, DWORD PTR __Parent_proxy$[ebp]
	je	SHORT $LN3@Adopt_unlo

; 1344 :             if (_Myproxy) { // adopted, remove self from list

	mov	ecx, DWORD PTR _this$[ebp]
	cmp	DWORD PTR [ecx], 0
	je	SHORT $LN4@Adopt_unlo

; 1345 :                 _Orphan_me_unlocked_v3();

	mov	ecx, DWORD PTR _this$[ebp]
	call	?_Orphan_me_unlocked_v3@_Iterator_base12@std@@AAEXXZ ; std::_Iterator_base12::_Orphan_me_unlocked_v3
	npad	1
$LN4@Adopt_unlo:

; 1346 :             }
; 1347 :             _Mynextiter                 = _Parent_proxy->_Myfirstiter;

	mov	edx, DWORD PTR _this$[ebp]
	mov	eax, DWORD PTR __Parent_proxy$[ebp]
	mov	ecx, DWORD PTR [eax+4]
	mov	DWORD PTR [edx+4], ecx

; 1348 :             _Parent_proxy->_Myfirstiter = this;

	mov	edx, DWORD PTR __Parent_proxy$[ebp]
	mov	eax, DWORD PTR _this$[ebp]
	mov	DWORD PTR [edx+4], eax

; 1349 :             _Myproxy                    = _Parent_proxy;

	mov	ecx, DWORD PTR _this$[ebp]
	mov	edx, DWORD PTR __Parent_proxy$[ebp]
	mov	DWORD PTR [ecx], edx
$LN3@Adopt_unlo:
$LN1@Adopt_unlo:

; 1350 :         }
; 1351 :     }

	add	esp, 8
	cmp	ebp, esp
	call	__RTC_CheckEsp
	mov	esp, ebp
	pop	ebp
	ret	4
?_Adopt_unlocked@_Iterator_base12@std@@AAEXPBU_Container_base12@2@@Z ENDP ; std::_Iterator_base12::_Adopt_unlocked
_TEXT	ENDS
; Function compile flags: /Odtp /RTCsu
; File C:\Program Files\Microsoft Visual Studio\2022\Community\VC\Tools\MSVC\14.44.35207\include\xmemory
;	COMDAT ?_Assign_locked@_Iterator_base12@std@@AAEXABU12@@Z
_TEXT	SEGMENT
__Lock$ = -12						; size = 4
_this$ = -4						; size = 4
__Right$ = 8						; size = 4
?_Assign_locked@_Iterator_base12@std@@AAEXABU12@@Z PROC	; std::_Iterator_base12::_Assign_locked, COMDAT
; _this$ = ecx

; 1331 :     void _Assign_locked(const _Iterator_base12& _Right) noexcept {

	push	ebp
	mov	ebp, esp
	sub	esp, 16					; 00000010H
	mov	eax, -858993460				; ccccccccH
	mov	DWORD PTR [ebp-16], eax
	mov	DWORD PTR [ebp-12], eax
	mov	DWORD PTR [ebp-8], eax
	mov	DWORD PTR [ebp-4], eax
	mov	DWORD PTR _this$[ebp], ecx

; 1332 :         _Lockit _Lock(_LOCK_DEBUG);

	push	3
	lea	ecx, DWORD PTR __Lock$[ebp]
	call	??0_Lockit@std@@QAE@H@Z			; std::_Lockit::_Lockit

; 1333 :         _Assign_unlocked(_Right);

	mov	eax, DWORD PTR __Right$[ebp]
	push	eax
	mov	ecx, DWORD PTR _this$[ebp]
	call	?_Assign_unlocked@_Iterator_base12@std@@AAEXABU12@@Z ; std::_Iterator_base12::_Assign_unlocked

; 1334 :     }

	lea	ecx, DWORD PTR __Lock$[ebp]
	call	??1_Lockit@std@@QAE@XZ			; std::_Lockit::~_Lockit
	npad	1
	push	edx
	mov	ecx, ebp
	push	eax
	lea	edx, DWORD PTR $LN6@Assign_loc
	call	@_RTC_CheckStackVars@8
	pop	eax
	pop	edx
	add	esp, 16					; 00000010H
	cmp	ebp, esp
	call	__RTC_CheckEsp
	mov	esp, ebp
	pop	ebp
	ret	4
	npad	2
$LN6@Assign_loc:
	DD	1
	DD	$LN5@Assign_loc
$LN5@Assign_loc:
	DD	-12					; fffffff4H
	DD	4
	DD	$LN4@Assign_loc
$LN4@Assign_loc:
	DB	95					; 0000005fH
	DB	76					; 0000004cH
	DB	111					; 0000006fH
	DB	99					; 00000063H
	DB	107					; 0000006bH
	DB	0
?_Assign_locked@_Iterator_base12@std@@AAEXABU12@@Z ENDP	; std::_Iterator_base12::_Assign_locked
_TEXT	ENDS
; Function compile flags: /Odtp /RTCsu
; File C:\Program Files\Microsoft Visual Studio\2022\Community\VC\Tools\MSVC\14.44.35207\include\xmemory
;	COMDAT ?_Assign_unlocked@_Iterator_base12@std@@AAEXABU12@@Z
_TEXT	SEGMENT
_this$ = -4						; size = 4
__Right$ = 8						; size = 4
?_Assign_unlocked@_Iterator_base12@std@@AAEXABU12@@Z PROC ; std::_Iterator_base12::_Assign_unlocked, COMDAT
; _this$ = ecx

; 1319 :     _CONSTEXPR20 void _Assign_unlocked(const _Iterator_base12& _Right) noexcept {

	push	ebp
	mov	ebp, esp
	push	ecx
	mov	DWORD PTR [ebp-4], -858993460		; ccccccccH
	mov	DWORD PTR _this$[ebp], ecx

; 1320 :         if (_Myproxy == _Right._Myproxy) {

	mov	eax, DWORD PTR _this$[ebp]
	mov	ecx, DWORD PTR __Right$[ebp]
	mov	edx, DWORD PTR [eax]
	cmp	edx, DWORD PTR [ecx]
	jne	SHORT $LN2@Assign_unl

; 1321 :             return;

	jmp	SHORT $LN1@Assign_unl
$LN2@Assign_unl:

; 1322 :         }
; 1323 : 
; 1324 :         if (_Right._Myproxy) {

	mov	eax, DWORD PTR __Right$[ebp]
	cmp	DWORD PTR [eax], 0
	je	SHORT $LN3@Assign_unl

; 1325 :             _Adopt_unlocked(_Right._Myproxy->_Mycont);

	mov	ecx, DWORD PTR __Right$[ebp]
	mov	edx, DWORD PTR [ecx]
	mov	eax, DWORD PTR [edx]
	push	eax
	mov	ecx, DWORD PTR _this$[ebp]
	call	?_Adopt_unlocked@_Iterator_base12@std@@AAEXPBU_Container_base12@2@@Z ; std::_Iterator_base12::_Adopt_unlocked
	npad	1

; 1326 :         } else { // becoming invalid, disown current parent

	jmp	SHORT $LN4@Assign_unl
$LN3@Assign_unl:

; 1327 :             _Orphan_me_unlocked_v3();

	mov	ecx, DWORD PTR _this$[ebp]
	call	?_Orphan_me_unlocked_v3@_Iterator_base12@std@@AAEXXZ ; std::_Iterator_base12::_Orphan_me_unlocked_v3
	npad	1
$LN4@Assign_unl:
$LN1@Assign_unl:

; 1328 :         }
; 1329 :     }

	add	esp, 4
	cmp	ebp, esp
	call	__RTC_CheckEsp
	mov	esp, ebp
	pop	ebp
	ret	4
?_Assign_unlocked@_Iterator_base12@std@@AAEXABU12@@Z ENDP ; std::_Iterator_base12::_Assign_unlocked
_TEXT	ENDS
; Function compile flags: /Odtp /RTCsu
; File C:\Program Files\Microsoft Visual Studio\2022\Community\VC\Tools\MSVC\14.44.35207\include\xmemory
;	COMDAT ?_Getcont@_Iterator_base12@std@@QBEPBU_Container_base12@2@XZ
_TEXT	SEGMENT
tv68 = -8						; size = 4
_this$ = -4						; size = 4
?_Getcont@_Iterator_base12@std@@QBEPBU_Container_base12@2@XZ PROC ; std::_Iterator_base12::_Getcont, COMDAT
; _this$ = ecx

; 1308 :     _CONSTEXPR20 const _Container_base12* _Getcont() const noexcept {

	push	ebp
	mov	ebp, esp
	sub	esp, 8
	mov	DWORD PTR _this$[ebp], ecx

; 1309 :         return _Myproxy ? _Myproxy->_Mycont : nullptr;

	mov	eax, DWORD PTR _this$[ebp]
	cmp	DWORD PTR [eax], 0
	je	SHORT $LN3@Getcont
	mov	ecx, DWORD PTR _this$[ebp]
	mov	edx, DWORD PTR [ecx]
	mov	eax, DWORD PTR [edx]
	mov	DWORD PTR tv68[ebp], eax
	jmp	SHORT $LN4@Getcont
$LN3@Getcont:
	mov	DWORD PTR tv68[ebp], 0
$LN4@Getcont:
	mov	eax, DWORD PTR tv68[ebp]

; 1310 :     }

	mov	esp, ebp
	pop	ebp
	ret	0
?_Getcont@_Iterator_base12@std@@QBEPBU_Container_base12@2@XZ ENDP ; std::_Iterator_base12::_Getcont
_TEXT	ENDS
; Function compile flags: /Odtp /RTCsu
; File C:\Program Files\Microsoft Visual Studio\2022\Community\VC\Tools\MSVC\14.44.35207\include\xmemory
;	COMDAT ?_Adopt@_Iterator_base12@std@@QAEXPBU_Container_base12@2@@Z
_TEXT	SEGMENT
_this$ = -4						; size = 4
__Parent$ = 8						; size = 4
?_Adopt@_Iterator_base12@std@@QAEXPBU_Container_base12@2@@Z PROC ; std::_Iterator_base12::_Adopt, COMDAT
; _this$ = ecx

; 1288 :     _CONSTEXPR20 void _Adopt(const _Container_base12* _Parent) noexcept {

	push	ebp
	mov	ebp, esp
	push	ecx
	mov	DWORD PTR [ebp-4], -858993460		; ccccccccH
	mov	DWORD PTR _this$[ebp], ecx

; 1289 : #if _HAS_CXX20
; 1290 :         if (_STD is_constant_evaluated()) {
; 1291 :             _Adopt_unlocked(_Parent);
; 1292 :         } else
; 1293 : #endif // _HAS_CXX20
; 1294 :         {
; 1295 :             _Adopt_locked(_Parent);

	mov	eax, DWORD PTR __Parent$[ebp]
	push	eax
	mov	ecx, DWORD PTR _this$[ebp]
	call	?_Adopt_locked@_Iterator_base12@std@@AAEXPBU_Container_base12@2@@Z ; std::_Iterator_base12::_Adopt_locked
	npad	1

; 1296 :         }
; 1297 :     }

	add	esp, 4
	cmp	ebp, esp
	call	__RTC_CheckEsp
	mov	esp, ebp
	pop	ebp
	ret	4
?_Adopt@_Iterator_base12@std@@QAEXPBU_Container_base12@2@@Z ENDP ; std::_Iterator_base12::_Adopt
_TEXT	ENDS
; Function compile flags: /Odtp /RTCsu
; File C:\Program Files\Microsoft Visual Studio\2022\Community\VC\Tools\MSVC\14.44.35207\include\xmemory
;	COMDAT ??1_Iterator_base12@std@@QAE@XZ
_TEXT	SEGMENT
_this$ = -4						; size = 4
??1_Iterator_base12@std@@QAE@XZ PROC			; std::_Iterator_base12::~_Iterator_base12, COMDAT
; _this$ = ecx

; 1277 :     _CONSTEXPR20 ~_Iterator_base12() noexcept {

	push	ebp
	mov	ebp, esp
	push	ecx
	mov	DWORD PTR [ebp-4], -858993460		; ccccccccH
	mov	DWORD PTR _this$[ebp], ecx

; 1278 : #if _HAS_CXX20
; 1279 :         if (_STD is_constant_evaluated()) {
; 1280 :             _Orphan_me_unlocked_v3();
; 1281 :         } else
; 1282 : #endif // _HAS_CXX20
; 1283 :         {
; 1284 :             _Orphan_me_locked_v3();

	mov	ecx, DWORD PTR _this$[ebp]
	call	?_Orphan_me_locked_v3@_Iterator_base12@std@@AAEXXZ ; std::_Iterator_base12::_Orphan_me_locked_v3
	npad	1

; 1285 :         }
; 1286 :     }

	add	esp, 4
	cmp	ebp, esp
	call	__RTC_CheckEsp
	mov	esp, ebp
	pop	ebp
	ret	0
??1_Iterator_base12@std@@QAE@XZ ENDP			; std::_Iterator_base12::~_Iterator_base12
_TEXT	ENDS
; Function compile flags: /Odtp /RTCsu
; File C:\Program Files\Microsoft Visual Studio\2022\Community\VC\Tools\MSVC\14.44.35207\include\xmemory
;	COMDAT ??4_Iterator_base12@std@@QAEAAU01@ABU01@@Z
_TEXT	SEGMENT
_this$ = -4						; size = 4
__Right$ = 8						; size = 4
??4_Iterator_base12@std@@QAEAAU01@ABU01@@Z PROC		; std::_Iterator_base12::operator=, COMDAT
; _this$ = ecx

; 1260 :     _CONSTEXPR20 _Iterator_base12& operator=(const _Iterator_base12& _Right) noexcept {

	push	ebp
	mov	ebp, esp
	push	ecx
	mov	DWORD PTR [ebp-4], -858993460		; ccccccccH
	mov	DWORD PTR _this$[ebp], ecx

; 1261 : #if _ITERATOR_DEBUG_LEVEL == 2
; 1262 : #if _HAS_CXX20
; 1263 :         if (_STD is_constant_evaluated()) {
; 1264 :             _Assign_unlocked(_Right);
; 1265 :         } else
; 1266 : #endif // _HAS_CXX20
; 1267 :         {
; 1268 :             _Assign_locked(_Right);

	mov	eax, DWORD PTR __Right$[ebp]
	push	eax
	mov	ecx, DWORD PTR _this$[ebp]
	call	?_Assign_locked@_Iterator_base12@std@@AAEXABU12@@Z ; std::_Iterator_base12::_Assign_locked
	npad	1

; 1269 :         }
; 1270 : #else // ^^^ _ITERATOR_DEBUG_LEVEL == 2 / _ITERATOR_DEBUG_LEVEL != 2 vvv
; 1271 :         _Myproxy = _Right._Myproxy;
; 1272 : #endif // ^^^ _ITERATOR_DEBUG_LEVEL != 2 ^^^
; 1273 :         return *this;

	mov	eax, DWORD PTR _this$[ebp]

; 1274 :     }

	add	esp, 4
	cmp	ebp, esp
	call	__RTC_CheckEsp
	mov	esp, ebp
	pop	ebp
	ret	4
??4_Iterator_base12@std@@QAEAAU01@ABU01@@Z ENDP		; std::_Iterator_base12::operator=
_TEXT	ENDS
; Function compile flags: /Odtp /RTCsu
; File C:\Program Files\Microsoft Visual Studio\2022\Community\VC\Tools\MSVC\14.44.35207\include\xmemory
;	COMDAT ??0_Iterator_base12@std@@QAE@ABU01@@Z
_TEXT	SEGMENT
_this$ = -4						; size = 4
__Right$ = 8						; size = 4
??0_Iterator_base12@std@@QAE@ABU01@@Z PROC		; std::_Iterator_base12::_Iterator_base12, COMDAT
; _this$ = ecx

; 1256 :     _CONSTEXPR20 _Iterator_base12(const _Iterator_base12& _Right) noexcept {

	push	ebp
	mov	ebp, esp
	push	ecx
	mov	DWORD PTR [ebp-4], -858993460		; ccccccccH
	mov	DWORD PTR _this$[ebp], ecx

; 1259 : 
; 1260 :     _CONSTEXPR20 _Iterator_base12& operator=(const _Iterator_base12& _Right) noexcept {
; 1261 : #if _ITERATOR_DEBUG_LEVEL == 2
; 1262 : #if _HAS_CXX20
; 1263 :         if (_STD is_constant_evaluated()) {
; 1264 :             _Assign_unlocked(_Right);
; 1265 :         } else
; 1266 : #endif // _HAS_CXX20
; 1267 :         {
; 1268 :             _Assign_locked(_Right);
; 1269 :         }
; 1270 : #else // ^^^ _ITERATOR_DEBUG_LEVEL == 2 / _ITERATOR_DEBUG_LEVEL != 2 vvv
; 1271 :         _Myproxy = _Right._Myproxy;
; 1272 : #endif // ^^^ _ITERATOR_DEBUG_LEVEL != 2 ^^^
; 1273 :         return *this;
; 1274 :     }
; 1275 : 
; 1276 : #if _ITERATOR_DEBUG_LEVEL == 2
; 1277 :     _CONSTEXPR20 ~_Iterator_base12() noexcept {
; 1278 : #if _HAS_CXX20
; 1279 :         if (_STD is_constant_evaluated()) {
; 1280 :             _Orphan_me_unlocked_v3();
; 1281 :         } else
; 1282 : #endif // _HAS_CXX20
; 1283 :         {
; 1284 :             _Orphan_me_locked_v3();
; 1285 :         }
; 1286 :     }
; 1287 : 
; 1288 :     _CONSTEXPR20 void _Adopt(const _Container_base12* _Parent) noexcept {
; 1289 : #if _HAS_CXX20
; 1290 :         if (_STD is_constant_evaluated()) {
; 1291 :             _Adopt_unlocked(_Parent);
; 1292 :         } else
; 1293 : #endif // _HAS_CXX20
; 1294 :         {
; 1295 :             _Adopt_locked(_Parent);
; 1296 :         }
; 1297 :     }
; 1298 : #else // ^^^ _ITERATOR_DEBUG_LEVEL == 2 / _ITERATOR_DEBUG_LEVEL != 2 vvv
; 1299 :     _CONSTEXPR20 void _Adopt(const _Container_base12* _Parent) noexcept {
; 1300 :         if (_Parent) { // have a parent, do adoption
; 1301 :             _Myproxy = _Parent->_Myproxy;
; 1302 :         } else { // no future parent, just disown current parent
; 1303 :             _Myproxy = nullptr;
; 1304 :         }
; 1305 :     }
; 1306 : #endif // ^^^ _ITERATOR_DEBUG_LEVEL != 2 ^^^
; 1307 : 
; 1308 :     _CONSTEXPR20 const _Container_base12* _Getcont() const noexcept {
; 1309 :         return _Myproxy ? _Myproxy->_Mycont : nullptr;
; 1310 :     }
; 1311 : 
; 1312 :     static constexpr bool _Unwrap_when_unverified = _ITERATOR_DEBUG_LEVEL == 0;
; 1313 : 
; 1314 :     mutable _Container_proxy* _Myproxy    = nullptr;

	mov	eax, DWORD PTR _this$[ebp]
	mov	DWORD PTR [eax], 0

; 1315 :     mutable _Iterator_base12* _Mynextiter = nullptr;

	mov	ecx, DWORD PTR _this$[ebp]
	mov	DWORD PTR [ecx+4], 0

; 1257 :         *this = _Right;

	mov	edx, DWORD PTR __Right$[ebp]
	push	edx
	mov	ecx, DWORD PTR _this$[ebp]
	call	??4_Iterator_base12@std@@QAEAAU01@ABU01@@Z ; std::_Iterator_base12::operator=
	npad	1

; 1258 :     }

	mov	eax, DWORD PTR _this$[ebp]
	add	esp, 4
	cmp	ebp, esp
	call	__RTC_CheckEsp
	mov	esp, ebp
	pop	ebp
	ret	4
??0_Iterator_base12@std@@QAE@ABU01@@Z ENDP		; std::_Iterator_base12::_Iterator_base12
_TEXT	ENDS
; Function compile flags: /Odtp /RTCsu
; File C:\Program Files\Microsoft Visual Studio\2022\Community\VC\Tools\MSVC\14.44.35207\include\xmemory
;	COMDAT ??0_Iterator_base12@std@@QAE@XZ
_TEXT	SEGMENT
_this$ = -4						; size = 4
??0_Iterator_base12@std@@QAE@XZ PROC			; std::_Iterator_base12::_Iterator_base12, COMDAT
; _this$ = ecx

; 1254 :     _CONSTEXPR20 _Iterator_base12() noexcept = default; // construct orphaned iterator

	push	ebp
	mov	ebp, esp
	push	ecx
	mov	DWORD PTR _this$[ebp], ecx

; 1255 : 
; 1256 :     _CONSTEXPR20 _Iterator_base12(const _Iterator_base12& _Right) noexcept {
; 1257 :         *this = _Right;
; 1258 :     }
; 1259 : 
; 1260 :     _CONSTEXPR20 _Iterator_base12& operator=(const _Iterator_base12& _Right) noexcept {
; 1261 : #if _ITERATOR_DEBUG_LEVEL == 2
; 1262 : #if _HAS_CXX20
; 1263 :         if (_STD is_constant_evaluated()) {
; 1264 :             _Assign_unlocked(_Right);
; 1265 :         } else
; 1266 : #endif // _HAS_CXX20
; 1267 :         {
; 1268 :             _Assign_locked(_Right);
; 1269 :         }
; 1270 : #else // ^^^ _ITERATOR_DEBUG_LEVEL == 2 / _ITERATOR_DEBUG_LEVEL != 2 vvv
; 1271 :         _Myproxy = _Right._Myproxy;
; 1272 : #endif // ^^^ _ITERATOR_DEBUG_LEVEL != 2 ^^^
; 1273 :         return *this;
; 1274 :     }
; 1275 : 
; 1276 : #if _ITERATOR_DEBUG_LEVEL == 2
; 1277 :     _CONSTEXPR20 ~_Iterator_base12() noexcept {
; 1278 : #if _HAS_CXX20
; 1279 :         if (_STD is_constant_evaluated()) {
; 1280 :             _Orphan_me_unlocked_v3();
; 1281 :         } else
; 1282 : #endif // _HAS_CXX20
; 1283 :         {
; 1284 :             _Orphan_me_locked_v3();
; 1285 :         }
; 1286 :     }
; 1287 : 
; 1288 :     _CONSTEXPR20 void _Adopt(const _Container_base12* _Parent) noexcept {
; 1289 : #if _HAS_CXX20
; 1290 :         if (_STD is_constant_evaluated()) {
; 1291 :             _Adopt_unlocked(_Parent);
; 1292 :         } else
; 1293 : #endif // _HAS_CXX20
; 1294 :         {
; 1295 :             _Adopt_locked(_Parent);
; 1296 :         }
; 1297 :     }
; 1298 : #else // ^^^ _ITERATOR_DEBUG_LEVEL == 2 / _ITERATOR_DEBUG_LEVEL != 2 vvv
; 1299 :     _CONSTEXPR20 void _Adopt(const _Container_base12* _Parent) noexcept {
; 1300 :         if (_Parent) { // have a parent, do adoption
; 1301 :             _Myproxy = _Parent->_Myproxy;
; 1302 :         } else { // no future parent, just disown current parent
; 1303 :             _Myproxy = nullptr;
; 1304 :         }
; 1305 :     }
; 1306 : #endif // ^^^ _ITERATOR_DEBUG_LEVEL != 2 ^^^
; 1307 : 
; 1308 :     _CONSTEXPR20 const _Container_base12* _Getcont() const noexcept {
; 1309 :         return _Myproxy ? _Myproxy->_Mycont : nullptr;
; 1310 :     }
; 1311 : 
; 1312 :     static constexpr bool _Unwrap_when_unverified = _ITERATOR_DEBUG_LEVEL == 0;
; 1313 : 
; 1314 :     mutable _Container_proxy* _Myproxy    = nullptr;

	mov	eax, DWORD PTR _this$[ebp]
	mov	DWORD PTR [eax], 0

; 1315 :     mutable _Iterator_base12* _Mynextiter = nullptr;

	mov	ecx, DWORD PTR _this$[ebp]
	mov	DWORD PTR [ecx+4], 0

; 1254 :     _CONSTEXPR20 _Iterator_base12() noexcept = default; // construct orphaned iterator

	mov	eax, DWORD PTR _this$[ebp]
	mov	esp, ebp
	pop	ebp
	ret	0
??0_Iterator_base12@std@@QAE@XZ ENDP			; std::_Iterator_base12::_Iterator_base12
_TEXT	ENDS
; Function compile flags: /Odtp /RTCsu
; File C:\Program Files\Microsoft Visual Studio\2022\Community\VC\Tools\MSVC\14.44.35207\include\xmemory
;	COMDAT ?_Orphan_all_locked_v3@_Container_base12@std@@AAEXXZ
_TEXT	SEGMENT
__Lock$ = -12						; size = 4
_this$ = -4						; size = 4
?_Orphan_all_locked_v3@_Container_base12@std@@AAEXXZ PROC ; std::_Container_base12::_Orphan_all_locked_v3, COMDAT
; _this$ = ecx

; 1241 :     void _Orphan_all_locked_v3() noexcept {

	push	ebp
	mov	ebp, esp
	sub	esp, 16					; 00000010H
	mov	eax, -858993460				; ccccccccH
	mov	DWORD PTR [ebp-16], eax
	mov	DWORD PTR [ebp-12], eax
	mov	DWORD PTR [ebp-8], eax
	mov	DWORD PTR [ebp-4], eax
	mov	DWORD PTR _this$[ebp], ecx

; 1242 :         _Lockit _Lock(_LOCK_DEBUG);

	push	3
	lea	ecx, DWORD PTR __Lock$[ebp]
	call	??0_Lockit@std@@QAE@H@Z			; std::_Lockit::_Lockit

; 1243 :         _Orphan_all_unlocked_v3();

	mov	ecx, DWORD PTR _this$[ebp]
	call	?_Orphan_all_unlocked_v3@_Container_base12@std@@AAEXXZ ; std::_Container_base12::_Orphan_all_unlocked_v3

; 1244 :     }

	lea	ecx, DWORD PTR __Lock$[ebp]
	call	??1_Lockit@std@@QAE@XZ			; std::_Lockit::~_Lockit
	npad	1
	push	edx
	mov	ecx, ebp
	push	eax
	lea	edx, DWORD PTR $LN6@Orphan_all
	call	@_RTC_CheckStackVars@8
	pop	eax
	pop	edx
	add	esp, 16					; 00000010H
	cmp	ebp, esp
	call	__RTC_CheckEsp
	mov	esp, ebp
	pop	ebp
	ret	0
$LN6@Orphan_all:
	DD	1
	DD	$LN5@Orphan_all
$LN5@Orphan_all:
	DD	-12					; fffffff4H
	DD	4
	DD	$LN4@Orphan_all
$LN4@Orphan_all:
	DB	95					; 0000005fH
	DB	76					; 0000004cH
	DB	111					; 0000006fH
	DB	99					; 00000063H
	DB	107					; 0000006bH
	DB	0
?_Orphan_all_locked_v3@_Container_base12@std@@AAEXXZ ENDP ; std::_Container_base12::_Orphan_all_locked_v3
_TEXT	ENDS
; Function compile flags: /Odtp /RTCsu
; File C:\Program Files\Microsoft Visual Studio\2022\Community\VC\Tools\MSVC\14.44.35207\include\xmemory
;	COMDAT ?_Orphan_all_unlocked_v3@_Container_base12@std@@AAEXXZ
_TEXT	SEGMENT
$T1 = -12						; size = 4
__Pnext$2 = -8						; size = 4
_this$ = -4						; size = 4
?_Orphan_all_unlocked_v3@_Container_base12@std@@AAEXXZ PROC ; std::_Container_base12::_Orphan_all_unlocked_v3, COMDAT
; _this$ = ecx

; 1381 : _CONSTEXPR20 void _Container_base12::_Orphan_all_unlocked_v3() noexcept {

	push	ebp
	mov	ebp, esp
	sub	esp, 12					; 0000000cH
	mov	DWORD PTR [ebp-12], -858993460		; ccccccccH
	mov	DWORD PTR [ebp-8], -858993460		; ccccccccH
	mov	DWORD PTR [ebp-4], -858993460		; ccccccccH
	mov	DWORD PTR _this$[ebp], ecx

; 1382 :     if (!_Myproxy) { // no proxy, already done

	mov	eax, DWORD PTR _this$[ebp]
	cmp	DWORD PTR [eax], 0
	jne	SHORT $LN5@Orphan_all

; 1383 :         return;

	jmp	SHORT $LN1@Orphan_all
$LN5@Orphan_all:

; 1384 :     }
; 1385 : 
; 1386 :     // proxy allocated, drain it
; 1387 :     for (auto _Pnext = _STD exchange(_Myproxy->_Myfirstiter, nullptr); _Pnext; _Pnext = _Pnext->_Mynextiter) {

	mov	DWORD PTR $T1[ebp], 0
	lea	ecx, DWORD PTR $T1[ebp]
	push	ecx
	mov	edx, DWORD PTR _this$[ebp]
	mov	eax, DWORD PTR [edx]
	add	eax, 4
	push	eax
	call	??$exchange@PAU_Iterator_base12@std@@$$T@std@@YAPAU_Iterator_base12@0@AAPAU10@$$QA$$T@Z ; std::exchange<std::_Iterator_base12 *,std::nullptr_t>
	add	esp, 8
	mov	DWORD PTR __Pnext$2[ebp], eax
	jmp	SHORT $LN4@Orphan_all
$LN2@Orphan_all:
	mov	ecx, DWORD PTR __Pnext$2[ebp]
	mov	edx, DWORD PTR [ecx+4]
	mov	DWORD PTR __Pnext$2[ebp], edx
$LN4@Orphan_all:
	cmp	DWORD PTR __Pnext$2[ebp], 0
	je	SHORT $LN3@Orphan_all

; 1388 :         _Pnext->_Myproxy = nullptr;

	mov	eax, DWORD PTR __Pnext$2[ebp]
	mov	DWORD PTR [eax], 0

; 1389 :     }

	jmp	SHORT $LN2@Orphan_all
$LN3@Orphan_all:
$LN1@Orphan_all:

; 1390 : }

	add	esp, 12					; 0000000cH
	cmp	ebp, esp
	call	__RTC_CheckEsp
	mov	esp, ebp
	pop	ebp
	ret	0
?_Orphan_all_unlocked_v3@_Container_base12@std@@AAEXXZ ENDP ; std::_Container_base12::_Orphan_all_unlocked_v3
_TEXT	ENDS
; Function compile flags: /Odtp /RTCsu
; File C:\Program Files\Microsoft Visual Studio\2022\Community\VC\Tools\MSVC\14.44.35207\include\xmemory
;	COMDAT ?_Orphan_all@_Container_base12@std@@QAEXXZ
_TEXT	SEGMENT
_this$ = -4						; size = 4
?_Orphan_all@_Container_base12@std@@QAEXXZ PROC		; std::_Container_base12::_Orphan_all, COMDAT
; _this$ = ecx

; 1392 : _CONSTEXPR20 void _Container_base12::_Orphan_all() noexcept {

	push	ebp
	mov	ebp, esp
	push	ecx
	mov	DWORD PTR [ebp-4], -858993460		; ccccccccH
	mov	DWORD PTR _this$[ebp], ecx

; 1393 : #if _ITERATOR_DEBUG_LEVEL == 2
; 1394 : #if _HAS_CXX20
; 1395 :     if (_STD is_constant_evaluated()) {
; 1396 :         _Orphan_all_unlocked_v3();
; 1397 :     } else
; 1398 : #endif // _HAS_CXX20
; 1399 :     {
; 1400 :         _Orphan_all_locked_v3();

	mov	ecx, DWORD PTR _this$[ebp]
	call	?_Orphan_all_locked_v3@_Container_base12@std@@AAEXXZ ; std::_Container_base12::_Orphan_all_locked_v3
	npad	1

; 1401 :     }
; 1402 : #endif // _ITERATOR_DEBUG_LEVEL == 2
; 1403 : }

	add	esp, 4
	cmp	ebp, esp
	call	__RTC_CheckEsp
	mov	esp, ebp
	pop	ebp
	ret	0
?_Orphan_all@_Container_base12@std@@QAEXXZ ENDP		; std::_Container_base12::_Orphan_all
_TEXT	ENDS
; Function compile flags: /Odtp /RTCsu
; File C:\Program Files\Microsoft Visual Studio\2022\Community\VC\Tools\MSVC\14.44.35207\include\xmemory
;	COMDAT ??0_Container_base12@std@@QAE@XZ
_TEXT	SEGMENT
_this$ = -4						; size = 4
??0_Container_base12@std@@QAE@XZ PROC			; std::_Container_base12::_Container_base12, COMDAT
; _this$ = ecx

; 1210 :     _CONSTEXPR20 _Container_base12() noexcept = default;

	push	ebp
	mov	ebp, esp
	push	ecx
	mov	DWORD PTR _this$[ebp], ecx

; 1211 : 
; 1212 :     _Container_base12(const _Container_base12&)            = delete;
; 1213 :     _Container_base12& operator=(const _Container_base12&) = delete;
; 1214 : 
; 1215 :     _CONSTEXPR20 void _Orphan_all() noexcept;
; 1216 :     _CONSTEXPR20 void _Swap_proxy_and_iterators(_Container_base12&) noexcept;
; 1217 : 
; 1218 :     template <class _Alloc>
; 1219 :     _CONSTEXPR20 void _Alloc_proxy(_Alloc&& _Al) {
; 1220 :         _Container_proxy* const _New_proxy = _Unfancy(_Al.allocate(1));
; 1221 :         _Construct_in_place(*_New_proxy, this);
; 1222 :         _Myproxy            = _New_proxy;
; 1223 :         _New_proxy->_Mycont = this;
; 1224 :     }
; 1225 : 
; 1226 :     template <class _Alloc>
; 1227 :     _CONSTEXPR20 void _Reload_proxy(_Alloc&& _Old_alloc, _Alloc&& _New_alloc) {
; 1228 :         // pre: no iterators refer to the existing proxy
; 1229 :         _Container_proxy* const _New_proxy = _Unfancy(_New_alloc.allocate(1));
; 1230 :         _Construct_in_place(*_New_proxy, this);
; 1231 :         _New_proxy->_Mycont = this;
; 1232 :         _Delete_plain_internal(_Old_alloc, _STD exchange(_Myproxy, _New_proxy));
; 1233 :     }
; 1234 : 
; 1235 :     _Container_proxy* _Myproxy = nullptr;

	mov	eax, DWORD PTR _this$[ebp]
	mov	DWORD PTR [eax], 0

; 1210 :     _CONSTEXPR20 _Container_base12() noexcept = default;

	mov	eax, DWORD PTR _this$[ebp]
	mov	esp, ebp
	pop	ebp
	ret	0
??0_Container_base12@std@@QAE@XZ ENDP			; std::_Container_base12::_Container_base12
_TEXT	ENDS
; Function compile flags: /Odtp /RTCsu
; File C:\Program Files\Microsoft Visual Studio\2022\Community\VC\Tools\MSVC\14.44.35207\include\xmemory
;	COMDAT ??0_Container_proxy@std@@QAE@PAU_Container_base12@1@@Z
_TEXT	SEGMENT
_this$ = -4						; size = 4
__Mycont_$ = 8						; size = 4
??0_Container_proxy@std@@QAE@PAU_Container_base12@1@@Z PROC ; std::_Container_proxy::_Container_proxy, COMDAT
; _this$ = ecx

; 1202 :     _CONSTEXPR20 _Container_proxy(_Container_base12* _Mycont_) noexcept : _Mycont(_Mycont_) {}

	push	ebp
	mov	ebp, esp
	push	ecx
	mov	DWORD PTR _this$[ebp], ecx
	mov	eax, DWORD PTR _this$[ebp]
	mov	ecx, DWORD PTR __Mycont_$[ebp]
	mov	DWORD PTR [eax], ecx

; 1203 : 
; 1204 :     const _Container_base12* _Mycont       = nullptr;
; 1205 :     mutable _Iterator_base12* _Myfirstiter = nullptr;

	mov	edx, DWORD PTR _this$[ebp]
	mov	DWORD PTR [edx+4], 0

; 1202 :     _CONSTEXPR20 _Container_proxy(_Container_base12* _Mycont_) noexcept : _Mycont(_Mycont_) {}

	mov	eax, DWORD PTR _this$[ebp]
	mov	esp, ebp
	pop	ebp
	ret	4
??0_Container_proxy@std@@QAE@PAU_Container_base12@1@@Z ENDP ; std::_Container_proxy::_Container_proxy
_TEXT	ENDS
; Function compile flags: /Odtp /RTCsu
; File C:\Program Files\Microsoft Visual Studio\2022\Community\VC\Tools\MSVC\14.44.35207\include\xmemory
;	COMDAT ?_Adopt@_Iterator_base0@std@@QAEXPBX@Z
_TEXT	SEGMENT
_this$ = -4						; size = 4
___formal$ = 8						; size = 4
?_Adopt@_Iterator_base0@std@@QAEXPBX@Z PROC		; std::_Iterator_base0::_Adopt, COMDAT
; _this$ = ecx

; 1191 :     _CONSTEXPR20 void _Adopt(const void*) noexcept {}

	push	ebp
	mov	ebp, esp
	push	ecx
	mov	DWORD PTR _this$[ebp], ecx
	mov	esp, ebp
	pop	ebp
	ret	4
?_Adopt@_Iterator_base0@std@@QAEXPBX@Z ENDP		; std::_Iterator_base0::_Adopt
_TEXT	ENDS
; Function compile flags: /Odtp /RTCsu
; File C:\Program Files\Microsoft Visual Studio\2022\Community\VC\Tools\MSVC\14.44.35207\include\xmemory
;	COMDAT ?_Adjust_manually_vector_aligned@std@@YAXAAPAXAAI@Z
_TEXT	SEGMENT
__Back_shift$ = -16					; size = 4
__Min_back_shift$ = -12					; size = 4
__Ptr_container$ = -8					; size = 4
__Ptr_user$ = -4					; size = 4
__Ptr$ = 8						; size = 4
__Bytes$ = 12						; size = 4
?_Adjust_manually_vector_aligned@std@@YAXAAPAXAAI@Z PROC ; std::_Adjust_manually_vector_aligned, COMDAT

; 200  : inline void _Adjust_manually_vector_aligned(void*& _Ptr, size_t& _Bytes) {

	push	ebp
	mov	ebp, esp
	sub	esp, 16					; 00000010H
	mov	eax, -858993460				; ccccccccH
	mov	DWORD PTR [ebp-16], eax
	mov	DWORD PTR [ebp-12], eax
	mov	DWORD PTR [ebp-8], eax
	mov	DWORD PTR [ebp-4], eax

; 201  :     // adjust parameters from _Allocate_manually_vector_aligned to pass to operator delete
; 202  :     _Bytes += _Non_user_size;

	mov	eax, DWORD PTR __Bytes$[ebp]
	mov	ecx, DWORD PTR [eax]
	add	ecx, 39					; 00000027H
	mov	edx, DWORD PTR __Bytes$[ebp]
	mov	DWORD PTR [edx], ecx

; 203  : 
; 204  :     const uintptr_t* const _Ptr_user = static_cast<uintptr_t*>(_Ptr);

	mov	eax, DWORD PTR __Ptr$[ebp]
	mov	ecx, DWORD PTR [eax]
	mov	DWORD PTR __Ptr_user$[ebp], ecx

; 205  :     const uintptr_t _Ptr_container   = _Ptr_user[-1];

	mov	edx, 4
	imul	eax, edx, -1
	mov	ecx, DWORD PTR __Ptr_user$[ebp]
	mov	edx, DWORD PTR [ecx+eax]
	mov	DWORD PTR __Ptr_container$[ebp], edx

; 206  : 
; 207  :     // If the following asserts, it likely means that we are performing
; 208  :     // an aligned delete on memory coming from an unaligned allocation.
; 209  :     _STL_ASSERT(_Ptr_user[-2] == _Big_allocation_sentinel, "invalid argument");

	mov	eax, 4
	imul	ecx, eax, -2
	mov	edx, DWORD PTR __Ptr_user$[ebp]
	cmp	DWORD PTR [edx+ecx], -84215046		; fafafafaH
	je	SHORT $LN2@Adjust_man
	push	OFFSET ??_C@_0BB@FCMFBGOM@invalid?5argument@
	push	OFFSET ??_C@_02DKCKIIND@?$CFs@
	push	0
	push	209					; 000000d1H
	push	OFFSET ??_C@_0GC@KLECFGLI@C?3?2Program?5Files?2Microsoft?5Visu@
	push	2
	call	__CrtDbgReport
	add	esp, 24					; 00000018H
	cmp	eax, 1
	jne	SHORT $LN6@Adjust_man
	int	3
$LN6@Adjust_man:
	push	0
	push	0
	push	0
	push	0
	push	0
	call	__invoke_watson
	npad	1
$LN2@Adjust_man:

; 210  : 
; 211  :     // Extra paranoia on aligned allocation/deallocation; ensure _Ptr_container is
; 212  :     // in range [_Min_back_shift, _Non_user_size]
; 213  : #ifdef _DEBUG
; 214  :     constexpr uintptr_t _Min_back_shift = 2 * sizeof(void*);

	mov	DWORD PTR __Min_back_shift$[ebp], 8

; 215  : #else // ^^^ defined(_DEBUG) / !defined(_DEBUG) vvv
; 216  :     constexpr uintptr_t _Min_back_shift = sizeof(void*);
; 217  : #endif // ^^^ !defined(_DEBUG) ^^^
; 218  :     const uintptr_t _Back_shift = reinterpret_cast<uintptr_t>(_Ptr) - _Ptr_container;

	mov	ecx, DWORD PTR __Ptr$[ebp]
	mov	edx, DWORD PTR [ecx]
	sub	edx, DWORD PTR __Ptr_container$[ebp]
	mov	DWORD PTR __Back_shift$[ebp], edx

; 219  :     _STL_VERIFY(_Back_shift >= _Min_back_shift && _Back_shift <= _Non_user_size, "invalid argument");

	cmp	DWORD PTR __Back_shift$[ebp], 8
	jb	SHORT $LN4@Adjust_man
	cmp	DWORD PTR __Back_shift$[ebp], 39	; 00000027H
	jbe	SHORT $LN3@Adjust_man
$LN4@Adjust_man:
	push	OFFSET ??_C@_0BB@FCMFBGOM@invalid?5argument@
	push	OFFSET ??_C@_02DKCKIIND@?$CFs@
	push	0
	push	219					; 000000dbH
	push	OFFSET ??_C@_0GC@KLECFGLI@C?3?2Program?5Files?2Microsoft?5Visu@
	push	2
	call	__CrtDbgReport
	add	esp, 24					; 00000018H
	cmp	eax, 1
	jne	SHORT $LN7@Adjust_man
	int	3
$LN7@Adjust_man:
	push	0
	push	0
	push	0
	push	0
	push	0
	call	__invoke_watson
	npad	1
$LN3@Adjust_man:

; 220  :     _Ptr = reinterpret_cast<void*>(_Ptr_container);

	mov	ecx, DWORD PTR __Ptr$[ebp]
	mov	edx, DWORD PTR __Ptr_container$[ebp]
	mov	DWORD PTR [ecx], edx
$LN1@Adjust_man:

; 221  : }

	add	esp, 16					; 00000010H
	cmp	ebp, esp
	call	__RTC_CheckEsp
	mov	esp, ebp
	pop	ebp
	ret	0
?_Adjust_manually_vector_aligned@std@@YAXAAPAXAAI@Z ENDP ; std::_Adjust_manually_vector_aligned
_TEXT	ENDS
; Function compile flags: /Odtp /RTCsu
; File C:\Program Files\Microsoft Visual Studio\2022\Community\VC\Tools\MSVC\14.44.35207\include\xmemory
;	COMDAT ?_Allocate@_Default_allocate_traits@std@@SAPAXI@Z
_TEXT	SEGMENT
__Bytes$ = 8						; size = 4
?_Allocate@_Default_allocate_traits@std@@SAPAXI@Z PROC	; std::_Default_allocate_traits::_Allocate, COMDAT

; 135  :     __declspec(allocator) static _CLANG_CONSTEXPR20 void* _Allocate(const size_t _Bytes) {

	push	ebp
	mov	ebp, esp

; 136  :         return ::operator new(_Bytes);

	mov	eax, DWORD PTR __Bytes$[ebp]
	push	eax
	call	??2@YAPAXI@Z				; operator new
	add	esp, 4

; 137  :     }

	cmp	ebp, esp
	call	__RTC_CheckEsp
	pop	ebp
	ret	0
?_Allocate@_Default_allocate_traits@std@@SAPAXI@Z ENDP	; std::_Default_allocate_traits::_Allocate
_TEXT	ENDS
; Function compile flags: /Odtp /RTCsu
; File C:\Program Files\Microsoft Visual Studio\2022\Community\VC\Tools\MSVC\14.44.35207\include\xmemory
;	COMDAT ?_Throw_bad_array_new_length@std@@YAXXZ
_TEXT	SEGMENT
$T1 = -12						; size = 12
?_Throw_bad_array_new_length@std@@YAXXZ PROC		; std::_Throw_bad_array_new_length, COMDAT

; 107  : [[noreturn]] inline void _Throw_bad_array_new_length() {

	push	ebp
	mov	ebp, esp
	sub	esp, 12					; 0000000cH
	mov	DWORD PTR [ebp-12], -858993460		; ccccccccH
	mov	DWORD PTR [ebp-8], -858993460		; ccccccccH
	mov	DWORD PTR [ebp-4], -858993460		; ccccccccH

; 108  :     _THROW(bad_array_new_length{});

	lea	ecx, DWORD PTR $T1[ebp]
	call	??0bad_array_new_length@std@@QAE@XZ	; std::bad_array_new_length::bad_array_new_length
	push	OFFSET __TI3?AVbad_array_new_length@std@@
	lea	eax, DWORD PTR $T1[ebp]
	push	eax
	call	__CxxThrowException@8
	npad	1
$LN1@Throw_bad_:

; 109  : }

	add	esp, 12					; 0000000cH
	cmp	ebp, esp
	call	__RTC_CheckEsp
	mov	esp, ebp
	pop	ebp
	ret	0
?_Throw_bad_array_new_length@std@@YAXXZ ENDP		; std::_Throw_bad_array_new_length
_TEXT	ENDS
; Function compile flags: /Odtp /RTCsu
;	COMDAT ??_Gbad_array_new_length@std@@UAEPAXI@Z
_TEXT	SEGMENT
_this$ = -4						; size = 4
___flags$ = 8						; size = 4
??_Gbad_array_new_length@std@@UAEPAXI@Z PROC		; std::bad_array_new_length::`scalar deleting destructor', COMDAT
; _this$ = ecx
	push	ebp
	mov	ebp, esp
	push	ecx
	mov	DWORD PTR [ebp-4], -858993460		; ccccccccH
	mov	DWORD PTR _this$[ebp], ecx
	mov	ecx, DWORD PTR _this$[ebp]
	call	??1bad_array_new_length@std@@UAE@XZ
	mov	eax, DWORD PTR ___flags$[ebp]
	and	eax, 1
	je	SHORT $LN2@scalar
	push	12					; 0000000cH
	mov	ecx, DWORD PTR _this$[ebp]
	push	ecx
	call	??3@YAXPAXI@Z				; operator delete
	add	esp, 8
$LN2@scalar:
	mov	eax, DWORD PTR _this$[ebp]
	add	esp, 4
	cmp	ebp, esp
	call	__RTC_CheckEsp
	mov	esp, ebp
	pop	ebp
	ret	4
??_Gbad_array_new_length@std@@UAEPAXI@Z ENDP		; std::bad_array_new_length::`scalar deleting destructor'
_TEXT	ENDS
; Function compile flags: /Odtp /RTCsu
;	COMDAT ??0bad_array_new_length@std@@QAE@ABV01@@Z
_TEXT	SEGMENT
_this$ = -4						; size = 4
___that$ = 8						; size = 4
??0bad_array_new_length@std@@QAE@ABV01@@Z PROC		; std::bad_array_new_length::bad_array_new_length, COMDAT
; _this$ = ecx
	push	ebp
	mov	ebp, esp
	push	ecx
	mov	DWORD PTR [ebp-4], -858993460		; ccccccccH
	mov	DWORD PTR _this$[ebp], ecx
	mov	eax, DWORD PTR ___that$[ebp]
	push	eax
	mov	ecx, DWORD PTR _this$[ebp]
	call	??0bad_alloc@std@@QAE@ABV01@@Z
	mov	ecx, DWORD PTR _this$[ebp]
	mov	DWORD PTR [ecx], OFFSET ??_7bad_array_new_length@std@@6B@
	mov	eax, DWORD PTR _this$[ebp]
	add	esp, 4
	cmp	ebp, esp
	call	__RTC_CheckEsp
	mov	esp, ebp
	pop	ebp
	ret	4
??0bad_array_new_length@std@@QAE@ABV01@@Z ENDP		; std::bad_array_new_length::bad_array_new_length
_TEXT	ENDS
; Function compile flags: /Odtp /RTCsu
;	COMDAT ??1bad_array_new_length@std@@UAE@XZ
_TEXT	SEGMENT
_this$ = -4						; size = 4
??1bad_array_new_length@std@@UAE@XZ PROC		; std::bad_array_new_length::~bad_array_new_length, COMDAT
; _this$ = ecx
	push	ebp
	mov	ebp, esp
	push	ecx
	mov	DWORD PTR [ebp-4], -858993460		; ccccccccH
	mov	DWORD PTR _this$[ebp], ecx
	mov	ecx, DWORD PTR _this$[ebp]
	call	??1bad_alloc@std@@UAE@XZ
	npad	1
	add	esp, 4
	cmp	ebp, esp
	call	__RTC_CheckEsp
	mov	esp, ebp
	pop	ebp
	ret	0
??1bad_array_new_length@std@@UAE@XZ ENDP		; std::bad_array_new_length::~bad_array_new_length
_TEXT	ENDS
; Function compile flags: /Odtp /RTCsu
; File C:\Program Files\Microsoft Visual Studio\2022\Community\VC\Tools\MSVC\14.44.35207\include\vcruntime_exception.h
;	COMDAT ??0bad_array_new_length@std@@QAE@XZ
_TEXT	SEGMENT
_this$ = -4						; size = 4
??0bad_array_new_length@std@@QAE@XZ PROC		; std::bad_array_new_length::bad_array_new_length, COMDAT
; _this$ = ecx

; 144  :     {

	push	ebp
	mov	ebp, esp
	push	ecx
	mov	DWORD PTR [ebp-4], -858993460		; ccccccccH
	mov	DWORD PTR _this$[ebp], ecx

; 143  :         : bad_alloc("bad array new length")

	push	OFFSET ??_C@_0BF@KINCDENJ@bad?5array?5new?5length@
	mov	ecx, DWORD PTR _this$[ebp]
	call	??0bad_alloc@std@@AAE@QBD@Z		; std::bad_alloc::bad_alloc

; 144  :     {

	mov	eax, DWORD PTR _this$[ebp]
	mov	DWORD PTR [eax], OFFSET ??_7bad_array_new_length@std@@6B@

; 145  :     }

	mov	eax, DWORD PTR _this$[ebp]
	add	esp, 4
	cmp	ebp, esp
	call	__RTC_CheckEsp
	mov	esp, ebp
	pop	ebp
	ret	0
??0bad_array_new_length@std@@QAE@XZ ENDP		; std::bad_array_new_length::bad_array_new_length
_TEXT	ENDS
; Function compile flags: /Odtp /RTCsu
;	COMDAT ??_Gbad_alloc@std@@UAEPAXI@Z
_TEXT	SEGMENT
_this$ = -4						; size = 4
___flags$ = 8						; size = 4
??_Gbad_alloc@std@@UAEPAXI@Z PROC			; std::bad_alloc::`scalar deleting destructor', COMDAT
; _this$ = ecx
	push	ebp
	mov	ebp, esp
	push	ecx
	mov	DWORD PTR [ebp-4], -858993460		; ccccccccH
	mov	DWORD PTR _this$[ebp], ecx
	mov	ecx, DWORD PTR _this$[ebp]
	call	??1bad_alloc@std@@UAE@XZ
	mov	eax, DWORD PTR ___flags$[ebp]
	and	eax, 1
	je	SHORT $LN2@scalar
	push	12					; 0000000cH
	mov	ecx, DWORD PTR _this$[ebp]
	push	ecx
	call	??3@YAXPAXI@Z				; operator delete
	add	esp, 8
$LN2@scalar:
	mov	eax, DWORD PTR _this$[ebp]
	add	esp, 4
	cmp	ebp, esp
	call	__RTC_CheckEsp
	mov	esp, ebp
	pop	ebp
	ret	4
??_Gbad_alloc@std@@UAEPAXI@Z ENDP			; std::bad_alloc::`scalar deleting destructor'
_TEXT	ENDS
; Function compile flags: /Odtp /RTCsu
;	COMDAT ??0bad_alloc@std@@QAE@ABV01@@Z
_TEXT	SEGMENT
_this$ = -4						; size = 4
___that$ = 8						; size = 4
??0bad_alloc@std@@QAE@ABV01@@Z PROC			; std::bad_alloc::bad_alloc, COMDAT
; _this$ = ecx
	push	ebp
	mov	ebp, esp
	push	ecx
	mov	DWORD PTR [ebp-4], -858993460		; ccccccccH
	mov	DWORD PTR _this$[ebp], ecx
	mov	eax, DWORD PTR ___that$[ebp]
	push	eax
	mov	ecx, DWORD PTR _this$[ebp]
	call	??0exception@std@@QAE@ABV01@@Z		; std::exception::exception
	mov	ecx, DWORD PTR _this$[ebp]
	mov	DWORD PTR [ecx], OFFSET ??_7bad_alloc@std@@6B@
	mov	eax, DWORD PTR _this$[ebp]
	add	esp, 4
	cmp	ebp, esp
	call	__RTC_CheckEsp
	mov	esp, ebp
	pop	ebp
	ret	4
??0bad_alloc@std@@QAE@ABV01@@Z ENDP			; std::bad_alloc::bad_alloc
_TEXT	ENDS
; Function compile flags: /Odtp /RTCsu
;	COMDAT ??1bad_alloc@std@@UAE@XZ
_TEXT	SEGMENT
_this$ = -4						; size = 4
??1bad_alloc@std@@UAE@XZ PROC				; std::bad_alloc::~bad_alloc, COMDAT
; _this$ = ecx
	push	ebp
	mov	ebp, esp
	push	ecx
	mov	DWORD PTR [ebp-4], -858993460		; ccccccccH
	mov	DWORD PTR _this$[ebp], ecx
	mov	ecx, DWORD PTR _this$[ebp]
	call	??1exception@std@@UAE@XZ		; std::exception::~exception
	npad	1
	add	esp, 4
	cmp	ebp, esp
	call	__RTC_CheckEsp
	mov	esp, ebp
	pop	ebp
	ret	0
??1bad_alloc@std@@UAE@XZ ENDP				; std::bad_alloc::~bad_alloc
_TEXT	ENDS
; Function compile flags: /Odtp /RTCsu
; File C:\Program Files\Microsoft Visual Studio\2022\Community\VC\Tools\MSVC\14.44.35207\include\vcruntime_exception.h
;	COMDAT ??0bad_alloc@std@@AAE@QBD@Z
_TEXT	SEGMENT
_this$ = -4						; size = 4
__Message$ = 8						; size = 4
??0bad_alloc@std@@AAE@QBD@Z PROC			; std::bad_alloc::bad_alloc, COMDAT
; _this$ = ecx

; 133  :     {

	push	ebp
	mov	ebp, esp
	push	ecx
	mov	DWORD PTR [ebp-4], -858993460		; ccccccccH
	mov	DWORD PTR _this$[ebp], ecx

; 132  :         : exception(_Message, 1)

	push	1
	mov	eax, DWORD PTR __Message$[ebp]
	push	eax
	mov	ecx, DWORD PTR _this$[ebp]
	call	??0exception@std@@QAE@QBDH@Z		; std::exception::exception

; 133  :     {

	mov	ecx, DWORD PTR _this$[ebp]
	mov	DWORD PTR [ecx], OFFSET ??_7bad_alloc@std@@6B@

; 134  :     }

	mov	eax, DWORD PTR _this$[ebp]
	add	esp, 4
	cmp	ebp, esp
	call	__RTC_CheckEsp
	mov	esp, ebp
	pop	ebp
	ret	4
??0bad_alloc@std@@AAE@QBD@Z ENDP			; std::bad_alloc::bad_alloc
_TEXT	ENDS
; Function compile flags: /Odtp /RTCsu
;	COMDAT ??_Gexception@std@@UAEPAXI@Z
_TEXT	SEGMENT
_this$ = -4						; size = 4
___flags$ = 8						; size = 4
??_Gexception@std@@UAEPAXI@Z PROC			; std::exception::`scalar deleting destructor', COMDAT
; _this$ = ecx
	push	ebp
	mov	ebp, esp
	push	ecx
	mov	DWORD PTR [ebp-4], -858993460		; ccccccccH
	mov	DWORD PTR _this$[ebp], ecx
	mov	ecx, DWORD PTR _this$[ebp]
	call	??1exception@std@@UAE@XZ		; std::exception::~exception
	mov	eax, DWORD PTR ___flags$[ebp]
	and	eax, 1
	je	SHORT $LN2@scalar
	push	12					; 0000000cH
	mov	ecx, DWORD PTR _this$[ebp]
	push	ecx
	call	??3@YAXPAXI@Z				; operator delete
	add	esp, 8
$LN2@scalar:
	mov	eax, DWORD PTR _this$[ebp]
	add	esp, 4
	cmp	ebp, esp
	call	__RTC_CheckEsp
	mov	esp, ebp
	pop	ebp
	ret	4
??_Gexception@std@@UAEPAXI@Z ENDP			; std::exception::`scalar deleting destructor'
_TEXT	ENDS
; Function compile flags: /Odtp /RTCsu
; File C:\Program Files\Microsoft Visual Studio\2022\Community\VC\Tools\MSVC\14.44.35207\include\vcruntime_exception.h
;	COMDAT ?what@exception@std@@UBEPBDXZ
_TEXT	SEGMENT
tv69 = -8						; size = 4
_this$ = -4						; size = 4
?what@exception@std@@UBEPBDXZ PROC			; std::exception::what, COMDAT
; _this$ = ecx

; 95   :     {

	push	ebp
	mov	ebp, esp
	sub	esp, 8
	mov	DWORD PTR _this$[ebp], ecx

; 96   :         return _Data._What ? _Data._What : "Unknown exception";

	mov	eax, DWORD PTR _this$[ebp]
	cmp	DWORD PTR [eax+4], 0
	je	SHORT $LN3@what
	mov	ecx, DWORD PTR _this$[ebp]
	mov	edx, DWORD PTR [ecx+4]
	mov	DWORD PTR tv69[ebp], edx
	jmp	SHORT $LN4@what
$LN3@what:
	mov	DWORD PTR tv69[ebp], OFFSET ??_C@_0BC@EOODALEL@Unknown?5exception@
$LN4@what:
	mov	eax, DWORD PTR tv69[ebp]

; 97   :     }

	mov	esp, ebp
	pop	ebp
	ret	0
?what@exception@std@@UBEPBDXZ ENDP			; std::exception::what
_TEXT	ENDS
; Function compile flags: /Odtp /RTCsu
; File C:\Program Files\Microsoft Visual Studio\2022\Community\VC\Tools\MSVC\14.44.35207\include\vcruntime_exception.h
;	COMDAT ??1exception@std@@UAE@XZ
_TEXT	SEGMENT
_this$ = -4						; size = 4
??1exception@std@@UAE@XZ PROC				; std::exception::~exception, COMDAT
; _this$ = ecx

; 90   :     {

	push	ebp
	mov	ebp, esp
	push	ecx
	mov	DWORD PTR [ebp-4], -858993460		; ccccccccH
	mov	DWORD PTR _this$[ebp], ecx
	mov	eax, DWORD PTR _this$[ebp]
	mov	DWORD PTR [eax], OFFSET ??_7exception@std@@6B@

; 91   :         __std_exception_destroy(&_Data);

	mov	ecx, DWORD PTR _this$[ebp]
	add	ecx, 4
	push	ecx
	call	___std_exception_destroy
	add	esp, 4

; 92   :     }

	add	esp, 4
	cmp	ebp, esp
	call	__RTC_CheckEsp
	mov	esp, ebp
	pop	ebp
	ret	0
??1exception@std@@UAE@XZ ENDP				; std::exception::~exception
_TEXT	ENDS
; Function compile flags: /Odtp /RTCsu
; File C:\Program Files\Microsoft Visual Studio\2022\Community\VC\Tools\MSVC\14.44.35207\include\vcruntime_exception.h
;	COMDAT ??0exception@std@@QAE@ABV01@@Z
_TEXT	SEGMENT
_this$ = -4						; size = 4
__Other$ = 8						; size = 4
??0exception@std@@QAE@ABV01@@Z PROC			; std::exception::exception, COMDAT
; _this$ = ecx

; 73   :     {

	push	ebp
	mov	ebp, esp
	push	ecx
	mov	DWORD PTR [ebp-4], -858993460		; ccccccccH
	mov	DWORD PTR _this$[ebp], ecx
	mov	eax, DWORD PTR _this$[ebp]
	mov	DWORD PTR [eax], OFFSET ??_7exception@std@@6B@

; 72   :         : _Data()

	xor	ecx, ecx
	mov	edx, DWORD PTR _this$[ebp]
	add	edx, 4
	mov	DWORD PTR [edx], ecx
	mov	DWORD PTR [edx+4], ecx

; 74   :         __std_exception_copy(&_Other._Data, &_Data);

	mov	eax, DWORD PTR _this$[ebp]
	add	eax, 4
	push	eax
	mov	ecx, DWORD PTR __Other$[ebp]
	add	ecx, 4
	push	ecx
	call	___std_exception_copy
	add	esp, 8

; 75   :     }

	mov	eax, DWORD PTR _this$[ebp]
	add	esp, 4
	cmp	ebp, esp
	call	__RTC_CheckEsp
	mov	esp, ebp
	pop	ebp
	ret	4
??0exception@std@@QAE@ABV01@@Z ENDP			; std::exception::exception
_TEXT	ENDS
; Function compile flags: /Odtp /RTCsu
; File C:\Program Files\Microsoft Visual Studio\2022\Community\VC\Tools\MSVC\14.44.35207\include\vcruntime_exception.h
;	COMDAT ??0exception@std@@QAE@QBDH@Z
_TEXT	SEGMENT
_this$ = -4						; size = 4
__Message$ = 8						; size = 4
___formal$ = 12						; size = 4
??0exception@std@@QAE@QBDH@Z PROC			; std::exception::exception, COMDAT
; _this$ = ecx

; 67   :     {

	push	ebp
	mov	ebp, esp
	push	ecx
	mov	DWORD PTR _this$[ebp], ecx
	mov	eax, DWORD PTR _this$[ebp]
	mov	DWORD PTR [eax], OFFSET ??_7exception@std@@6B@

; 66   :         : _Data()

	xor	ecx, ecx
	mov	edx, DWORD PTR _this$[ebp]
	add	edx, 4
	mov	DWORD PTR [edx], ecx
	mov	DWORD PTR [edx+4], ecx

; 68   :         _Data._What = _Message;

	mov	eax, DWORD PTR _this$[ebp]
	mov	ecx, DWORD PTR __Message$[ebp]
	mov	DWORD PTR [eax+4], ecx

; 69   :     }

	mov	eax, DWORD PTR _this$[ebp]
	mov	esp, ebp
	pop	ebp
	ret	8
??0exception@std@@QAE@QBDH@Z ENDP			; std::exception::exception
_TEXT	ENDS
; Function compile flags: /Odtp /RTCsu
; File C:\Program Files\Microsoft Visual Studio\2022\Community\VC\Tools\MSVC\14.44.35207\include\vcruntime_new.h
;	COMDAT ??2@YAPAXIPAX@Z
_TEXT	SEGMENT
__Size$ = 8						; size = 4
__Where$ = 12						; size = 4
??2@YAPAXIPAX@Z PROC					; operator new, COMDAT

; 164  :     {

	push	ebp
	mov	ebp, esp

; 165  :         (void)_Size;
; 166  :         return _Where;

	mov	eax, DWORD PTR __Where$[ebp]

; 167  :     }

	pop	ebp
	ret	0
??2@YAPAXIPAX@Z ENDP					; operator new
_TEXT	ENDS
; Function compile flags: /Odtp /RTCsu
; File C:\Users\Hamzzi\Desktop\AI_Practice\Source\VS2010\Common\Game\EntityManager.cpp
;	COMDAT ?__empty_global_delete@@YAXPAXI@Z
_TEXT	SEGMENT
___formal$ = 8						; size = 4
___formal$ = 12						; size = 4
?__empty_global_delete@@YAXPAXI@Z PROC			; __empty_global_delete, COMDAT

	push	ebp
	mov	ebp, esp
	pop	ebp
	ret	0
?__empty_global_delete@@YAXPAXI@Z ENDP			; __empty_global_delete
_TEXT	ENDS
; Function compile flags: /Odtp /RTCsu
; File C:\Users\Hamzzi\Desktop\AI_Practice\Source\VS2010\Common\Game\EntityManager.cpp
;	COMDAT ?__empty_global_delete@@YAXPAX@Z
_TEXT	SEGMENT
___formal$ = 8						; size = 4
?__empty_global_delete@@YAXPAX@Z PROC			; __empty_global_delete, COMDAT

	push	ebp
	mov	ebp, esp
	pop	ebp
	ret	0
?__empty_global_delete@@YAXPAX@Z ENDP			; __empty_global_delete
_TEXT	ENDS
END
