; Listing generated by Microsoft (R) Optimizing Compiler Version 19.44.35217.0 

	TITLE	C:\Users\Hamzzi\Desktop\AI_Practice\Source\VS2010\Buckland_Chapter7 to 10_Raven\Debug\FuzzyModule.obj
	.686P
	.XMM
	include listing.inc
	.model	flat

INCLUDELIB LIBCMTD
INCLUDELIB OLDNAMES

PUBLIC	__Avx2WmemEnabledWeakValue
;	COMDAT __Avx2WmemEnabledWeakValue
_BSS	SEGMENT
__Avx2WmemEnabledWeakValue DD 01H DUP (?)
_BSS	ENDS
CONST	SEGMENT
?piecewise_construct@std@@3Upiecewise_construct_t@1@B	ORG $+1 ; std::piecewise_construct
	ORG $+3
?_Valid_strftime_specifiers@std@@3QBDB DB 061H		; std::_Valid_strftime_specifiers
	DB	041H
	DB	062H
	DB	042H
	DB	063H
	DB	043H
	DB	064H
	DB	044H
	DB	065H
	DB	046H
	DB	067H
	DB	047H
	DB	068H
	DB	048H
	DB	049H
	DB	06aH
	DB	06dH
	DB	04dH
	DB	06eH
	DB	070H
	DB	072H
	DB	052H
	DB	053H
	DB	074H
	DB	054H
	DB	075H
	DB	055H
	DB	056H
	DB	077H
	DB	057H
	DB	078H
	DB	058H
	DB	079H
	DB	059H
	DB	07aH
	DB	05aH
$SG87443 DB	'invalid argument', 00H
	ORG $+3
$SG87444 DB	'%s', 00H
	ORG $+1
$SG87445 DB	'C:\Program Files\Microsoft Visual Studio\2022\Community\'
	DB	'VC\Tools\MSVC\14.44.35207\include\xmemory', 00H
	ORG $+2
$SG80721 DB	0aH, 0aH, 00H
	ORG $+1
$SG80723 DB	0aH, '--------------------------- ', 00H
CONST	ENDS
PUBLIC	?__empty_global_delete@@YAXPAX@Z		; __empty_global_delete
PUBLIC	?__empty_global_delete@@YAXPAXI@Z		; __empty_global_delete
PUBLIC	??2@YAPAXIPAX@Z					; operator new
PUBLIC	??0exception@std@@QAE@QBD@Z			; std::exception::exception
PUBLIC	??0exception@std@@QAE@QBDH@Z			; std::exception::exception
PUBLIC	??0exception@std@@QAE@ABV01@@Z			; std::exception::exception
PUBLIC	??1exception@std@@UAE@XZ			; std::exception::~exception
PUBLIC	?what@exception@std@@UBEPBDXZ			; std::exception::what
PUBLIC	??_Gexception@std@@UAEPAXI@Z			; std::exception::`scalar deleting destructor'
PUBLIC	??0bad_alloc@std@@AAE@QBD@Z			; std::bad_alloc::bad_alloc
PUBLIC	??1bad_alloc@std@@UAE@XZ			; std::bad_alloc::~bad_alloc
PUBLIC	??0bad_alloc@std@@QAE@ABV01@@Z			; std::bad_alloc::bad_alloc
PUBLIC	??_Gbad_alloc@std@@UAEPAXI@Z			; std::bad_alloc::`scalar deleting destructor'
PUBLIC	??0bad_array_new_length@std@@QAE@XZ		; std::bad_array_new_length::bad_array_new_length
PUBLIC	??1bad_array_new_length@std@@UAE@XZ		; std::bad_array_new_length::~bad_array_new_length
PUBLIC	??0bad_array_new_length@std@@QAE@ABV01@@Z	; std::bad_array_new_length::bad_array_new_length
PUBLIC	??_Gbad_array_new_length@std@@UAEPAXI@Z		; std::bad_array_new_length::`scalar deleting destructor'
PUBLIC	?copy@?$_Char_traits@DH@std@@SAPADQADQBDI@Z	; std::_Char_traits<char,int>::copy
PUBLIC	?move@?$_Char_traits@DH@std@@SAPADQADQBDI@Z	; std::_Char_traits<char,int>::move
PUBLIC	?compare@?$_Narrow_char_traits@DH@std@@SAHQBD0I@Z ; std::_Narrow_char_traits<char,int>::compare
PUBLIC	?length@?$_Narrow_char_traits@DH@std@@SAIQBD@Z	; std::_Narrow_char_traits<char,int>::length
PUBLIC	?assign@?$_Narrow_char_traits@DH@std@@SAXAADABD@Z ; std::_Narrow_char_traits<char,int>::assign
PUBLIC	?to_int_type@?$_Narrow_char_traits@DH@std@@SAHD@Z ; std::_Narrow_char_traits<char,int>::to_int_type
PUBLIC	?eq_int_type@?$_Narrow_char_traits@DH@std@@SA_NHH@Z ; std::_Narrow_char_traits<char,int>::eq_int_type
PUBLIC	?eof@?$_Narrow_char_traits@DH@std@@SAHXZ	; std::_Narrow_char_traits<char,int>::eof
PUBLIC	?_Throw_bad_array_new_length@std@@YAXXZ		; std::_Throw_bad_array_new_length
PUBLIC	?_Allocate@_Default_allocate_traits@std@@SAPAXI@Z ; std::_Default_allocate_traits::_Allocate
PUBLIC	?_Adjust_manually_vector_aligned@std@@YAXAAPAXAAI@Z ; std::_Adjust_manually_vector_aligned
PUBLIC	??0_Container_proxy@std@@QAE@PAU_Container_base12@1@@Z ; std::_Container_proxy::_Container_proxy
PUBLIC	??0_Container_base12@std@@QAE@XZ		; std::_Container_base12::_Container_base12
PUBLIC	?_Orphan_all@_Container_base12@std@@QAEXXZ	; std::_Container_base12::_Orphan_all
PUBLIC	?_Swap_proxy_and_iterators@_Container_base12@std@@QAEXAAU12@@Z ; std::_Container_base12::_Swap_proxy_and_iterators
PUBLIC	?_Orphan_all_unlocked_v3@_Container_base12@std@@AAEXXZ ; std::_Container_base12::_Orphan_all_unlocked_v3
PUBLIC	?_Swap_proxy_and_iterators_unlocked@_Container_base12@std@@AAEXAAU12@@Z ; std::_Container_base12::_Swap_proxy_and_iterators_unlocked
PUBLIC	?_Orphan_all_locked_v3@_Container_base12@std@@AAEXXZ ; std::_Container_base12::_Orphan_all_locked_v3
PUBLIC	?_Swap_proxy_and_iterators_locked@_Container_base12@std@@AAEXAAU12@@Z ; std::_Container_base12::_Swap_proxy_and_iterators_locked
PUBLIC	??0_Iterator_base12@std@@QAE@XZ			; std::_Iterator_base12::_Iterator_base12
PUBLIC	??1_Iterator_base12@std@@QAE@XZ			; std::_Iterator_base12::~_Iterator_base12
PUBLIC	?_Adopt@_Iterator_base12@std@@QAEXPBU_Container_base12@2@@Z ; std::_Iterator_base12::_Adopt
PUBLIC	?_Getcont@_Iterator_base12@std@@QBEPBU_Container_base12@2@XZ ; std::_Iterator_base12::_Getcont
PUBLIC	?_Adopt_unlocked@_Iterator_base12@std@@AAEXPBU_Container_base12@2@@Z ; std::_Iterator_base12::_Adopt_unlocked
PUBLIC	?_Adopt_locked@_Iterator_base12@std@@AAEXPBU_Container_base12@2@@Z ; std::_Iterator_base12::_Adopt_locked
PUBLIC	?_Orphan_me_unlocked_v3@_Iterator_base12@std@@AAEXXZ ; std::_Iterator_base12::_Orphan_me_unlocked_v3
PUBLIC	?_Orphan_me_locked_v3@_Iterator_base12@std@@AAEXXZ ; std::_Iterator_base12::_Orphan_me_locked_v3
PUBLIC	??$exchange@PAU_Iterator_base12@std@@$$T@std@@YAPAU_Iterator_base12@0@AAPAU10@$$QA$$T@Z ; std::exchange<std::_Iterator_base12 *,std::nullptr_t>
PUBLIC	?_Release@_Basic_container_proxy_ptr12@std@@QAEXXZ ; std::_Basic_container_proxy_ptr12::_Release
PUBLIC	??0_Basic_container_proxy_ptr12@std@@IAE@XZ	; std::_Basic_container_proxy_ptr12::_Basic_container_proxy_ptr12
PUBLIC	?_Xlen_string@std@@YAXXZ			; std::_Xlen_string
PUBLIC	??0?$allocator@D@std@@QAE@XZ			; std::allocator<char>::allocator<char>
PUBLIC	?deallocate@?$allocator@D@std@@QAEXQADI@Z	; std::allocator<char>::deallocate
PUBLIC	?allocate@?$allocator@D@std@@QAEPADI@Z		; std::allocator<char>::allocate
PUBLIC	?max_size@?$_Default_allocator_traits@V?$allocator@D@std@@@std@@SAIABV?$allocator@D@2@@Z ; std::_Default_allocator_traits<std::allocator<char> >::max_size
PUBLIC	?select_on_container_copy_construction@?$_Default_allocator_traits@V?$allocator@D@std@@@std@@SA?AV?$allocator@D@2@ABV32@@Z ; std::_Default_allocator_traits<std::allocator<char> >::select_on_container_copy_construction
PUBLIC	??0?$_String_val@U?$_Simple_types@D@std@@@std@@QAE@XZ ; std::_String_val<std::_Simple_types<char> >::_String_val<std::_Simple_types<char> >
PUBLIC	?_Myptr@?$_String_val@U?$_Simple_types@D@std@@@std@@QAEPADXZ ; std::_String_val<std::_Simple_types<char> >::_Myptr
PUBLIC	?_Myptr@?$_String_val@U?$_Simple_types@D@std@@@std@@QBEPBDXZ ; std::_String_val<std::_Simple_types<char> >::_Myptr
PUBLIC	?_Large_mode_engaged@?$_String_val@U?$_Simple_types@D@std@@@std@@QBE_NXZ ; std::_String_val<std::_Simple_types<char> >::_Large_mode_engaged
PUBLIC	?_Activate_SSO_buffer@?$_String_val@U?$_Simple_types@D@std@@@std@@QAEXXZ ; std::_String_val<std::_Simple_types<char> >::_Activate_SSO_buffer
PUBLIC	??0_Bxty@?$_String_val@U?$_Simple_types@D@std@@@std@@QAE@XZ ; std::_String_val<std::_Simple_types<char> >::_Bxty::_Bxty
PUBLIC	??1_Bxty@?$_String_val@U?$_Simple_types@D@std@@@std@@QAE@XZ ; std::_String_val<std::_Simple_types<char> >::_Bxty::~_Bxty
PUBLIC	?_Switch_to_buf@_Bxty@?$_String_val@U?$_Simple_types@D@std@@@std@@QAEXXZ ; std::_String_val<std::_Simple_types<char> >::_Bxty::_Switch_to_buf
PUBLIC	??1?$_String_val@U?$_Simple_types@D@std@@@std@@QAE@XZ ; std::_String_val<std::_Simple_types<char> >::~_String_val<std::_Simple_types<char> >
PUBLIC	??0?$basic_string@DU?$char_traits@D@std@@V?$allocator@D@2@@std@@QAE@ABV01@@Z ; std::basic_string<char,std::char_traits<char>,std::allocator<char> >::basic_string<char,std::char_traits<char>,std::allocator<char> >
PUBLIC	??0?$basic_string@DU?$char_traits@D@std@@V?$allocator@D@2@@std@@QAE@QBDI@Z ; std::basic_string<char,std::char_traits<char>,std::allocator<char> >::basic_string<char,std::char_traits<char>,std::allocator<char> >
PUBLIC	??0?$basic_string@DU?$char_traits@D@std@@V?$allocator@D@2@@std@@QAE@QBD@Z ; std::basic_string<char,std::char_traits<char>,std::allocator<char> >::basic_string<char,std::char_traits<char>,std::allocator<char> >
PUBLIC	?_Deallocate_for_capacity@?$basic_string@DU?$char_traits@D@std@@V?$allocator@D@2@@std@@CAXAAV?$allocator@D@2@QADI@Z ; std::basic_string<char,std::char_traits<char>,std::allocator<char> >::_Deallocate_for_capacity
PUBLIC	??0?$basic_string@DU?$char_traits@D@std@@V?$allocator@D@2@@std@@QAE@$$QAV01@@Z ; std::basic_string<char,std::char_traits<char>,std::allocator<char> >::basic_string<char,std::char_traits<char>,std::allocator<char> >
PUBLIC	?_Take_contents@?$basic_string@DU?$char_traits@D@std@@V?$allocator@D@2@@std@@AAEXAAV12@@Z ; std::basic_string<char,std::char_traits<char>,std::allocator<char> >::_Take_contents
PUBLIC	??1?$basic_string@DU?$char_traits@D@std@@V?$allocator@D@2@@std@@QAE@XZ ; std::basic_string<char,std::char_traits<char>,std::allocator<char> >::~basic_string<char,std::char_traits<char>,std::allocator<char> >
PUBLIC	?append@?$basic_string@DU?$char_traits@D@std@@V?$allocator@D@2@@std@@QAEAAV12@ABV12@@Z ; std::basic_string<char,std::char_traits<char>,std::allocator<char> >::append
PUBLIC	?append@?$basic_string@DU?$char_traits@D@std@@V?$allocator@D@2@@std@@QAEAAV12@QBDI@Z ; std::basic_string<char,std::char_traits<char>,std::allocator<char> >::append
PUBLIC	?append@?$basic_string@DU?$char_traits@D@std@@V?$allocator@D@2@@std@@QAEAAV12@QBD@Z ; std::basic_string<char,std::char_traits<char>,std::allocator<char> >::append
PUBLIC	?c_str@?$basic_string@DU?$char_traits@D@std@@V?$allocator@D@2@@std@@QBEPBDXZ ; std::basic_string<char,std::char_traits<char>,std::allocator<char> >::c_str
PUBLIC	?data@?$basic_string@DU?$char_traits@D@std@@V?$allocator@D@2@@std@@QBEPBDXZ ; std::basic_string<char,std::char_traits<char>,std::allocator<char> >::data
PUBLIC	?size@?$basic_string@DU?$char_traits@D@std@@V?$allocator@D@2@@std@@QBEIXZ ; std::basic_string<char,std::char_traits<char>,std::allocator<char> >::size
PUBLIC	?max_size@?$basic_string@DU?$char_traits@D@std@@V?$allocator@D@2@@std@@QBEIXZ ; std::basic_string<char,std::char_traits<char>,std::allocator<char> >::max_size
PUBLIC	?empty@?$basic_string@DU?$char_traits@D@std@@V?$allocator@D@2@@std@@QBE_NXZ ; std::basic_string<char,std::char_traits<char>,std::allocator<char> >::empty
PUBLIC	?compare@?$basic_string@DU?$char_traits@D@std@@V?$allocator@D@2@@std@@QBEHABV12@@Z ; std::basic_string<char,std::char_traits<char>,std::allocator<char> >::compare
PUBLIC	?_Calculate_growth@?$basic_string@DU?$char_traits@D@std@@V?$allocator@D@2@@std@@CAIIII@Z ; std::basic_string<char,std::char_traits<char>,std::allocator<char> >::_Calculate_growth
PUBLIC	?_Calculate_growth@?$basic_string@DU?$char_traits@D@std@@V?$allocator@D@2@@std@@ABEII@Z ; std::basic_string<char,std::char_traits<char>,std::allocator<char> >::_Calculate_growth
PUBLIC	?_Tidy_deallocate@?$basic_string@DU?$char_traits@D@std@@V?$allocator@D@2@@std@@AAEXXZ ; std::basic_string<char,std::char_traits<char>,std::allocator<char> >::_Tidy_deallocate
PUBLIC	?_Swap_proxy_and_iterators@?$basic_string@DU?$char_traits@D@std@@V?$allocator@D@2@@std@@AAEXAAV12@@Z ; std::basic_string<char,std::char_traits<char>,std::allocator<char> >::_Swap_proxy_and_iterators
PUBLIC	?_Getal@?$basic_string@DU?$char_traits@D@std@@V?$allocator@D@2@@std@@AAEAAV?$allocator@D@2@XZ ; std::basic_string<char,std::char_traits<char>,std::allocator<char> >::_Getal
PUBLIC	?_Getal@?$basic_string@DU?$char_traits@D@std@@V?$allocator@D@2@@std@@ABEABV?$allocator@D@2@XZ ; std::basic_string<char,std::char_traits<char>,std::allocator<char> >::_Getal
PUBLIC	?_Get_first@?$_Compressed_pair@V?$allocator@D@std@@V?$_String_val@U?$_Simple_types@D@std@@@2@$00@std@@QAEAAV?$allocator@D@2@XZ ; std::_Compressed_pair<std::allocator<char>,std::_String_val<std::_Simple_types<char> >,1>::_Get_first
PUBLIC	?_Get_first@?$_Compressed_pair@V?$allocator@D@std@@V?$_String_val@U?$_Simple_types@D@std@@@2@$00@std@@QBEABV?$allocator@D@2@XZ ; std::_Compressed_pair<std::allocator<char>,std::_String_val<std::_Simple_types<char> >,1>::_Get_first
PUBLIC	??1?$_Compressed_pair@V?$allocator@D@std@@V?$_String_val@U?$_Simple_types@D@std@@@2@$00@std@@QAE@XZ ; std::_Compressed_pair<std::allocator<char>,std::_String_val<std::_Simple_types<char> >,1>::~_Compressed_pair<std::allocator<char>,std::_String_val<std::_Simple_types<char> >,1>
PUBLIC	??0runtime_error@std@@QAE@ABV?$basic_string@DU?$char_traits@D@std@@V?$allocator@D@2@@1@@Z ; std::runtime_error::runtime_error
PUBLIC	??1runtime_error@std@@UAE@XZ			; std::runtime_error::~runtime_error
PUBLIC	??0runtime_error@std@@QAE@ABV01@@Z		; std::runtime_error::runtime_error
PUBLIC	??_Gruntime_error@std@@UAEPAXI@Z		; std::runtime_error::`scalar deleting destructor'
PUBLIC	?iostream_category@std@@YAABVerror_category@1@XZ ; std::iostream_category
PUBLIC	??1error_category@std@@UAE@XZ			; std::error_category::~error_category
PUBLIC	?default_error_condition@error_category@std@@UBE?AVerror_condition@2@H@Z ; std::error_category::default_error_condition
PUBLIC	?equivalent@error_category@std@@UBE_NHABVerror_condition@2@@Z ; std::error_category::equivalent
PUBLIC	?equivalent@error_category@std@@UBE_NABVerror_code@2@H@Z ; std::error_category::equivalent
PUBLIC	??8error_category@std@@QBE_NABV01@@Z		; std::error_category::operator==
PUBLIC	??$_Bit_cast@IT_Addr_storage@error_category@std@@$0A@@std@@YAIABT_Addr_storage@error_category@0@@Z ; std::_Bit_cast<unsigned int,std::error_category::_Addr_storage,0>
PUBLIC	??0error_code@std@@QAE@HABVerror_category@1@@Z	; std::error_code::error_code
PUBLIC	?value@error_code@std@@QBEHXZ			; std::error_code::value
PUBLIC	?category@error_code@std@@QBEABVerror_category@2@XZ ; std::error_code::category
PUBLIC	?message@error_code@std@@QBE?AV?$basic_string@DU?$char_traits@D@std@@V?$allocator@D@2@@2@XZ ; std::error_code::message
PUBLIC	??0error_condition@std@@QAE@HABVerror_category@1@@Z ; std::error_condition::error_condition
PUBLIC	?value@error_condition@std@@QBEHXZ		; std::error_condition::value
PUBLIC	?category@error_condition@std@@QBEABVerror_category@2@XZ ; std::error_condition::category
PUBLIC	??8std@@YA_NABVerror_condition@0@0@Z		; std::operator==
PUBLIC	?make_error_code@std@@YA?AVerror_code@1@W4io_errc@1@@Z ; std::make_error_code
PUBLIC	?_Makestr@_System_error@std@@CA?AV?$basic_string@DU?$char_traits@D@std@@V?$allocator@D@2@@2@Verror_code@2@V32@@Z ; std::_System_error::_Makestr
PUBLIC	??0_System_error@std@@IAE@Verror_code@1@ABV?$basic_string@DU?$char_traits@D@std@@V?$allocator@D@2@@1@@Z ; std::_System_error::_System_error
PUBLIC	??1_System_error@std@@UAE@XZ			; std::_System_error::~_System_error
PUBLIC	??0_System_error@std@@QAE@ABV01@@Z		; std::_System_error::_System_error
PUBLIC	??_G_System_error@std@@UAEPAXI@Z		; std::_System_error::`scalar deleting destructor'
PUBLIC	??0system_error@std@@QAE@Verror_code@1@PBD@Z	; std::system_error::system_error
PUBLIC	??1system_error@std@@UAE@XZ			; std::system_error::~system_error
PUBLIC	??0system_error@std@@QAE@ABV01@@Z		; std::system_error::system_error
PUBLIC	??_Gsystem_error@std@@UAEPAXI@Z			; std::system_error::`scalar deleting destructor'
PUBLIC	?name@_Iostream_error_category2@std@@UBEPBDXZ	; std::_Iostream_error_category2::name
PUBLIC	?message@_Iostream_error_category2@std@@UBE?AV?$basic_string@DU?$char_traits@D@std@@V?$allocator@D@2@@2@H@Z ; std::_Iostream_error_category2::message
PUBLIC	??1_Iostream_error_category2@std@@UAE@XZ	; std::_Iostream_error_category2::~_Iostream_error_category2
PUBLIC	??_G_Iostream_error_category2@std@@UAEPAXI@Z	; std::_Iostream_error_category2::`scalar deleting destructor'
PUBLIC	??$_Immortalize_memcpy_image@V_Iostream_error_category2@std@@@std@@YAABV_Iostream_error_category2@0@XZ ; std::_Immortalize_memcpy_image<std::_Iostream_error_category2>
PUBLIC	??0bad_cast@std@@QAE@XZ				; std::bad_cast::bad_cast
PUBLIC	??1bad_cast@std@@UAE@XZ				; std::bad_cast::~bad_cast
PUBLIC	??0bad_cast@std@@QAE@ABV01@@Z			; std::bad_cast::bad_cast
PUBLIC	??_Gbad_cast@std@@UAEPAXI@Z			; std::bad_cast::`scalar deleting destructor'
PUBLIC	?_Throw_bad_cast@std@@YAXXZ			; std::_Throw_bad_cast
PUBLIC	??1_Facet_base@std@@UAE@XZ			; std::_Facet_base::~_Facet_base
PUBLIC	??0_Facet_base@std@@QAE@XZ			; std::_Facet_base::_Facet_base
PUBLIC	??_G_Facet_base@std@@UAEPAXI@Z			; std::_Facet_base::`scalar deleting destructor'
PUBLIC	??0_Locinfo@std@@QAE@PBD@Z			; std::_Locinfo::_Locinfo
PUBLIC	??1_Locinfo@std@@QAE@XZ				; std::_Locinfo::~_Locinfo
PUBLIC	?_Getctype@_Locinfo@std@@QBE?AU_Ctypevec@@XZ	; std::_Locinfo::_Getctype
PUBLIC	??0?$_Yarn@D@std@@QAE@XZ			; std::_Yarn<char>::_Yarn<char>
PUBLIC	??1?$_Yarn@D@std@@QAE@XZ			; std::_Yarn<char>::~_Yarn<char>
PUBLIC	?c_str@?$_Yarn@D@std@@QBEPBDXZ			; std::_Yarn<char>::c_str
PUBLIC	?_Tidy@?$_Yarn@D@std@@AAEXXZ			; std::_Yarn<char>::_Tidy
PUBLIC	??0?$_Yarn@_W@std@@QAE@XZ			; std::_Yarn<wchar_t>::_Yarn<wchar_t>
PUBLIC	??1?$_Yarn@_W@std@@QAE@XZ			; std::_Yarn<wchar_t>::~_Yarn<wchar_t>
PUBLIC	?_Tidy@?$_Yarn@_W@std@@AAEXXZ			; std::_Yarn<wchar_t>::_Tidy
PUBLIC	??2_Crt_new_delete@std@@SAPAXI@Z		; std::_Crt_new_delete::operator new
PUBLIC	??2_Crt_new_delete@std@@SAPAXIABUnothrow_t@1@@Z	; std::_Crt_new_delete::operator new
PUBLIC	??3_Crt_new_delete@std@@SAXPAX@Z		; std::_Crt_new_delete::operator delete
PUBLIC	?_Incref@facet@locale@std@@UAEXXZ		; std::locale::facet::_Incref
PUBLIC	?_Decref@facet@locale@std@@UAEPAV_Facet_base@3@XZ ; std::locale::facet::_Decref
PUBLIC	??0facet@locale@std@@IAE@I@Z			; std::locale::facet::facet
PUBLIC	??1facet@locale@std@@MAE@XZ			; std::locale::facet::~facet
PUBLIC	??_Gfacet@locale@std@@MAEPAXI@Z			; std::locale::facet::`scalar deleting destructor'
PUBLIC	??0locale@std@@QAE@ABV01@@Z			; std::locale::locale
PUBLIC	??1locale@std@@QAE@XZ				; std::locale::~locale
PUBLIC	?_C_str@locale@std@@QBEPBDXZ			; std::locale::_C_str
PUBLIC	?_Getfacet@locale@std@@QBEPBVfacet@12@I@Z	; std::locale::_Getfacet
PUBLIC	??$_Adl_verify_range@PBDPBD@std@@YAXABQBD0@Z	; std::_Adl_verify_range<char const *,char const *>
PUBLIC	??0ctype_base@std@@QAE@I@Z			; std::ctype_base::ctype_base
PUBLIC	??1ctype_base@std@@UAE@XZ			; std::ctype_base::~ctype_base
PUBLIC	??_Gctype_base@std@@UAEPAXI@Z			; std::ctype_base::`scalar deleting destructor'
PUBLIC	?widen@?$ctype@D@std@@QBEDD@Z			; std::ctype<char>::widen
PUBLIC	??0?$ctype@D@std@@QAE@ABV_Locinfo@1@I@Z		; std::ctype<char>::ctype<char>
PUBLIC	?_Getcat@?$ctype@D@std@@SAIPAPBVfacet@locale@2@PBV42@@Z ; std::ctype<char>::_Getcat
PUBLIC	??1?$ctype@D@std@@MAE@XZ			; std::ctype<char>::~ctype<char>
PUBLIC	?_Init@?$ctype@D@std@@IAEXABV_Locinfo@2@@Z	; std::ctype<char>::_Init
PUBLIC	?_Tidy@?$ctype@D@std@@IAEXXZ			; std::ctype<char>::_Tidy
PUBLIC	?do_tolower@?$ctype@D@std@@MBEDD@Z		; std::ctype<char>::do_tolower
PUBLIC	?do_tolower@?$ctype@D@std@@MBEPBDPADPBD@Z	; std::ctype<char>::do_tolower
PUBLIC	?do_toupper@?$ctype@D@std@@MBEDD@Z		; std::ctype<char>::do_toupper
PUBLIC	?do_toupper@?$ctype@D@std@@MBEPBDPADPBD@Z	; std::ctype<char>::do_toupper
PUBLIC	?do_widen@?$ctype@D@std@@MBEDD@Z		; std::ctype<char>::do_widen
PUBLIC	?do_widen@?$ctype@D@std@@MBEPBDPBD0PAD@Z	; std::ctype<char>::do_widen
PUBLIC	?do_narrow@?$ctype@D@std@@MBEDDD@Z		; std::ctype<char>::do_narrow
PUBLIC	?do_narrow@?$ctype@D@std@@MBEPBDPBD0DPAD@Z	; std::ctype<char>::do_narrow
PUBLIC	??_G?$ctype@D@std@@MAEPAXI@Z			; std::ctype<char>::`scalar deleting destructor'
PUBLIC	??$use_facet@V?$ctype@D@std@@@std@@YAABV?$ctype@D@0@ABVlocale@0@@Z ; std::use_facet<std::ctype<char> >
PUBLIC	??$_Adl_verify_range@PADPBD@std@@YAXABQADABQBD@Z ; std::_Adl_verify_range<char *,char const *>
PUBLIC	??0failure@ios_base@std@@QAE@PBDABVerror_code@2@@Z ; std::ios_base::failure::failure
PUBLIC	??1failure@ios_base@std@@UAE@XZ			; std::ios_base::failure::~failure
PUBLIC	??0failure@ios_base@std@@QAE@ABV012@@Z		; std::ios_base::failure::failure
PUBLIC	??_Gfailure@ios_base@std@@UAEPAXI@Z		; std::ios_base::failure::`scalar deleting destructor'
PUBLIC	?clear@ios_base@std@@QAEXH_N@Z			; std::ios_base::clear
PUBLIC	?rdstate@ios_base@std@@QBEHXZ			; std::ios_base::rdstate
PUBLIC	?good@ios_base@std@@QBE_NXZ			; std::ios_base::good
PUBLIC	?flags@ios_base@std@@QBEHXZ			; std::ios_base::flags
PUBLIC	?width@ios_base@std@@QBE_JXZ			; std::ios_base::width
PUBLIC	?width@ios_base@std@@QAE_J_J@Z			; std::ios_base::width
PUBLIC	?getloc@ios_base@std@@QBE?AVlocale@2@XZ		; std::ios_base::getloc
PUBLIC	??0?$tuple@$$V@std@@QAE@ABV01@@Z		; std::tuple<>::tuple<>
PUBLIC	?_Throw_tree_length_error@std@@YAXXZ		; std::_Throw_tree_length_error
PUBLIC	??0?$allocator@U?$_Tree_node@U?$pair@$$CBV?$basic_string@DU?$char_traits@D@std@@V?$allocator@D@2@@std@@PAVFuzzySet@@@std@@PAX@std@@@std@@QAE@XZ ; std::allocator<std::_Tree_node<std::pair<std::basic_string<char,std::char_traits<char>,std::allocator<char> > const ,FuzzySet *>,void *> >::allocator<std::_Tree_node<std::pair<std::basic_string<char,std::char_traits<char>,std::allocator<char> > const ,FuzzySet *>,void *> >
PUBLIC	?allocate@?$allocator@U?$_Tree_node@U?$pair@$$CBV?$basic_string@DU?$char_traits@D@std@@V?$allocator@D@2@@std@@PAVFuzzySet@@@std@@PAX@std@@@std@@QAEPAU?$_Tree_node@U?$pair@$$CBV?$basic_string@DU?$char_traits@D@std@@V?$allocator@D@2@@std@@PAVFuzzySet@@@std@@PAX@2@I@Z ; std::allocator<std::_Tree_node<std::pair<std::basic_string<char,std::char_traits<char>,std::allocator<char> > const ,FuzzySet *>,void *> >::allocate
PUBLIC	??0?$_Tree@V?$_Tmap_traits@V?$basic_string@DU?$char_traits@D@std@@V?$allocator@D@2@@std@@PAVFuzzySet@@U?$less@V?$basic_string@DU?$char_traits@D@std@@V?$allocator@D@2@@std@@@2@V?$allocator@U?$pair@$$CBV?$basic_string@DU?$char_traits@D@std@@V?$allocator@D@2@@std@@PAVFuzzySet@@@std@@@2@$0A@@std@@@std@@QAE@ABU?$less@V?$basic_string@DU?$char_traits@D@std@@V?$allocator@D@2@@std@@@1@@Z ; std::_Tree<std::_Tmap_traits<std::basic_string<char,std::char_traits<char>,std::allocator<char> >,FuzzySet *,std::less<std::basic_string<char,std::char_traits<char>,std::allocator<char> > >,std::allocator<std::pair<std::basic_string<char,std::char_traits<char>,std::allocator<char> > const ,FuzzySet *> >,0> >::_Tree<std::_Tmap_traits<std::basic_string<char,std::char_traits<char>,std::allocator<char> >,FuzzySet *,std::less<std::basic_string<char,std::char_traits<char>,std::allocator<char> > >,std::allocator<std::pair<std::basic_string<char,std::char_traits<char>,std::allocator<char> > const ,FuzzySet *> >,0> >
PUBLIC	?_Alloc_sentinel_and_proxy@?$_Tree@V?$_Tmap_traits@V?$basic_string@DU?$char_traits@D@std@@V?$allocator@D@2@@std@@PAVFuzzySet@@U?$less@V?$basic_string@DU?$char_traits@D@std@@V?$allocator@D@2@@std@@@2@V?$allocator@U?$pair@$$CBV?$basic_string@DU?$char_traits@D@std@@V?$allocator@D@2@@std@@PAVFuzzySet@@@std@@@2@$0A@@std@@@std@@IAEXXZ ; std::_Tree<std::_Tmap_traits<std::basic_string<char,std::char_traits<char>,std::allocator<char> >,FuzzySet *,std::less<std::basic_string<char,std::char_traits<char>,std::allocator<char> > >,std::allocator<std::pair<std::basic_string<char,std::char_traits<char>,std::allocator<char> > const ,FuzzySet *> >,0> >::_Alloc_sentinel_and_proxy
PUBLIC	?_Getal@?$_Tree@V?$_Tmap_traits@V?$basic_string@DU?$char_traits@D@std@@V?$allocator@D@2@@std@@PAVFuzzySet@@U?$less@V?$basic_string@DU?$char_traits@D@std@@V?$allocator@D@2@@std@@@2@V?$allocator@U?$pair@$$CBV?$basic_string@DU?$char_traits@D@std@@V?$allocator@D@2@@std@@PAVFuzzySet@@@std@@@2@$0A@@std@@@std@@IAEAAV?$allocator@U?$_Tree_node@U?$pair@$$CBV?$basic_string@DU?$char_traits@D@std@@V?$allocator@D@2@@std@@PAVFuzzySet@@@std@@PAX@std@@@2@XZ ; std::_Tree<std::_Tmap_traits<std::basic_string<char,std::char_traits<char>,std::allocator<char> >,FuzzySet *,std::less<std::basic_string<char,std::char_traits<char>,std::allocator<char> > >,std::allocator<std::pair<std::basic_string<char,std::char_traits<char>,std::allocator<char> > const ,FuzzySet *> >,0> >::_Getal
PUBLIC	?_Get_scary@?$_Tree@V?$_Tmap_traits@V?$basic_string@DU?$char_traits@D@std@@V?$allocator@D@2@@std@@PAVFuzzySet@@U?$less@V?$basic_string@DU?$char_traits@D@std@@V?$allocator@D@2@@std@@@2@V?$allocator@U?$pair@$$CBV?$basic_string@DU?$char_traits@D@std@@V?$allocator@D@2@@std@@PAVFuzzySet@@@std@@@2@$0A@@std@@@std@@IAEPAV?$_Tree_val@U?$_Tree_simple_types@U?$pair@$$CBV?$basic_string@DU?$char_traits@D@std@@V?$allocator@D@2@@std@@PAVFuzzySet@@@std@@@std@@@2@XZ ; std::_Tree<std::_Tmap_traits<std::basic_string<char,std::char_traits<char>,std::allocator<char> >,FuzzySet *,std::less<std::basic_string<char,std::char_traits<char>,std::allocator<char> > >,std::allocator<std::pair<std::basic_string<char,std::char_traits<char>,std::allocator<char> > const ,FuzzySet *> >,0> >::_Get_scary
PUBLIC	??R?$less@V?$basic_string@DU?$char_traits@D@std@@V?$allocator@D@2@@std@@@std@@QBE_NABV?$basic_string@DU?$char_traits@D@std@@V?$allocator@D@2@@1@0@Z ; std::less<std::basic_string<char,std::char_traits<char>,std::allocator<char> > >::operator()
PUBLIC	??0?$_Tree_val@U?$_Tree_simple_types@U?$pair@$$CBV?$basic_string@DU?$char_traits@D@std@@V?$allocator@D@2@@std@@PAVFuzzySet@@@std@@@std@@@std@@QAE@XZ ; std::_Tree_val<std::_Tree_simple_types<std::pair<std::basic_string<char,std::char_traits<char>,std::allocator<char> > const ,FuzzySet *> > >::_Tree_val<std::_Tree_simple_types<std::pair<std::basic_string<char,std::char_traits<char>,std::allocator<char> > const ,FuzzySet *> > >
PUBLIC	?_Get_first@?$_Compressed_pair@V?$allocator@U?$_Tree_node@U?$pair@$$CBV?$basic_string@DU?$char_traits@D@std@@V?$allocator@D@2@@std@@PAVFuzzySet@@@std@@PAX@std@@@std@@V?$_Tree_val@U?$_Tree_simple_types@U?$pair@$$CBV?$basic_string@DU?$char_traits@D@std@@V?$allocator@D@2@@std@@PAVFuzzySet@@@std@@@std@@@2@$00@std@@QAEAAV?$allocator@U?$_Tree_node@U?$pair@$$CBV?$basic_string@DU?$char_traits@D@std@@V?$allocator@D@2@@std@@PAVFuzzySet@@@std@@PAX@std@@@2@XZ ; std::_Compressed_pair<std::allocator<std::_Tree_node<std::pair<std::basic_string<char,std::char_traits<char>,std::allocator<char> > const ,FuzzySet *>,void *> >,std::_Tree_val<std::_Tree_simple_types<std::pair<std::basic_string<char,std::char_traits<char>,std::allocator<char> > const ,FuzzySet *> > >,1>::_Get_first
PUBLIC	??0?$map@V?$basic_string@DU?$char_traits@D@std@@V?$allocator@D@2@@std@@PAVFuzzySet@@U?$less@V?$basic_string@DU?$char_traits@D@std@@V?$allocator@D@2@@std@@@2@V?$allocator@U?$pair@$$CBV?$basic_string@DU?$char_traits@D@std@@V?$allocator@D@2@@std@@PAVFuzzySet@@@std@@@2@@std@@QAE@XZ ; std::map<std::basic_string<char,std::char_traits<char>,std::allocator<char> >,FuzzySet *,std::less<std::basic_string<char,std::char_traits<char>,std::allocator<char> > >,std::allocator<std::pair<std::basic_string<char,std::char_traits<char>,std::allocator<char> > const ,FuzzySet *> > >::map<std::basic_string<char,std::char_traits<char>,std::allocator<char> >,FuzzySet *,std::less<std::basic_string<char,std::char_traits<char>,std::allocator<char> > >,std::allocator<std::pair<std::basic_string<char,std::char_traits<char>,std::allocator<char> > const ,FuzzySet *> > >
PUBLIC	??0FuzzyVariable@@QAE@XZ			; FuzzyVariable::FuzzyVariable
PUBLIC	??_GFuzzyVariable@@AAEPAXI@Z			; FuzzyVariable::`scalar deleting destructor'
PUBLIC	??0FuzzyRule@@QAE@ABVFuzzyTerm@@0@Z		; FuzzyRule::FuzzyRule
PUBLIC	??1FuzzyRule@@QAE@XZ				; FuzzyRule::~FuzzyRule
PUBLIC	??_GFuzzyRule@@QAEPAXI@Z			; FuzzyRule::`scalar deleting destructor'
PUBLIC	?deallocate@?$allocator@U?$_Tree_node@U?$pair@$$CBV?$basic_string@DU?$char_traits@D@std@@V?$allocator@D@2@@std@@PAVFuzzyVariable@@@std@@PAX@std@@@std@@QAEXQAU?$_Tree_node@U?$pair@$$CBV?$basic_string@DU?$char_traits@D@std@@V?$allocator@D@2@@std@@PAVFuzzyVariable@@@std@@PAX@2@I@Z ; std::allocator<std::_Tree_node<std::pair<std::basic_string<char,std::char_traits<char>,std::allocator<char> > const ,FuzzyVariable *>,void *> >::deallocate
PUBLIC	?allocate@?$allocator@U?$_Tree_node@U?$pair@$$CBV?$basic_string@DU?$char_traits@D@std@@V?$allocator@D@2@@std@@PAVFuzzyVariable@@@std@@PAX@std@@@std@@QAEPAU?$_Tree_node@U?$pair@$$CBV?$basic_string@DU?$char_traits@D@std@@V?$allocator@D@2@@std@@PAVFuzzyVariable@@@std@@PAX@2@I@Z ; std::allocator<std::_Tree_node<std::pair<std::basic_string<char,std::char_traits<char>,std::allocator<char> > const ,FuzzyVariable *>,void *> >::allocate
PUBLIC	?deallocate@?$_Default_allocator_traits@V?$allocator@U?$_Tree_node@U?$pair@$$CBV?$basic_string@DU?$char_traits@D@std@@V?$allocator@D@2@@std@@PAVFuzzyVariable@@@std@@PAX@std@@@std@@@std@@SAXAAV?$allocator@U?$_Tree_node@U?$pair@$$CBV?$basic_string@DU?$char_traits@D@std@@V?$allocator@D@2@@std@@PAVFuzzyVariable@@@std@@PAX@std@@@2@QAU?$_Tree_node@U?$pair@$$CBV?$basic_string@DU?$char_traits@D@std@@V?$allocator@D@2@@std@@PAVFuzzyVariable@@@std@@PAX@2@I@Z ; std::_Default_allocator_traits<std::allocator<std::_Tree_node<std::pair<std::basic_string<char,std::char_traits<char>,std::allocator<char> > const ,FuzzyVariable *>,void *> > >::deallocate
PUBLIC	?max_size@?$_Default_allocator_traits@V?$allocator@U?$_Tree_node@U?$pair@$$CBV?$basic_string@DU?$char_traits@D@std@@V?$allocator@D@2@@std@@PAVFuzzyVariable@@@std@@PAX@std@@@std@@@std@@SAIABV?$allocator@U?$_Tree_node@U?$pair@$$CBV?$basic_string@DU?$char_traits@D@std@@V?$allocator@D@2@@std@@PAVFuzzyVariable@@@std@@PAX@std@@@2@@Z ; std::_Default_allocator_traits<std::allocator<std::_Tree_node<std::pair<std::basic_string<char,std::char_traits<char>,std::allocator<char> > const ,FuzzyVariable *>,void *> > >::max_size
PUBLIC	??1?$_Tree@V?$_Tmap_traits@V?$basic_string@DU?$char_traits@D@std@@V?$allocator@D@2@@std@@PAVFuzzyVariable@@U?$less@V?$basic_string@DU?$char_traits@D@std@@V?$allocator@D@2@@std@@@2@V?$allocator@U?$pair@$$CBV?$basic_string@DU?$char_traits@D@std@@V?$allocator@D@2@@std@@PAVFuzzyVariable@@@std@@@2@$0A@@std@@@std@@QAE@XZ ; std::_Tree<std::_Tmap_traits<std::basic_string<char,std::char_traits<char>,std::allocator<char> >,FuzzyVariable *,std::less<std::basic_string<char,std::char_traits<char>,std::allocator<char> > >,std::allocator<std::pair<std::basic_string<char,std::char_traits<char>,std::allocator<char> > const ,FuzzyVariable *> >,0> >::~_Tree<std::_Tmap_traits<std::basic_string<char,std::char_traits<char>,std::allocator<char> >,FuzzyVariable *,std::less<std::basic_string<char,std::char_traits<char>,std::allocator<char> > >,std::allocator<std::pair<std::basic_string<char,std::char_traits<char>,std::allocator<char> > const ,FuzzyVariable *> >,0> >
PUBLIC	?begin@?$_Tree@V?$_Tmap_traits@V?$basic_string@DU?$char_traits@D@std@@V?$allocator@D@2@@std@@PAVFuzzyVariable@@U?$less@V?$basic_string@DU?$char_traits@D@std@@V?$allocator@D@2@@std@@@2@V?$allocator@U?$pair@$$CBV?$basic_string@DU?$char_traits@D@std@@V?$allocator@D@2@@std@@PAVFuzzyVariable@@@std@@@2@$0A@@std@@@std@@QAE?AV?$_Tree_iterator@V?$_Tree_val@U?$_Tree_simple_types@U?$pair@$$CBV?$basic_string@DU?$char_traits@D@std@@V?$allocator@D@2@@std@@PAVFuzzyVariable@@@std@@@std@@@std@@@2@XZ ; std::_Tree<std::_Tmap_traits<std::basic_string<char,std::char_traits<char>,std::allocator<char> >,FuzzyVariable *,std::less<std::basic_string<char,std::char_traits<char>,std::allocator<char> > >,std::allocator<std::pair<std::basic_string<char,std::char_traits<char>,std::allocator<char> > const ,FuzzyVariable *> >,0> >::begin
PUBLIC	?end@?$_Tree@V?$_Tmap_traits@V?$basic_string@DU?$char_traits@D@std@@V?$allocator@D@2@@std@@PAVFuzzyVariable@@U?$less@V?$basic_string@DU?$char_traits@D@std@@V?$allocator@D@2@@std@@@2@V?$allocator@U?$pair@$$CBV?$basic_string@DU?$char_traits@D@std@@V?$allocator@D@2@@std@@PAVFuzzyVariable@@@std@@@2@$0A@@std@@@std@@QAE?AV?$_Tree_iterator@V?$_Tree_val@U?$_Tree_simple_types@U?$pair@$$CBV?$basic_string@DU?$char_traits@D@std@@V?$allocator@D@2@@std@@PAVFuzzyVariable@@@std@@@std@@@std@@@2@XZ ; std::_Tree<std::_Tmap_traits<std::basic_string<char,std::char_traits<char>,std::allocator<char> >,FuzzyVariable *,std::less<std::basic_string<char,std::char_traits<char>,std::allocator<char> > >,std::allocator<std::pair<std::basic_string<char,std::char_traits<char>,std::allocator<char> > const ,FuzzyVariable *> >,0> >::end
PUBLIC	?max_size@?$_Tree@V?$_Tmap_traits@V?$basic_string@DU?$char_traits@D@std@@V?$allocator@D@2@@std@@PAVFuzzyVariable@@U?$less@V?$basic_string@DU?$char_traits@D@std@@V?$allocator@D@2@@std@@@2@V?$allocator@U?$pair@$$CBV?$basic_string@DU?$char_traits@D@std@@V?$allocator@D@2@@std@@PAVFuzzyVariable@@@std@@@2@$0A@@std@@@std@@QBEIXZ ; std::_Tree<std::_Tmap_traits<std::basic_string<char,std::char_traits<char>,std::allocator<char> >,FuzzyVariable *,std::less<std::basic_string<char,std::char_traits<char>,std::allocator<char> > >,std::allocator<std::pair<std::basic_string<char,std::char_traits<char>,std::allocator<char> > const ,FuzzyVariable *> >,0> >::max_size
PUBLIC	?_Check_grow_by_1@?$_Tree@V?$_Tmap_traits@V?$basic_string@DU?$char_traits@D@std@@V?$allocator@D@2@@std@@PAVFuzzyVariable@@U?$less@V?$basic_string@DU?$char_traits@D@std@@V?$allocator@D@2@@std@@@2@V?$allocator@U?$pair@$$CBV?$basic_string@DU?$char_traits@D@std@@V?$allocator@D@2@@std@@PAVFuzzyVariable@@@std@@@2@$0A@@std@@@std@@IAEXXZ ; std::_Tree<std::_Tmap_traits<std::basic_string<char,std::char_traits<char>,std::allocator<char> >,FuzzyVariable *,std::less<std::basic_string<char,std::char_traits<char>,std::allocator<char> > >,std::allocator<std::pair<std::basic_string<char,std::char_traits<char>,std::allocator<char> > const ,FuzzyVariable *> >,0> >::_Check_grow_by_1
PUBLIC	?_Getcomp@?$_Tree@V?$_Tmap_traits@V?$basic_string@DU?$char_traits@D@std@@V?$allocator@D@2@@std@@PAVFuzzyVariable@@U?$less@V?$basic_string@DU?$char_traits@D@std@@V?$allocator@D@2@@std@@@2@V?$allocator@U?$pair@$$CBV?$basic_string@DU?$char_traits@D@std@@V?$allocator@D@2@@std@@PAVFuzzyVariable@@@std@@@2@$0A@@std@@@std@@IBEABU?$less@V?$basic_string@DU?$char_traits@D@std@@V?$allocator@D@2@@std@@@2@XZ ; std::_Tree<std::_Tmap_traits<std::basic_string<char,std::char_traits<char>,std::allocator<char> >,FuzzyVariable *,std::less<std::basic_string<char,std::char_traits<char>,std::allocator<char> > >,std::allocator<std::pair<std::basic_string<char,std::char_traits<char>,std::allocator<char> > const ,FuzzyVariable *> >,0> >::_Getcomp
PUBLIC	?_Getal@?$_Tree@V?$_Tmap_traits@V?$basic_string@DU?$char_traits@D@std@@V?$allocator@D@2@@std@@PAVFuzzyVariable@@U?$less@V?$basic_string@DU?$char_traits@D@std@@V?$allocator@D@2@@std@@@2@V?$allocator@U?$pair@$$CBV?$basic_string@DU?$char_traits@D@std@@V?$allocator@D@2@@std@@PAVFuzzyVariable@@@std@@@2@$0A@@std@@@std@@IAEAAV?$allocator@U?$_Tree_node@U?$pair@$$CBV?$basic_string@DU?$char_traits@D@std@@V?$allocator@D@2@@std@@PAVFuzzyVariable@@@std@@PAX@std@@@2@XZ ; std::_Tree<std::_Tmap_traits<std::basic_string<char,std::char_traits<char>,std::allocator<char> >,FuzzyVariable *,std::less<std::basic_string<char,std::char_traits<char>,std::allocator<char> > >,std::allocator<std::pair<std::basic_string<char,std::char_traits<char>,std::allocator<char> > const ,FuzzyVariable *> >,0> >::_Getal
PUBLIC	?_Getal@?$_Tree@V?$_Tmap_traits@V?$basic_string@DU?$char_traits@D@std@@V?$allocator@D@2@@std@@PAVFuzzyVariable@@U?$less@V?$basic_string@DU?$char_traits@D@std@@V?$allocator@D@2@@std@@@2@V?$allocator@U?$pair@$$CBV?$basic_string@DU?$char_traits@D@std@@V?$allocator@D@2@@std@@PAVFuzzyVariable@@@std@@@2@$0A@@std@@@std@@IBEABV?$allocator@U?$_Tree_node@U?$pair@$$CBV?$basic_string@DU?$char_traits@D@std@@V?$allocator@D@2@@std@@PAVFuzzyVariable@@@std@@PAX@std@@@2@XZ ; std::_Tree<std::_Tmap_traits<std::basic_string<char,std::char_traits<char>,std::allocator<char> >,FuzzyVariable *,std::less<std::basic_string<char,std::char_traits<char>,std::allocator<char> > >,std::allocator<std::pair<std::basic_string<char,std::char_traits<char>,std::allocator<char> > const ,FuzzyVariable *> >,0> >::_Getal
PUBLIC	?_Get_scary@?$_Tree@V?$_Tmap_traits@V?$basic_string@DU?$char_traits@D@std@@V?$allocator@D@2@@std@@PAVFuzzyVariable@@U?$less@V?$basic_string@DU?$char_traits@D@std@@V?$allocator@D@2@@std@@@2@V?$allocator@U?$pair@$$CBV?$basic_string@DU?$char_traits@D@std@@V?$allocator@D@2@@std@@PAVFuzzyVariable@@@std@@@2@$0A@@std@@@std@@IAEPAV?$_Tree_val@U?$_Tree_simple_types@U?$pair@$$CBV?$basic_string@DU?$char_traits@D@std@@V?$allocator@D@2@@std@@PAVFuzzyVariable@@@std@@@std@@@2@XZ ; std::_Tree<std::_Tmap_traits<std::basic_string<char,std::char_traits<char>,std::allocator<char> >,FuzzyVariable *,std::less<std::basic_string<char,std::char_traits<char>,std::allocator<char> > >,std::allocator<std::pair<std::basic_string<char,std::char_traits<char>,std::allocator<char> > const ,FuzzyVariable *> >,0> >::_Get_scary
PUBLIC	?_Get_scary@?$_Tree@V?$_Tmap_traits@V?$basic_string@DU?$char_traits@D@std@@V?$allocator@D@2@@std@@PAVFuzzyVariable@@U?$less@V?$basic_string@DU?$char_traits@D@std@@V?$allocator@D@2@@std@@@2@V?$allocator@U?$pair@$$CBV?$basic_string@DU?$char_traits@D@std@@V?$allocator@D@2@@std@@PAVFuzzyVariable@@@std@@@2@$0A@@std@@@std@@IBEPBV?$_Tree_val@U?$_Tree_simple_types@U?$pair@$$CBV?$basic_string@DU?$char_traits@D@std@@V?$allocator@D@2@@std@@PAVFuzzyVariable@@@std@@@std@@@2@XZ ; std::_Tree<std::_Tmap_traits<std::basic_string<char,std::char_traits<char>,std::allocator<char> >,FuzzyVariable *,std::less<std::basic_string<char,std::char_traits<char>,std::allocator<char> > >,std::allocator<std::pair<std::basic_string<char,std::char_traits<char>,std::allocator<char> > const ,FuzzyVariable *> >,0> >::_Get_scary
PUBLIC	?_Min@?$_Tree_val@U?$_Tree_simple_types@U?$pair@$$CBV?$basic_string@DU?$char_traits@D@std@@V?$allocator@D@2@@std@@PAVFuzzyVariable@@@std@@@std@@@std@@SAPAU?$_Tree_node@U?$pair@$$CBV?$basic_string@DU?$char_traits@D@std@@V?$allocator@D@2@@std@@PAVFuzzyVariable@@@std@@PAX@2@PAU32@@Z ; std::_Tree_val<std::_Tree_simple_types<std::pair<std::basic_string<char,std::char_traits<char>,std::allocator<char> > const ,FuzzyVariable *> > >::_Min
PUBLIC	?_Lrotate@?$_Tree_val@U?$_Tree_simple_types@U?$pair@$$CBV?$basic_string@DU?$char_traits@D@std@@V?$allocator@D@2@@std@@PAVFuzzyVariable@@@std@@@std@@@std@@QAEXPAU?$_Tree_node@U?$pair@$$CBV?$basic_string@DU?$char_traits@D@std@@V?$allocator@D@2@@std@@PAVFuzzyVariable@@@std@@PAX@2@@Z ; std::_Tree_val<std::_Tree_simple_types<std::pair<std::basic_string<char,std::char_traits<char>,std::allocator<char> > const ,FuzzyVariable *> > >::_Lrotate
PUBLIC	?_Rrotate@?$_Tree_val@U?$_Tree_simple_types@U?$pair@$$CBV?$basic_string@DU?$char_traits@D@std@@V?$allocator@D@2@@std@@PAVFuzzyVariable@@@std@@@std@@@std@@QAEXPAU?$_Tree_node@U?$pair@$$CBV?$basic_string@DU?$char_traits@D@std@@V?$allocator@D@2@@std@@PAVFuzzyVariable@@@std@@PAX@2@@Z ; std::_Tree_val<std::_Tree_simple_types<std::pair<std::basic_string<char,std::char_traits<char>,std::allocator<char> > const ,FuzzyVariable *> > >::_Rrotate
PUBLIC	?_Insert_node@?$_Tree_val@U?$_Tree_simple_types@U?$pair@$$CBV?$basic_string@DU?$char_traits@D@std@@V?$allocator@D@2@@std@@PAVFuzzyVariable@@@std@@@std@@@std@@QAEPAU?$_Tree_node@U?$pair@$$CBV?$basic_string@DU?$char_traits@D@std@@V?$allocator@D@2@@std@@PAVFuzzyVariable@@@std@@PAX@2@U?$_Tree_id@PAU?$_Tree_node@U?$pair@$$CBV?$basic_string@DU?$char_traits@D@std@@V?$allocator@D@2@@std@@PAVFuzzyVariable@@@std@@PAX@std@@@2@QAU32@@Z ; std::_Tree_val<std::_Tree_simple_types<std::pair<std::basic_string<char,std::char_traits<char>,std::allocator<char> > const ,FuzzyVariable *> > >::_Insert_node
PUBLIC	?_Get_first@?$_Compressed_pair@V?$allocator@U?$_Tree_node@U?$pair@$$CBV?$basic_string@DU?$char_traits@D@std@@V?$allocator@D@2@@std@@PAVFuzzyVariable@@@std@@PAX@std@@@std@@V?$_Tree_val@U?$_Tree_simple_types@U?$pair@$$CBV?$basic_string@DU?$char_traits@D@std@@V?$allocator@D@2@@std@@PAVFuzzyVariable@@@std@@@std@@@2@$00@std@@QAEAAV?$allocator@U?$_Tree_node@U?$pair@$$CBV?$basic_string@DU?$char_traits@D@std@@V?$allocator@D@2@@std@@PAVFuzzyVariable@@@std@@PAX@std@@@2@XZ ; std::_Compressed_pair<std::allocator<std::_Tree_node<std::pair<std::basic_string<char,std::char_traits<char>,std::allocator<char> > const ,FuzzyVariable *>,void *> >,std::_Tree_val<std::_Tree_simple_types<std::pair<std::basic_string<char,std::char_traits<char>,std::allocator<char> > const ,FuzzyVariable *> > >,1>::_Get_first
PUBLIC	?_Get_first@?$_Compressed_pair@V?$allocator@U?$_Tree_node@U?$pair@$$CBV?$basic_string@DU?$char_traits@D@std@@V?$allocator@D@2@@std@@PAVFuzzyVariable@@@std@@PAX@std@@@std@@V?$_Tree_val@U?$_Tree_simple_types@U?$pair@$$CBV?$basic_string@DU?$char_traits@D@std@@V?$allocator@D@2@@std@@PAVFuzzyVariable@@@std@@@std@@@2@$00@std@@QBEABV?$allocator@U?$_Tree_node@U?$pair@$$CBV?$basic_string@DU?$char_traits@D@std@@V?$allocator@D@2@@std@@PAVFuzzyVariable@@@std@@PAX@std@@@2@XZ ; std::_Compressed_pair<std::allocator<std::_Tree_node<std::pair<std::basic_string<char,std::char_traits<char>,std::allocator<char> > const ,FuzzyVariable *>,void *> >,std::_Tree_val<std::_Tree_simple_types<std::pair<std::basic_string<char,std::char_traits<char>,std::allocator<char> > const ,FuzzyVariable *> > >,1>::_Get_first
PUBLIC	?_Get_first@?$_Compressed_pair@U?$less@V?$basic_string@DU?$char_traits@D@std@@V?$allocator@D@2@@std@@@std@@V?$_Compressed_pair@V?$allocator@U?$_Tree_node@U?$pair@$$CBV?$basic_string@DU?$char_traits@D@std@@V?$allocator@D@2@@std@@PAVFuzzyVariable@@@std@@PAX@std@@@std@@V?$_Tree_val@U?$_Tree_simple_types@U?$pair@$$CBV?$basic_string@DU?$char_traits@D@std@@V?$allocator@D@2@@std@@PAVFuzzyVariable@@@std@@@std@@@2@$00@2@$00@std@@QBEABU?$less@V?$basic_string@DU?$char_traits@D@std@@V?$allocator@D@2@@std@@@2@XZ ; std::_Compressed_pair<std::less<std::basic_string<char,std::char_traits<char>,std::allocator<char> > >,std::_Compressed_pair<std::allocator<std::_Tree_node<std::pair<std::basic_string<char,std::char_traits<char>,std::allocator<char> > const ,FuzzyVariable *>,void *> >,std::_Tree_val<std::_Tree_simple_types<std::pair<std::basic_string<char,std::char_traits<char>,std::allocator<char> > const ,FuzzyVariable *> > >,1>,1>::_Get_first
PUBLIC	??A?$map@V?$basic_string@DU?$char_traits@D@std@@V?$allocator@D@2@@std@@PAVFuzzyVariable@@U?$less@V?$basic_string@DU?$char_traits@D@std@@V?$allocator@D@2@@std@@@2@V?$allocator@U?$pair@$$CBV?$basic_string@DU?$char_traits@D@std@@V?$allocator@D@2@@std@@PAVFuzzyVariable@@@std@@@2@@std@@QAEAAPAVFuzzyVariable@@ABV?$basic_string@DU?$char_traits@D@std@@V?$allocator@D@2@@1@@Z ; std::map<std::basic_string<char,std::char_traits<char>,std::allocator<char> >,FuzzyVariable *,std::less<std::basic_string<char,std::char_traits<char>,std::allocator<char> > >,std::allocator<std::pair<std::basic_string<char,std::char_traits<char>,std::allocator<char> > const ,FuzzyVariable *> > >::operator[]
PUBLIC	??1?$map@V?$basic_string@DU?$char_traits@D@std@@V?$allocator@D@2@@std@@PAVFuzzyVariable@@U?$less@V?$basic_string@DU?$char_traits@D@std@@V?$allocator@D@2@@std@@@2@V?$allocator@U?$pair@$$CBV?$basic_string@DU?$char_traits@D@std@@V?$allocator@D@2@@std@@PAVFuzzyVariable@@@std@@@2@@std@@QAE@XZ ; std::map<std::basic_string<char,std::char_traits<char>,std::allocator<char> >,FuzzyVariable *,std::less<std::basic_string<char,std::char_traits<char>,std::allocator<char> > >,std::allocator<std::pair<std::basic_string<char,std::char_traits<char>,std::allocator<char> > const ,FuzzyVariable *> > >::~map<std::basic_string<char,std::char_traits<char>,std::allocator<char> >,FuzzyVariable *,std::less<std::basic_string<char,std::char_traits<char>,std::allocator<char> > >,std::allocator<std::pair<std::basic_string<char,std::char_traits<char>,std::allocator<char> > const ,FuzzyVariable *> > >
PUBLIC	?deallocate@?$allocator@PAVFuzzyRule@@@std@@QAEXQAPAVFuzzyRule@@I@Z ; std::allocator<FuzzyRule *>::deallocate
PUBLIC	?allocate@?$allocator@PAVFuzzyRule@@@std@@QAEPAPAVFuzzyRule@@I@Z ; std::allocator<FuzzyRule *>::allocate
PUBLIC	?max_size@?$_Default_allocator_traits@V?$allocator@PAVFuzzyRule@@@std@@@std@@SAIABV?$allocator@PAVFuzzyRule@@@2@@Z ; std::_Default_allocator_traits<std::allocator<FuzzyRule *> >::max_size
PUBLIC	??1?$vector@PAVFuzzyRule@@V?$allocator@PAVFuzzyRule@@@std@@@std@@QAE@XZ ; std::vector<FuzzyRule *,std::allocator<FuzzyRule *> >::~vector<FuzzyRule *,std::allocator<FuzzyRule *> >
PUBLIC	?push_back@?$vector@PAVFuzzyRule@@V?$allocator@PAVFuzzyRule@@@std@@@std@@QAEX$$QAPAVFuzzyRule@@@Z ; std::vector<FuzzyRule *,std::allocator<FuzzyRule *> >::push_back
PUBLIC	?begin@?$vector@PAVFuzzyRule@@V?$allocator@PAVFuzzyRule@@@std@@@std@@QAE?AV?$_Vector_iterator@V?$_Vector_val@U?$_Simple_types@PAVFuzzyRule@@@std@@@std@@@2@XZ ; std::vector<FuzzyRule *,std::allocator<FuzzyRule *> >::begin
PUBLIC	?end@?$vector@PAVFuzzyRule@@V?$allocator@PAVFuzzyRule@@@std@@@std@@QAE?AV?$_Vector_iterator@V?$_Vector_val@U?$_Simple_types@PAVFuzzyRule@@@std@@@std@@@2@XZ ; std::vector<FuzzyRule *,std::allocator<FuzzyRule *> >::end
PUBLIC	?max_size@?$vector@PAVFuzzyRule@@V?$allocator@PAVFuzzyRule@@@std@@@std@@QBEIXZ ; std::vector<FuzzyRule *,std::allocator<FuzzyRule *> >::max_size
PUBLIC	?capacity@?$vector@PAVFuzzyRule@@V?$allocator@PAVFuzzyRule@@@std@@@std@@QBEIXZ ; std::vector<FuzzyRule *,std::allocator<FuzzyRule *> >::capacity
PUBLIC	?_Calculate_growth@?$vector@PAVFuzzyRule@@V?$allocator@PAVFuzzyRule@@@std@@@std@@ABEII@Z ; std::vector<FuzzyRule *,std::allocator<FuzzyRule *> >::_Calculate_growth
PUBLIC	?_Change_array@?$vector@PAVFuzzyRule@@V?$allocator@PAVFuzzyRule@@@std@@@std@@AAEXQAPAVFuzzyRule@@II@Z ; std::vector<FuzzyRule *,std::allocator<FuzzyRule *> >::_Change_array
PUBLIC	?_Tidy@?$vector@PAVFuzzyRule@@V?$allocator@PAVFuzzyRule@@@std@@@std@@AAEXXZ ; std::vector<FuzzyRule *,std::allocator<FuzzyRule *> >::_Tidy
PUBLIC	?_Xlength@?$vector@PAVFuzzyRule@@V?$allocator@PAVFuzzyRule@@@std@@@std@@CAXXZ ; std::vector<FuzzyRule *,std::allocator<FuzzyRule *> >::_Xlength
PUBLIC	?_Orphan_range_unlocked@?$vector@PAVFuzzyRule@@V?$allocator@PAVFuzzyRule@@@std@@@std@@ABEXPAPAVFuzzyRule@@0@Z ; std::vector<FuzzyRule *,std::allocator<FuzzyRule *> >::_Orphan_range_unlocked
PUBLIC	?_Orphan_range_locked@?$vector@PAVFuzzyRule@@V?$allocator@PAVFuzzyRule@@@std@@@std@@ABEXPAPAVFuzzyRule@@0@Z ; std::vector<FuzzyRule *,std::allocator<FuzzyRule *> >::_Orphan_range_locked
PUBLIC	?_Orphan_range@?$vector@PAVFuzzyRule@@V?$allocator@PAVFuzzyRule@@@std@@@std@@ABEXPAPAVFuzzyRule@@0@Z ; std::vector<FuzzyRule *,std::allocator<FuzzyRule *> >::_Orphan_range
PUBLIC	?_Getal@?$vector@PAVFuzzyRule@@V?$allocator@PAVFuzzyRule@@@std@@@std@@AAEAAV?$allocator@PAVFuzzyRule@@@2@XZ ; std::vector<FuzzyRule *,std::allocator<FuzzyRule *> >::_Getal
PUBLIC	?_Getal@?$vector@PAVFuzzyRule@@V?$allocator@PAVFuzzyRule@@@std@@@std@@ABEABV?$allocator@PAVFuzzyRule@@@2@XZ ; std::vector<FuzzyRule *,std::allocator<FuzzyRule *> >::_Getal
PUBLIC	?_Get_first@?$_Compressed_pair@V?$allocator@PAVFuzzyRule@@@std@@V?$_Vector_val@U?$_Simple_types@PAVFuzzyRule@@@std@@@2@$00@std@@QAEAAV?$allocator@PAVFuzzyRule@@@2@XZ ; std::_Compressed_pair<std::allocator<FuzzyRule *>,std::_Vector_val<std::_Simple_types<FuzzyRule *> >,1>::_Get_first
PUBLIC	?_Get_first@?$_Compressed_pair@V?$allocator@PAVFuzzyRule@@@std@@V?$_Vector_val@U?$_Simple_types@PAVFuzzyRule@@@std@@@2@$00@std@@QBEABV?$allocator@PAVFuzzyRule@@@2@XZ ; std::_Compressed_pair<std::allocator<FuzzyRule *>,std::_Vector_val<std::_Simple_types<FuzzyRule *> >,1>::_Get_first
PUBLIC	??1FuzzyModule@@QAE@XZ				; FuzzyModule::~FuzzyModule
PUBLIC	?CreateFLV@FuzzyModule@@QAEAAVFuzzyVariable@@ABV?$basic_string@DU?$char_traits@D@std@@V?$allocator@D@2@@std@@@Z ; FuzzyModule::CreateFLV
PUBLIC	?AddRule@FuzzyModule@@QAEXAAVFuzzyTerm@@0@Z	; FuzzyModule::AddRule
PUBLIC	?WriteAllDOMs@FuzzyModule@@QAEAAV?$basic_ostream@DU?$char_traits@D@std@@@std@@AAV23@@Z ; FuzzyModule::WriteAllDOMs
PUBLIC	??0?$_Tree_unchecked_const_iterator@V?$_Tree_val@U?$_Tree_simple_types@U?$pair@$$CBV?$basic_string@DU?$char_traits@D@std@@V?$allocator@D@2@@std@@PAVFuzzyVariable@@@std@@@std@@@std@@U_Iterator_base12@2@@std@@QAE@PAU?$_Tree_node@U?$pair@$$CBV?$basic_string@DU?$char_traits@D@std@@V?$allocator@D@2@@std@@PAVFuzzyVariable@@@std@@PAX@1@PBV?$_Tree_val@U?$_Tree_simple_types@U?$pair@$$CBV?$basic_string@DU?$char_traits@D@std@@V?$allocator@D@2@@std@@PAVFuzzyVariable@@@std@@@std@@@1@@Z ; std::_Tree_unchecked_const_iterator<std::_Tree_val<std::_Tree_simple_types<std::pair<std::basic_string<char,std::char_traits<char>,std::allocator<char> > const ,FuzzyVariable *> > >,std::_Iterator_base12>::_Tree_unchecked_const_iterator<std::_Tree_val<std::_Tree_simple_types<std::pair<std::basic_string<char,std::char_traits<char>,std::allocator<char> > const ,FuzzyVariable *> > >,std::_Iterator_base12>
PUBLIC	??E?$_Tree_unchecked_const_iterator@V?$_Tree_val@U?$_Tree_simple_types@U?$pair@$$CBV?$basic_string@DU?$char_traits@D@std@@V?$allocator@D@2@@std@@PAVFuzzyVariable@@@std@@@std@@@std@@U_Iterator_base12@2@@std@@QAEAAV01@XZ ; std::_Tree_unchecked_const_iterator<std::_Tree_val<std::_Tree_simple_types<std::pair<std::basic_string<char,std::char_traits<char>,std::allocator<char> > const ,FuzzyVariable *> > >,std::_Iterator_base12>::operator++
PUBLIC	??1?$_Tree_unchecked_const_iterator@V?$_Tree_val@U?$_Tree_simple_types@U?$pair@$$CBV?$basic_string@DU?$char_traits@D@std@@V?$allocator@D@2@@std@@PAVFuzzyVariable@@@std@@@std@@@std@@U_Iterator_base12@2@@std@@QAE@XZ ; std::_Tree_unchecked_const_iterator<std::_Tree_val<std::_Tree_simple_types<std::pair<std::basic_string<char,std::char_traits<char>,std::allocator<char> > const ,FuzzyVariable *> > >,std::_Iterator_base12>::~_Tree_unchecked_const_iterator<std::_Tree_val<std::_Tree_simple_types<std::pair<std::basic_string<char,std::char_traits<char>,std::allocator<char> > const ,FuzzyVariable *> > >,std::_Iterator_base12>
PUBLIC	??D?$_Tree_const_iterator@V?$_Tree_val@U?$_Tree_simple_types@U?$pair@$$CBV?$basic_string@DU?$char_traits@D@std@@V?$allocator@D@2@@std@@PAVFuzzyVariable@@@std@@@std@@@std@@@std@@QBEABU?$pair@$$CBV?$basic_string@DU?$char_traits@D@std@@V?$allocator@D@2@@std@@PAVFuzzyVariable@@@1@XZ ; std::_Tree_const_iterator<std::_Tree_val<std::_Tree_simple_types<std::pair<std::basic_string<char,std::char_traits<char>,std::allocator<char> > const ,FuzzyVariable *> > > >::operator*
PUBLIC	??E?$_Tree_const_iterator@V?$_Tree_val@U?$_Tree_simple_types@U?$pair@$$CBV?$basic_string@DU?$char_traits@D@std@@V?$allocator@D@2@@std@@PAVFuzzyVariable@@@std@@@std@@@std@@@std@@QAEAAV01@XZ ; std::_Tree_const_iterator<std::_Tree_val<std::_Tree_simple_types<std::pair<std::basic_string<char,std::char_traits<char>,std::allocator<char> > const ,FuzzyVariable *> > > >::operator++
PUBLIC	??8?$_Tree_const_iterator@V?$_Tree_val@U?$_Tree_simple_types@U?$pair@$$CBV?$basic_string@DU?$char_traits@D@std@@V?$allocator@D@2@@std@@PAVFuzzyVariable@@@std@@@std@@@std@@@std@@QBE_NABV01@@Z ; std::_Tree_const_iterator<std::_Tree_val<std::_Tree_simple_types<std::pair<std::basic_string<char,std::char_traits<char>,std::allocator<char> > const ,FuzzyVariable *> > > >::operator==
PUBLIC	??9?$_Tree_const_iterator@V?$_Tree_val@U?$_Tree_simple_types@U?$pair@$$CBV?$basic_string@DU?$char_traits@D@std@@V?$allocator@D@2@@std@@PAVFuzzyVariable@@@std@@@std@@@std@@@std@@QBE_NABV01@@Z ; std::_Tree_const_iterator<std::_Tree_val<std::_Tree_simple_types<std::pair<std::basic_string<char,std::char_traits<char>,std::allocator<char> > const ,FuzzyVariable *> > > >::operator!=
PUBLIC	??1?$_Tree_const_iterator@V?$_Tree_val@U?$_Tree_simple_types@U?$pair@$$CBV?$basic_string@DU?$char_traits@D@std@@V?$allocator@D@2@@std@@PAVFuzzyVariable@@@std@@@std@@@std@@@std@@QAE@XZ ; std::_Tree_const_iterator<std::_Tree_val<std::_Tree_simple_types<std::pair<std::basic_string<char,std::char_traits<char>,std::allocator<char> > const ,FuzzyVariable *> > > >::~_Tree_const_iterator<std::_Tree_val<std::_Tree_simple_types<std::pair<std::basic_string<char,std::char_traits<char>,std::allocator<char> > const ,FuzzyVariable *> > > >
PUBLIC	??0?$_Tree_const_iterator@V?$_Tree_val@U?$_Tree_simple_types@U?$pair@$$CBV?$basic_string@DU?$char_traits@D@std@@V?$allocator@D@2@@std@@PAVFuzzyVariable@@@std@@@std@@@std@@@std@@QAE@PAU?$_Tree_node@U?$pair@$$CBV?$basic_string@DU?$char_traits@D@std@@V?$allocator@D@2@@std@@PAVFuzzyVariable@@@std@@PAX@1@PBV?$_Tree_val@U?$_Tree_simple_types@U?$pair@$$CBV?$basic_string@DU?$char_traits@D@std@@V?$allocator@D@2@@std@@PAVFuzzyVariable@@@std@@@std@@@1@@Z ; std::_Tree_const_iterator<std::_Tree_val<std::_Tree_simple_types<std::pair<std::basic_string<char,std::char_traits<char>,std::allocator<char> > const ,FuzzyVariable *> > > >::_Tree_const_iterator<std::_Tree_val<std::_Tree_simple_types<std::pair<std::basic_string<char,std::char_traits<char>,std::allocator<char> > const ,FuzzyVariable *> > > >
PUBLIC	??D?$_Tree_iterator@V?$_Tree_val@U?$_Tree_simple_types@U?$pair@$$CBV?$basic_string@DU?$char_traits@D@std@@V?$allocator@D@2@@std@@PAVFuzzyVariable@@@std@@@std@@@std@@@std@@QBEAAU?$pair@$$CBV?$basic_string@DU?$char_traits@D@std@@V?$allocator@D@2@@std@@PAVFuzzyVariable@@@1@XZ ; std::_Tree_iterator<std::_Tree_val<std::_Tree_simple_types<std::pair<std::basic_string<char,std::char_traits<char>,std::allocator<char> > const ,FuzzyVariable *> > > >::operator*
PUBLIC	??C?$_Tree_iterator@V?$_Tree_val@U?$_Tree_simple_types@U?$pair@$$CBV?$basic_string@DU?$char_traits@D@std@@V?$allocator@D@2@@std@@PAVFuzzyVariable@@@std@@@std@@@std@@@std@@QBEPAU?$pair@$$CBV?$basic_string@DU?$char_traits@D@std@@V?$allocator@D@2@@std@@PAVFuzzyVariable@@@1@XZ ; std::_Tree_iterator<std::_Tree_val<std::_Tree_simple_types<std::pair<std::basic_string<char,std::char_traits<char>,std::allocator<char> > const ,FuzzyVariable *> > > >::operator->
PUBLIC	??E?$_Tree_iterator@V?$_Tree_val@U?$_Tree_simple_types@U?$pair@$$CBV?$basic_string@DU?$char_traits@D@std@@V?$allocator@D@2@@std@@PAVFuzzyVariable@@@std@@@std@@@std@@@std@@QAEAAV01@XZ ; std::_Tree_iterator<std::_Tree_val<std::_Tree_simple_types<std::pair<std::basic_string<char,std::char_traits<char>,std::allocator<char> > const ,FuzzyVariable *> > > >::operator++
PUBLIC	??1?$_Tree_iterator@V?$_Tree_val@U?$_Tree_simple_types@U?$pair@$$CBV?$basic_string@DU?$char_traits@D@std@@V?$allocator@D@2@@std@@PAVFuzzyVariable@@@std@@@std@@@std@@@std@@QAE@XZ ; std::_Tree_iterator<std::_Tree_val<std::_Tree_simple_types<std::pair<std::basic_string<char,std::char_traits<char>,std::allocator<char> > const ,FuzzyVariable *> > > >::~_Tree_iterator<std::_Tree_val<std::_Tree_simple_types<std::pair<std::basic_string<char,std::char_traits<char>,std::allocator<char> > const ,FuzzyVariable *> > > >
PUBLIC	??0?$_Tree_iterator@V?$_Tree_val@U?$_Tree_simple_types@U?$pair@$$CBV?$basic_string@DU?$char_traits@D@std@@V?$allocator@D@2@@std@@PAVFuzzyVariable@@@std@@@std@@@std@@@std@@QAE@PAU?$_Tree_node@U?$pair@$$CBV?$basic_string@DU?$char_traits@D@std@@V?$allocator@D@2@@std@@PAVFuzzyVariable@@@std@@PAX@1@PBV?$_Tree_val@U?$_Tree_simple_types@U?$pair@$$CBV?$basic_string@DU?$char_traits@D@std@@V?$allocator@D@2@@std@@PAVFuzzyVariable@@@std@@@std@@@1@@Z ; std::_Tree_iterator<std::_Tree_val<std::_Tree_simple_types<std::pair<std::basic_string<char,std::char_traits<char>,std::allocator<char> > const ,FuzzyVariable *> > > >::_Tree_iterator<std::_Tree_val<std::_Tree_simple_types<std::pair<std::basic_string<char,std::char_traits<char>,std::allocator<char> > const ,FuzzyVariable *> > > >
PUBLIC	??1?$pair@$$CBV?$basic_string@DU?$char_traits@D@std@@V?$allocator@D@2@@std@@PAVFuzzyVariable@@@std@@QAE@XZ ; std::pair<std::basic_string<char,std::char_traits<char>,std::allocator<char> > const ,FuzzyVariable *>::~pair<std::basic_string<char,std::char_traits<char>,std::allocator<char> > const ,FuzzyVariable *>
PUBLIC	??_G?$pair@$$CBV?$basic_string@DU?$char_traits@D@std@@V?$allocator@D@2@@std@@PAVFuzzyVariable@@@std@@QAEPAXI@Z ; std::pair<std::basic_string<char,std::char_traits<char>,std::allocator<char> > const ,FuzzyVariable *>::`scalar deleting destructor'
PUBLIC	??0?$_Vector_const_iterator@V?$_Vector_val@U?$_Simple_types@PAVFuzzyRule@@@std@@@std@@@std@@QAE@PAPAVFuzzyRule@@PBU_Container_base12@1@@Z ; std::_Vector_const_iterator<std::_Vector_val<std::_Simple_types<FuzzyRule *> > >::_Vector_const_iterator<std::_Vector_val<std::_Simple_types<FuzzyRule *> > >
PUBLIC	??D?$_Vector_const_iterator@V?$_Vector_val@U?$_Simple_types@PAVFuzzyRule@@@std@@@std@@@std@@QBEABQAVFuzzyRule@@XZ ; std::_Vector_const_iterator<std::_Vector_val<std::_Simple_types<FuzzyRule *> > >::operator*
PUBLIC	??E?$_Vector_const_iterator@V?$_Vector_val@U?$_Simple_types@PAVFuzzyRule@@@std@@@std@@@std@@QAEAAV01@XZ ; std::_Vector_const_iterator<std::_Vector_val<std::_Simple_types<FuzzyRule *> > >::operator++
PUBLIC	??8?$_Vector_const_iterator@V?$_Vector_val@U?$_Simple_types@PAVFuzzyRule@@@std@@@std@@@std@@QBE_NABV01@@Z ; std::_Vector_const_iterator<std::_Vector_val<std::_Simple_types<FuzzyRule *> > >::operator==
PUBLIC	??9?$_Vector_const_iterator@V?$_Vector_val@U?$_Simple_types@PAVFuzzyRule@@@std@@@std@@@std@@QBE_NABV01@@Z ; std::_Vector_const_iterator<std::_Vector_val<std::_Simple_types<FuzzyRule *> > >::operator!=
PUBLIC	?_Compat@?$_Vector_const_iterator@V?$_Vector_val@U?$_Simple_types@PAVFuzzyRule@@@std@@@std@@@std@@QBEXABV12@@Z ; std::_Vector_const_iterator<std::_Vector_val<std::_Simple_types<FuzzyRule *> > >::_Compat
PUBLIC	??1?$_Vector_const_iterator@V?$_Vector_val@U?$_Simple_types@PAVFuzzyRule@@@std@@@std@@@std@@QAE@XZ ; std::_Vector_const_iterator<std::_Vector_val<std::_Simple_types<FuzzyRule *> > >::~_Vector_const_iterator<std::_Vector_val<std::_Simple_types<FuzzyRule *> > >
PUBLIC	??D?$_Vector_iterator@V?$_Vector_val@U?$_Simple_types@PAVFuzzyRule@@@std@@@std@@@std@@QBEAAPAVFuzzyRule@@XZ ; std::_Vector_iterator<std::_Vector_val<std::_Simple_types<FuzzyRule *> > >::operator*
PUBLIC	??E?$_Vector_iterator@V?$_Vector_val@U?$_Simple_types@PAVFuzzyRule@@@std@@@std@@@std@@QAEAAV01@XZ ; std::_Vector_iterator<std::_Vector_val<std::_Simple_types<FuzzyRule *> > >::operator++
PUBLIC	??1?$_Vector_iterator@V?$_Vector_val@U?$_Simple_types@PAVFuzzyRule@@@std@@@std@@@std@@QAE@XZ ; std::_Vector_iterator<std::_Vector_val<std::_Simple_types<FuzzyRule *> > >::~_Vector_iterator<std::_Vector_val<std::_Simple_types<FuzzyRule *> > >
PUBLIC	??0?$_Vector_iterator@V?$_Vector_val@U?$_Simple_types@PAVFuzzyRule@@@std@@@std@@@std@@QAE@PAPAVFuzzyRule@@PBU_Container_base12@1@@Z ; std::_Vector_iterator<std::_Vector_val<std::_Simple_types<FuzzyRule *> > >::_Vector_iterator<std::_Vector_val<std::_Simple_types<FuzzyRule *> > >
PUBLIC	?clear@?$basic_ios@DU?$char_traits@D@std@@@std@@QAEXH_N@Z ; std::basic_ios<char,std::char_traits<char> >::clear
PUBLIC	?setstate@?$basic_ios@DU?$char_traits@D@std@@@std@@QAEXH_N@Z ; std::basic_ios<char,std::char_traits<char> >::setstate
PUBLIC	?tie@?$basic_ios@DU?$char_traits@D@std@@@std@@QBEPAV?$basic_ostream@DU?$char_traits@D@std@@@2@XZ ; std::basic_ios<char,std::char_traits<char> >::tie
PUBLIC	?rdbuf@?$basic_ios@DU?$char_traits@D@std@@@std@@QBEPAV?$basic_streambuf@DU?$char_traits@D@std@@@2@XZ ; std::basic_ios<char,std::char_traits<char> >::rdbuf
PUBLIC	?fill@?$basic_ios@DU?$char_traits@D@std@@@std@@QBEDXZ ; std::basic_ios<char,std::char_traits<char> >::fill
PUBLIC	?widen@?$basic_ios@DU?$char_traits@D@std@@@std@@QBEDD@Z ; std::basic_ios<char,std::char_traits<char> >::widen
PUBLIC	?_Osfx@?$basic_ostream@DU?$char_traits@D@std@@@std@@QAEXXZ ; std::basic_ostream<char,std::char_traits<char> >::_Osfx
PUBLIC	??6?$basic_ostream@DU?$char_traits@D@std@@@std@@QAEAAV01@P6AAAV01@AAV01@@Z@Z ; std::basic_ostream<char,std::char_traits<char> >::operator<<
PUBLIC	?put@?$basic_ostream@DU?$char_traits@D@std@@@std@@QAEAAV12@D@Z ; std::basic_ostream<char,std::char_traits<char> >::put
PUBLIC	?flush@?$basic_ostream@DU?$char_traits@D@std@@@std@@QAEAAV12@XZ ; std::basic_ostream<char,std::char_traits<char> >::flush
PUBLIC	??$?6U?$char_traits@D@std@@@std@@YAAAV?$basic_ostream@DU?$char_traits@D@std@@@0@AAV10@PBD@Z ; std::operator<<<std::char_traits<char> >
PUBLIC	??$?6DU?$char_traits@D@std@@V?$allocator@D@1@@std@@YAAAV?$basic_ostream@DU?$char_traits@D@std@@@0@AAV10@ABV?$basic_string@DU?$char_traits@D@std@@V?$allocator@D@2@@0@@Z ; std::operator<<<char,std::char_traits<char>,std::allocator<char> >
PUBLIC	??$endl@DU?$char_traits@D@std@@@std@@YAAAV?$basic_ostream@DU?$char_traits@D@std@@@0@AAV10@@Z ; std::endl<char,std::char_traits<char> >
PUBLIC	??$min@I@std@@YAABIABI0@Z			; std::min<unsigned int>
PUBLIC	??$_Get_index@$0A@@id@locale@std@@QAEIXZ	; std::locale::id::_Get_index<0>
PUBLIC	??R?$default_delete@V_Facet_base@std@@@std@@QBEXPAV_Facet_base@1@@Z ; std::default_delete<std::_Facet_base>::operator()
PUBLIC	??1?$unique_ptr@V_Facet_base@std@@U?$default_delete@V_Facet_base@std@@@2@@std@@QAE@XZ ; std::unique_ptr<std::_Facet_base,std::default_delete<std::_Facet_base> >::~unique_ptr<std::_Facet_base,std::default_delete<std::_Facet_base> >
PUBLIC	?release@?$unique_ptr@V_Facet_base@std@@U?$default_delete@V_Facet_base@std@@@2@@std@@QAEPAV_Facet_base@2@XZ ; std::unique_ptr<std::_Facet_base,std::default_delete<std::_Facet_base> >::release
PUBLIC	?_Get_first@?$_Compressed_pair@U?$default_delete@V_Facet_base@std@@@std@@PAV_Facet_base@2@$00@std@@QAEAAU?$default_delete@V_Facet_base@std@@@2@XZ ; std::_Compressed_pair<std::default_delete<std::_Facet_base>,std::_Facet_base *,1>::_Get_first
PUBLIC	??$?0U?$default_delete@V_Facet_base@std@@@std@@$0A@@?$unique_ptr@V_Facet_base@std@@U?$default_delete@V_Facet_base@std@@@2@@std@@QAE@PAV_Facet_base@1@@Z ; std::unique_ptr<std::_Facet_base,std::default_delete<std::_Facet_base> >::unique_ptr<std::_Facet_base,std::default_delete<std::_Facet_base> ><std::default_delete<std::_Facet_base>,0>
PUBLIC	??0_Sentry_base@?$basic_ostream@DU?$char_traits@D@std@@@std@@QAE@AAV12@@Z ; std::basic_ostream<char,std::char_traits<char> >::_Sentry_base::_Sentry_base
PUBLIC	??1_Sentry_base@?$basic_ostream@DU?$char_traits@D@std@@@std@@QAE@XZ ; std::basic_ostream<char,std::char_traits<char> >::_Sentry_base::~_Sentry_base
PUBLIC	??0sentry@?$basic_ostream@DU?$char_traits@D@std@@@std@@QAE@AAV12@@Z ; std::basic_ostream<char,std::char_traits<char> >::sentry::sentry
PUBLIC	??1sentry@?$basic_ostream@DU?$char_traits@D@std@@@std@@QAE@XZ ; std::basic_ostream<char,std::char_traits<char> >::sentry::~sentry
PUBLIC	??Bsentry@?$basic_ostream@DU?$char_traits@D@std@@@std@@QBE_NXZ ; std::basic_ostream<char,std::char_traits<char> >::sentry::operator bool
PUBLIC	?pubsync@?$basic_streambuf@DU?$char_traits@D@std@@@std@@QAEHXZ ; std::basic_streambuf<char,std::char_traits<char> >::pubsync
PUBLIC	?sputc@?$basic_streambuf@DU?$char_traits@D@std@@@std@@QAEHD@Z ; std::basic_streambuf<char,std::char_traits<char> >::sputc
PUBLIC	?sputn@?$basic_streambuf@DU?$char_traits@D@std@@@std@@QAE_JPBD_J@Z ; std::basic_streambuf<char,std::char_traits<char> >::sputn
PUBLIC	?_Pninc@?$basic_streambuf@DU?$char_traits@D@std@@@std@@IAEPADXZ ; std::basic_streambuf<char,std::char_traits<char> >::_Pninc
PUBLIC	?_Pnavail@?$basic_streambuf@DU?$char_traits@D@std@@@std@@IBE_JXZ ; std::basic_streambuf<char,std::char_traits<char> >::_Pnavail
PUBLIC	??$_Insert_string@DU?$char_traits@D@std@@I@std@@YAAAV?$basic_ostream@DU?$char_traits@D@std@@@0@AAV10@QBDI@Z ; std::_Insert_string<char,std::char_traits<char>,unsigned int>
PUBLIC	??$addressof@V?$_Vector_val@U?$_Simple_types@PAVFuzzyRule@@@std@@@std@@@std@@YAPAV?$_Vector_val@U?$_Simple_types@PAVFuzzyRule@@@std@@@0@AAV10@@Z ; std::addressof<std::_Vector_val<std::_Simple_types<FuzzyRule *> > >
PUBLIC	??$move@AAPAVFuzzyRule@@@std@@YA$$QAPAVFuzzyRule@@AAPAV1@@Z ; std::move<FuzzyRule * &>
PUBLIC	??$_Emplace_one_at_back@PAVFuzzyRule@@@?$vector@PAVFuzzyRule@@V?$allocator@PAVFuzzyRule@@@std@@@std@@AAEAAPAVFuzzyRule@@$$QAPAV2@@Z ; std::vector<FuzzyRule *,std::allocator<FuzzyRule *> >::_Emplace_one_at_back<FuzzyRule *>
PUBLIC	?allocate@?$allocator@U_Container_proxy@std@@@std@@QAEPAU_Container_proxy@2@I@Z ; std::allocator<std::_Container_proxy>::allocate
PUBLIC	??$?0PAVFuzzyRule@@@?$allocator@U_Container_proxy@std@@@std@@QAE@ABV?$allocator@PAVFuzzyRule@@@1@@Z ; std::allocator<std::_Container_proxy>::allocator<std::_Container_proxy><FuzzyRule *>
PUBLIC	??$exchange@PAU_Container_proxy@std@@$$T@std@@YAPAU_Container_proxy@0@AAPAU10@$$QA$$T@Z ; std::exchange<std::_Container_proxy *,std::nullptr_t>
PUBLIC	??$_Delete_plain_internal@V?$allocator@U_Container_proxy@std@@@std@@@std@@YAXAAV?$allocator@U_Container_proxy@std@@@0@QAU_Container_proxy@0@@Z ; std::_Delete_plain_internal<std::allocator<std::_Container_proxy> >
PUBLIC	?pointer_to@?$pointer_traits@PAU?$pair@$$CBV?$basic_string@DU?$char_traits@D@std@@V?$allocator@D@2@@std@@PAVFuzzyVariable@@@std@@@std@@SAPAU?$pair@$$CBV?$basic_string@DU?$char_traits@D@std@@V?$allocator@D@2@@std@@PAVFuzzyVariable@@@2@AAU32@@Z ; std::pointer_traits<std::pair<std::basic_string<char,std::char_traits<char>,std::allocator<char> > const ,FuzzyVariable *> *>::pointer_to
PUBLIC	??$_Erase_head@V?$allocator@U?$_Tree_node@U?$pair@$$CBV?$basic_string@DU?$char_traits@D@std@@V?$allocator@D@2@@std@@PAVFuzzyVariable@@@std@@PAX@std@@@std@@@?$_Tree_val@U?$_Tree_simple_types@U?$pair@$$CBV?$basic_string@DU?$char_traits@D@std@@V?$allocator@D@2@@std@@PAVFuzzyVariable@@@std@@@std@@@std@@QAEXAAV?$allocator@U?$_Tree_node@U?$pair@$$CBV?$basic_string@DU?$char_traits@D@std@@V?$allocator@D@2@@std@@PAVFuzzyVariable@@@std@@PAX@std@@@1@@Z ; std::_Tree_val<std::_Tree_simple_types<std::pair<std::basic_string<char,std::char_traits<char>,std::allocator<char> > const ,FuzzyVariable *> > >::_Erase_head<std::allocator<std::_Tree_node<std::pair<std::basic_string<char,std::char_traits<char>,std::allocator<char> > const ,FuzzyVariable *>,void *> > >
PUBLIC	??$?0U?$_Tree_node@U?$pair@$$CBV?$basic_string@DU?$char_traits@D@std@@V?$allocator@D@2@@std@@PAVFuzzyVariable@@@std@@PAX@std@@@?$allocator@U_Container_proxy@std@@@std@@QAE@ABV?$allocator@U?$_Tree_node@U?$pair@$$CBV?$basic_string@DU?$char_traits@D@std@@V?$allocator@D@2@@std@@PAVFuzzyVariable@@@std@@PAX@std@@@1@@Z ; std::allocator<std::_Container_proxy>::allocator<std::_Container_proxy><std::_Tree_node<std::pair<std::basic_string<char,std::char_traits<char>,std::allocator<char> > const ,FuzzyVariable *>,void *> >
PUBLIC	??$_Try_emplace@ABV?$basic_string@DU?$char_traits@D@std@@V?$allocator@D@2@@std@@$$V@?$map@V?$basic_string@DU?$char_traits@D@std@@V?$allocator@D@2@@std@@PAVFuzzyVariable@@U?$less@V?$basic_string@DU?$char_traits@D@std@@V?$allocator@D@2@@std@@@2@V?$allocator@U?$pair@$$CBV?$basic_string@DU?$char_traits@D@std@@V?$allocator@D@2@@std@@PAVFuzzyVariable@@@std@@@2@@std@@AAE?AU?$pair@PAU?$_Tree_node@U?$pair@$$CBV?$basic_string@DU?$char_traits@D@std@@V?$allocator@D@2@@std@@PAVFuzzyVariable@@@std@@PAX@std@@_N@1@ABV?$basic_string@DU?$char_traits@D@std@@V?$allocator@D@2@@1@@Z ; std::map<std::basic_string<char,std::char_traits<char>,std::allocator<char> >,FuzzyVariable *,std::less<std::basic_string<char,std::char_traits<char>,std::allocator<char> > >,std::allocator<std::pair<std::basic_string<char,std::char_traits<char>,std::allocator<char> > const ,FuzzyVariable *> > >::_Try_emplace<std::basic_string<char,std::char_traits<char>,std::allocator<char> > const &>
PUBLIC	??$?0U?$_Tree_node@U?$pair@$$CBV?$basic_string@DU?$char_traits@D@std@@V?$allocator@D@2@@std@@PAVFuzzySet@@@std@@PAX@std@@@?$allocator@U_Container_proxy@std@@@std@@QAE@ABV?$allocator@U?$_Tree_node@U?$pair@$$CBV?$basic_string@DU?$char_traits@D@std@@V?$allocator@D@2@@std@@PAVFuzzySet@@@std@@PAX@std@@@1@@Z ; std::allocator<std::_Container_proxy>::allocator<std::_Container_proxy><std::_Tree_node<std::pair<std::basic_string<char,std::char_traits<char>,std::allocator<char> > const ,FuzzySet *>,void *> >
PUBLIC	??$_Alloc_proxy@V?$allocator@U_Container_proxy@std@@@std@@@_Container_base12@std@@QAEX$$QAV?$allocator@U_Container_proxy@std@@@1@@Z ; std::_Container_base12::_Alloc_proxy<std::allocator<std::_Container_proxy> >
PUBLIC	??$_Convert_size@II@std@@YAII@Z			; std::_Convert_size<unsigned int,unsigned int>
PUBLIC	??$?0D@?$allocator@U_Container_proxy@std@@@std@@QAE@ABV?$allocator@D@1@@Z ; std::allocator<std::_Container_proxy>::allocator<std::_Container_proxy><char>
PUBLIC	??$move@AAV?$allocator@D@std@@@std@@YA$$QAV?$allocator@D@0@AAV10@@Z ; std::move<std::allocator<char> &>
PUBLIC	??$?0V?$allocator@D@std@@$$V@?$_Compressed_pair@V?$allocator@D@std@@V?$_String_val@U?$_Simple_types@D@std@@@2@$00@std@@QAE@U_One_then_variadic_args_t@1@$$QAV?$allocator@D@1@@Z ; std::_Compressed_pair<std::allocator<char>,std::_String_val<std::_Simple_types<char> >,1>::_Compressed_pair<std::allocator<char>,std::_String_val<std::_Simple_types<char> >,1><std::allocator<char> >
PUBLIC	??$?0$$V@?$_Compressed_pair@V?$allocator@D@std@@V?$_String_val@U?$_Simple_types@D@std@@@2@$00@std@@QAE@U_Zero_then_variadic_args_t@1@@Z ; std::_Compressed_pair<std::allocator<char>,std::_String_val<std::_Simple_types<char> >,1>::_Compressed_pair<std::allocator<char>,std::_String_val<std::_Simple_types<char> >,1><>
PUBLIC	??$_Construct@$00PBD@?$basic_string@DU?$char_traits@D@std@@V?$allocator@D@2@@std@@AAEXQBDI@Z ; std::basic_string<char,std::char_traits<char>,std::allocator<char> >::_Construct<1,char const *>
PUBLIC	??$_Construct@$01PBD@?$basic_string@DU?$char_traits@D@std@@V?$allocator@D@2@@std@@AAEXQBDI@Z ; std::basic_string<char,std::char_traits<char>,std::allocator<char> >::_Construct<2,char const *>
PUBLIC	??$?0AAPAV_Facet_base@std@@@?$_Compressed_pair@U?$default_delete@V_Facet_base@std@@@std@@PAV_Facet_base@2@$00@std@@QAE@U_Zero_then_variadic_args_t@1@AAPAV_Facet_base@1@@Z ; std::_Compressed_pair<std::default_delete<std::_Facet_base>,std::_Facet_base *,1>::_Compressed_pair<std::default_delete<std::_Facet_base>,std::_Facet_base *,1><std::_Facet_base * &>
PUBLIC	??$forward@PAVFuzzyRule@@@std@@YA$$QAPAVFuzzyRule@@AAPAV1@@Z ; std::forward<FuzzyRule *>
PUBLIC	??$_Emplace_back_with_unused_capacity@PAVFuzzyRule@@@?$vector@PAVFuzzyRule@@V?$allocator@PAVFuzzyRule@@@std@@@std@@AAEAAPAVFuzzyRule@@$$QAPAV2@@Z ; std::vector<FuzzyRule *,std::allocator<FuzzyRule *> >::_Emplace_back_with_unused_capacity<FuzzyRule *>
PUBLIC	??$_Emplace_reallocate@PAVFuzzyRule@@@?$vector@PAVFuzzyRule@@V?$allocator@PAVFuzzyRule@@@std@@@std@@AAEPAPAVFuzzyRule@@QAPAV2@$$QAPAV2@@Z ; std::vector<FuzzyRule *,std::allocator<FuzzyRule *> >::_Emplace_reallocate<FuzzyRule *>
PUBLIC	??$_Deallocate_plain@V?$allocator@U_Container_proxy@std@@@std@@@std@@YAXAAV?$allocator@U_Container_proxy@std@@@0@QAU_Container_proxy@0@@Z ; std::_Deallocate_plain<std::allocator<std::_Container_proxy> >
PUBLIC	??$_Find_lower_bound@V?$basic_string@DU?$char_traits@D@std@@V?$allocator@D@2@@std@@@?$_Tree@V?$_Tmap_traits@V?$basic_string@DU?$char_traits@D@std@@V?$allocator@D@2@@std@@PAVFuzzyVariable@@U?$less@V?$basic_string@DU?$char_traits@D@std@@V?$allocator@D@2@@std@@@2@V?$allocator@U?$pair@$$CBV?$basic_string@DU?$char_traits@D@std@@V?$allocator@D@2@@std@@PAVFuzzyVariable@@@std@@@2@$0A@@std@@@std@@IBE?AU?$_Tree_find_result@PAU?$_Tree_node@U?$pair@$$CBV?$basic_string@DU?$char_traits@D@std@@V?$allocator@D@2@@std@@PAVFuzzyVariable@@@std@@PAX@std@@@1@ABV?$basic_string@DU?$char_traits@D@std@@V?$allocator@D@2@@1@@Z ; std::_Tree<std::_Tmap_traits<std::basic_string<char,std::char_traits<char>,std::allocator<char> >,FuzzyVariable *,std::less<std::basic_string<char,std::char_traits<char>,std::allocator<char> > >,std::allocator<std::pair<std::basic_string<char,std::char_traits<char>,std::allocator<char> > const ,FuzzyVariable *> >,0> >::_Find_lower_bound<std::basic_string<char,std::char_traits<char>,std::allocator<char> > >
PUBLIC	??$_Lower_bound_duplicate@V?$basic_string@DU?$char_traits@D@std@@V?$allocator@D@2@@std@@@?$_Tree@V?$_Tmap_traits@V?$basic_string@DU?$char_traits@D@std@@V?$allocator@D@2@@std@@PAVFuzzyVariable@@U?$less@V?$basic_string@DU?$char_traits@D@std@@V?$allocator@D@2@@std@@@2@V?$allocator@U?$pair@$$CBV?$basic_string@DU?$char_traits@D@std@@V?$allocator@D@2@@std@@PAVFuzzyVariable@@@std@@@2@$0A@@std@@@std@@IBE_NQAU?$_Tree_node@U?$pair@$$CBV?$basic_string@DU?$char_traits@D@std@@V?$allocator@D@2@@std@@PAVFuzzyVariable@@@std@@PAX@1@ABV?$basic_string@DU?$char_traits@D@std@@V?$allocator@D@2@@1@@Z ; std::_Tree<std::_Tmap_traits<std::basic_string<char,std::char_traits<char>,std::allocator<char> >,FuzzyVariable *,std::less<std::basic_string<char,std::char_traits<char>,std::allocator<char> > >,std::allocator<std::pair<std::basic_string<char,std::char_traits<char>,std::allocator<char> > const ,FuzzyVariable *> >,0> >::_Lower_bound_duplicate<std::basic_string<char,std::char_traits<char>,std::allocator<char> > >
PUBLIC	??$_Erase_tree@V?$allocator@U?$_Tree_node@U?$pair@$$CBV?$basic_string@DU?$char_traits@D@std@@V?$allocator@D@2@@std@@PAVFuzzyVariable@@@std@@PAX@std@@@std@@@?$_Tree_val@U?$_Tree_simple_types@U?$pair@$$CBV?$basic_string@DU?$char_traits@D@std@@V?$allocator@D@2@@std@@PAVFuzzyVariable@@@std@@@std@@@std@@QAEXAAV?$allocator@U?$_Tree_node@U?$pair@$$CBV?$basic_string@DU?$char_traits@D@std@@V?$allocator@D@2@@std@@PAVFuzzyVariable@@@std@@PAX@std@@@1@PAU?$_Tree_node@U?$pair@$$CBV?$basic_string@DU?$char_traits@D@std@@V?$allocator@D@2@@std@@PAVFuzzyVariable@@@std@@PAX@1@@Z ; std::_Tree_val<std::_Tree_simple_types<std::pair<std::basic_string<char,std::char_traits<char>,std::allocator<char> > const ,FuzzyVariable *> > >::_Erase_tree<std::allocator<std::_Tree_node<std::pair<std::basic_string<char,std::char_traits<char>,std::allocator<char> > const ,FuzzyVariable *>,void *> > >
PUBLIC	??$_Freenode0@V?$allocator@U?$_Tree_node@U?$pair@$$CBV?$basic_string@DU?$char_traits@D@std@@V?$allocator@D@2@@std@@PAVFuzzyVariable@@@std@@PAX@std@@@std@@@?$_Tree_node@U?$pair@$$CBV?$basic_string@DU?$char_traits@D@std@@V?$allocator@D@2@@std@@PAVFuzzyVariable@@@std@@PAX@std@@SAXAAV?$allocator@U?$_Tree_node@U?$pair@$$CBV?$basic_string@DU?$char_traits@D@std@@V?$allocator@D@2@@std@@PAVFuzzyVariable@@@std@@PAX@std@@@1@PAU01@@Z ; std::_Tree_node<std::pair<std::basic_string<char,std::char_traits<char>,std::allocator<char> > const ,FuzzyVariable *>,void *>::_Freenode0<std::allocator<std::_Tree_node<std::pair<std::basic_string<char,std::char_traits<char>,std::allocator<char> > const ,FuzzyVariable *>,void *> > >
PUBLIC	??$?0ABQAU?$_Tree_node@U?$pair@$$CBV?$basic_string@DU?$char_traits@D@std@@V?$allocator@D@2@@std@@PAVFuzzyVariable@@@std@@PAX@std@@_N$0A@@?$pair@PAU?$_Tree_node@U?$pair@$$CBV?$basic_string@DU?$char_traits@D@std@@V?$allocator@D@2@@std@@PAVFuzzyVariable@@@std@@PAX@std@@_N@std@@QAE@ABQAU?$_Tree_node@U?$pair@$$CBV?$basic_string@DU?$char_traits@D@std@@V?$allocator@D@2@@std@@PAVFuzzyVariable@@@std@@PAX@1@$$QA_N@Z ; std::pair<std::_Tree_node<std::pair<std::basic_string<char,std::char_traits<char>,std::allocator<char> > const ,FuzzyVariable *>,void *> *,bool>::pair<std::_Tree_node<std::pair<std::basic_string<char,std::char_traits<char>,std::allocator<char> > const ,FuzzyVariable *>,void *> *,bool><std::_Tree_node<std::pair<std::basic_string<char,std::char_traits<char>,std::allocator<char> > const ,FuzzyVariable *>,void *> * const &,bool,0>
PUBLIC	??$forward@ABV?$basic_string@DU?$char_traits@D@std@@V?$allocator@D@2@@std@@@std@@YAABV?$basic_string@DU?$char_traits@D@std@@V?$allocator@D@2@@0@ABV10@@Z ; std::forward<std::basic_string<char,std::char_traits<char>,std::allocator<char> > const &>
PUBLIC	??$forward_as_tuple@ABV?$basic_string@DU?$char_traits@D@std@@V?$allocator@D@2@@std@@@std@@YA?AV?$tuple@ABV?$basic_string@DU?$char_traits@D@std@@V?$allocator@D@2@@std@@@0@ABV?$basic_string@DU?$char_traits@D@std@@V?$allocator@D@2@@0@@Z ; std::forward_as_tuple<std::basic_string<char,std::char_traits<char>,std::allocator<char> > const &>
PUBLIC	??0?$tuple@ABV?$basic_string@DU?$char_traits@D@std@@V?$allocator@D@2@@std@@@std@@QAE@$$QAV01@@Z ; std::tuple<std::basic_string<char,std::char_traits<char>,std::allocator<char> > const &>::tuple<std::basic_string<char,std::char_traits<char>,std::allocator<char> > const &>
PUBLIC	??$forward_as_tuple@$$V@std@@YA?AV?$tuple@$$V@0@XZ ; std::forward_as_tuple<>
PUBLIC	??0?$_Alloc_construct_ptr@V?$allocator@U?$_Tree_node@U?$pair@$$CBV?$basic_string@DU?$char_traits@D@std@@V?$allocator@D@2@@std@@PAVFuzzyVariable@@@std@@PAX@std@@@std@@@std@@QAE@AAV?$allocator@U?$_Tree_node@U?$pair@$$CBV?$basic_string@DU?$char_traits@D@std@@V?$allocator@D@2@@std@@PAVFuzzyVariable@@@std@@PAX@std@@@1@@Z ; std::_Alloc_construct_ptr<std::allocator<std::_Tree_node<std::pair<std::basic_string<char,std::char_traits<char>,std::allocator<char> > const ,FuzzyVariable *>,void *> > >::_Alloc_construct_ptr<std::allocator<std::_Tree_node<std::pair<std::basic_string<char,std::char_traits<char>,std::allocator<char> > const ,FuzzyVariable *>,void *> > >
PUBLIC	?_Release@?$_Alloc_construct_ptr@V?$allocator@U?$_Tree_node@U?$pair@$$CBV?$basic_string@DU?$char_traits@D@std@@V?$allocator@D@2@@std@@PAVFuzzyVariable@@@std@@PAX@std@@@std@@@std@@QAEPAU?$_Tree_node@U?$pair@$$CBV?$basic_string@DU?$char_traits@D@std@@V?$allocator@D@2@@std@@PAVFuzzyVariable@@@std@@PAX@2@XZ ; std::_Alloc_construct_ptr<std::allocator<std::_Tree_node<std::pair<std::basic_string<char,std::char_traits<char>,std::allocator<char> > const ,FuzzyVariable *>,void *> > >::_Release
PUBLIC	?_Allocate@?$_Alloc_construct_ptr@V?$allocator@U?$_Tree_node@U?$pair@$$CBV?$basic_string@DU?$char_traits@D@std@@V?$allocator@D@2@@std@@PAVFuzzyVariable@@@std@@PAX@std@@@std@@@std@@QAEXXZ ; std::_Alloc_construct_ptr<std::allocator<std::_Tree_node<std::pair<std::basic_string<char,std::char_traits<char>,std::allocator<char> > const ,FuzzyVariable *>,void *> > >::_Allocate
PUBLIC	??1?$_Alloc_construct_ptr@V?$allocator@U?$_Tree_node@U?$pair@$$CBV?$basic_string@DU?$char_traits@D@std@@V?$allocator@D@2@@std@@PAVFuzzyVariable@@@std@@PAX@std@@@std@@@std@@QAE@XZ ; std::_Alloc_construct_ptr<std::allocator<std::_Tree_node<std::pair<std::basic_string<char,std::char_traits<char>,std::allocator<char> > const ,FuzzyVariable *>,void *> > >::~_Alloc_construct_ptr<std::allocator<std::_Tree_node<std::pair<std::basic_string<char,std::char_traits<char>,std::allocator<char> > const ,FuzzyVariable *>,void *> > >
PUBLIC	??0?$_Tree_temp_node_alloc@V?$allocator@U?$_Tree_node@U?$pair@$$CBV?$basic_string@DU?$char_traits@D@std@@V?$allocator@D@2@@std@@PAVFuzzyVariable@@@std@@PAX@std@@@std@@@std@@QAE@AAV?$allocator@U?$_Tree_node@U?$pair@$$CBV?$basic_string@DU?$char_traits@D@std@@V?$allocator@D@2@@std@@PAVFuzzyVariable@@@std@@PAX@std@@@1@@Z ; std::_Tree_temp_node_alloc<std::allocator<std::_Tree_node<std::pair<std::basic_string<char,std::char_traits<char>,std::allocator<char> > const ,FuzzyVariable *>,void *> > >::_Tree_temp_node_alloc<std::allocator<std::_Tree_node<std::pair<std::basic_string<char,std::char_traits<char>,std::allocator<char> > const ,FuzzyVariable *>,void *> > >
PUBLIC	??1?$_Tree_temp_node_alloc@V?$allocator@U?$_Tree_node@U?$pair@$$CBV?$basic_string@DU?$char_traits@D@std@@V?$allocator@D@2@@std@@PAVFuzzyVariable@@@std@@PAX@std@@@std@@@std@@QAE@XZ ; std::_Tree_temp_node_alloc<std::allocator<std::_Tree_node<std::pair<std::basic_string<char,std::char_traits<char>,std::allocator<char> > const ,FuzzyVariable *>,void *> > >::~_Tree_temp_node_alloc<std::allocator<std::_Tree_node<std::pair<std::basic_string<char,std::char_traits<char>,std::allocator<char> > const ,FuzzyVariable *>,void *> > >
PUBLIC	??1?$_Tree_temp_node@V?$allocator@U?$_Tree_node@U?$pair@$$CBV?$basic_string@DU?$char_traits@D@std@@V?$allocator@D@2@@std@@PAVFuzzyVariable@@@std@@PAX@std@@@std@@@std@@QAE@XZ ; std::_Tree_temp_node<std::allocator<std::_Tree_node<std::pair<std::basic_string<char,std::char_traits<char>,std::allocator<char> > const ,FuzzyVariable *>,void *> > >::~_Tree_temp_node<std::allocator<std::_Tree_node<std::pair<std::basic_string<char,std::char_traits<char>,std::allocator<char> > const ,FuzzyVariable *>,void *> > >
PUBLIC	??$?0ABUpiecewise_construct_t@std@@V?$tuple@ABV?$basic_string@DU?$char_traits@D@std@@V?$allocator@D@2@@std@@@1@V?$tuple@$$V@1@@?$_Tree_temp_node@V?$allocator@U?$_Tree_node@U?$pair@$$CBV?$basic_string@DU?$char_traits@D@std@@V?$allocator@D@2@@std@@PAVFuzzyVariable@@@std@@PAX@std@@@std@@@std@@QAE@AAV?$allocator@U?$_Tree_node@U?$pair@$$CBV?$basic_string@DU?$char_traits@D@std@@V?$allocator@D@2@@std@@PAVFuzzyVariable@@@std@@PAX@std@@@1@PAU?$_Tree_node@U?$pair@$$CBV?$basic_string@DU?$char_traits@D@std@@V?$allocator@D@2@@std@@PAVFuzzyVariable@@@std@@PAX@1@ABUpiecewise_construct_t@1@$$QAV?$tuple@ABV?$basic_string@DU?$char_traits@D@std@@V?$allocator@D@2@@std@@@1@$$QAV?$tuple@$$V@1@@Z ; std::_Tree_temp_node<std::allocator<std::_Tree_node<std::pair<std::basic_string<char,std::char_traits<char>,std::allocator<char> > const ,FuzzyVariable *>,void *> > >::_Tree_temp_node<std::allocator<std::_Tree_node<std::pair<std::basic_string<char,std::char_traits<char>,std::allocator<char> > const ,FuzzyVariable *>,void *> > ><std::piecewise_construct_t const &,std::tuple<std::basic_string<char,std::char_traits<char>,std::allocator<char> > const &>,std::tuple<> >
PUBLIC	??$?0PAU?$_Tree_node@U?$pair@$$CBV?$basic_string@DU?$char_traits@D@std@@V?$allocator@D@2@@std@@PAVFuzzyVariable@@@std@@PAX@std@@_N$0A@@?$pair@PAU?$_Tree_node@U?$pair@$$CBV?$basic_string@DU?$char_traits@D@std@@V?$allocator@D@2@@std@@PAVFuzzyVariable@@@std@@PAX@std@@_N@std@@QAE@$$QAPAU?$_Tree_node@U?$pair@$$CBV?$basic_string@DU?$char_traits@D@std@@V?$allocator@D@2@@std@@PAVFuzzyVariable@@@std@@PAX@1@$$QA_N@Z ; std::pair<std::_Tree_node<std::pair<std::basic_string<char,std::char_traits<char>,std::allocator<char> > const ,FuzzyVariable *>,void *> *,bool>::pair<std::_Tree_node<std::pair<std::basic_string<char,std::char_traits<char>,std::allocator<char> > const ,FuzzyVariable *>,void *> *,bool><std::_Tree_node<std::pair<std::basic_string<char,std::char_traits<char>,std::allocator<char> > const ,FuzzyVariable *>,void *> *,bool,0>
PUBLIC	??0?$_Container_proxy_ptr12@V?$allocator@U_Container_proxy@std@@@std@@@std@@QAE@AAV?$allocator@U_Container_proxy@std@@@1@AAU_Container_base12@1@@Z ; std::_Container_proxy_ptr12<std::allocator<std::_Container_proxy> >::_Container_proxy_ptr12<std::allocator<std::_Container_proxy> >
PUBLIC	??1?$_Container_proxy_ptr12@V?$allocator@U_Container_proxy@std@@@std@@@std@@QAE@XZ ; std::_Container_proxy_ptr12<std::allocator<std::_Container_proxy> >::~_Container_proxy_ptr12<std::allocator<std::_Container_proxy> >
PUBLIC	??$_Unfancy@U_Container_proxy@std@@@std@@YAPAU_Container_proxy@0@PAU10@@Z ; std::_Unfancy<std::_Container_proxy>
PUBLIC	??$_Construct_in_place@U_Container_proxy@std@@PAU_Container_base12@2@@std@@YAXAAU_Container_proxy@0@$$QAPAU_Container_base12@0@@Z ; std::_Construct_in_place<std::_Container_proxy,std::_Container_base12 *>
PUBLIC	??$forward@V?$allocator@D@std@@@std@@YA$$QAV?$allocator@D@0@AAV10@@Z ; std::forward<std::allocator<char> >
PUBLIC	??$_Allocate_for_capacity@$0A@@?$basic_string@DU?$char_traits@D@std@@V?$allocator@D@2@@std@@CAPADAAV?$allocator@D@1@AAI@Z ; std::basic_string<char,std::char_traits<char>,std::allocator<char> >::_Allocate_for_capacity<0>
PUBLIC	??$_Construct_in_place@PADABQAD@std@@YAXAAPADABQAD@Z ; std::_Construct_in_place<char *,char * const &>
PUBLIC	??$_Unfancy@D@std@@YAPADPAD@Z			; std::_Unfancy<char>
PUBLIC	??$addressof@U?$pair@$$CBV?$basic_string@DU?$char_traits@D@std@@V?$allocator@D@2@@std@@PAVFuzzyVariable@@@std@@@std@@YAPAU?$pair@$$CBV?$basic_string@DU?$char_traits@D@std@@V?$allocator@D@2@@std@@PAVFuzzyVariable@@@0@AAU10@@Z ; std::addressof<std::pair<std::basic_string<char,std::char_traits<char>,std::allocator<char> > const ,FuzzyVariable *> >
PUBLIC	??$exchange@PAV_Facet_base@std@@$$T@std@@YAPAV_Facet_base@0@AAPAV10@$$QA$$T@Z ; std::exchange<std::_Facet_base *,std::nullptr_t>
PUBLIC	??$addressof@V?$basic_ostream@DU?$char_traits@D@std@@@std@@@std@@YAPAV?$basic_ostream@DU?$char_traits@D@std@@@0@AAV10@@Z ; std::addressof<std::basic_ostream<char,std::char_traits<char> > >
PUBLIC	??$_Destroy_range@V?$allocator@PAVFuzzyRule@@@std@@@std@@YAXPAPAVFuzzyRule@@QAPAV1@AAV?$allocator@PAVFuzzyRule@@@0@@Z ; std::_Destroy_range<std::allocator<FuzzyRule *> >
PUBLIC	??$addressof@V?$_Tree_val@U?$_Tree_simple_types@U?$pair@$$CBV?$basic_string@DU?$char_traits@D@std@@V?$allocator@D@2@@std@@PAVFuzzyVariable@@@std@@@std@@@std@@@std@@YAPAV?$_Tree_val@U?$_Tree_simple_types@U?$pair@$$CBV?$basic_string@DU?$char_traits@D@std@@V?$allocator@D@2@@std@@PAVFuzzyVariable@@@std@@@std@@@0@AAV10@@Z ; std::addressof<std::_Tree_val<std::_Tree_simple_types<std::pair<std::basic_string<char,std::char_traits<char>,std::allocator<char> > const ,FuzzyVariable *> > > >
PUBLIC	??$addressof@V?$_Tree_val@U?$_Tree_simple_types@U?$pair@$$CBV?$basic_string@DU?$char_traits@D@std@@V?$allocator@D@2@@std@@PAVFuzzySet@@@std@@@std@@@std@@@std@@YAPAV?$_Tree_val@U?$_Tree_simple_types@U?$pair@$$CBV?$basic_string@DU?$char_traits@D@std@@V?$allocator@D@2@@std@@PAVFuzzySet@@@std@@@std@@@0@AAV10@@Z ; std::addressof<std::_Tree_val<std::_Tree_simple_types<std::pair<std::basic_string<char,std::char_traits<char>,std::allocator<char> > const ,FuzzySet *> > > >
PUBLIC	??$?0ABU?$less@V?$basic_string@DU?$char_traits@D@std@@V?$allocator@D@2@@std@@@std@@U_Zero_then_variadic_args_t@1@@?$_Compressed_pair@U?$less@V?$basic_string@DU?$char_traits@D@std@@V?$allocator@D@2@@std@@@std@@V?$_Compressed_pair@V?$allocator@U?$_Tree_node@U?$pair@$$CBV?$basic_string@DU?$char_traits@D@std@@V?$allocator@D@2@@std@@PAVFuzzySet@@@std@@PAX@std@@@std@@V?$_Tree_val@U?$_Tree_simple_types@U?$pair@$$CBV?$basic_string@DU?$char_traits@D@std@@V?$allocator@D@2@@std@@PAVFuzzySet@@@std@@@std@@@2@$00@2@$00@std@@QAE@U_One_then_variadic_args_t@1@ABU?$less@V?$basic_string@DU?$char_traits@D@std@@V?$allocator@D@2@@std@@@1@$$QAU_Zero_then_variadic_args_t@1@@Z ; std::_Compressed_pair<std::less<std::basic_string<char,std::char_traits<char>,std::allocator<char> > >,std::_Compressed_pair<std::allocator<std::_Tree_node<std::pair<std::basic_string<char,std::char_traits<char>,std::allocator<char> > const ,FuzzySet *>,void *> >,std::_Tree_val<std::_Tree_simple_types<std::pair<std::basic_string<char,std::char_traits<char>,std::allocator<char> > const ,FuzzySet *> > >,1>,1>::_Compressed_pair<std::less<std::basic_string<char,std::char_traits<char>,std::allocator<char> > >,std::_Compressed_pair<std::allocator<std::_Tree_node<std::pair<std::basic_string<char,std::char_traits<char>,std::allocator<char> > const ,FuzzySet *>,void *> >,std::_Tree_val<std::_Tree_simple_types<std::pair<std::basic_string<char,std::char_traits<char>,std::allocator<char> > const ,FuzzySet *> > >,1>,1><std::less<std::basic_string<char,std::char_traits<char>,std::allocator<char> > > const &,std::_Zero_then_variadic_args_t>
PUBLIC	??$?0$$V@?$_Compressed_pair@V?$allocator@U?$_Tree_node@U?$pair@$$CBV?$basic_string@DU?$char_traits@D@std@@V?$allocator@D@2@@std@@PAVFuzzySet@@@std@@PAX@std@@@std@@V?$_Tree_val@U?$_Tree_simple_types@U?$pair@$$CBV?$basic_string@DU?$char_traits@D@std@@V?$allocator@D@2@@std@@PAVFuzzySet@@@std@@@std@@@2@$00@std@@QAE@U_Zero_then_variadic_args_t@1@@Z ; std::_Compressed_pair<std::allocator<std::_Tree_node<std::pair<std::basic_string<char,std::char_traits<char>,std::allocator<char> > const ,FuzzySet *>,void *> >,std::_Tree_val<std::_Tree_simple_types<std::pair<std::basic_string<char,std::char_traits<char>,std::allocator<char> > const ,FuzzySet *> > >,1>::_Compressed_pair<std::allocator<std::_Tree_node<std::pair<std::basic_string<char,std::char_traits<char>,std::allocator<char> > const ,FuzzySet *>,void *> >,std::_Tree_val<std::_Tree_simple_types<std::pair<std::basic_string<char,std::char_traits<char>,std::allocator<char> > const ,FuzzySet *> > >,1><>
PUBLIC	??R<lambda_ab246b20b9526e2ef7792587e4298a77>@@QBE@QADQBDI1I@Z ; <lambda_ab246b20b9526e2ef7792587e4298a77>::operator()
PUBLIC	??$_Reallocate_grow_by@V<lambda_ab246b20b9526e2ef7792587e4298a77>@@PBDI@?$basic_string@DU?$char_traits@D@std@@V?$allocator@D@2@@std@@AAEAAV01@IV<lambda_ab246b20b9526e2ef7792587e4298a77>@@PBDI@Z ; std::basic_string<char,std::char_traits<char>,std::allocator<char> >::_Reallocate_grow_by<<lambda_ab246b20b9526e2ef7792587e4298a77>,char const *,unsigned int>
PUBLIC	??$addressof@V?$_String_val@U?$_Simple_types@D@std@@@std@@@std@@YAPAV?$_String_val@U?$_Simple_types@D@std@@@0@AAV10@@Z ; std::addressof<std::_String_val<std::_Simple_types<char> > >
PUBLIC	??$_Construct_in_place@PADAAPAD@std@@YAXAAPAD0@Z ; std::_Construct_in_place<char *,char * &>
PUBLIC	??$forward@AAPAV_Facet_base@std@@@std@@YAAAPAV_Facet_base@0@AAPAV10@@Z ; std::forward<std::_Facet_base * &>
PUBLIC	??$_Construct_in_place@PAVFuzzyRule@@PAV1@@std@@YAXAAPAVFuzzyRule@@$$QAPAV1@@Z ; std::_Construct_in_place<FuzzyRule *,FuzzyRule *>
PUBLIC	??$_Allocate_at_least_helper@V?$allocator@PAVFuzzyRule@@@std@@@std@@YAPAPAVFuzzyRule@@AAV?$allocator@PAVFuzzyRule@@@0@AAI@Z ; std::_Allocate_at_least_helper<std::allocator<FuzzyRule *> >
PUBLIC	??1_Reallocation_guard@?$vector@PAVFuzzyRule@@V?$allocator@PAVFuzzyRule@@@std@@@std@@QAE@XZ ; std::vector<FuzzyRule *,std::allocator<FuzzyRule *> >::_Reallocation_guard::~_Reallocation_guard
PUBLIC	??$_Unfancy@PAVFuzzyRule@@@std@@YAPAPAVFuzzyRule@@PAPAV1@@Z ; std::_Unfancy<FuzzyRule *>
PUBLIC	??$construct@PAVFuzzyRule@@PAV1@@?$_Default_allocator_traits@V?$allocator@PAVFuzzyRule@@@std@@@std@@SAXAAV?$allocator@PAVFuzzyRule@@@1@QAPAVFuzzyRule@@$$QAPAV3@@Z ; std::_Default_allocator_traits<std::allocator<FuzzyRule *> >::construct<FuzzyRule *,FuzzyRule *>
PUBLIC	??$_Uninitialized_move@PAPAVFuzzyRule@@V?$allocator@PAVFuzzyRule@@@std@@@std@@YAPAPAVFuzzyRule@@QAPAV1@0PAPAV1@AAV?$allocator@PAVFuzzyRule@@@0@@Z ; std::_Uninitialized_move<FuzzyRule * *,std::allocator<FuzzyRule *> >
PUBLIC	?deallocate@?$_Default_allocator_traits@V?$allocator@U_Container_proxy@std@@@std@@@std@@SAXAAV?$allocator@U_Container_proxy@std@@@2@QAU_Container_proxy@2@I@Z ; std::_Default_allocator_traits<std::allocator<std::_Container_proxy> >::deallocate
PUBLIC	??$_Kfn@$$CBV?$basic_string@DU?$char_traits@D@std@@V?$allocator@D@2@@std@@PAVFuzzyVariable@@@?$_Tmap_traits@V?$basic_string@DU?$char_traits@D@std@@V?$allocator@D@2@@std@@PAVFuzzyVariable@@U?$less@V?$basic_string@DU?$char_traits@D@std@@V?$allocator@D@2@@std@@@2@V?$allocator@U?$pair@$$CBV?$basic_string@DU?$char_traits@D@std@@V?$allocator@D@2@@std@@PAVFuzzyVariable@@@std@@@2@$0A@@std@@SAABV?$basic_string@DU?$char_traits@D@std@@V?$allocator@D@2@@1@ABU?$pair@$$CBV?$basic_string@DU?$char_traits@D@std@@V?$allocator@D@2@@std@@PAVFuzzyVariable@@@1@@Z ; std::_Tmap_traits<std::basic_string<char,std::char_traits<char>,std::allocator<char> >,FuzzyVariable *,std::less<std::basic_string<char,std::char_traits<char>,std::allocator<char> > >,std::allocator<std::pair<std::basic_string<char,std::char_traits<char>,std::allocator<char> > const ,FuzzyVariable *> >,0>::_Kfn<std::basic_string<char,std::char_traits<char>,std::allocator<char> > const ,FuzzyVariable *>
PUBLIC	??$_Debug_lt_pred@ABU?$less@V?$basic_string@DU?$char_traits@D@std@@V?$allocator@D@2@@std@@@std@@ABV?$basic_string@DU?$char_traits@D@std@@V?$allocator@D@2@@2@ABV32@@std@@YA_NABU?$less@V?$basic_string@DU?$char_traits@D@std@@V?$allocator@D@2@@std@@@0@ABV?$basic_string@DU?$char_traits@D@std@@V?$allocator@D@2@@0@1@Z ; std::_Debug_lt_pred<std::less<std::basic_string<char,std::char_traits<char>,std::allocator<char> > > const &,std::basic_string<char,std::char_traits<char>,std::allocator<char> > const &,std::basic_string<char,std::char_traits<char>,std::allocator<char> > const &>
PUBLIC	??$?MDU?$char_traits@D@std@@V?$allocator@D@1@@std@@YA_NABV?$basic_string@DU?$char_traits@D@std@@V?$allocator@D@2@@0@0@Z ; std::operator<<char,std::char_traits<char>,std::allocator<char> >
PUBLIC	??$exchange@PAU?$_Tree_node@U?$pair@$$CBV?$basic_string@DU?$char_traits@D@std@@V?$allocator@D@2@@std@@PAVFuzzyVariable@@@std@@PAX@std@@AAPAU12@@std@@YAPAU?$_Tree_node@U?$pair@$$CBV?$basic_string@DU?$char_traits@D@std@@V?$allocator@D@2@@std@@PAVFuzzyVariable@@@std@@PAX@0@AAPAU10@0@Z ; std::exchange<std::_Tree_node<std::pair<std::basic_string<char,std::char_traits<char>,std::allocator<char> > const ,FuzzyVariable *>,void *> *,std::_Tree_node<std::pair<std::basic_string<char,std::char_traits<char>,std::allocator<char> > const ,FuzzyVariable *>,void *> * &>
PUBLIC	??$_Freenode@V?$allocator@U?$_Tree_node@U?$pair@$$CBV?$basic_string@DU?$char_traits@D@std@@V?$allocator@D@2@@std@@PAVFuzzyVariable@@@std@@PAX@std@@@std@@@?$_Tree_node@U?$pair@$$CBV?$basic_string@DU?$char_traits@D@std@@V?$allocator@D@2@@std@@PAVFuzzyVariable@@@std@@PAX@std@@SAXAAV?$allocator@U?$_Tree_node@U?$pair@$$CBV?$basic_string@DU?$char_traits@D@std@@V?$allocator@D@2@@std@@PAVFuzzyVariable@@@std@@PAX@std@@@1@PAU01@@Z ; std::_Tree_node<std::pair<std::basic_string<char,std::char_traits<char>,std::allocator<char> > const ,FuzzyVariable *>,void *>::_Freenode<std::allocator<std::_Tree_node<std::pair<std::basic_string<char,std::char_traits<char>,std::allocator<char> > const ,FuzzyVariable *>,void *> > >
PUBLIC	??$_Destroy_in_place@PAU?$_Tree_node@U?$pair@$$CBV?$basic_string@DU?$char_traits@D@std@@V?$allocator@D@2@@std@@PAVFuzzyVariable@@@std@@PAX@std@@@std@@YAXAAPAU?$_Tree_node@U?$pair@$$CBV?$basic_string@DU?$char_traits@D@std@@V?$allocator@D@2@@std@@PAVFuzzyVariable@@@std@@PAX@0@@Z ; std::_Destroy_in_place<std::_Tree_node<std::pair<std::basic_string<char,std::char_traits<char>,std::allocator<char> > const ,FuzzyVariable *>,void *> *>
PUBLIC	??$forward@ABQAU?$_Tree_node@U?$pair@$$CBV?$basic_string@DU?$char_traits@D@std@@V?$allocator@D@2@@std@@PAVFuzzyVariable@@@std@@PAX@std@@@std@@YAABQAU?$_Tree_node@U?$pair@$$CBV?$basic_string@DU?$char_traits@D@std@@V?$allocator@D@2@@std@@PAVFuzzyVariable@@@std@@PAX@0@ABQAU10@@Z ; std::forward<std::_Tree_node<std::pair<std::basic_string<char,std::char_traits<char>,std::allocator<char> > const ,FuzzyVariable *>,void *> * const &>
PUBLIC	??$forward@_N@std@@YA$$QA_NAA_N@Z		; std::forward<bool>
PUBLIC	??$?0ABV?$basic_string@DU?$char_traits@D@std@@V?$allocator@D@2@@std@@$0A@@?$tuple@ABV?$basic_string@DU?$char_traits@D@std@@V?$allocator@D@2@@std@@@std@@QAE@ABV?$basic_string@DU?$char_traits@D@std@@V?$allocator@D@2@@1@@Z ; std::tuple<std::basic_string<char,std::char_traits<char>,std::allocator<char> > const &>::tuple<std::basic_string<char,std::char_traits<char>,std::allocator<char> > const &><std::basic_string<char,std::char_traits<char>,std::allocator<char> > const &,0>
PUBLIC	??$forward@ABUpiecewise_construct_t@std@@@std@@YAABUpiecewise_construct_t@0@ABU10@@Z ; std::forward<std::piecewise_construct_t const &>
PUBLIC	??$forward@V?$tuple@ABV?$basic_string@DU?$char_traits@D@std@@V?$allocator@D@2@@std@@@std@@@std@@YA$$QAV?$tuple@ABV?$basic_string@DU?$char_traits@D@std@@V?$allocator@D@2@@std@@@0@AAV10@@Z ; std::forward<std::tuple<std::basic_string<char,std::char_traits<char>,std::allocator<char> > const &> >
PUBLIC	??$forward@V?$tuple@$$V@std@@@std@@YA$$QAV?$tuple@$$V@0@AAV10@@Z ; std::forward<std::tuple<> >
PUBLIC	??$construct@U?$pair@$$CBV?$basic_string@DU?$char_traits@D@std@@V?$allocator@D@2@@std@@PAVFuzzyVariable@@@std@@ABUpiecewise_construct_t@2@V?$tuple@ABV?$basic_string@DU?$char_traits@D@std@@V?$allocator@D@2@@std@@@2@V?$tuple@$$V@2@@?$_Default_allocator_traits@V?$allocator@U?$_Tree_node@U?$pair@$$CBV?$basic_string@DU?$char_traits@D@std@@V?$allocator@D@2@@std@@PAVFuzzyVariable@@@std@@PAX@std@@@std@@@std@@SAXAAV?$allocator@U?$_Tree_node@U?$pair@$$CBV?$basic_string@DU?$char_traits@D@std@@V?$allocator@D@2@@std@@PAVFuzzyVariable@@@std@@PAX@std@@@1@QAU?$pair@$$CBV?$basic_string@DU?$char_traits@D@std@@V?$allocator@D@2@@std@@PAVFuzzyVariable@@@1@ABUpiecewise_construct_t@1@$$QAV?$tuple@ABV?$basic_string@DU?$char_traits@D@std@@V?$allocator@D@2@@std@@@1@$$QAV?$tuple@$$V@1@@Z ; std::_Default_allocator_traits<std::allocator<std::_Tree_node<std::pair<std::basic_string<char,std::char_traits<char>,std::allocator<char> > const ,FuzzyVariable *>,void *> > >::construct<std::pair<std::basic_string<char,std::char_traits<char>,std::allocator<char> > const ,FuzzyVariable *>,std::piecewise_construct_t const &,std::tuple<std::basic_string<char,std::char_traits<char>,std::allocator<char> > const &>,std::tuple<> >
PUBLIC	??$_Construct_in_place@PAU?$_Tree_node@U?$pair@$$CBV?$basic_string@DU?$char_traits@D@std@@V?$allocator@D@2@@std@@PAVFuzzyVariable@@@std@@PAX@std@@AAPAU12@@std@@YAXAAPAU?$_Tree_node@U?$pair@$$CBV?$basic_string@DU?$char_traits@D@std@@V?$allocator@D@2@@std@@PAVFuzzyVariable@@@std@@PAX@0@0@Z ; std::_Construct_in_place<std::_Tree_node<std::pair<std::basic_string<char,std::char_traits<char>,std::allocator<char> > const ,FuzzyVariable *>,void *> *,std::_Tree_node<std::pair<std::basic_string<char,std::char_traits<char>,std::allocator<char> > const ,FuzzyVariable *>,void *> * &>
PUBLIC	??$forward@PAU?$_Tree_node@U?$pair@$$CBV?$basic_string@DU?$char_traits@D@std@@V?$allocator@D@2@@std@@PAVFuzzyVariable@@@std@@PAX@std@@@std@@YA$$QAPAU?$_Tree_node@U?$pair@$$CBV?$basic_string@DU?$char_traits@D@std@@V?$allocator@D@2@@std@@PAVFuzzyVariable@@@std@@PAX@0@AAPAU10@@Z ; std::forward<std::_Tree_node<std::pair<std::basic_string<char,std::char_traits<char>,std::allocator<char> > const ,FuzzyVariable *>,void *> *>
PUBLIC	??$addressof@U_Container_proxy@std@@@std@@YAPAU_Container_proxy@0@AAU10@@Z ; std::addressof<std::_Container_proxy>
PUBLIC	??$forward@PAU_Container_base12@std@@@std@@YA$$QAPAU_Container_base12@0@AAPAU10@@Z ; std::forward<std::_Container_base12 *>
PUBLIC	??$_Allocate_at_least_helper@V?$allocator@D@std@@@std@@YAPADAAV?$allocator@D@0@AAI@Z ; std::_Allocate_at_least_helper<std::allocator<char> >
PUBLIC	??$addressof@PAD@std@@YAPAPADAAPAD@Z		; std::addressof<char *>
PUBLIC	??$forward@ABQAD@std@@YAABQADABQAD@Z		; std::forward<char * const &>
PUBLIC	??$forward@ABU?$less@V?$basic_string@DU?$char_traits@D@std@@V?$allocator@D@2@@std@@@std@@@std@@YAABU?$less@V?$basic_string@DU?$char_traits@D@std@@V?$allocator@D@2@@std@@@0@ABU10@@Z ; std::forward<std::less<std::basic_string<char,std::char_traits<char>,std::allocator<char> > > const &>
PUBLIC	??$forward@U_Zero_then_variadic_args_t@std@@@std@@YA$$QAU_Zero_then_variadic_args_t@0@AAU10@@Z ; std::forward<std::_Zero_then_variadic_args_t>
PUBLIC	??$forward@AAPAD@std@@YAAAPADAAPAD@Z		; std::forward<char * &>
PUBLIC	??$addressof@U_Container_base12@std@@@std@@YAPAU_Container_base12@0@AAU10@@Z ; std::addressof<std::_Container_base12>
PUBLIC	??$exchange@PAU?$_Tree_node@U?$pair@$$CBV?$basic_string@DU?$char_traits@D@std@@V?$allocator@D@2@@std@@PAVFuzzyVariable@@@std@@PAX@std@@$$T@std@@YAPAU?$_Tree_node@U?$pair@$$CBV?$basic_string@DU?$char_traits@D@std@@V?$allocator@D@2@@std@@PAVFuzzyVariable@@@std@@PAX@0@AAPAU10@$$QA$$T@Z ; std::exchange<std::_Tree_node<std::pair<std::basic_string<char,std::char_traits<char>,std::allocator<char> > const ,FuzzyVariable *>,void *> *,std::nullptr_t>
PUBLIC	??$destroy@U?$pair@$$CBV?$basic_string@DU?$char_traits@D@std@@V?$allocator@D@2@@std@@PAVFuzzyVariable@@@std@@@?$_Default_allocator_traits@V?$allocator@U?$_Tree_node@U?$pair@$$CBV?$basic_string@DU?$char_traits@D@std@@V?$allocator@D@2@@std@@PAVFuzzyVariable@@@std@@PAX@std@@@std@@@std@@SAXAAV?$allocator@U?$_Tree_node@U?$pair@$$CBV?$basic_string@DU?$char_traits@D@std@@V?$allocator@D@2@@std@@PAVFuzzyVariable@@@std@@PAX@std@@@1@QAU?$pair@$$CBV?$basic_string@DU?$char_traits@D@std@@V?$allocator@D@2@@std@@PAVFuzzyVariable@@@1@@Z ; std::_Default_allocator_traits<std::allocator<std::_Tree_node<std::pair<std::basic_string<char,std::char_traits<char>,std::allocator<char> > const ,FuzzyVariable *>,void *> > >::destroy<std::pair<std::basic_string<char,std::char_traits<char>,std::allocator<char> > const ,FuzzyVariable *> >
PUBLIC	??$max@I@std@@YAABIABI0@Z			; std::max<unsigned int>
PUBLIC	??$_Get_size_of_n@$07@std@@YAII@Z		; std::_Get_size_of_n<8>
PUBLIC	??$_Allocate@$07U_Default_allocate_traits@std@@@std@@YAPAXI@Z ; std::_Allocate<8,std::_Default_allocate_traits>
PUBLIC	??$_Deallocate@$07@std@@YAXPAXI@Z		; std::_Deallocate<8>
PUBLIC	??$addressof@$$CBV?$_Tree_val@U?$_Tree_simple_types@U?$pair@$$CBV?$basic_string@DU?$char_traits@D@std@@V?$allocator@D@2@@std@@PAVFuzzyVariable@@@std@@@std@@@std@@@std@@YAPBV?$_Tree_val@U?$_Tree_simple_types@U?$pair@$$CBV?$basic_string@DU?$char_traits@D@std@@V?$allocator@D@2@@std@@PAVFuzzyVariable@@@std@@@std@@@0@ABV10@@Z ; std::addressof<std::_Tree_val<std::_Tree_simple_types<std::pair<std::basic_string<char,std::char_traits<char>,std::allocator<char> > const ,FuzzyVariable *> > > const >
PUBLIC	??$_Buyheadnode@V?$allocator@U?$_Tree_node@U?$pair@$$CBV?$basic_string@DU?$char_traits@D@std@@V?$allocator@D@2@@std@@PAVFuzzySet@@@std@@PAX@std@@@std@@@?$_Tree_node@U?$pair@$$CBV?$basic_string@DU?$char_traits@D@std@@V?$allocator@D@2@@std@@PAVFuzzySet@@@std@@PAX@std@@SAPAU01@AAV?$allocator@U?$_Tree_node@U?$pair@$$CBV?$basic_string@DU?$char_traits@D@std@@V?$allocator@D@2@@std@@PAVFuzzySet@@@std@@PAX@std@@@1@@Z ; std::_Tree_node<std::pair<std::basic_string<char,std::char_traits<char>,std::allocator<char> > const ,FuzzySet *>,void *>::_Buyheadnode<std::allocator<std::_Tree_node<std::pair<std::basic_string<char,std::char_traits<char>,std::allocator<char> > const ,FuzzySet *>,void *> > >
PUBLIC	??$_Destroy_in_place@PAD@std@@YAXAAPAD@Z	; std::_Destroy_in_place<char *>
PUBLIC	??$_Max_limit@H@std@@YAHXZ			; std::_Max_limit<int>
PUBLIC	??$addressof@PAVFuzzyRule@@@std@@YAPAPAVFuzzyRule@@AAPAV1@@Z ; std::addressof<FuzzyRule *>
PUBLIC	??$_Get_unwrapped@ABQAPAVFuzzyRule@@@std@@YA?A_TABQAPAVFuzzyRule@@@Z ; std::_Get_unwrapped<FuzzyRule * * const &>
PUBLIC	??$_Copy_memmove@PAPAVFuzzyRule@@PAPAV1@@std@@YAPAPAVFuzzyRule@@PAPAV1@00@Z ; std::_Copy_memmove<FuzzyRule * *,FuzzyRule * *>
PUBLIC	??0?$_Uninitialized_backout_al@V?$allocator@PAVFuzzyRule@@@std@@@std@@QAE@PAPAVFuzzyRule@@AAV?$allocator@PAVFuzzyRule@@@1@@Z ; std::_Uninitialized_backout_al<std::allocator<FuzzyRule *> >::_Uninitialized_backout_al<std::allocator<FuzzyRule *> >
PUBLIC	??1?$_Uninitialized_backout_al@V?$allocator@PAVFuzzyRule@@@std@@@std@@QAE@XZ ; std::_Uninitialized_backout_al<std::allocator<FuzzyRule *> >::~_Uninitialized_backout_al<std::allocator<FuzzyRule *> >
PUBLIC	?_Release@?$_Uninitialized_backout_al@V?$allocator@PAVFuzzyRule@@@std@@@std@@QAEPAPAVFuzzyRule@@XZ ; std::_Uninitialized_backout_al<std::allocator<FuzzyRule *> >::_Release
PUBLIC	??$_Emplace_back@PAVFuzzyRule@@@?$_Uninitialized_backout_al@V?$allocator@PAVFuzzyRule@@@std@@@std@@QAEX$$QAPAVFuzzyRule@@@Z ; std::_Uninitialized_backout_al<std::allocator<FuzzyRule *> >::_Emplace_back<FuzzyRule *>
PUBLIC	??$?0U_Exact_args_t@std@@ABV?$basic_string@DU?$char_traits@D@std@@V?$allocator@D@2@@1@$$V$0A@@?$tuple@ABV?$basic_string@DU?$char_traits@D@std@@V?$allocator@D@2@@std@@@std@@QAE@U_Exact_args_t@1@ABV?$basic_string@DU?$char_traits@D@std@@V?$allocator@D@2@@1@@Z ; std::tuple<std::basic_string<char,std::char_traits<char>,std::allocator<char> > const &>::tuple<std::basic_string<char,std::char_traits<char>,std::allocator<char> > const &><std::_Exact_args_t,std::basic_string<char,std::char_traits<char>,std::allocator<char> > const &,0>
PUBLIC	??$?0ABV?$basic_string@DU?$char_traits@D@std@@V?$allocator@D@2@@std@@$$Z$$V@?$pair@$$CBV?$basic_string@DU?$char_traits@D@std@@V?$allocator@D@2@@std@@PAVFuzzyVariable@@@std@@QAE@Upiecewise_construct_t@1@V?$tuple@ABV?$basic_string@DU?$char_traits@D@std@@V?$allocator@D@2@@std@@@1@V?$tuple@$$V@1@@Z ; std::pair<std::basic_string<char,std::char_traits<char>,std::allocator<char> > const ,FuzzyVariable *>::pair<std::basic_string<char,std::char_traits<char>,std::allocator<char> > const ,FuzzyVariable *><std::basic_string<char,std::char_traits<char>,std::allocator<char> > const &>
PUBLIC	??$addressof@PAU?$_Tree_node@U?$pair@$$CBV?$basic_string@DU?$char_traits@D@std@@V?$allocator@D@2@@std@@PAVFuzzyVariable@@@std@@PAX@std@@@std@@YAPAPAU?$_Tree_node@U?$pair@$$CBV?$basic_string@DU?$char_traits@D@std@@V?$allocator@D@2@@std@@PAVFuzzyVariable@@@std@@PAX@0@AAPAU10@@Z ; std::addressof<std::_Tree_node<std::pair<std::basic_string<char,std::char_traits<char>,std::allocator<char> > const ,FuzzyVariable *>,void *> *>
PUBLIC	??$forward@AAPAU?$_Tree_node@U?$pair@$$CBV?$basic_string@DU?$char_traits@D@std@@V?$allocator@D@2@@std@@PAVFuzzyVariable@@@std@@PAX@std@@@std@@YAAAPAU?$_Tree_node@U?$pair@$$CBV?$basic_string@DU?$char_traits@D@std@@V?$allocator@D@2@@std@@PAVFuzzyVariable@@@std@@PAX@0@AAPAU10@@Z ; std::forward<std::_Tree_node<std::pair<std::basic_string<char,std::char_traits<char>,std::allocator<char> > const ,FuzzyVariable *>,void *> * &>
PUBLIC	??$_Allocate_manually_vector_aligned@U_Default_allocate_traits@std@@@std@@YAPAXI@Z ; std::_Allocate_manually_vector_aligned<std::_Default_allocate_traits>
PUBLIC	??$_Construct_in_place@PAU?$_Tree_node@U?$pair@$$CBV?$basic_string@DU?$char_traits@D@std@@V?$allocator@D@2@@std@@PAVFuzzySet@@@std@@PAX@std@@ABQAU12@@std@@YAXAAPAU?$_Tree_node@U?$pair@$$CBV?$basic_string@DU?$char_traits@D@std@@V?$allocator@D@2@@std@@PAVFuzzySet@@@std@@PAX@0@ABQAU10@@Z ; std::_Construct_in_place<std::_Tree_node<std::pair<std::basic_string<char,std::char_traits<char>,std::allocator<char> > const ,FuzzySet *>,void *> *,std::_Tree_node<std::pair<std::basic_string<char,std::char_traits<char>,std::allocator<char> > const ,FuzzySet *>,void *> * const &>
PUBLIC	??$_To_address@PAPAVFuzzyRule@@@std@@YA?A_PABQAPAVFuzzyRule@@@Z ; std::_To_address<FuzzyRule * *>
PUBLIC	??$move@AAPAPAVFuzzyRule@@@std@@YA$$QAPAPAVFuzzyRule@@AAPAPAV1@@Z ; std::move<FuzzyRule * * &>
PUBLIC	??$_Copy_memmove_tail@PAPAVFuzzyRule@@@std@@YAPAPAVFuzzyRule@@QBDQAPAV1@II@Z ; std::_Copy_memmove_tail<FuzzyRule * *>
PUBLIC	??$?0U_Exact_args_t@std@@$0A@@?$tuple@$$V@std@@QAE@U_Exact_args_t@1@@Z ; std::tuple<>::tuple<><std::_Exact_args_t,0>
PUBLIC	??$?0ABV?$basic_string@DU?$char_traits@D@std@@V?$allocator@D@2@@std@@@?$_Tuple_val@ABV?$basic_string@DU?$char_traits@D@std@@V?$allocator@D@2@@std@@@std@@QAE@ABV?$basic_string@DU?$char_traits@D@std@@V?$allocator@D@2@@1@@Z ; std::_Tuple_val<std::basic_string<char,std::char_traits<char>,std::allocator<char> > const &>::_Tuple_val<std::basic_string<char,std::char_traits<char>,std::allocator<char> > const &><std::basic_string<char,std::char_traits<char>,std::allocator<char> > const &>
PUBLIC	??$?0V?$tuple@ABV?$basic_string@DU?$char_traits@D@std@@V?$allocator@D@2@@std@@@std@@V?$tuple@$$V@1@$0A@$$Z$S@?$pair@$$CBV?$basic_string@DU?$char_traits@D@std@@V?$allocator@D@2@@std@@PAVFuzzyVariable@@@std@@AAE@AAV?$tuple@ABV?$basic_string@DU?$char_traits@D@std@@V?$allocator@D@2@@std@@@1@AAV?$tuple@$$V@1@U?$integer_sequence@I$0A@@1@U?$integer_sequence@I$S@1@@Z ; std::pair<std::basic_string<char,std::char_traits<char>,std::allocator<char> > const ,FuzzyVariable *>::pair<std::basic_string<char,std::char_traits<char>,std::allocator<char> > const ,FuzzyVariable *><std::tuple<std::basic_string<char,std::char_traits<char>,std::allocator<char> > const &>,std::tuple<>,0>
PUBLIC	??$addressof@PAU?$_Tree_node@U?$pair@$$CBV?$basic_string@DU?$char_traits@D@std@@V?$allocator@D@2@@std@@PAVFuzzySet@@@std@@PAX@std@@@std@@YAPAPAU?$_Tree_node@U?$pair@$$CBV?$basic_string@DU?$char_traits@D@std@@V?$allocator@D@2@@std@@PAVFuzzySet@@@std@@PAX@0@AAPAU10@@Z ; std::addressof<std::_Tree_node<std::pair<std::basic_string<char,std::char_traits<char>,std::allocator<char> > const ,FuzzySet *>,void *> *>
PUBLIC	??$forward@ABQAU?$_Tree_node@U?$pair@$$CBV?$basic_string@DU?$char_traits@D@std@@V?$allocator@D@2@@std@@PAVFuzzySet@@@std@@PAX@std@@@std@@YAABQAU?$_Tree_node@U?$pair@$$CBV?$basic_string@DU?$char_traits@D@std@@V?$allocator@D@2@@std@@PAVFuzzySet@@@std@@PAX@0@ABQAU10@@Z ; std::forward<std::_Tree_node<std::pair<std::basic_string<char,std::char_traits<char>,std::allocator<char> > const ,FuzzySet *>,void *> * const &>
PUBLIC	??$_Get_size_of_n@$03@std@@YAII@Z		; std::_Get_size_of_n<4>
PUBLIC	??$_Get_size_of_n@$0DA@@std@@YAII@Z		; std::_Get_size_of_n<48>
PUBLIC	??$_Get_size_of_n@$00@std@@YAII@Z		; std::_Get_size_of_n<1>
PUBLIC	??$move@AAV?$tuple@ABV?$basic_string@DU?$char_traits@D@std@@V?$allocator@D@2@@std@@@std@@@std@@YA$$QAV?$tuple@ABV?$basic_string@DU?$char_traits@D@std@@V?$allocator@D@2@@std@@@0@AAV10@@Z ; std::move<std::tuple<std::basic_string<char,std::char_traits<char>,std::allocator<char> > const &> &>
PUBLIC	??$_Tuple_get@$0A@ABV?$basic_string@DU?$char_traits@D@std@@V?$allocator@D@2@@std@@@std@@YA$$QA_P$$QAV?$tuple@ABV?$basic_string@DU?$char_traits@D@std@@V?$allocator@D@2@@std@@@0@@Z ; std::_Tuple_get<0,std::basic_string<char,std::char_traits<char>,std::allocator<char> > const &>
PUBLIC	??$_Traits_compare@U?$char_traits@D@std@@@std@@YAHQBDI0I@Z ; std::_Traits_compare<std::char_traits<char> >
PUBLIC	??_7exception@std@@6B@				; std::exception::`vftable'
PUBLIC	??_C@_0BC@EOODALEL@Unknown?5exception@		; `string'
PUBLIC	??_7bad_alloc@std@@6B@				; std::bad_alloc::`vftable'
PUBLIC	??_7bad_array_new_length@std@@6B@		; std::bad_array_new_length::`vftable'
PUBLIC	??_C@_0BF@KINCDENJ@bad?5array?5new?5length@	; `string'
PUBLIC	??_R0?AVexception@std@@@8			; std::exception `RTTI Type Descriptor'
PUBLIC	__CT??_R0?AVexception@std@@@8??0exception@std@@QAE@ABV01@@Z12
PUBLIC	__TI3?AVbad_array_new_length@std@@
PUBLIC	__CTA3?AVbad_array_new_length@std@@
PUBLIC	??_R0?AVbad_array_new_length@std@@@8		; std::bad_array_new_length `RTTI Type Descriptor'
PUBLIC	__CT??_R0?AVbad_array_new_length@std@@@8??0bad_array_new_length@std@@QAE@ABV01@@Z12
PUBLIC	??_R0?AVbad_alloc@std@@@8			; std::bad_alloc `RTTI Type Descriptor'
PUBLIC	__CT??_R0?AVbad_alloc@std@@@8??0bad_alloc@std@@QAE@ABV01@@Z12
PUBLIC	??_C@_0BB@FCMFBGOM@invalid?5argument@		; `string'
PUBLIC	??_C@_02DKCKIIND@?$CFs@				; `string'
PUBLIC	??_C@_0GC@KLECFGLI@C?3?2Program?5Files?2Microsoft?5Visu@ ; `string'
PUBLIC	??_C@_0BJ@LFDBABJJ@ITERATOR?5LIST?5CORRUPTED?$CB@ ; `string'
PUBLIC	??_C@_0BA@JFNIOLAK@string?5too?5long@		; `string'
PUBLIC	??_7runtime_error@std@@6B@			; std::runtime_error::`vftable'
PUBLIC	??_R0?AVruntime_error@std@@@8			; std::runtime_error `RTTI Type Descriptor'
PUBLIC	__CT??_R0?AVruntime_error@std@@@8??0runtime_error@std@@QAE@ABV01@@Z12
PUBLIC	??_7_System_error@std@@6B@			; std::_System_error::`vftable'
PUBLIC	??_C@_02LMMGGCAJ@?3?5@				; `string'
PUBLIC	??_7system_error@std@@6B@			; std::system_error::`vftable'
PUBLIC	??_R0?AVsystem_error@std@@@8			; std::system_error `RTTI Type Descriptor'
PUBLIC	__CT??_R0?AVsystem_error@std@@@8??0system_error@std@@QAE@ABV01@@Z20
PUBLIC	??_R0?AV_System_error@std@@@8			; std::_System_error `RTTI Type Descriptor'
PUBLIC	__CT??_R0?AV_System_error@std@@@8??0_System_error@std@@QAE@ABV01@@Z20
PUBLIC	??_7_Iostream_error_category2@std@@6B@		; std::_Iostream_error_category2::`vftable'
PUBLIC	??_C@_08LLGCOLLL@iostream@			; `string'
PUBLIC	?_Iostream_error@?4??message@_Iostream_error_category2@std@@UBE?AV?$basic_string@DU?$char_traits@D@std@@V?$allocator@D@2@@3@H@Z@4QBDB ; `std::_Iostream_error_category2::message'::`5'::_Iostream_error
PUBLIC	??_7bad_cast@std@@6B@				; std::bad_cast::`vftable'
PUBLIC	??_C@_08EPJLHIJG@bad?5cast@			; `string'
PUBLIC	__TI2?AVbad_cast@std@@
PUBLIC	__CTA2?AVbad_cast@std@@
PUBLIC	??_R0?AVbad_cast@std@@@8			; std::bad_cast `RTTI Type Descriptor'
PUBLIC	__CT??_R0?AVbad_cast@std@@@8??0bad_cast@std@@QAE@ABV01@@Z12
PUBLIC	??_7_Facet_base@std@@6B@			; std::_Facet_base::`vftable'
PUBLIC	??_C@_0BA@ELKIONDK@bad?5locale?5name@		; `string'
PUBLIC	??_C@_0GC@DIOGEBP@C?3?2Program?5Files?2Microsoft?5Visu@ ; `string'
PUBLIC	??_7facet@locale@std@@6B@			; std::locale::facet::`vftable'
PUBLIC	??_C@_00CNPNBAHC@@				; `string'
PUBLIC	??_7ctype_base@std@@6B@				; std::ctype_base::`vftable'
PUBLIC	??_7?$ctype@D@std@@6B@				; std::ctype<char>::`vftable'
PUBLIC	??_7failure@ios_base@std@@6B@			; std::ios_base::failure::`vftable'
PUBLIC	??_C@_0BF@PHHKMMFD@ios_base?3?3badbit?5set@	; `string'
PUBLIC	??_C@_0BG@FMKFHCIL@ios_base?3?3failbit?5set@	; `string'
PUBLIC	??_C@_0BF@OOHOMBOF@ios_base?3?3eofbit?5set@	; `string'
PUBLIC	__TI5?AVfailure@ios_base@std@@
PUBLIC	__CTA5?AVfailure@ios_base@std@@
PUBLIC	??_R0?AVfailure@ios_base@std@@@8		; std::ios_base::failure `RTTI Type Descriptor'
PUBLIC	__CT??_R0?AVfailure@ios_base@std@@@8??0failure@ios_base@std@@QAE@ABV012@@Z20
PUBLIC	??_C@_0BB@GCADKGJO@map?1set?5too?5long@		; `string'
PUBLIC	?_Static@?1???$_Immortalize_memcpy_image@V_Iostream_error_category2@std@@@std@@YAABV_Iostream_error_category2@1@XZ@4U?$_Constexpr_immortalize_impl@V_Iostream_error_category2@std@@@1@A ; `std::_Immortalize_memcpy_image<std::_Iostream_error_category2>'::`2'::_Static
PUBLIC	??_C@_0BJ@HAJGEHKO@transposed?5pointer?5range@	; `string'
PUBLIC	??_C@_0GD@GOKHNLI@C?3?2Program?5Files?2Microsoft?5Visu@ ; `string'
PUBLIC	?_Psave@?$_Facetptr@V?$ctype@D@std@@@std@@2PBVfacet@locale@2@B ; std::_Facetptr<std::ctype<char> >::_Psave
PUBLIC	??_C@_0GB@KEIPDMDC@C?3?2Program?5Files?2Microsoft?5Visu@ ; `string'
PUBLIC	??_C@_0DC@KEKNBAEB@can?8t?5increment?5value?9initializ@ ; `string'
PUBLIC	??_C@_0CM@MNNBKIBC@can?8t?5increment?5invalidated?5vec@ ; `string'
PUBLIC	??_C@_0CJ@OAAAAGPM@can?8t?5increment?5vector?5iterator@ ; `string'
PUBLIC	??_C@_0DE@CHADHGFF@can?8t?5dereference?5value?9initial@ ; `string'
PUBLIC	??_C@_0CO@PGFNEDAH@can?8t?5dereference?5invalidated?5v@ ; `string'
PUBLIC	??_C@_0CP@MDHADBHN@can?8t?5dereference?5out?5of?5range?5@ ; `string'
PUBLIC	??_C@_0BP@OLDKBHLM@map?1set?5iterators?5incompatible@ ; `string'
PUBLIC	??_C@_0GA@IINHIBAD@C?3?2Program?5Files?2Microsoft?5Visu@ ; `string'
PUBLIC	??_C@_0DE@DMNPKCGM@cannot?5increment?5value?9initiali@ ; `string'
PUBLIC	??_C@_0CG@NLEHEOHN@cannot?5increment?5end?5map?1set?5it@ ; `string'
PUBLIC	??_C@_0BO@CAOBBIOC@vector?5iterators?5incompatible@ ; `string'
PUBLIC	??_C@_0DG@KGHKKGBC@null?5pointer?5cannot?5point?5to?5a?5@ ; `string'
PUBLIC	??_C@_0DG@LCFNIIPB@cannot?5dereference?5value?9initia@ ; `string'
PUBLIC	??_C@_0CI@OKFEHCEB@cannot?5dereference?5end?5map?1set?5@ ; `string'
PUBLIC	??_C@_0BD@FEEMDEPI@invalid?5comparator@		; `string'
PUBLIC	??_C@_0BA@FOIKENOD@vector?5too?5long@		; `string'
PUBLIC	??_R4exception@std@@6B@				; std::exception::`RTTI Complete Object Locator'
PUBLIC	??_R3exception@std@@8				; std::exception::`RTTI Class Hierarchy Descriptor'
PUBLIC	??_R2exception@std@@8				; std::exception::`RTTI Base Class Array'
PUBLIC	??_R1A@?0A@EA@exception@std@@8			; std::exception::`RTTI Base Class Descriptor at (0,-1,0,64)'
PUBLIC	??_R4bad_array_new_length@std@@6B@		; std::bad_array_new_length::`RTTI Complete Object Locator'
PUBLIC	??_R3bad_array_new_length@std@@8		; std::bad_array_new_length::`RTTI Class Hierarchy Descriptor'
PUBLIC	??_R2bad_array_new_length@std@@8		; std::bad_array_new_length::`RTTI Base Class Array'
PUBLIC	??_R1A@?0A@EA@bad_array_new_length@std@@8	; std::bad_array_new_length::`RTTI Base Class Descriptor at (0,-1,0,64)'
PUBLIC	??_R1A@?0A@EA@bad_alloc@std@@8			; std::bad_alloc::`RTTI Base Class Descriptor at (0,-1,0,64)'
PUBLIC	??_R3bad_alloc@std@@8				; std::bad_alloc::`RTTI Class Hierarchy Descriptor'
PUBLIC	??_R2bad_alloc@std@@8				; std::bad_alloc::`RTTI Base Class Array'
PUBLIC	??_R4bad_alloc@std@@6B@				; std::bad_alloc::`RTTI Complete Object Locator'
PUBLIC	??_R4runtime_error@std@@6B@			; std::runtime_error::`RTTI Complete Object Locator'
PUBLIC	??_R3runtime_error@std@@8			; std::runtime_error::`RTTI Class Hierarchy Descriptor'
PUBLIC	??_R2runtime_error@std@@8			; std::runtime_error::`RTTI Base Class Array'
PUBLIC	??_R1A@?0A@EA@runtime_error@std@@8		; std::runtime_error::`RTTI Base Class Descriptor at (0,-1,0,64)'
PUBLIC	??_R0?AVerror_category@std@@@8			; std::error_category `RTTI Type Descriptor'
PUBLIC	??_R3error_category@std@@8			; std::error_category::`RTTI Class Hierarchy Descriptor'
PUBLIC	??_R2error_category@std@@8			; std::error_category::`RTTI Base Class Array'
PUBLIC	??_R1A@?0A@EA@error_category@std@@8		; std::error_category::`RTTI Base Class Descriptor at (0,-1,0,64)'
PUBLIC	??_R4_System_error@std@@6B@			; std::_System_error::`RTTI Complete Object Locator'
PUBLIC	??_R3_System_error@std@@8			; std::_System_error::`RTTI Class Hierarchy Descriptor'
PUBLIC	??_R2_System_error@std@@8			; std::_System_error::`RTTI Base Class Array'
PUBLIC	??_R1A@?0A@EA@_System_error@std@@8		; std::_System_error::`RTTI Base Class Descriptor at (0,-1,0,64)'
PUBLIC	??_R4system_error@std@@6B@			; std::system_error::`RTTI Complete Object Locator'
PUBLIC	??_R3system_error@std@@8			; std::system_error::`RTTI Class Hierarchy Descriptor'
PUBLIC	??_R2system_error@std@@8			; std::system_error::`RTTI Base Class Array'
PUBLIC	??_R1A@?0A@EA@system_error@std@@8		; std::system_error::`RTTI Base Class Descriptor at (0,-1,0,64)'
PUBLIC	??_R4_Iostream_error_category2@std@@6B@		; std::_Iostream_error_category2::`RTTI Complete Object Locator'
PUBLIC	??_R0?AV_Iostream_error_category2@std@@@8	; std::_Iostream_error_category2 `RTTI Type Descriptor'
PUBLIC	??_R3_Iostream_error_category2@std@@8		; std::_Iostream_error_category2::`RTTI Class Hierarchy Descriptor'
PUBLIC	??_R2_Iostream_error_category2@std@@8		; std::_Iostream_error_category2::`RTTI Base Class Array'
PUBLIC	??_R1A@?0A@EA@_Iostream_error_category2@std@@8	; std::_Iostream_error_category2::`RTTI Base Class Descriptor at (0,-1,0,64)'
PUBLIC	??_R4bad_cast@std@@6B@				; std::bad_cast::`RTTI Complete Object Locator'
PUBLIC	??_R3bad_cast@std@@8				; std::bad_cast::`RTTI Class Hierarchy Descriptor'
PUBLIC	??_R2bad_cast@std@@8				; std::bad_cast::`RTTI Base Class Array'
PUBLIC	??_R1A@?0A@EA@bad_cast@std@@8			; std::bad_cast::`RTTI Base Class Descriptor at (0,-1,0,64)'
PUBLIC	??_R4_Facet_base@std@@6B@			; std::_Facet_base::`RTTI Complete Object Locator'
PUBLIC	??_R0?AV_Facet_base@std@@@8			; std::_Facet_base `RTTI Type Descriptor'
PUBLIC	??_R3_Facet_base@std@@8				; std::_Facet_base::`RTTI Class Hierarchy Descriptor'
PUBLIC	??_R2_Facet_base@std@@8				; std::_Facet_base::`RTTI Base Class Array'
PUBLIC	??_R1A@?0A@EA@_Facet_base@std@@8		; std::_Facet_base::`RTTI Base Class Descriptor at (0,-1,0,64)'
PUBLIC	??_R4facet@locale@std@@6B@			; std::locale::facet::`RTTI Complete Object Locator'
PUBLIC	??_R0?AVfacet@locale@std@@@8			; std::locale::facet `RTTI Type Descriptor'
PUBLIC	??_R3facet@locale@std@@8			; std::locale::facet::`RTTI Class Hierarchy Descriptor'
PUBLIC	??_R2facet@locale@std@@8			; std::locale::facet::`RTTI Base Class Array'
PUBLIC	??_R1A@?0A@EA@facet@locale@std@@8		; std::locale::facet::`RTTI Base Class Descriptor at (0,-1,0,64)'
PUBLIC	??_R13?0A@EA@_Crt_new_delete@std@@8		; std::_Crt_new_delete::`RTTI Base Class Descriptor at (4,-1,0,64)'
PUBLIC	??_R0?AU_Crt_new_delete@std@@@8			; std::_Crt_new_delete `RTTI Type Descriptor'
PUBLIC	??_R3_Crt_new_delete@std@@8			; std::_Crt_new_delete::`RTTI Class Hierarchy Descriptor'
PUBLIC	??_R2_Crt_new_delete@std@@8			; std::_Crt_new_delete::`RTTI Base Class Array'
PUBLIC	??_R1A@?0A@EA@_Crt_new_delete@std@@8		; std::_Crt_new_delete::`RTTI Base Class Descriptor at (0,-1,0,64)'
PUBLIC	??_R4ctype_base@std@@6B@			; std::ctype_base::`RTTI Complete Object Locator'
PUBLIC	??_R0?AUctype_base@std@@@8			; std::ctype_base `RTTI Type Descriptor'
PUBLIC	??_R3ctype_base@std@@8				; std::ctype_base::`RTTI Class Hierarchy Descriptor'
PUBLIC	??_R2ctype_base@std@@8				; std::ctype_base::`RTTI Base Class Array'
PUBLIC	??_R1A@?0A@EA@ctype_base@std@@8			; std::ctype_base::`RTTI Base Class Descriptor at (0,-1,0,64)'
PUBLIC	??_R4?$ctype@D@std@@6B@				; std::ctype<char>::`RTTI Complete Object Locator'
PUBLIC	??_R0?AV?$ctype@D@std@@@8			; std::ctype<char> `RTTI Type Descriptor'
PUBLIC	??_R3?$ctype@D@std@@8				; std::ctype<char>::`RTTI Class Hierarchy Descriptor'
PUBLIC	??_R2?$ctype@D@std@@8				; std::ctype<char>::`RTTI Base Class Array'
PUBLIC	??_R1A@?0A@EA@?$ctype@D@std@@8			; std::ctype<char>::`RTTI Base Class Descriptor at (0,-1,0,64)'
PUBLIC	??_R4failure@ios_base@std@@6B@			; std::ios_base::failure::`RTTI Complete Object Locator'
PUBLIC	??_R3failure@ios_base@std@@8			; std::ios_base::failure::`RTTI Class Hierarchy Descriptor'
PUBLIC	??_R2failure@ios_base@std@@8			; std::ios_base::failure::`RTTI Base Class Array'
PUBLIC	??_R1A@?0A@EA@failure@ios_base@std@@8		; std::ios_base::failure::`RTTI Base Class Descriptor at (0,-1,0,64)'
EXTRN	__purecall:PROC
EXTRN	??2@YAPAXI@Z:PROC				; operator new
EXTRN	??3@YAXPAXI@Z:PROC				; operator delete
EXTRN	?__global_delete@@YAXPAXI@Z:PROC		; __global_delete
EXTRN	??_V@YAXPAX@Z:PROC				; operator delete[]
EXTRN	__invoke_watson:PROC
EXTRN	__free_dbg:PROC
EXTRN	__malloc_dbg:PROC
EXTRN	__CrtDbgReport:PROC
EXTRN	??0_Lockit@std@@QAE@H@Z:PROC			; std::_Lockit::_Lockit
EXTRN	??1_Lockit@std@@QAE@XZ:PROC			; std::_Lockit::~_Lockit
EXTRN	_free:PROC
EXTRN	_memcmp:PROC
EXTRN	_memcpy:PROC
EXTRN	_memmove:PROC
EXTRN	_strlen:PROC
EXTRN	?_Xbad_alloc@std@@YAXXZ:PROC			; std::_Xbad_alloc
EXTRN	?_Xlength_error@std@@YAXPBD@Z:PROC		; std::_Xlength_error
EXTRN	?_Xruntime_error@std@@YAXPBD@Z:PROC		; std::_Xruntime_error
EXTRN	?uncaught_exception@std@@YA_NXZ:PROC		; std::uncaught_exception
EXTRN	___std_exception_copy:PROC
EXTRN	___std_exception_destroy:PROC
EXTRN	??_Eexception@std@@UAEPAXI@Z:PROC		; std::exception::`vector deleting destructor'
EXTRN	??_Ebad_alloc@std@@UAEPAXI@Z:PROC		; std::bad_alloc::`vector deleting destructor'
EXTRN	??_Ebad_array_new_length@std@@UAEPAXI@Z:PROC	; std::bad_array_new_length::`vector deleting destructor'
EXTRN	??_Eruntime_error@std@@UAEPAXI@Z:PROC		; std::runtime_error::`vector deleting destructor'
EXTRN	??_E_System_error@std@@UAEPAXI@Z:PROC		; std::_System_error::`vector deleting destructor'
EXTRN	??_Esystem_error@std@@UAEPAXI@Z:PROC		; std::system_error::`vector deleting destructor'
EXTRN	?_Syserror_map@std@@YAPBDH@Z:PROC		; std::_Syserror_map
EXTRN	??_E_Iostream_error_category2@std@@UAEPAXI@Z:PROC ; std::_Iostream_error_category2::`vector deleting destructor'
EXTRN	??_Ebad_cast@std@@UAEPAXI@Z:PROC		; std::bad_cast::`vector deleting destructor'
EXTRN	??_E_Facet_base@std@@UAEPAXI@Z:PROC		; std::_Facet_base::`vector deleting destructor'
EXTRN	?_Facet_Register@std@@YAXPAV_Facet_base@1@@Z:PROC ; std::_Facet_Register
EXTRN	__Getctype:PROC
EXTRN	__Tolower:PROC
EXTRN	__Toupper:PROC
EXTRN	?_Locinfo_ctor@_Locinfo@std@@SAXPAV12@PBD@Z:PROC ; std::_Locinfo::_Locinfo_ctor
EXTRN	?_Locinfo_dtor@_Locinfo@std@@SAXPAV12@@Z:PROC	; std::_Locinfo::_Locinfo_dtor
EXTRN	??_Efacet@locale@std@@MAEPAXI@Z:PROC		; std::locale::facet::`vector deleting destructor'
EXTRN	?_Getgloballocale@locale@std@@CAPAV_Locimp@12@XZ:PROC ; std::locale::_Getgloballocale
EXTRN	??_Ectype_base@std@@UAEPAXI@Z:PROC		; std::ctype_base::`vector deleting destructor'
EXTRN	??_E?$ctype@D@std@@MAEPAXI@Z:PROC		; std::ctype<char>::`vector deleting destructor'
EXTRN	??_Efailure@ios_base@std@@UAEPAXI@Z:PROC	; std::ios_base::failure::`vector deleting destructor'
EXTRN	??1FuzzyVariable@@AAE@XZ:PROC			; FuzzyVariable::~FuzzyVariable
EXTRN	?WriteDOMs@FuzzyVariable@@QAEAAV?$basic_ostream@DU?$char_traits@D@std@@@std@@AAV23@@Z:PROC ; FuzzyVariable::WriteDOMs
EXTRN	@_RTC_CheckStackVars@8:PROC
EXTRN	@__security_check_cookie@4:PROC
EXTRN	__CxxThrowException@8:PROC
EXTRN	__RTC_CheckEsp:PROC
EXTRN	__RTC_InitBase:PROC
EXTRN	__RTC_Shutdown:PROC
EXTRN	___CxxFrameHandler3:PROC
EXTRN	?nothrow@std@@3Unothrow_t@1@B:BYTE		; std::nothrow
EXTRN	??_7type_info@@6B@:QWORD			; type_info::`vftable'
EXTRN	?_Id_cnt@id@locale@std@@0HA:DWORD		; std::locale::id::_Id_cnt
EXTRN	?id@?$ctype@D@std@@2V0locale@2@A:DWORD		; std::ctype<char>::id
EXTRN	___security_cookie:DWORD
EXTRN	__fltused:DWORD
;	COMDAT ?_Psave@?$_Facetptr@V?$ctype@D@std@@@std@@2PBVfacet@locale@2@B
_BSS	SEGMENT
?_Psave@?$_Facetptr@V?$ctype@D@std@@@std@@2PBVfacet@locale@2@B DD 01H DUP (?) ; std::_Facetptr<std::ctype<char> >::_Psave
_BSS	ENDS
;	COMDAT rtc$TMZ
rtc$TMZ	SEGMENT
__RTC_Shutdown.rtc$TMZ DD FLAT:__RTC_Shutdown
rtc$TMZ	ENDS
;	COMDAT rtc$IMZ
rtc$IMZ	SEGMENT
__RTC_InitBase.rtc$IMZ DD FLAT:__RTC_InitBase
rtc$IMZ	ENDS
;	COMDAT ??_R1A@?0A@EA@failure@ios_base@std@@8
rdata$r	SEGMENT
??_R1A@?0A@EA@failure@ios_base@std@@8 DD FLAT:??_R0?AVfailure@ios_base@std@@@8 ; std::ios_base::failure::`RTTI Base Class Descriptor at (0,-1,0,64)'
	DD	04H
	DD	00H
	DD	0ffffffffH
	DD	00H
	DD	040H
	DD	FLAT:??_R3failure@ios_base@std@@8
rdata$r	ENDS
;	COMDAT ??_R2failure@ios_base@std@@8
rdata$r	SEGMENT
??_R2failure@ios_base@std@@8 DD FLAT:??_R1A@?0A@EA@failure@ios_base@std@@8 ; std::ios_base::failure::`RTTI Base Class Array'
	DD	FLAT:??_R1A@?0A@EA@system_error@std@@8
	DD	FLAT:??_R1A@?0A@EA@_System_error@std@@8
	DD	FLAT:??_R1A@?0A@EA@runtime_error@std@@8
	DD	FLAT:??_R1A@?0A@EA@exception@std@@8
rdata$r	ENDS
;	COMDAT ??_R3failure@ios_base@std@@8
rdata$r	SEGMENT
??_R3failure@ios_base@std@@8 DD 00H			; std::ios_base::failure::`RTTI Class Hierarchy Descriptor'
	DD	00H
	DD	05H
	DD	FLAT:??_R2failure@ios_base@std@@8
rdata$r	ENDS
;	COMDAT ??_R4failure@ios_base@std@@6B@
rdata$r	SEGMENT
??_R4failure@ios_base@std@@6B@ DD 00H			; std::ios_base::failure::`RTTI Complete Object Locator'
	DD	00H
	DD	00H
	DD	FLAT:??_R0?AVfailure@ios_base@std@@@8
	DD	FLAT:??_R3failure@ios_base@std@@8
rdata$r	ENDS
;	COMDAT ??_R1A@?0A@EA@?$ctype@D@std@@8
rdata$r	SEGMENT
??_R1A@?0A@EA@?$ctype@D@std@@8 DD FLAT:??_R0?AV?$ctype@D@std@@@8 ; std::ctype<char>::`RTTI Base Class Descriptor at (0,-1,0,64)'
	DD	04H
	DD	00H
	DD	0ffffffffH
	DD	00H
	DD	040H
	DD	FLAT:??_R3?$ctype@D@std@@8
rdata$r	ENDS
;	COMDAT ??_R2?$ctype@D@std@@8
rdata$r	SEGMENT
??_R2?$ctype@D@std@@8 DD FLAT:??_R1A@?0A@EA@?$ctype@D@std@@8 ; std::ctype<char>::`RTTI Base Class Array'
	DD	FLAT:??_R1A@?0A@EA@ctype_base@std@@8
	DD	FLAT:??_R1A@?0A@EA@facet@locale@std@@8
	DD	FLAT:??_R1A@?0A@EA@_Facet_base@std@@8
	DD	FLAT:??_R13?0A@EA@_Crt_new_delete@std@@8
rdata$r	ENDS
;	COMDAT ??_R3?$ctype@D@std@@8
rdata$r	SEGMENT
??_R3?$ctype@D@std@@8 DD 00H				; std::ctype<char>::`RTTI Class Hierarchy Descriptor'
	DD	01H
	DD	05H
	DD	FLAT:??_R2?$ctype@D@std@@8
rdata$r	ENDS
;	COMDAT ??_R0?AV?$ctype@D@std@@@8
data$rs	SEGMENT
??_R0?AV?$ctype@D@std@@@8 DD FLAT:??_7type_info@@6B@	; std::ctype<char> `RTTI Type Descriptor'
	DD	00H
	DB	'.?AV?$ctype@D@std@@', 00H
data$rs	ENDS
;	COMDAT ??_R4?$ctype@D@std@@6B@
rdata$r	SEGMENT
??_R4?$ctype@D@std@@6B@ DD 00H				; std::ctype<char>::`RTTI Complete Object Locator'
	DD	00H
	DD	00H
	DD	FLAT:??_R0?AV?$ctype@D@std@@@8
	DD	FLAT:??_R3?$ctype@D@std@@8
rdata$r	ENDS
;	COMDAT ??_R1A@?0A@EA@ctype_base@std@@8
rdata$r	SEGMENT
??_R1A@?0A@EA@ctype_base@std@@8 DD FLAT:??_R0?AUctype_base@std@@@8 ; std::ctype_base::`RTTI Base Class Descriptor at (0,-1,0,64)'
	DD	03H
	DD	00H
	DD	0ffffffffH
	DD	00H
	DD	040H
	DD	FLAT:??_R3ctype_base@std@@8
rdata$r	ENDS
;	COMDAT ??_R2ctype_base@std@@8
rdata$r	SEGMENT
??_R2ctype_base@std@@8 DD FLAT:??_R1A@?0A@EA@ctype_base@std@@8 ; std::ctype_base::`RTTI Base Class Array'
	DD	FLAT:??_R1A@?0A@EA@facet@locale@std@@8
	DD	FLAT:??_R1A@?0A@EA@_Facet_base@std@@8
	DD	FLAT:??_R13?0A@EA@_Crt_new_delete@std@@8
rdata$r	ENDS
;	COMDAT ??_R3ctype_base@std@@8
rdata$r	SEGMENT
??_R3ctype_base@std@@8 DD 00H				; std::ctype_base::`RTTI Class Hierarchy Descriptor'
	DD	01H
	DD	04H
	DD	FLAT:??_R2ctype_base@std@@8
rdata$r	ENDS
;	COMDAT ??_R0?AUctype_base@std@@@8
data$rs	SEGMENT
??_R0?AUctype_base@std@@@8 DD FLAT:??_7type_info@@6B@	; std::ctype_base `RTTI Type Descriptor'
	DD	00H
	DB	'.?AUctype_base@std@@', 00H
data$rs	ENDS
;	COMDAT ??_R4ctype_base@std@@6B@
rdata$r	SEGMENT
??_R4ctype_base@std@@6B@ DD 00H				; std::ctype_base::`RTTI Complete Object Locator'
	DD	00H
	DD	00H
	DD	FLAT:??_R0?AUctype_base@std@@@8
	DD	FLAT:??_R3ctype_base@std@@8
rdata$r	ENDS
;	COMDAT ??_R1A@?0A@EA@_Crt_new_delete@std@@8
rdata$r	SEGMENT
??_R1A@?0A@EA@_Crt_new_delete@std@@8 DD FLAT:??_R0?AU_Crt_new_delete@std@@@8 ; std::_Crt_new_delete::`RTTI Base Class Descriptor at (0,-1,0,64)'
	DD	00H
	DD	00H
	DD	0ffffffffH
	DD	00H
	DD	040H
	DD	FLAT:??_R3_Crt_new_delete@std@@8
rdata$r	ENDS
;	COMDAT ??_R2_Crt_new_delete@std@@8
rdata$r	SEGMENT
??_R2_Crt_new_delete@std@@8 DD FLAT:??_R1A@?0A@EA@_Crt_new_delete@std@@8 ; std::_Crt_new_delete::`RTTI Base Class Array'
rdata$r	ENDS
;	COMDAT ??_R3_Crt_new_delete@std@@8
rdata$r	SEGMENT
??_R3_Crt_new_delete@std@@8 DD 00H			; std::_Crt_new_delete::`RTTI Class Hierarchy Descriptor'
	DD	00H
	DD	01H
	DD	FLAT:??_R2_Crt_new_delete@std@@8
rdata$r	ENDS
;	COMDAT ??_R0?AU_Crt_new_delete@std@@@8
data$rs	SEGMENT
??_R0?AU_Crt_new_delete@std@@@8 DD FLAT:??_7type_info@@6B@ ; std::_Crt_new_delete `RTTI Type Descriptor'
	DD	00H
	DB	'.?AU_Crt_new_delete@std@@', 00H
data$rs	ENDS
;	COMDAT ??_R13?0A@EA@_Crt_new_delete@std@@8
rdata$r	SEGMENT
??_R13?0A@EA@_Crt_new_delete@std@@8 DD FLAT:??_R0?AU_Crt_new_delete@std@@@8 ; std::_Crt_new_delete::`RTTI Base Class Descriptor at (4,-1,0,64)'
	DD	00H
	DD	04H
	DD	0ffffffffH
	DD	00H
	DD	040H
	DD	FLAT:??_R3_Crt_new_delete@std@@8
rdata$r	ENDS
;	COMDAT ??_R1A@?0A@EA@facet@locale@std@@8
rdata$r	SEGMENT
??_R1A@?0A@EA@facet@locale@std@@8 DD FLAT:??_R0?AVfacet@locale@std@@@8 ; std::locale::facet::`RTTI Base Class Descriptor at (0,-1,0,64)'
	DD	02H
	DD	00H
	DD	0ffffffffH
	DD	00H
	DD	040H
	DD	FLAT:??_R3facet@locale@std@@8
rdata$r	ENDS
;	COMDAT ??_R2facet@locale@std@@8
rdata$r	SEGMENT
??_R2facet@locale@std@@8 DD FLAT:??_R1A@?0A@EA@facet@locale@std@@8 ; std::locale::facet::`RTTI Base Class Array'
	DD	FLAT:??_R1A@?0A@EA@_Facet_base@std@@8
	DD	FLAT:??_R13?0A@EA@_Crt_new_delete@std@@8
rdata$r	ENDS
;	COMDAT ??_R3facet@locale@std@@8
rdata$r	SEGMENT
??_R3facet@locale@std@@8 DD 00H				; std::locale::facet::`RTTI Class Hierarchy Descriptor'
	DD	01H
	DD	03H
	DD	FLAT:??_R2facet@locale@std@@8
rdata$r	ENDS
;	COMDAT ??_R0?AVfacet@locale@std@@@8
data$rs	SEGMENT
??_R0?AVfacet@locale@std@@@8 DD FLAT:??_7type_info@@6B@	; std::locale::facet `RTTI Type Descriptor'
	DD	00H
	DB	'.?AVfacet@locale@std@@', 00H
data$rs	ENDS
;	COMDAT ??_R4facet@locale@std@@6B@
rdata$r	SEGMENT
??_R4facet@locale@std@@6B@ DD 00H			; std::locale::facet::`RTTI Complete Object Locator'
	DD	00H
	DD	00H
	DD	FLAT:??_R0?AVfacet@locale@std@@@8
	DD	FLAT:??_R3facet@locale@std@@8
rdata$r	ENDS
;	COMDAT ??_R1A@?0A@EA@_Facet_base@std@@8
rdata$r	SEGMENT
??_R1A@?0A@EA@_Facet_base@std@@8 DD FLAT:??_R0?AV_Facet_base@std@@@8 ; std::_Facet_base::`RTTI Base Class Descriptor at (0,-1,0,64)'
	DD	00H
	DD	00H
	DD	0ffffffffH
	DD	00H
	DD	040H
	DD	FLAT:??_R3_Facet_base@std@@8
rdata$r	ENDS
;	COMDAT ??_R2_Facet_base@std@@8
rdata$r	SEGMENT
??_R2_Facet_base@std@@8 DD FLAT:??_R1A@?0A@EA@_Facet_base@std@@8 ; std::_Facet_base::`RTTI Base Class Array'
rdata$r	ENDS
;	COMDAT ??_R3_Facet_base@std@@8
rdata$r	SEGMENT
??_R3_Facet_base@std@@8 DD 00H				; std::_Facet_base::`RTTI Class Hierarchy Descriptor'
	DD	00H
	DD	01H
	DD	FLAT:??_R2_Facet_base@std@@8
rdata$r	ENDS
;	COMDAT ??_R0?AV_Facet_base@std@@@8
data$rs	SEGMENT
??_R0?AV_Facet_base@std@@@8 DD FLAT:??_7type_info@@6B@	; std::_Facet_base `RTTI Type Descriptor'
	DD	00H
	DB	'.?AV_Facet_base@std@@', 00H
data$rs	ENDS
;	COMDAT ??_R4_Facet_base@std@@6B@
rdata$r	SEGMENT
??_R4_Facet_base@std@@6B@ DD 00H			; std::_Facet_base::`RTTI Complete Object Locator'
	DD	00H
	DD	00H
	DD	FLAT:??_R0?AV_Facet_base@std@@@8
	DD	FLAT:??_R3_Facet_base@std@@8
rdata$r	ENDS
;	COMDAT ??_R1A@?0A@EA@bad_cast@std@@8
rdata$r	SEGMENT
??_R1A@?0A@EA@bad_cast@std@@8 DD FLAT:??_R0?AVbad_cast@std@@@8 ; std::bad_cast::`RTTI Base Class Descriptor at (0,-1,0,64)'
	DD	01H
	DD	00H
	DD	0ffffffffH
	DD	00H
	DD	040H
	DD	FLAT:??_R3bad_cast@std@@8
rdata$r	ENDS
;	COMDAT ??_R2bad_cast@std@@8
rdata$r	SEGMENT
??_R2bad_cast@std@@8 DD FLAT:??_R1A@?0A@EA@bad_cast@std@@8 ; std::bad_cast::`RTTI Base Class Array'
	DD	FLAT:??_R1A@?0A@EA@exception@std@@8
rdata$r	ENDS
;	COMDAT ??_R3bad_cast@std@@8
rdata$r	SEGMENT
??_R3bad_cast@std@@8 DD 00H				; std::bad_cast::`RTTI Class Hierarchy Descriptor'
	DD	00H
	DD	02H
	DD	FLAT:??_R2bad_cast@std@@8
rdata$r	ENDS
;	COMDAT ??_R4bad_cast@std@@6B@
rdata$r	SEGMENT
??_R4bad_cast@std@@6B@ DD 00H				; std::bad_cast::`RTTI Complete Object Locator'
	DD	00H
	DD	00H
	DD	FLAT:??_R0?AVbad_cast@std@@@8
	DD	FLAT:??_R3bad_cast@std@@8
rdata$r	ENDS
;	COMDAT ??_R1A@?0A@EA@_Iostream_error_category2@std@@8
rdata$r	SEGMENT
??_R1A@?0A@EA@_Iostream_error_category2@std@@8 DD FLAT:??_R0?AV_Iostream_error_category2@std@@@8 ; std::_Iostream_error_category2::`RTTI Base Class Descriptor at (0,-1,0,64)'
	DD	01H
	DD	00H
	DD	0ffffffffH
	DD	00H
	DD	040H
	DD	FLAT:??_R3_Iostream_error_category2@std@@8
rdata$r	ENDS
;	COMDAT ??_R2_Iostream_error_category2@std@@8
rdata$r	SEGMENT
??_R2_Iostream_error_category2@std@@8 DD FLAT:??_R1A@?0A@EA@_Iostream_error_category2@std@@8 ; std::_Iostream_error_category2::`RTTI Base Class Array'
	DD	FLAT:??_R1A@?0A@EA@error_category@std@@8
rdata$r	ENDS
;	COMDAT ??_R3_Iostream_error_category2@std@@8
rdata$r	SEGMENT
??_R3_Iostream_error_category2@std@@8 DD 00H		; std::_Iostream_error_category2::`RTTI Class Hierarchy Descriptor'
	DD	00H
	DD	02H
	DD	FLAT:??_R2_Iostream_error_category2@std@@8
rdata$r	ENDS
;	COMDAT ??_R0?AV_Iostream_error_category2@std@@@8
data$rs	SEGMENT
??_R0?AV_Iostream_error_category2@std@@@8 DD FLAT:??_7type_info@@6B@ ; std::_Iostream_error_category2 `RTTI Type Descriptor'
	DD	00H
	DB	'.?AV_Iostream_error_category2@std@@', 00H
data$rs	ENDS
;	COMDAT ??_R4_Iostream_error_category2@std@@6B@
rdata$r	SEGMENT
??_R4_Iostream_error_category2@std@@6B@ DD 00H		; std::_Iostream_error_category2::`RTTI Complete Object Locator'
	DD	00H
	DD	00H
	DD	FLAT:??_R0?AV_Iostream_error_category2@std@@@8
	DD	FLAT:??_R3_Iostream_error_category2@std@@8
rdata$r	ENDS
;	COMDAT ??_R1A@?0A@EA@system_error@std@@8
rdata$r	SEGMENT
??_R1A@?0A@EA@system_error@std@@8 DD FLAT:??_R0?AVsystem_error@std@@@8 ; std::system_error::`RTTI Base Class Descriptor at (0,-1,0,64)'
	DD	03H
	DD	00H
	DD	0ffffffffH
	DD	00H
	DD	040H
	DD	FLAT:??_R3system_error@std@@8
rdata$r	ENDS
;	COMDAT ??_R2system_error@std@@8
rdata$r	SEGMENT
??_R2system_error@std@@8 DD FLAT:??_R1A@?0A@EA@system_error@std@@8 ; std::system_error::`RTTI Base Class Array'
	DD	FLAT:??_R1A@?0A@EA@_System_error@std@@8
	DD	FLAT:??_R1A@?0A@EA@runtime_error@std@@8
	DD	FLAT:??_R1A@?0A@EA@exception@std@@8
rdata$r	ENDS
;	COMDAT ??_R3system_error@std@@8
rdata$r	SEGMENT
??_R3system_error@std@@8 DD 00H				; std::system_error::`RTTI Class Hierarchy Descriptor'
	DD	00H
	DD	04H
	DD	FLAT:??_R2system_error@std@@8
rdata$r	ENDS
;	COMDAT ??_R4system_error@std@@6B@
rdata$r	SEGMENT
??_R4system_error@std@@6B@ DD 00H			; std::system_error::`RTTI Complete Object Locator'
	DD	00H
	DD	00H
	DD	FLAT:??_R0?AVsystem_error@std@@@8
	DD	FLAT:??_R3system_error@std@@8
rdata$r	ENDS
;	COMDAT ??_R1A@?0A@EA@_System_error@std@@8
rdata$r	SEGMENT
??_R1A@?0A@EA@_System_error@std@@8 DD FLAT:??_R0?AV_System_error@std@@@8 ; std::_System_error::`RTTI Base Class Descriptor at (0,-1,0,64)'
	DD	02H
	DD	00H
	DD	0ffffffffH
	DD	00H
	DD	040H
	DD	FLAT:??_R3_System_error@std@@8
rdata$r	ENDS
;	COMDAT ??_R2_System_error@std@@8
rdata$r	SEGMENT
??_R2_System_error@std@@8 DD FLAT:??_R1A@?0A@EA@_System_error@std@@8 ; std::_System_error::`RTTI Base Class Array'
	DD	FLAT:??_R1A@?0A@EA@runtime_error@std@@8
	DD	FLAT:??_R1A@?0A@EA@exception@std@@8
rdata$r	ENDS
;	COMDAT ??_R3_System_error@std@@8
rdata$r	SEGMENT
??_R3_System_error@std@@8 DD 00H			; std::_System_error::`RTTI Class Hierarchy Descriptor'
	DD	00H
	DD	03H
	DD	FLAT:??_R2_System_error@std@@8
rdata$r	ENDS
;	COMDAT ??_R4_System_error@std@@6B@
rdata$r	SEGMENT
??_R4_System_error@std@@6B@ DD 00H			; std::_System_error::`RTTI Complete Object Locator'
	DD	00H
	DD	00H
	DD	FLAT:??_R0?AV_System_error@std@@@8
	DD	FLAT:??_R3_System_error@std@@8
rdata$r	ENDS
;	COMDAT ??_R1A@?0A@EA@error_category@std@@8
rdata$r	SEGMENT
??_R1A@?0A@EA@error_category@std@@8 DD FLAT:??_R0?AVerror_category@std@@@8 ; std::error_category::`RTTI Base Class Descriptor at (0,-1,0,64)'
	DD	00H
	DD	00H
	DD	0ffffffffH
	DD	00H
	DD	040H
	DD	FLAT:??_R3error_category@std@@8
rdata$r	ENDS
;	COMDAT ??_R2error_category@std@@8
rdata$r	SEGMENT
??_R2error_category@std@@8 DD FLAT:??_R1A@?0A@EA@error_category@std@@8 ; std::error_category::`RTTI Base Class Array'
rdata$r	ENDS
;	COMDAT ??_R3error_category@std@@8
rdata$r	SEGMENT
??_R3error_category@std@@8 DD 00H			; std::error_category::`RTTI Class Hierarchy Descriptor'
	DD	00H
	DD	01H
	DD	FLAT:??_R2error_category@std@@8
rdata$r	ENDS
;	COMDAT ??_R0?AVerror_category@std@@@8
data$rs	SEGMENT
??_R0?AVerror_category@std@@@8 DD FLAT:??_7type_info@@6B@ ; std::error_category `RTTI Type Descriptor'
	DD	00H
	DB	'.?AVerror_category@std@@', 00H
data$rs	ENDS
;	COMDAT ??_R1A@?0A@EA@runtime_error@std@@8
rdata$r	SEGMENT
??_R1A@?0A@EA@runtime_error@std@@8 DD FLAT:??_R0?AVruntime_error@std@@@8 ; std::runtime_error::`RTTI Base Class Descriptor at (0,-1,0,64)'
	DD	01H
	DD	00H
	DD	0ffffffffH
	DD	00H
	DD	040H
	DD	FLAT:??_R3runtime_error@std@@8
rdata$r	ENDS
;	COMDAT ??_R2runtime_error@std@@8
rdata$r	SEGMENT
??_R2runtime_error@std@@8 DD FLAT:??_R1A@?0A@EA@runtime_error@std@@8 ; std::runtime_error::`RTTI Base Class Array'
	DD	FLAT:??_R1A@?0A@EA@exception@std@@8
rdata$r	ENDS
;	COMDAT ??_R3runtime_error@std@@8
rdata$r	SEGMENT
??_R3runtime_error@std@@8 DD 00H			; std::runtime_error::`RTTI Class Hierarchy Descriptor'
	DD	00H
	DD	02H
	DD	FLAT:??_R2runtime_error@std@@8
rdata$r	ENDS
;	COMDAT ??_R4runtime_error@std@@6B@
rdata$r	SEGMENT
??_R4runtime_error@std@@6B@ DD 00H			; std::runtime_error::`RTTI Complete Object Locator'
	DD	00H
	DD	00H
	DD	FLAT:??_R0?AVruntime_error@std@@@8
	DD	FLAT:??_R3runtime_error@std@@8
rdata$r	ENDS
;	COMDAT ??_R4bad_alloc@std@@6B@
rdata$r	SEGMENT
??_R4bad_alloc@std@@6B@ DD 00H				; std::bad_alloc::`RTTI Complete Object Locator'
	DD	00H
	DD	00H
	DD	FLAT:??_R0?AVbad_alloc@std@@@8
	DD	FLAT:??_R3bad_alloc@std@@8
rdata$r	ENDS
;	COMDAT ??_R2bad_alloc@std@@8
rdata$r	SEGMENT
??_R2bad_alloc@std@@8 DD FLAT:??_R1A@?0A@EA@bad_alloc@std@@8 ; std::bad_alloc::`RTTI Base Class Array'
	DD	FLAT:??_R1A@?0A@EA@exception@std@@8
rdata$r	ENDS
;	COMDAT ??_R3bad_alloc@std@@8
rdata$r	SEGMENT
??_R3bad_alloc@std@@8 DD 00H				; std::bad_alloc::`RTTI Class Hierarchy Descriptor'
	DD	00H
	DD	02H
	DD	FLAT:??_R2bad_alloc@std@@8
rdata$r	ENDS
;	COMDAT ??_R1A@?0A@EA@bad_alloc@std@@8
rdata$r	SEGMENT
??_R1A@?0A@EA@bad_alloc@std@@8 DD FLAT:??_R0?AVbad_alloc@std@@@8 ; std::bad_alloc::`RTTI Base Class Descriptor at (0,-1,0,64)'
	DD	01H
	DD	00H
	DD	0ffffffffH
	DD	00H
	DD	040H
	DD	FLAT:??_R3bad_alloc@std@@8
rdata$r	ENDS
;	COMDAT ??_R1A@?0A@EA@bad_array_new_length@std@@8
rdata$r	SEGMENT
??_R1A@?0A@EA@bad_array_new_length@std@@8 DD FLAT:??_R0?AVbad_array_new_length@std@@@8 ; std::bad_array_new_length::`RTTI Base Class Descriptor at (0,-1,0,64)'
	DD	02H
	DD	00H
	DD	0ffffffffH
	DD	00H
	DD	040H
	DD	FLAT:??_R3bad_array_new_length@std@@8
rdata$r	ENDS
;	COMDAT ??_R2bad_array_new_length@std@@8
rdata$r	SEGMENT
??_R2bad_array_new_length@std@@8 DD FLAT:??_R1A@?0A@EA@bad_array_new_length@std@@8 ; std::bad_array_new_length::`RTTI Base Class Array'
	DD	FLAT:??_R1A@?0A@EA@bad_alloc@std@@8
	DD	FLAT:??_R1A@?0A@EA@exception@std@@8
rdata$r	ENDS
;	COMDAT ??_R3bad_array_new_length@std@@8
rdata$r	SEGMENT
??_R3bad_array_new_length@std@@8 DD 00H			; std::bad_array_new_length::`RTTI Class Hierarchy Descriptor'
	DD	00H
	DD	03H
	DD	FLAT:??_R2bad_array_new_length@std@@8
rdata$r	ENDS
;	COMDAT ??_R4bad_array_new_length@std@@6B@
rdata$r	SEGMENT
??_R4bad_array_new_length@std@@6B@ DD 00H		; std::bad_array_new_length::`RTTI Complete Object Locator'
	DD	00H
	DD	00H
	DD	FLAT:??_R0?AVbad_array_new_length@std@@@8
	DD	FLAT:??_R3bad_array_new_length@std@@8
rdata$r	ENDS
;	COMDAT ??_R1A@?0A@EA@exception@std@@8
rdata$r	SEGMENT
??_R1A@?0A@EA@exception@std@@8 DD FLAT:??_R0?AVexception@std@@@8 ; std::exception::`RTTI Base Class Descriptor at (0,-1,0,64)'
	DD	00H
	DD	00H
	DD	0ffffffffH
	DD	00H
	DD	040H
	DD	FLAT:??_R3exception@std@@8
rdata$r	ENDS
;	COMDAT ??_R2exception@std@@8
rdata$r	SEGMENT
??_R2exception@std@@8 DD FLAT:??_R1A@?0A@EA@exception@std@@8 ; std::exception::`RTTI Base Class Array'
rdata$r	ENDS
;	COMDAT ??_R3exception@std@@8
rdata$r	SEGMENT
??_R3exception@std@@8 DD 00H				; std::exception::`RTTI Class Hierarchy Descriptor'
	DD	00H
	DD	01H
	DD	FLAT:??_R2exception@std@@8
rdata$r	ENDS
;	COMDAT ??_R4exception@std@@6B@
rdata$r	SEGMENT
??_R4exception@std@@6B@ DD 00H				; std::exception::`RTTI Complete Object Locator'
	DD	00H
	DD	00H
	DD	FLAT:??_R0?AVexception@std@@@8
	DD	FLAT:??_R3exception@std@@8
rdata$r	ENDS
;	COMDAT ??_C@_0BA@FOIKENOD@vector?5too?5long@
CONST	SEGMENT
??_C@_0BA@FOIKENOD@vector?5too?5long@ DB 'vector too long', 00H ; `string'
CONST	ENDS
;	COMDAT ??_C@_0BD@FEEMDEPI@invalid?5comparator@
CONST	SEGMENT
??_C@_0BD@FEEMDEPI@invalid?5comparator@ DB 'invalid comparator', 00H ; `string'
CONST	ENDS
;	COMDAT ??_C@_0CI@OKFEHCEB@cannot?5dereference?5end?5map?1set?5@
CONST	SEGMENT
??_C@_0CI@OKFEHCEB@cannot?5dereference?5end?5map?1set?5@ DB 'cannot deref'
	DB	'erence end map/set iterator', 00H		; `string'
CONST	ENDS
;	COMDAT ??_C@_0DG@LCFNIIPB@cannot?5dereference?5value?9initia@
CONST	SEGMENT
??_C@_0DG@LCFNIIPB@cannot?5dereference?5value?9initia@ DB 'cannot derefer'
	DB	'ence value-initialized map/set iterator', 00H ; `string'
CONST	ENDS
;	COMDAT ??_C@_0DG@KGHKKGBC@null?5pointer?5cannot?5point?5to?5a?5@
CONST	SEGMENT
??_C@_0DG@KGHKKGBC@null?5pointer?5cannot?5point?5to?5a?5@ DB 'null pointe'
	DB	'r cannot point to a block of non-zero size', 00H ; `string'
CONST	ENDS
;	COMDAT ??_C@_0BO@CAOBBIOC@vector?5iterators?5incompatible@
CONST	SEGMENT
??_C@_0BO@CAOBBIOC@vector?5iterators?5incompatible@ DB 'vector iterators '
	DB	'incompatible', 00H				; `string'
CONST	ENDS
;	COMDAT ??_C@_0CG@NLEHEOHN@cannot?5increment?5end?5map?1set?5it@
CONST	SEGMENT
??_C@_0CG@NLEHEOHN@cannot?5increment?5end?5map?1set?5it@ DB 'cannot incre'
	DB	'ment end map/set iterator', 00H		; `string'
CONST	ENDS
;	COMDAT ??_C@_0DE@DMNPKCGM@cannot?5increment?5value?9initiali@
CONST	SEGMENT
??_C@_0DE@DMNPKCGM@cannot?5increment?5value?9initiali@ DB 'cannot increme'
	DB	'nt value-initialized map/set iterator', 00H	; `string'
CONST	ENDS
;	COMDAT ??_C@_0GA@IINHIBAD@C?3?2Program?5Files?2Microsoft?5Visu@
CONST	SEGMENT
??_C@_0GA@IINHIBAD@C?3?2Program?5Files?2Microsoft?5Visu@ DB 'C:\Program F'
	DB	'iles\Microsoft Visual Studio\2022\Community\VC\Tools\MSVC\14.'
	DB	'44.35207\include\xtree', 00H		; `string'
CONST	ENDS
;	COMDAT ??_C@_0BP@OLDKBHLM@map?1set?5iterators?5incompatible@
CONST	SEGMENT
??_C@_0BP@OLDKBHLM@map?1set?5iterators?5incompatible@ DB 'map/set iterato'
	DB	'rs incompatible', 00H			; `string'
CONST	ENDS
;	COMDAT ??_C@_0CP@MDHADBHN@can?8t?5dereference?5out?5of?5range?5@
CONST	SEGMENT
??_C@_0CP@MDHADBHN@can?8t?5dereference?5out?5of?5range?5@ DB 'can''t dere'
	DB	'ference out of range vector iterator', 00H	; `string'
CONST	ENDS
;	COMDAT ??_C@_0CO@PGFNEDAH@can?8t?5dereference?5invalidated?5v@
CONST	SEGMENT
??_C@_0CO@PGFNEDAH@can?8t?5dereference?5invalidated?5v@ DB 'can''t derefe'
	DB	'rence invalidated vector iterator', 00H	; `string'
CONST	ENDS
;	COMDAT ??_C@_0DE@CHADHGFF@can?8t?5dereference?5value?9initial@
CONST	SEGMENT
??_C@_0DE@CHADHGFF@can?8t?5dereference?5value?9initial@ DB 'can''t derefe'
	DB	'rence value-initialized vector iterator', 00H ; `string'
CONST	ENDS
;	COMDAT ??_C@_0CJ@OAAAAGPM@can?8t?5increment?5vector?5iterator@
CONST	SEGMENT
??_C@_0CJ@OAAAAGPM@can?8t?5increment?5vector?5iterator@ DB 'can''t increm'
	DB	'ent vector iterator past end', 00H		; `string'
CONST	ENDS
;	COMDAT ??_C@_0CM@MNNBKIBC@can?8t?5increment?5invalidated?5vec@
CONST	SEGMENT
??_C@_0CM@MNNBKIBC@can?8t?5increment?5invalidated?5vec@ DB 'can''t increm'
	DB	'ent invalidated vector iterator', 00H	; `string'
CONST	ENDS
;	COMDAT ??_C@_0DC@KEKNBAEB@can?8t?5increment?5value?9initializ@
CONST	SEGMENT
??_C@_0DC@KEKNBAEB@can?8t?5increment?5value?9initializ@ DB 'can''t increm'
	DB	'ent value-initialized vector iterator', 00H	; `string'
CONST	ENDS
;	COMDAT ??_C@_0GB@KEIPDMDC@C?3?2Program?5Files?2Microsoft?5Visu@
CONST	SEGMENT
??_C@_0GB@KEIPDMDC@C?3?2Program?5Files?2Microsoft?5Visu@ DB 'C:\Program F'
	DB	'iles\Microsoft Visual Studio\2022\Community\VC\Tools\MSVC\14.'
	DB	'44.35207\include\vector', 00H		; `string'
CONST	ENDS
;	COMDAT ??_C@_0GD@GOKHNLI@C?3?2Program?5Files?2Microsoft?5Visu@
CONST	SEGMENT
??_C@_0GD@GOKHNLI@C?3?2Program?5Files?2Microsoft?5Visu@ DB 'C:\Program Fi'
	DB	'les\Microsoft Visual Studio\2022\Community\VC\Tools\MSVC\14.4'
	DB	'4.35207\include\xutility', 00H		; `string'
CONST	ENDS
;	COMDAT ??_C@_0BJ@HAJGEHKO@transposed?5pointer?5range@
CONST	SEGMENT
??_C@_0BJ@HAJGEHKO@transposed?5pointer?5range@ DB 'transposed pointer ran'
	DB	'ge', 00H					; `string'
CONST	ENDS
;	COMDAT ?_Static@?1???$_Immortalize_memcpy_image@V_Iostream_error_category2@std@@@std@@YAABV_Iostream_error_category2@1@XZ@4U?$_Constexpr_immortalize_impl@V_Iostream_error_category2@std@@@1@A
_DATA	SEGMENT
?_Static@?1???$_Immortalize_memcpy_image@V_Iostream_error_category2@std@@@std@@YAABV_Iostream_error_category2@1@XZ@4U?$_Constexpr_immortalize_impl@V_Iostream_error_category2@std@@@1@A DD FLAT:??_7_Iostream_error_category2@std@@6B@ ; `std::_Immortalize_memcpy_image<std::_Iostream_error_category2>'::`2'::_Static
	DD	05H
_DATA	ENDS
;	COMDAT ??_C@_0BB@GCADKGJO@map?1set?5too?5long@
CONST	SEGMENT
??_C@_0BB@GCADKGJO@map?1set?5too?5long@ DB 'map/set too long', 00H ; `string'
CONST	ENDS
;	COMDAT __CT??_R0?AVfailure@ios_base@std@@@8??0failure@ios_base@std@@QAE@ABV012@@Z20
xdata$x	SEGMENT
__CT??_R0?AVfailure@ios_base@std@@@8??0failure@ios_base@std@@QAE@ABV012@@Z20 DD 00H
	DD	FLAT:??_R0?AVfailure@ios_base@std@@@8
	DD	00H
	DD	0ffffffffH
	ORG $+4
	DD	014H
	DD	FLAT:??0failure@ios_base@std@@QAE@ABV012@@Z
xdata$x	ENDS
;	COMDAT ??_R0?AVfailure@ios_base@std@@@8
data$r	SEGMENT
??_R0?AVfailure@ios_base@std@@@8 DD FLAT:??_7type_info@@6B@ ; std::ios_base::failure `RTTI Type Descriptor'
	DD	00H
	DB	'.?AVfailure@ios_base@std@@', 00H
data$r	ENDS
;	COMDAT __CTA5?AVfailure@ios_base@std@@
xdata$x	SEGMENT
__CTA5?AVfailure@ios_base@std@@ DD 05H
	DD	FLAT:__CT??_R0?AVfailure@ios_base@std@@@8??0failure@ios_base@std@@QAE@ABV012@@Z20
	DD	FLAT:__CT??_R0?AVsystem_error@std@@@8??0system_error@std@@QAE@ABV01@@Z20
	DD	FLAT:__CT??_R0?AV_System_error@std@@@8??0_System_error@std@@QAE@ABV01@@Z20
	DD	FLAT:__CT??_R0?AVruntime_error@std@@@8??0runtime_error@std@@QAE@ABV01@@Z12
	DD	FLAT:__CT??_R0?AVexception@std@@@8??0exception@std@@QAE@ABV01@@Z12
xdata$x	ENDS
;	COMDAT __TI5?AVfailure@ios_base@std@@
xdata$x	SEGMENT
__TI5?AVfailure@ios_base@std@@ DD 00H
	DD	FLAT:??1failure@ios_base@std@@UAE@XZ
	DD	00H
	DD	FLAT:__CTA5?AVfailure@ios_base@std@@
xdata$x	ENDS
;	COMDAT ??_C@_0BF@OOHOMBOF@ios_base?3?3eofbit?5set@
CONST	SEGMENT
??_C@_0BF@OOHOMBOF@ios_base?3?3eofbit?5set@ DB 'ios_base::eofbit set', 00H ; `string'
CONST	ENDS
;	COMDAT ??_C@_0BG@FMKFHCIL@ios_base?3?3failbit?5set@
CONST	SEGMENT
??_C@_0BG@FMKFHCIL@ios_base?3?3failbit?5set@ DB 'ios_base::failbit set', 00H ; `string'
CONST	ENDS
;	COMDAT ??_C@_0BF@PHHKMMFD@ios_base?3?3badbit?5set@
CONST	SEGMENT
??_C@_0BF@PHHKMMFD@ios_base?3?3badbit?5set@ DB 'ios_base::badbit set', 00H ; `string'
CONST	ENDS
;	COMDAT ??_7failure@ios_base@std@@6B@
CONST	SEGMENT
??_7failure@ios_base@std@@6B@ DD FLAT:??_R4failure@ios_base@std@@6B@ ; std::ios_base::failure::`vftable'
	DD	FLAT:??_Efailure@ios_base@std@@UAEPAXI@Z
	DD	FLAT:?what@exception@std@@UBEPBDXZ
CONST	ENDS
;	COMDAT ??_7?$ctype@D@std@@6B@
CONST	SEGMENT
??_7?$ctype@D@std@@6B@ DD FLAT:??_R4?$ctype@D@std@@6B@	; std::ctype<char>::`vftable'
	DD	FLAT:??_E?$ctype@D@std@@MAEPAXI@Z
	DD	FLAT:?_Incref@facet@locale@std@@UAEXXZ
	DD	FLAT:?_Decref@facet@locale@std@@UAEPAV_Facet_base@3@XZ
	DD	FLAT:?do_tolower@?$ctype@D@std@@MBEPBDPADPBD@Z
	DD	FLAT:?do_tolower@?$ctype@D@std@@MBEDD@Z
	DD	FLAT:?do_toupper@?$ctype@D@std@@MBEPBDPADPBD@Z
	DD	FLAT:?do_toupper@?$ctype@D@std@@MBEDD@Z
	DD	FLAT:?do_widen@?$ctype@D@std@@MBEPBDPBD0PAD@Z
	DD	FLAT:?do_widen@?$ctype@D@std@@MBEDD@Z
	DD	FLAT:?do_narrow@?$ctype@D@std@@MBEPBDPBD0DPAD@Z
	DD	FLAT:?do_narrow@?$ctype@D@std@@MBEDDD@Z
CONST	ENDS
;	COMDAT ??_7ctype_base@std@@6B@
CONST	SEGMENT
??_7ctype_base@std@@6B@ DD FLAT:??_R4ctype_base@std@@6B@ ; std::ctype_base::`vftable'
	DD	FLAT:??_Ectype_base@std@@UAEPAXI@Z
	DD	FLAT:?_Incref@facet@locale@std@@UAEXXZ
	DD	FLAT:?_Decref@facet@locale@std@@UAEPAV_Facet_base@3@XZ
CONST	ENDS
;	COMDAT ??_C@_00CNPNBAHC@@
CONST	SEGMENT
??_C@_00CNPNBAHC@@ DB 00H				; `string'
CONST	ENDS
;	COMDAT ??_7facet@locale@std@@6B@
CONST	SEGMENT
??_7facet@locale@std@@6B@ DD FLAT:??_R4facet@locale@std@@6B@ ; std::locale::facet::`vftable'
	DD	FLAT:??_Efacet@locale@std@@MAEPAXI@Z
	DD	FLAT:?_Incref@facet@locale@std@@UAEXXZ
	DD	FLAT:?_Decref@facet@locale@std@@UAEPAV_Facet_base@3@XZ
CONST	ENDS
;	COMDAT ??_C@_0GC@DIOGEBP@C?3?2Program?5Files?2Microsoft?5Visu@
CONST	SEGMENT
??_C@_0GC@DIOGEBP@C?3?2Program?5Files?2Microsoft?5Visu@ DB 'C:\Program Fi'
	DB	'les\Microsoft Visual Studio\2022\Community\VC\Tools\MSVC\14.4'
	DB	'4.35207\include\xlocale', 00H		; `string'
CONST	ENDS
;	COMDAT ??_C@_0BA@ELKIONDK@bad?5locale?5name@
CONST	SEGMENT
??_C@_0BA@ELKIONDK@bad?5locale?5name@ DB 'bad locale name', 00H ; `string'
CONST	ENDS
;	COMDAT ??_7_Facet_base@std@@6B@
CONST	SEGMENT
??_7_Facet_base@std@@6B@ DD FLAT:??_R4_Facet_base@std@@6B@ ; std::_Facet_base::`vftable'
	DD	FLAT:??_E_Facet_base@std@@UAEPAXI@Z
	DD	FLAT:__purecall
	DD	FLAT:__purecall
CONST	ENDS
;	COMDAT __CT??_R0?AVbad_cast@std@@@8??0bad_cast@std@@QAE@ABV01@@Z12
xdata$x	SEGMENT
__CT??_R0?AVbad_cast@std@@@8??0bad_cast@std@@QAE@ABV01@@Z12 DD 00H
	DD	FLAT:??_R0?AVbad_cast@std@@@8
	DD	00H
	DD	0ffffffffH
	ORG $+4
	DD	0cH
	DD	FLAT:??0bad_cast@std@@QAE@ABV01@@Z
xdata$x	ENDS
;	COMDAT ??_R0?AVbad_cast@std@@@8
data$r	SEGMENT
??_R0?AVbad_cast@std@@@8 DD FLAT:??_7type_info@@6B@	; std::bad_cast `RTTI Type Descriptor'
	DD	00H
	DB	'.?AVbad_cast@std@@', 00H
data$r	ENDS
;	COMDAT __CTA2?AVbad_cast@std@@
xdata$x	SEGMENT
__CTA2?AVbad_cast@std@@ DD 02H
	DD	FLAT:__CT??_R0?AVbad_cast@std@@@8??0bad_cast@std@@QAE@ABV01@@Z12
	DD	FLAT:__CT??_R0?AVexception@std@@@8??0exception@std@@QAE@ABV01@@Z12
xdata$x	ENDS
;	COMDAT __TI2?AVbad_cast@std@@
xdata$x	SEGMENT
__TI2?AVbad_cast@std@@ DD 00H
	DD	FLAT:??1bad_cast@std@@UAE@XZ
	DD	00H
	DD	FLAT:__CTA2?AVbad_cast@std@@
xdata$x	ENDS
;	COMDAT ??_C@_08EPJLHIJG@bad?5cast@
CONST	SEGMENT
??_C@_08EPJLHIJG@bad?5cast@ DB 'bad cast', 00H		; `string'
CONST	ENDS
;	COMDAT ??_7bad_cast@std@@6B@
CONST	SEGMENT
??_7bad_cast@std@@6B@ DD FLAT:??_R4bad_cast@std@@6B@	; std::bad_cast::`vftable'
	DD	FLAT:??_Ebad_cast@std@@UAEPAXI@Z
	DD	FLAT:?what@exception@std@@UBEPBDXZ
CONST	ENDS
;	COMDAT ?_Iostream_error@?4??message@_Iostream_error_category2@std@@UBE?AV?$basic_string@DU?$char_traits@D@std@@V?$allocator@D@2@@3@H@Z@4QBDB
CONST	SEGMENT
?_Iostream_error@?4??message@_Iostream_error_category2@std@@UBE?AV?$basic_string@DU?$char_traits@D@std@@V?$allocator@D@2@@3@H@Z@4QBDB DB 069H ; `std::_Iostream_error_category2::message'::`5'::_Iostream_error
	DB	06fH
	DB	073H
	DB	074H
	DB	072H
	DB	065H
	DB	061H
	DB	06dH
	DB	020H
	DB	073H
	DB	074H
	DB	072H
	DB	065H
	DB	061H
	DB	06dH
	DB	020H
	DB	065H
	DB	072H
	DB	072H
	DB	06fH
	DB	072H
	DB	00H
CONST	ENDS
;	COMDAT ??_C@_08LLGCOLLL@iostream@
CONST	SEGMENT
??_C@_08LLGCOLLL@iostream@ DB 'iostream', 00H		; `string'
CONST	ENDS
;	COMDAT ??_7_Iostream_error_category2@std@@6B@
CONST	SEGMENT
??_7_Iostream_error_category2@std@@6B@ DD FLAT:??_R4_Iostream_error_category2@std@@6B@ ; std::_Iostream_error_category2::`vftable'
	DD	FLAT:??_E_Iostream_error_category2@std@@UAEPAXI@Z
	DD	FLAT:?name@_Iostream_error_category2@std@@UBEPBDXZ
	DD	FLAT:?message@_Iostream_error_category2@std@@UBE?AV?$basic_string@DU?$char_traits@D@std@@V?$allocator@D@2@@2@H@Z
	DD	FLAT:?default_error_condition@error_category@std@@UBE?AVerror_condition@2@H@Z
	DD	FLAT:?equivalent@error_category@std@@UBE_NABVerror_code@2@H@Z
	DD	FLAT:?equivalent@error_category@std@@UBE_NHABVerror_condition@2@@Z
CONST	ENDS
;	COMDAT __CT??_R0?AV_System_error@std@@@8??0_System_error@std@@QAE@ABV01@@Z20
xdata$x	SEGMENT
__CT??_R0?AV_System_error@std@@@8??0_System_error@std@@QAE@ABV01@@Z20 DD 00H
	DD	FLAT:??_R0?AV_System_error@std@@@8
	DD	00H
	DD	0ffffffffH
	ORG $+4
	DD	014H
	DD	FLAT:??0_System_error@std@@QAE@ABV01@@Z
xdata$x	ENDS
;	COMDAT ??_R0?AV_System_error@std@@@8
data$r	SEGMENT
??_R0?AV_System_error@std@@@8 DD FLAT:??_7type_info@@6B@ ; std::_System_error `RTTI Type Descriptor'
	DD	00H
	DB	'.?AV_System_error@std@@', 00H
data$r	ENDS
;	COMDAT __CT??_R0?AVsystem_error@std@@@8??0system_error@std@@QAE@ABV01@@Z20
xdata$x	SEGMENT
__CT??_R0?AVsystem_error@std@@@8??0system_error@std@@QAE@ABV01@@Z20 DD 00H
	DD	FLAT:??_R0?AVsystem_error@std@@@8
	DD	00H
	DD	0ffffffffH
	ORG $+4
	DD	014H
	DD	FLAT:??0system_error@std@@QAE@ABV01@@Z
xdata$x	ENDS
;	COMDAT ??_R0?AVsystem_error@std@@@8
data$r	SEGMENT
??_R0?AVsystem_error@std@@@8 DD FLAT:??_7type_info@@6B@	; std::system_error `RTTI Type Descriptor'
	DD	00H
	DB	'.?AVsystem_error@std@@', 00H
data$r	ENDS
;	COMDAT ??_7system_error@std@@6B@
CONST	SEGMENT
??_7system_error@std@@6B@ DD FLAT:??_R4system_error@std@@6B@ ; std::system_error::`vftable'
	DD	FLAT:??_Esystem_error@std@@UAEPAXI@Z
	DD	FLAT:?what@exception@std@@UBEPBDXZ
CONST	ENDS
;	COMDAT ??_C@_02LMMGGCAJ@?3?5@
CONST	SEGMENT
??_C@_02LMMGGCAJ@?3?5@ DB ': ', 00H			; `string'
CONST	ENDS
;	COMDAT ??_7_System_error@std@@6B@
CONST	SEGMENT
??_7_System_error@std@@6B@ DD FLAT:??_R4_System_error@std@@6B@ ; std::_System_error::`vftable'
	DD	FLAT:??_E_System_error@std@@UAEPAXI@Z
	DD	FLAT:?what@exception@std@@UBEPBDXZ
CONST	ENDS
;	COMDAT __CT??_R0?AVruntime_error@std@@@8??0runtime_error@std@@QAE@ABV01@@Z12
xdata$x	SEGMENT
__CT??_R0?AVruntime_error@std@@@8??0runtime_error@std@@QAE@ABV01@@Z12 DD 00H
	DD	FLAT:??_R0?AVruntime_error@std@@@8
	DD	00H
	DD	0ffffffffH
	ORG $+4
	DD	0cH
	DD	FLAT:??0runtime_error@std@@QAE@ABV01@@Z
xdata$x	ENDS
;	COMDAT ??_R0?AVruntime_error@std@@@8
data$r	SEGMENT
??_R0?AVruntime_error@std@@@8 DD FLAT:??_7type_info@@6B@ ; std::runtime_error `RTTI Type Descriptor'
	DD	00H
	DB	'.?AVruntime_error@std@@', 00H
data$r	ENDS
;	COMDAT ??_7runtime_error@std@@6B@
CONST	SEGMENT
??_7runtime_error@std@@6B@ DD FLAT:??_R4runtime_error@std@@6B@ ; std::runtime_error::`vftable'
	DD	FLAT:??_Eruntime_error@std@@UAEPAXI@Z
	DD	FLAT:?what@exception@std@@UBEPBDXZ
CONST	ENDS
;	COMDAT ??_C@_0BA@JFNIOLAK@string?5too?5long@
CONST	SEGMENT
??_C@_0BA@JFNIOLAK@string?5too?5long@ DB 'string too long', 00H ; `string'
CONST	ENDS
;	COMDAT ??_C@_0BJ@LFDBABJJ@ITERATOR?5LIST?5CORRUPTED?$CB@
CONST	SEGMENT
??_C@_0BJ@LFDBABJJ@ITERATOR?5LIST?5CORRUPTED?$CB@ DB 'ITERATOR LIST CORRU'
	DB	'PTED!', 00H					; `string'
CONST	ENDS
;	COMDAT ??_C@_0GC@KLECFGLI@C?3?2Program?5Files?2Microsoft?5Visu@
CONST	SEGMENT
??_C@_0GC@KLECFGLI@C?3?2Program?5Files?2Microsoft?5Visu@ DB 'C:\Program F'
	DB	'iles\Microsoft Visual Studio\2022\Community\VC\Tools\MSVC\14.'
	DB	'44.35207\include\xmemory', 00H		; `string'
CONST	ENDS
;	COMDAT ??_C@_02DKCKIIND@?$CFs@
CONST	SEGMENT
??_C@_02DKCKIIND@?$CFs@ DB '%s', 00H			; `string'
CONST	ENDS
;	COMDAT ??_C@_0BB@FCMFBGOM@invalid?5argument@
CONST	SEGMENT
??_C@_0BB@FCMFBGOM@invalid?5argument@ DB 'invalid argument', 00H ; `string'
CONST	ENDS
;	COMDAT __CT??_R0?AVbad_alloc@std@@@8??0bad_alloc@std@@QAE@ABV01@@Z12
xdata$x	SEGMENT
__CT??_R0?AVbad_alloc@std@@@8??0bad_alloc@std@@QAE@ABV01@@Z12 DD 010H
	DD	FLAT:??_R0?AVbad_alloc@std@@@8
	DD	00H
	DD	0ffffffffH
	ORG $+4
	DD	0cH
	DD	FLAT:??0bad_alloc@std@@QAE@ABV01@@Z
xdata$x	ENDS
;	COMDAT ??_R0?AVbad_alloc@std@@@8
data$r	SEGMENT
??_R0?AVbad_alloc@std@@@8 DD FLAT:??_7type_info@@6B@	; std::bad_alloc `RTTI Type Descriptor'
	DD	00H
	DB	'.?AVbad_alloc@std@@', 00H
data$r	ENDS
;	COMDAT __CT??_R0?AVbad_array_new_length@std@@@8??0bad_array_new_length@std@@QAE@ABV01@@Z12
xdata$x	SEGMENT
__CT??_R0?AVbad_array_new_length@std@@@8??0bad_array_new_length@std@@QAE@ABV01@@Z12 DD 00H
	DD	FLAT:??_R0?AVbad_array_new_length@std@@@8
	DD	00H
	DD	0ffffffffH
	ORG $+4
	DD	0cH
	DD	FLAT:??0bad_array_new_length@std@@QAE@ABV01@@Z
xdata$x	ENDS
;	COMDAT ??_R0?AVbad_array_new_length@std@@@8
data$r	SEGMENT
??_R0?AVbad_array_new_length@std@@@8 DD FLAT:??_7type_info@@6B@ ; std::bad_array_new_length `RTTI Type Descriptor'
	DD	00H
	DB	'.?AVbad_array_new_length@std@@', 00H
data$r	ENDS
;	COMDAT __CTA3?AVbad_array_new_length@std@@
xdata$x	SEGMENT
__CTA3?AVbad_array_new_length@std@@ DD 03H
	DD	FLAT:__CT??_R0?AVbad_array_new_length@std@@@8??0bad_array_new_length@std@@QAE@ABV01@@Z12
	DD	FLAT:__CT??_R0?AVbad_alloc@std@@@8??0bad_alloc@std@@QAE@ABV01@@Z12
	DD	FLAT:__CT??_R0?AVexception@std@@@8??0exception@std@@QAE@ABV01@@Z12
xdata$x	ENDS
;	COMDAT __TI3?AVbad_array_new_length@std@@
xdata$x	SEGMENT
__TI3?AVbad_array_new_length@std@@ DD 00H
	DD	FLAT:??1bad_array_new_length@std@@UAE@XZ
	DD	00H
	DD	FLAT:__CTA3?AVbad_array_new_length@std@@
xdata$x	ENDS
;	COMDAT __CT??_R0?AVexception@std@@@8??0exception@std@@QAE@ABV01@@Z12
xdata$x	SEGMENT
__CT??_R0?AVexception@std@@@8??0exception@std@@QAE@ABV01@@Z12 DD 00H
	DD	FLAT:??_R0?AVexception@std@@@8
	DD	00H
	DD	0ffffffffH
	ORG $+4
	DD	0cH
	DD	FLAT:??0exception@std@@QAE@ABV01@@Z
xdata$x	ENDS
;	COMDAT ??_R0?AVexception@std@@@8
data$r	SEGMENT
??_R0?AVexception@std@@@8 DD FLAT:??_7type_info@@6B@	; std::exception `RTTI Type Descriptor'
	DD	00H
	DB	'.?AVexception@std@@', 00H
data$r	ENDS
;	COMDAT ??_C@_0BF@KINCDENJ@bad?5array?5new?5length@
CONST	SEGMENT
??_C@_0BF@KINCDENJ@bad?5array?5new?5length@ DB 'bad array new length', 00H ; `string'
CONST	ENDS
;	COMDAT ??_7bad_array_new_length@std@@6B@
CONST	SEGMENT
??_7bad_array_new_length@std@@6B@ DD FLAT:??_R4bad_array_new_length@std@@6B@ ; std::bad_array_new_length::`vftable'
	DD	FLAT:??_Ebad_array_new_length@std@@UAEPAXI@Z
	DD	FLAT:?what@exception@std@@UBEPBDXZ
CONST	ENDS
;	COMDAT ??_7bad_alloc@std@@6B@
CONST	SEGMENT
??_7bad_alloc@std@@6B@ DD FLAT:??_R4bad_alloc@std@@6B@	; std::bad_alloc::`vftable'
	DD	FLAT:??_Ebad_alloc@std@@UAEPAXI@Z
	DD	FLAT:?what@exception@std@@UBEPBDXZ
CONST	ENDS
;	COMDAT ??_C@_0BC@EOODALEL@Unknown?5exception@
CONST	SEGMENT
??_C@_0BC@EOODALEL@Unknown?5exception@ DB 'Unknown exception', 00H ; `string'
CONST	ENDS
;	COMDAT ??_7exception@std@@6B@
CONST	SEGMENT
??_7exception@std@@6B@ DD FLAT:??_R4exception@std@@6B@	; std::exception::`vftable'
	DD	FLAT:??_Eexception@std@@UAEPAXI@Z
	DD	FLAT:?what@exception@std@@UBEPBDXZ
CONST	ENDS
;	COMDAT voltbl
voltbl	SEGMENT
_volmd	DB	09H
voltbl	ENDS
;	COMDAT xdata$x
xdata$x	SEGMENT
__ehfuncinfo$??$_Deallocate@$07@std@@YAXPAXI@Z DD 019930522H
	DD	00H
	DD	00H
	DD	2 DUP(00H)
	DD	2 DUP(00H)
	DD	00H
	DD	05H
xdata$x	ENDS
;	COMDAT voltbl
voltbl	SEGMENT
_volmd	DB	09H
voltbl	ENDS
;	COMDAT xdata$x
xdata$x	SEGMENT
__ehfuncinfo$??$?0ABV?$basic_string@DU?$char_traits@D@std@@V?$allocator@D@2@@std@@$0A@@?$tuple@ABV?$basic_string@DU?$char_traits@D@std@@V?$allocator@D@2@@std@@@std@@QAE@ABV?$basic_string@DU?$char_traits@D@std@@V?$allocator@D@2@@1@@Z DD 019930522H
	DD	00H
	DD	00H
	DD	2 DUP(00H)
	DD	2 DUP(00H)
	DD	00H
	DD	05H
xdata$x	ENDS
;	COMDAT voltbl
voltbl	SEGMENT
_volmd	DB	09H
voltbl	ENDS
;	COMDAT xdata$x
xdata$x	SEGMENT
__ehfuncinfo$??$_Freenode@V?$allocator@U?$_Tree_node@U?$pair@$$CBV?$basic_string@DU?$char_traits@D@std@@V?$allocator@D@2@@std@@PAVFuzzyVariable@@@std@@PAX@std@@@std@@@?$_Tree_node@U?$pair@$$CBV?$basic_string@DU?$char_traits@D@std@@V?$allocator@D@2@@std@@PAVFuzzyVariable@@@std@@PAX@std@@SAXAAV?$allocator@U?$_Tree_node@U?$pair@$$CBV?$basic_string@DU?$char_traits@D@std@@V?$allocator@D@2@@std@@PAVFuzzyVariable@@@std@@PAX@std@@@1@PAU01@@Z DD 019930522H
	DD	00H
	DD	00H
	DD	2 DUP(00H)
	DD	2 DUP(00H)
	DD	00H
	DD	05H
xdata$x	ENDS
;	COMDAT voltbl
voltbl	SEGMENT
_volmd	DB	016H
voltbl	ENDS
;	COMDAT xdata$x
xdata$x	SEGMENT
__unwindtable$??$_Uninitialized_move@PAPAVFuzzyRule@@V?$allocator@PAVFuzzyRule@@@std@@@std@@YAPAPAVFuzzyRule@@QAPAV1@0PAPAV1@AAV?$allocator@PAVFuzzyRule@@@0@@Z DD 0ffffffffH
	DD	FLAT:__unwindfunclet$??$_Uninitialized_move@PAPAVFuzzyRule@@V?$allocator@PAVFuzzyRule@@@std@@@std@@YAPAPAVFuzzyRule@@QAPAV1@0PAPAV1@AAV?$allocator@PAVFuzzyRule@@@0@@Z$0
__ehfuncinfo$??$_Uninitialized_move@PAPAVFuzzyRule@@V?$allocator@PAVFuzzyRule@@@std@@@std@@YAPAPAVFuzzyRule@@QAPAV1@0PAPAV1@AAV?$allocator@PAVFuzzyRule@@@0@@Z DD 019930522H
	DD	01H
	DD	FLAT:__unwindtable$??$_Uninitialized_move@PAPAVFuzzyRule@@V?$allocator@PAVFuzzyRule@@@std@@@std@@YAPAPAVFuzzyRule@@QAPAV1@0PAPAV1@AAV?$allocator@PAVFuzzyRule@@@0@@Z
	DD	2 DUP(00H)
	DD	2 DUP(00H)
	DD	00H
	DD	01H
xdata$x	ENDS
;	COMDAT voltbl
voltbl	SEGMENT
_volmd	DB	016H
voltbl	ENDS
;	COMDAT xdata$x
xdata$x	SEGMENT
__unwindtable$??$?0ABUpiecewise_construct_t@std@@V?$tuple@ABV?$basic_string@DU?$char_traits@D@std@@V?$allocator@D@2@@std@@@1@V?$tuple@$$V@1@@?$_Tree_temp_node@V?$allocator@U?$_Tree_node@U?$pair@$$CBV?$basic_string@DU?$char_traits@D@std@@V?$allocator@D@2@@std@@PAVFuzzyVariable@@@std@@PAX@std@@@std@@@std@@QAE@AAV?$allocator@U?$_Tree_node@U?$pair@$$CBV?$basic_string@DU?$char_traits@D@std@@V?$allocator@D@2@@std@@PAVFuzzyVariable@@@std@@PAX@std@@@1@PAU?$_Tree_node@U?$pair@$$CBV?$basic_string@DU?$char_traits@D@std@@V?$allocator@D@2@@std@@PAVFuzzyVariable@@@std@@PAX@1@ABUpiecewise_construct_t@1@$$QAV?$tuple@ABV?$basic_string@DU?$char_traits@D@std@@V?$allocator@D@2@@std@@@1@$$QAV?$tuple@$$V@1@@Z DD 0ffffffffH
	DD	FLAT:__unwindfunclet$??$?0ABUpiecewise_construct_t@std@@V?$tuple@ABV?$basic_string@DU?$char_traits@D@std@@V?$allocator@D@2@@std@@@1@V?$tuple@$$V@1@@?$_Tree_temp_node@V?$allocator@U?$_Tree_node@U?$pair@$$CBV?$basic_string@DU?$char_traits@D@std@@V?$allocator@D@2@@std@@PAVFuzzyVariable@@@std@@PAX@std@@@std@@@std@@QAE@AAV?$allocator@U?$_Tree_node@U?$pair@$$CBV?$basic_string@DU?$char_traits@D@std@@V?$allocator@D@2@@std@@PAVFuzzyVariable@@@std@@PAX@std@@@1@PAU?$_Tree_node@U?$pair@$$CBV?$basic_string@DU?$char_traits@D@std@@V?$allocator@D@2@@std@@PAVFuzzyVariable@@@std@@PAX@1@ABUpiecewise_construct_t@1@$$QAV?$tuple@ABV?$basic_string@DU?$char_traits@D@std@@V?$allocator@D@2@@std@@@1@$$QAV?$tuple@$$V@1@@Z$0
__ehfuncinfo$??$?0ABUpiecewise_construct_t@std@@V?$tuple@ABV?$basic_string@DU?$char_traits@D@std@@V?$allocator@D@2@@std@@@1@V?$tuple@$$V@1@@?$_Tree_temp_node@V?$allocator@U?$_Tree_node@U?$pair@$$CBV?$basic_string@DU?$char_traits@D@std@@V?$allocator@D@2@@std@@PAVFuzzyVariable@@@std@@PAX@std@@@std@@@std@@QAE@AAV?$allocator@U?$_Tree_node@U?$pair@$$CBV?$basic_string@DU?$char_traits@D@std@@V?$allocator@D@2@@std@@PAVFuzzyVariable@@@std@@PAX@std@@@1@PAU?$_Tree_node@U?$pair@$$CBV?$basic_string@DU?$char_traits@D@std@@V?$allocator@D@2@@std@@PAVFuzzyVariable@@@std@@PAX@1@ABUpiecewise_construct_t@1@$$QAV?$tuple@ABV?$basic_string@DU?$char_traits@D@std@@V?$allocator@D@2@@std@@@1@$$QAV?$tuple@$$V@1@@Z DD 019930522H
	DD	01H
	DD	FLAT:__unwindtable$??$?0ABUpiecewise_construct_t@std@@V?$tuple@ABV?$basic_string@DU?$char_traits@D@std@@V?$allocator@D@2@@std@@@1@V?$tuple@$$V@1@@?$_Tree_temp_node@V?$allocator@U?$_Tree_node@U?$pair@$$CBV?$basic_string@DU?$char_traits@D@std@@V?$allocator@D@2@@std@@PAVFuzzyVariable@@@std@@PAX@std@@@std@@@std@@QAE@AAV?$allocator@U?$_Tree_node@U?$pair@$$CBV?$basic_string@DU?$char_traits@D@std@@V?$allocator@D@2@@std@@PAVFuzzyVariable@@@std@@PAX@std@@@1@PAU?$_Tree_node@U?$pair@$$CBV?$basic_string@DU?$char_traits@D@std@@V?$allocator@D@2@@std@@PAVFuzzyVariable@@@std@@PAX@1@ABUpiecewise_construct_t@1@$$QAV?$tuple@ABV?$basic_string@DU?$char_traits@D@std@@V?$allocator@D@2@@std@@@1@$$QAV?$tuple@$$V@1@@Z
	DD	2 DUP(00H)
	DD	2 DUP(00H)
	DD	00H
	DD	01H
xdata$x	ENDS
;	COMDAT voltbl
voltbl	SEGMENT
_volmd	DB	09H
voltbl	ENDS
;	COMDAT xdata$x
xdata$x	SEGMENT
__ehfuncinfo$??1?$_Tree_temp_node@V?$allocator@U?$_Tree_node@U?$pair@$$CBV?$basic_string@DU?$char_traits@D@std@@V?$allocator@D@2@@std@@PAVFuzzyVariable@@@std@@PAX@std@@@std@@@std@@QAE@XZ DD 019930522H
	DD	00H
	DD	00H
	DD	2 DUP(00H)
	DD	2 DUP(00H)
	DD	00H
	DD	05H
xdata$x	ENDS
;	COMDAT voltbl
voltbl	SEGMENT
_volmd	DB	016H
voltbl	ENDS
;	COMDAT xdata$x
xdata$x	SEGMENT
__unwindtable$??0?$_Tree_temp_node_alloc@V?$allocator@U?$_Tree_node@U?$pair@$$CBV?$basic_string@DU?$char_traits@D@std@@V?$allocator@D@2@@std@@PAVFuzzyVariable@@@std@@PAX@std@@@std@@@std@@QAE@AAV?$allocator@U?$_Tree_node@U?$pair@$$CBV?$basic_string@DU?$char_traits@D@std@@V?$allocator@D@2@@std@@PAVFuzzyVariable@@@std@@PAX@std@@@1@@Z DD 0ffffffffH
	DD	FLAT:__unwindfunclet$??0?$_Tree_temp_node_alloc@V?$allocator@U?$_Tree_node@U?$pair@$$CBV?$basic_string@DU?$char_traits@D@std@@V?$allocator@D@2@@std@@PAVFuzzyVariable@@@std@@PAX@std@@@std@@@std@@QAE@AAV?$allocator@U?$_Tree_node@U?$pair@$$CBV?$basic_string@DU?$char_traits@D@std@@V?$allocator@D@2@@std@@PAVFuzzyVariable@@@std@@PAX@std@@@1@@Z$0
__ehfuncinfo$??0?$_Tree_temp_node_alloc@V?$allocator@U?$_Tree_node@U?$pair@$$CBV?$basic_string@DU?$char_traits@D@std@@V?$allocator@D@2@@std@@PAVFuzzyVariable@@@std@@PAX@std@@@std@@@std@@QAE@AAV?$allocator@U?$_Tree_node@U?$pair@$$CBV?$basic_string@DU?$char_traits@D@std@@V?$allocator@D@2@@std@@PAVFuzzyVariable@@@std@@PAX@std@@@1@@Z DD 019930522H
	DD	01H
	DD	FLAT:__unwindtable$??0?$_Tree_temp_node_alloc@V?$allocator@U?$_Tree_node@U?$pair@$$CBV?$basic_string@DU?$char_traits@D@std@@V?$allocator@D@2@@std@@PAVFuzzyVariable@@@std@@PAX@std@@@std@@@std@@QAE@AAV?$allocator@U?$_Tree_node@U?$pair@$$CBV?$basic_string@DU?$char_traits@D@std@@V?$allocator@D@2@@std@@PAVFuzzyVariable@@@std@@PAX@std@@@1@@Z
	DD	2 DUP(00H)
	DD	2 DUP(00H)
	DD	00H
	DD	01H
xdata$x	ENDS
;	COMDAT voltbl
voltbl	SEGMENT
_volmd	DB	016H
voltbl	ENDS
;	COMDAT xdata$x
xdata$x	SEGMENT
__unwindtable$??$_Emplace_reallocate@PAVFuzzyRule@@@?$vector@PAVFuzzyRule@@V?$allocator@PAVFuzzyRule@@@std@@@std@@AAEPAPAVFuzzyRule@@QAPAV2@$$QAPAV2@@Z DD 0ffffffffH
	DD	FLAT:__unwindfunclet$??$_Emplace_reallocate@PAVFuzzyRule@@@?$vector@PAVFuzzyRule@@V?$allocator@PAVFuzzyRule@@@std@@@std@@AAEPAPAVFuzzyRule@@QAPAV2@$$QAPAV2@@Z$0
__ehfuncinfo$??$_Emplace_reallocate@PAVFuzzyRule@@@?$vector@PAVFuzzyRule@@V?$allocator@PAVFuzzyRule@@@std@@@std@@AAEPAPAVFuzzyRule@@QAPAV2@$$QAPAV2@@Z DD 019930522H
	DD	01H
	DD	FLAT:__unwindtable$??$_Emplace_reallocate@PAVFuzzyRule@@@?$vector@PAVFuzzyRule@@V?$allocator@PAVFuzzyRule@@@std@@@std@@AAEPAPAVFuzzyRule@@QAPAV2@$$QAPAV2@@Z
	DD	2 DUP(00H)
	DD	2 DUP(00H)
	DD	00H
	DD	01H
xdata$x	ENDS
;	COMDAT voltbl
voltbl	SEGMENT
_volmd	DB	016H
voltbl	ENDS
;	COMDAT xdata$x
xdata$x	SEGMENT
__unwindtable$??$_Construct@$01PBD@?$basic_string@DU?$char_traits@D@std@@V?$allocator@D@2@@std@@AAEXQBDI@Z DD 0ffffffffH
	DD	FLAT:__unwindfunclet$??$_Construct@$01PBD@?$basic_string@DU?$char_traits@D@std@@V?$allocator@D@2@@std@@AAEXQBDI@Z$0
__ehfuncinfo$??$_Construct@$01PBD@?$basic_string@DU?$char_traits@D@std@@V?$allocator@D@2@@std@@AAEXQBDI@Z DD 019930522H
	DD	01H
	DD	FLAT:__unwindtable$??$_Construct@$01PBD@?$basic_string@DU?$char_traits@D@std@@V?$allocator@D@2@@std@@AAEXQBDI@Z
	DD	2 DUP(00H)
	DD	2 DUP(00H)
	DD	00H
	DD	01H
xdata$x	ENDS
;	COMDAT voltbl
voltbl	SEGMENT
_volmd	DB	016H
voltbl	ENDS
;	COMDAT xdata$x
xdata$x	SEGMENT
__unwindtable$??$_Construct@$00PBD@?$basic_string@DU?$char_traits@D@std@@V?$allocator@D@2@@std@@AAEXQBDI@Z DD 0ffffffffH
	DD	FLAT:__unwindfunclet$??$_Construct@$00PBD@?$basic_string@DU?$char_traits@D@std@@V?$allocator@D@2@@std@@AAEXQBDI@Z$0
__ehfuncinfo$??$_Construct@$00PBD@?$basic_string@DU?$char_traits@D@std@@V?$allocator@D@2@@std@@AAEXQBDI@Z DD 019930522H
	DD	01H
	DD	FLAT:__unwindtable$??$_Construct@$00PBD@?$basic_string@DU?$char_traits@D@std@@V?$allocator@D@2@@std@@AAEXQBDI@Z
	DD	2 DUP(00H)
	DD	2 DUP(00H)
	DD	00H
	DD	01H
xdata$x	ENDS
;	COMDAT voltbl
voltbl	SEGMENT
_volmd	DB	016H
voltbl	ENDS
;	COMDAT xdata$x
xdata$x	SEGMENT
__catchsym$??$_Insert_string@DU?$char_traits@D@std@@I@std@@YAAAV?$basic_ostream@DU?$char_traits@D@std@@@0@AAV10@QBDI@Z$3 DD 040H
	DD	00H
	DD	00H
	DD	FLAT:__catch$??$_Insert_string@DU?$char_traits@D@std@@I@std@@YAAAV?$basic_ostream@DU?$char_traits@D@std@@@0@AAV10@QBDI@Z$0
__tryblocktable$??$_Insert_string@DU?$char_traits@D@std@@I@std@@YAAAV?$basic_ostream@DU?$char_traits@D@std@@@0@AAV10@QBDI@Z DD 01H
	DD	01H
	DD	02H
	DD	01H
	DD	FLAT:__catchsym$??$_Insert_string@DU?$char_traits@D@std@@I@std@@YAAAV?$basic_ostream@DU?$char_traits@D@std@@@0@AAV10@QBDI@Z$3
__unwindtable$??$_Insert_string@DU?$char_traits@D@std@@I@std@@YAAAV?$basic_ostream@DU?$char_traits@D@std@@@0@AAV10@QBDI@Z DD 0ffffffffH
	DD	FLAT:__unwindfunclet$??$_Insert_string@DU?$char_traits@D@std@@I@std@@YAAAV?$basic_ostream@DU?$char_traits@D@std@@@0@AAV10@QBDI@Z$2
	DD	00H
	DD	00H
	DD	00H
	DD	00H
__ehfuncinfo$??$_Insert_string@DU?$char_traits@D@std@@I@std@@YAAAV?$basic_ostream@DU?$char_traits@D@std@@@0@AAV10@QBDI@Z DD 019930522H
	DD	03H
	DD	FLAT:__unwindtable$??$_Insert_string@DU?$char_traits@D@std@@I@std@@YAAAV?$basic_ostream@DU?$char_traits@D@std@@@0@AAV10@QBDI@Z
	DD	01H
	DD	FLAT:__tryblocktable$??$_Insert_string@DU?$char_traits@D@std@@I@std@@YAAAV?$basic_ostream@DU?$char_traits@D@std@@@0@AAV10@QBDI@Z
	DD	2 DUP(00H)
	DD	00H
	DD	01H
xdata$x	ENDS
;	COMDAT voltbl
voltbl	SEGMENT
_volmd	DB	016H
voltbl	ENDS
;	COMDAT xdata$x
xdata$x	SEGMENT
__unwindtable$??0sentry@?$basic_ostream@DU?$char_traits@D@std@@@std@@QAE@AAV12@@Z DD 0ffffffffH
	DD	FLAT:__unwindfunclet$??0sentry@?$basic_ostream@DU?$char_traits@D@std@@@std@@QAE@AAV12@@Z$0
__ehfuncinfo$??0sentry@?$basic_ostream@DU?$char_traits@D@std@@@std@@QAE@AAV12@@Z DD 019930522H
	DD	01H
	DD	FLAT:__unwindtable$??0sentry@?$basic_ostream@DU?$char_traits@D@std@@@std@@QAE@AAV12@@Z
	DD	2 DUP(00H)
	DD	2 DUP(00H)
	DD	00H
	DD	01H
xdata$x	ENDS
;	COMDAT voltbl
voltbl	SEGMENT
_volmd	DB	09H
voltbl	ENDS
;	COMDAT xdata$x
xdata$x	SEGMENT
__ehfuncinfo$??1_Sentry_base@?$basic_ostream@DU?$char_traits@D@std@@@std@@QAE@XZ DD 019930522H
	DD	00H
	DD	00H
	DD	2 DUP(00H)
	DD	2 DUP(00H)
	DD	00H
	DD	05H
xdata$x	ENDS
;	COMDAT voltbl
voltbl	SEGMENT
_volmd	DB	016H
voltbl	ENDS
;	COMDAT xdata$x
xdata$x	SEGMENT
__catchsym$??$?6U?$char_traits@D@std@@@std@@YAAAV?$basic_ostream@DU?$char_traits@D@std@@@0@AAV10@PBD@Z$3 DD 040H
	DD	00H
	DD	00H
	DD	FLAT:__catch$??$?6U?$char_traits@D@std@@@std@@YAAAV?$basic_ostream@DU?$char_traits@D@std@@@0@AAV10@PBD@Z$0
__tryblocktable$??$?6U?$char_traits@D@std@@@std@@YAAAV?$basic_ostream@DU?$char_traits@D@std@@@0@AAV10@PBD@Z DD 01H
	DD	01H
	DD	02H
	DD	01H
	DD	FLAT:__catchsym$??$?6U?$char_traits@D@std@@@std@@YAAAV?$basic_ostream@DU?$char_traits@D@std@@@0@AAV10@PBD@Z$3
__unwindtable$??$?6U?$char_traits@D@std@@@std@@YAAAV?$basic_ostream@DU?$char_traits@D@std@@@0@AAV10@PBD@Z DD 0ffffffffH
	DD	FLAT:__unwindfunclet$??$?6U?$char_traits@D@std@@@std@@YAAAV?$basic_ostream@DU?$char_traits@D@std@@@0@AAV10@PBD@Z$2
	DD	00H
	DD	00H
	DD	00H
	DD	00H
__ehfuncinfo$??$?6U?$char_traits@D@std@@@std@@YAAAV?$basic_ostream@DU?$char_traits@D@std@@@0@AAV10@PBD@Z DD 019930522H
	DD	03H
	DD	FLAT:__unwindtable$??$?6U?$char_traits@D@std@@@std@@YAAAV?$basic_ostream@DU?$char_traits@D@std@@@0@AAV10@PBD@Z
	DD	01H
	DD	FLAT:__tryblocktable$??$?6U?$char_traits@D@std@@@std@@YAAAV?$basic_ostream@DU?$char_traits@D@std@@@0@AAV10@PBD@Z
	DD	2 DUP(00H)
	DD	00H
	DD	01H
xdata$x	ENDS
;	COMDAT voltbl
voltbl	SEGMENT
_volmd	DB	016H
voltbl	ENDS
;	COMDAT xdata$x
xdata$x	SEGMENT
__catchsym$?flush@?$basic_ostream@DU?$char_traits@D@std@@@std@@QAEAAV12@XZ$3 DD 040H
	DD	00H
	DD	00H
	DD	FLAT:__catch$?flush@?$basic_ostream@DU?$char_traits@D@std@@@std@@QAEAAV12@XZ$0
__tryblocktable$?flush@?$basic_ostream@DU?$char_traits@D@std@@@std@@QAEAAV12@XZ DD 01H
	DD	01H
	DD	02H
	DD	01H
	DD	FLAT:__catchsym$?flush@?$basic_ostream@DU?$char_traits@D@std@@@std@@QAEAAV12@XZ$3
__unwindtable$?flush@?$basic_ostream@DU?$char_traits@D@std@@@std@@QAEAAV12@XZ DD 0ffffffffH
	DD	FLAT:__unwindfunclet$?flush@?$basic_ostream@DU?$char_traits@D@std@@@std@@QAEAAV12@XZ$2
	DD	00H
	DD	00H
	DD	00H
	DD	00H
__ehfuncinfo$?flush@?$basic_ostream@DU?$char_traits@D@std@@@std@@QAEAAV12@XZ DD 019930522H
	DD	03H
	DD	FLAT:__unwindtable$?flush@?$basic_ostream@DU?$char_traits@D@std@@@std@@QAEAAV12@XZ
	DD	01H
	DD	FLAT:__tryblocktable$?flush@?$basic_ostream@DU?$char_traits@D@std@@@std@@QAEAAV12@XZ
	DD	2 DUP(00H)
	DD	00H
	DD	01H
xdata$x	ENDS
;	COMDAT voltbl
voltbl	SEGMENT
_volmd	DB	016H
voltbl	ENDS
;	COMDAT xdata$x
xdata$x	SEGMENT
__catchsym$?put@?$basic_ostream@DU?$char_traits@D@std@@@std@@QAEAAV12@D@Z$3 DD 040H
	DD	00H
	DD	00H
	DD	FLAT:__catch$?put@?$basic_ostream@DU?$char_traits@D@std@@@std@@QAEAAV12@D@Z$0
__tryblocktable$?put@?$basic_ostream@DU?$char_traits@D@std@@@std@@QAEAAV12@D@Z DD 01H
	DD	01H
	DD	02H
	DD	01H
	DD	FLAT:__catchsym$?put@?$basic_ostream@DU?$char_traits@D@std@@@std@@QAEAAV12@D@Z$3
__unwindtable$?put@?$basic_ostream@DU?$char_traits@D@std@@@std@@QAEAAV12@D@Z DD 0ffffffffH
	DD	FLAT:__unwindfunclet$?put@?$basic_ostream@DU?$char_traits@D@std@@@std@@QAEAAV12@D@Z$2
	DD	00H
	DD	00H
	DD	00H
	DD	00H
__ehfuncinfo$?put@?$basic_ostream@DU?$char_traits@D@std@@@std@@QAEAAV12@D@Z DD 019930522H
	DD	03H
	DD	FLAT:__unwindtable$?put@?$basic_ostream@DU?$char_traits@D@std@@@std@@QAEAAV12@D@Z
	DD	01H
	DD	FLAT:__tryblocktable$?put@?$basic_ostream@DU?$char_traits@D@std@@@std@@QAEAAV12@D@Z
	DD	2 DUP(00H)
	DD	00H
	DD	01H
xdata$x	ENDS
;	COMDAT voltbl
voltbl	SEGMENT
_volmd	DB	09H
voltbl	ENDS
;	COMDAT xdata$x
xdata$x	SEGMENT
__catchsym$?_Osfx@?$basic_ostream@DU?$char_traits@D@std@@@std@@QAEXXZ$2 DD 040H
	DD	00H
	DD	00H
	DD	FLAT:__catch$?_Osfx@?$basic_ostream@DU?$char_traits@D@std@@@std@@QAEXXZ$0
__unwindtable$?_Osfx@?$basic_ostream@DU?$char_traits@D@std@@@std@@QAEXXZ DD 0ffffffffH
	DD	00H
	DD	0ffffffffH
	DD	00H
__tryblocktable$?_Osfx@?$basic_ostream@DU?$char_traits@D@std@@@std@@QAEXXZ DD 00H
	DD	00H
	DD	01H
	DD	01H
	DD	FLAT:__catchsym$?_Osfx@?$basic_ostream@DU?$char_traits@D@std@@@std@@QAEXXZ$2
__ehfuncinfo$?_Osfx@?$basic_ostream@DU?$char_traits@D@std@@@std@@QAEXXZ DD 019930522H
	DD	02H
	DD	FLAT:__unwindtable$?_Osfx@?$basic_ostream@DU?$char_traits@D@std@@@std@@QAEXXZ
	DD	01H
	DD	FLAT:__tryblocktable$?_Osfx@?$basic_ostream@DU?$char_traits@D@std@@@std@@QAEXXZ
	DD	2 DUP(00H)
	DD	00H
	DD	05H
xdata$x	ENDS
;	COMDAT voltbl
voltbl	SEGMENT
_volmd	DB	016H
voltbl	ENDS
;	COMDAT xdata$x
xdata$x	SEGMENT
__unwindtable$?widen@?$basic_ios@DU?$char_traits@D@std@@@std@@QBEDD@Z DD 0ffffffffH
	DD	FLAT:__unwindfunclet$?widen@?$basic_ios@DU?$char_traits@D@std@@@std@@QBEDD@Z$0
__ehfuncinfo$?widen@?$basic_ios@DU?$char_traits@D@std@@@std@@QBEDD@Z DD 019930522H
	DD	01H
	DD	FLAT:__unwindtable$?widen@?$basic_ios@DU?$char_traits@D@std@@@std@@QBEDD@Z
	DD	2 DUP(00H)
	DD	2 DUP(00H)
	DD	00H
	DD	01H
xdata$x	ENDS
voltbl	SEGMENT
_volmd	DD	0ffffffffH
	DDSymXIndex: 	FLAT:__unwindfunclet$?WriteAllDOMs@FuzzyModule@@QAEAAV?$basic_ostream@DU?$char_traits@D@std@@@std@@AAV23@@Z$0
	DD	016H
_volmd	DD	0ffffffffH
	DDSymXIndex: 	FLAT:__unwindfunclet$?AddRule@FuzzyModule@@QAEXAAVFuzzyTerm@@0@Z$0
	DD	01dH
_volmd	DD	0ffffffffH
	DDSymXIndex: 	FLAT:__unwindfunclet$?CreateFLV@FuzzyModule@@QAEAAVFuzzyVariable@@ABV?$basic_string@DU?$char_traits@D@std@@V?$allocator@D@2@@std@@@Z$0
	DD	01dH
voltbl	ENDS
xdata$x	SEGMENT
__unwindtable$?WriteAllDOMs@FuzzyModule@@QAEAAV?$basic_ostream@DU?$char_traits@D@std@@@std@@AAV23@@Z DD 0ffffffffH
	DD	FLAT:__unwindfunclet$?WriteAllDOMs@FuzzyModule@@QAEAAV?$basic_ostream@DU?$char_traits@D@std@@@std@@AAV23@@Z$0
__unwindtable$?AddRule@FuzzyModule@@QAEXAAVFuzzyTerm@@0@Z DD 0ffffffffH
	DD	FLAT:__unwindfunclet$?AddRule@FuzzyModule@@QAEXAAVFuzzyTerm@@0@Z$0
__unwindtable$?CreateFLV@FuzzyModule@@QAEAAVFuzzyVariable@@ABV?$basic_string@DU?$char_traits@D@std@@V?$allocator@D@2@@std@@@Z DD 0ffffffffH
	DD	FLAT:__unwindfunclet$?CreateFLV@FuzzyModule@@QAEAAVFuzzyVariable@@ABV?$basic_string@DU?$char_traits@D@std@@V?$allocator@D@2@@std@@@Z$0
__ehfuncinfo$?WriteAllDOMs@FuzzyModule@@QAEAAV?$basic_ostream@DU?$char_traits@D@std@@@std@@AAV23@@Z DD 019930522H
	DD	01H
	DD	FLAT:__unwindtable$?WriteAllDOMs@FuzzyModule@@QAEAAV?$basic_ostream@DU?$char_traits@D@std@@@std@@AAV23@@Z
	DD	2 DUP(00H)
	DD	2 DUP(00H)
	DD	00H
	DD	01H
__ehfuncinfo$?AddRule@FuzzyModule@@QAEXAAVFuzzyTerm@@0@Z DD 019930522H
	DD	01H
	DD	FLAT:__unwindtable$?AddRule@FuzzyModule@@QAEXAAVFuzzyTerm@@0@Z
	DD	2 DUP(00H)
	DD	2 DUP(00H)
	DD	00H
	DD	01H
__ehfuncinfo$?CreateFLV@FuzzyModule@@QAEAAVFuzzyVariable@@ABV?$basic_string@DU?$char_traits@D@std@@V?$allocator@D@2@@std@@@Z DD 019930522H
	DD	01H
	DD	FLAT:__unwindtable$?CreateFLV@FuzzyModule@@QAEAAVFuzzyVariable@@ABV?$basic_string@DU?$char_traits@D@std@@V?$allocator@D@2@@std@@@Z
	DD	2 DUP(00H)
	DD	2 DUP(00H)
	DD	00H
	DD	01H
xdata$x	ENDS
;	COMDAT voltbl
voltbl	SEGMENT
_volmd	DB	016H
voltbl	ENDS
;	COMDAT xdata$x
xdata$x	SEGMENT
__unwindtable$?_Orphan_range_locked@?$vector@PAVFuzzyRule@@V?$allocator@PAVFuzzyRule@@@std@@@std@@ABEXPAPAVFuzzyRule@@0@Z DD 0ffffffffH
	DD	FLAT:__unwindfunclet$?_Orphan_range_locked@?$vector@PAVFuzzyRule@@V?$allocator@PAVFuzzyRule@@@std@@@std@@ABEXPAPAVFuzzyRule@@0@Z$0
__ehfuncinfo$?_Orphan_range_locked@?$vector@PAVFuzzyRule@@V?$allocator@PAVFuzzyRule@@@std@@@std@@ABEXPAPAVFuzzyRule@@0@Z DD 019930522H
	DD	01H
	DD	FLAT:__unwindtable$?_Orphan_range_locked@?$vector@PAVFuzzyRule@@V?$allocator@PAVFuzzyRule@@@std@@@std@@ABEXPAPAVFuzzyRule@@0@Z
	DD	2 DUP(00H)
	DD	2 DUP(00H)
	DD	00H
	DD	01H
xdata$x	ENDS
;	COMDAT voltbl
voltbl	SEGMENT
_volmd	DB	016H
voltbl	ENDS
;	COMDAT xdata$x
xdata$x	SEGMENT
__unwindtable$?_Alloc_sentinel_and_proxy@?$_Tree@V?$_Tmap_traits@V?$basic_string@DU?$char_traits@D@std@@V?$allocator@D@2@@std@@PAVFuzzySet@@U?$less@V?$basic_string@DU?$char_traits@D@std@@V?$allocator@D@2@@std@@@2@V?$allocator@U?$pair@$$CBV?$basic_string@DU?$char_traits@D@std@@V?$allocator@D@2@@std@@PAVFuzzySet@@@std@@@2@$0A@@std@@@std@@IAEXXZ DD 0ffffffffH
	DD	FLAT:__unwindfunclet$?_Alloc_sentinel_and_proxy@?$_Tree@V?$_Tmap_traits@V?$basic_string@DU?$char_traits@D@std@@V?$allocator@D@2@@std@@PAVFuzzySet@@U?$less@V?$basic_string@DU?$char_traits@D@std@@V?$allocator@D@2@@std@@@2@V?$allocator@U?$pair@$$CBV?$basic_string@DU?$char_traits@D@std@@V?$allocator@D@2@@std@@PAVFuzzySet@@@std@@@2@$0A@@std@@@std@@IAEXXZ$0
__ehfuncinfo$?_Alloc_sentinel_and_proxy@?$_Tree@V?$_Tmap_traits@V?$basic_string@DU?$char_traits@D@std@@V?$allocator@D@2@@std@@PAVFuzzySet@@U?$less@V?$basic_string@DU?$char_traits@D@std@@V?$allocator@D@2@@std@@@2@V?$allocator@U?$pair@$$CBV?$basic_string@DU?$char_traits@D@std@@V?$allocator@D@2@@std@@PAVFuzzySet@@@std@@@2@$0A@@std@@@std@@IAEXXZ DD 019930522H
	DD	01H
	DD	FLAT:__unwindtable$?_Alloc_sentinel_and_proxy@?$_Tree@V?$_Tmap_traits@V?$basic_string@DU?$char_traits@D@std@@V?$allocator@D@2@@std@@PAVFuzzySet@@U?$less@V?$basic_string@DU?$char_traits@D@std@@V?$allocator@D@2@@std@@@2@V?$allocator@U?$pair@$$CBV?$basic_string@DU?$char_traits@D@std@@V?$allocator@D@2@@std@@PAVFuzzySet@@@std@@@2@$0A@@std@@@std@@IAEXXZ
	DD	2 DUP(00H)
	DD	2 DUP(00H)
	DD	00H
	DD	01H
xdata$x	ENDS
;	COMDAT voltbl
voltbl	SEGMENT
_volmd	DB	01eH
voltbl	ENDS
;	COMDAT xdata$x
xdata$x	SEGMENT
__unwindtable$??$use_facet@V?$ctype@D@std@@@std@@YAABV?$ctype@D@0@ABVlocale@0@@Z DD 0ffffffffH
	DD	FLAT:__unwindfunclet$??$use_facet@V?$ctype@D@std@@@std@@YAABV?$ctype@D@0@ABVlocale@0@@Z$0
	DD	00H
	DD	FLAT:__unwindfunclet$??$use_facet@V?$ctype@D@std@@@std@@YAABV?$ctype@D@0@ABVlocale@0@@Z$1
__ehfuncinfo$??$use_facet@V?$ctype@D@std@@@std@@YAABV?$ctype@D@0@ABVlocale@0@@Z DD 019930522H
	DD	02H
	DD	FLAT:__unwindtable$??$use_facet@V?$ctype@D@std@@@std@@YAABV?$ctype@D@0@ABVlocale@0@@Z
	DD	2 DUP(00H)
	DD	2 DUP(00H)
	DD	00H
	DD	01H
xdata$x	ENDS
;	COMDAT voltbl
voltbl	SEGMENT
_volmd	DB	032H
voltbl	ENDS
;	COMDAT xdata$x
xdata$x	SEGMENT
__unwindtable$?_Getcat@?$ctype@D@std@@SAIPAPBVfacet@locale@2@PBV42@@Z DD 0ffffffffH
	DD	FLAT:__unwindfunclet$?_Getcat@?$ctype@D@std@@SAIPAPBVfacet@locale@2@PBV42@@Z$0
	DD	00H
	DD	FLAT:__unwindfunclet$?_Getcat@?$ctype@D@std@@SAIPAPBVfacet@locale@2@PBV42@@Z$1
	DD	0ffffffffH
	DD	FLAT:__unwindfunclet$?_Getcat@?$ctype@D@std@@SAIPAPBVfacet@locale@2@PBV42@@Z$1
__ehfuncinfo$?_Getcat@?$ctype@D@std@@SAIPAPBVfacet@locale@2@PBV42@@Z DD 019930522H
	DD	03H
	DD	FLAT:__unwindtable$?_Getcat@?$ctype@D@std@@SAIPAPBVfacet@locale@2@PBV42@@Z
	DD	2 DUP(00H)
	DD	2 DUP(00H)
	DD	00H
	DD	01H
xdata$x	ENDS
;	COMDAT voltbl
voltbl	SEGMENT
_volmd	DB	016H
voltbl	ENDS
;	COMDAT xdata$x
xdata$x	SEGMENT
__unwindtable$??0?$ctype@D@std@@QAE@ABV_Locinfo@1@I@Z DD 0ffffffffH
	DD	FLAT:__unwindfunclet$??0?$ctype@D@std@@QAE@ABV_Locinfo@1@I@Z$0
__ehfuncinfo$??0?$ctype@D@std@@QAE@ABV_Locinfo@1@I@Z DD 019930522H
	DD	01H
	DD	FLAT:__unwindtable$??0?$ctype@D@std@@QAE@ABV_Locinfo@1@I@Z
	DD	2 DUP(00H)
	DD	2 DUP(00H)
	DD	00H
	DD	01H
xdata$x	ENDS
;	COMDAT voltbl
voltbl	SEGMENT
_volmd	DB	09H
voltbl	ENDS
;	COMDAT xdata$x
xdata$x	SEGMENT
__ehfuncinfo$??1_Locinfo@std@@QAE@XZ DD 019930522H
	DD	00H
	DD	00H
	DD	2 DUP(00H)
	DD	2 DUP(00H)
	DD	00H
	DD	05H
xdata$x	ENDS
;	COMDAT voltbl
voltbl	SEGMENT
_volmd	DB	058H
voltbl	ENDS
;	COMDAT xdata$x
xdata$x	SEGMENT
__ehfuncinfo$??0_Locinfo@std@@QAE@PBD@Z DD 019930522H
	DD	07H
	DD	FLAT:__unwindtable$??0_Locinfo@std@@QAE@PBD@Z
	DD	2 DUP(00H)
	DD	2 DUP(00H)
	DD	00H
	DD	01H
__unwindtable$??0_Locinfo@std@@QAE@PBD@Z DD 0ffffffffH
	DD	FLAT:__unwindfunclet$??0_Locinfo@std@@QAE@PBD@Z$0
	DD	00H
	DD	FLAT:__unwindfunclet$??0_Locinfo@std@@QAE@PBD@Z$1
	DD	01H
	DD	FLAT:__unwindfunclet$??0_Locinfo@std@@QAE@PBD@Z$2
	DD	02H
	DD	FLAT:__unwindfunclet$??0_Locinfo@std@@QAE@PBD@Z$3
	DD	03H
	DD	FLAT:__unwindfunclet$??0_Locinfo@std@@QAE@PBD@Z$4
	DD	04H
	DD	FLAT:__unwindfunclet$??0_Locinfo@std@@QAE@PBD@Z$5
	DD	05H
	DD	FLAT:__unwindfunclet$??0_Locinfo@std@@QAE@PBD@Z$6
xdata$x	ENDS
;	COMDAT voltbl
voltbl	SEGMENT
_volmd	DB	016H
	DB	020H
voltbl	ENDS
;	COMDAT voltbl
voltbl	SEGMENT
_volmd	DB	03bH
	DB	099H
voltbl	ENDS
;	COMDAT xdata$x
xdata$x	SEGMENT
__unwindtable$??0system_error@std@@QAE@Verror_code@1@PBD@Z DD 0ffffffffH
	DD	FLAT:__unwindfunclet$??0system_error@std@@QAE@Verror_code@1@PBD@Z$0
__ehfuncinfo$??0system_error@std@@QAE@Verror_code@1@PBD@Z DD 019930522H
	DD	01H
	DD	FLAT:__unwindtable$??0system_error@std@@QAE@Verror_code@1@PBD@Z
	DD	2 DUP(00H)
	DD	2 DUP(00H)
	DD	00H
	DD	01H
xdata$x	ENDS
;	COMDAT voltbl
voltbl	SEGMENT
_volmd	DB	016H
	DB	020H
voltbl	ENDS
;	COMDAT voltbl
voltbl	SEGMENT
_volmd	DB	02dH
	DB	0b5H
voltbl	ENDS
;	COMDAT xdata$x
xdata$x	SEGMENT
__unwindtable$??0_System_error@std@@IAE@Verror_code@1@ABV?$basic_string@DU?$char_traits@D@std@@V?$allocator@D@2@@1@@Z DD 0ffffffffH
	DD	FLAT:__unwindfunclet$??0_System_error@std@@IAE@Verror_code@1@ABV?$basic_string@DU?$char_traits@D@std@@V?$allocator@D@2@@1@@Z$1
__ehfuncinfo$??0_System_error@std@@IAE@Verror_code@1@ABV?$basic_string@DU?$char_traits@D@std@@V?$allocator@D@2@@1@@Z DD 019930522H
	DD	01H
	DD	FLAT:__unwindtable$??0_System_error@std@@IAE@Verror_code@1@ABV?$basic_string@DU?$char_traits@D@std@@V?$allocator@D@2@@1@@Z
	DD	2 DUP(00H)
	DD	2 DUP(00H)
	DD	00H
	DD	01H
xdata$x	ENDS
;	COMDAT voltbl
voltbl	SEGMENT
_volmd	DB	01eH
	DB	028H
voltbl	ENDS
;	COMDAT voltbl
voltbl	SEGMENT
_volmd	DB	02bH
	DB	0c8H
voltbl	ENDS
;	COMDAT xdata$x
xdata$x	SEGMENT
__unwindtable$?_Makestr@_System_error@std@@CA?AV?$basic_string@DU?$char_traits@D@std@@V?$allocator@D@2@@2@Verror_code@2@V32@@Z DD 0ffffffffH
	DD	FLAT:__unwindfunclet$?_Makestr@_System_error@std@@CA?AV?$basic_string@DU?$char_traits@D@std@@V?$allocator@D@2@@2@Verror_code@2@V32@@Z$0
	DD	00H
	DD	FLAT:__unwindfunclet$?_Makestr@_System_error@std@@CA?AV?$basic_string@DU?$char_traits@D@std@@V?$allocator@D@2@@2@Verror_code@2@V32@@Z$1
__ehfuncinfo$?_Makestr@_System_error@std@@CA?AV?$basic_string@DU?$char_traits@D@std@@V?$allocator@D@2@@2@Verror_code@2@V32@@Z DD 019930522H
	DD	02H
	DD	FLAT:__unwindtable$?_Makestr@_System_error@std@@CA?AV?$basic_string@DU?$char_traits@D@std@@V?$allocator@D@2@@2@Verror_code@2@V32@@Z
	DD	2 DUP(00H)
	DD	2 DUP(00H)
	DD	00H
	DD	01H
xdata$x	ENDS
;	COMDAT voltbl
voltbl	SEGMENT
_volmd	DB	09H
voltbl	ENDS
;	COMDAT xdata$x
xdata$x	SEGMENT
__ehfuncinfo$??0?$basic_string@DU?$char_traits@D@std@@V?$allocator@D@2@@std@@QAE@$$QAV01@@Z DD 019930522H
	DD	00H
	DD	00H
	DD	2 DUP(00H)
	DD	2 DUP(00H)
	DD	00H
	DD	05H
xdata$x	ENDS
;	COMDAT voltbl
voltbl	SEGMENT
_volmd	DB	016H
voltbl	ENDS
;	COMDAT xdata$x
xdata$x	SEGMENT
__unwindtable$??0?$basic_string@DU?$char_traits@D@std@@V?$allocator@D@2@@std@@QAE@QBD@Z DD 0ffffffffH
	DD	FLAT:__unwindfunclet$??0?$basic_string@DU?$char_traits@D@std@@V?$allocator@D@2@@std@@QAE@QBD@Z$0
__ehfuncinfo$??0?$basic_string@DU?$char_traits@D@std@@V?$allocator@D@2@@std@@QAE@QBD@Z DD 019930522H
	DD	01H
	DD	FLAT:__unwindtable$??0?$basic_string@DU?$char_traits@D@std@@V?$allocator@D@2@@std@@QAE@QBD@Z
	DD	2 DUP(00H)
	DD	2 DUP(00H)
	DD	00H
	DD	01H
xdata$x	ENDS
;	COMDAT voltbl
voltbl	SEGMENT
_volmd	DB	016H
voltbl	ENDS
;	COMDAT xdata$x
xdata$x	SEGMENT
__unwindtable$??0?$basic_string@DU?$char_traits@D@std@@V?$allocator@D@2@@std@@QAE@QBDI@Z DD 0ffffffffH
	DD	FLAT:__unwindfunclet$??0?$basic_string@DU?$char_traits@D@std@@V?$allocator@D@2@@std@@QAE@QBDI@Z$0
__ehfuncinfo$??0?$basic_string@DU?$char_traits@D@std@@V?$allocator@D@2@@std@@QAE@QBDI@Z DD 019930522H
	DD	01H
	DD	FLAT:__unwindtable$??0?$basic_string@DU?$char_traits@D@std@@V?$allocator@D@2@@std@@QAE@QBDI@Z
	DD	2 DUP(00H)
	DD	2 DUP(00H)
	DD	00H
	DD	01H
xdata$x	ENDS
;	COMDAT voltbl
voltbl	SEGMENT
_volmd	DB	016H
voltbl	ENDS
;	COMDAT xdata$x
xdata$x	SEGMENT
__unwindtable$??0?$basic_string@DU?$char_traits@D@std@@V?$allocator@D@2@@std@@QAE@ABV01@@Z DD 0ffffffffH
	DD	FLAT:__unwindfunclet$??0?$basic_string@DU?$char_traits@D@std@@V?$allocator@D@2@@std@@QAE@ABV01@@Z$0
__ehfuncinfo$??0?$basic_string@DU?$char_traits@D@std@@V?$allocator@D@2@@std@@QAE@ABV01@@Z DD 019930522H
	DD	01H
	DD	FLAT:__unwindtable$??0?$basic_string@DU?$char_traits@D@std@@V?$allocator@D@2@@std@@QAE@ABV01@@Z
	DD	2 DUP(00H)
	DD	2 DUP(00H)
	DD	00H
	DD	01H
xdata$x	ENDS
; Function compile flags: /Odtp /RTCsu
; File C:\Program Files\Microsoft Visual Studio\2022\Community\VC\Tools\MSVC\14.44.35207\include\__msvc_string_view.hpp
;	COMDAT ??$_Traits_compare@U?$char_traits@D@std@@@std@@YAHQBDI0I@Z
_TEXT	SEGMENT
__Ans$ = -4						; size = 4
__Left$ = 8						; size = 4
__Left_size$ = 12					; size = 4
__Right$ = 16						; size = 4
__Right_size$ = 20					; size = 4
??$_Traits_compare@U?$char_traits@D@std@@@std@@YAHQBDI0I@Z PROC ; std::_Traits_compare<std::char_traits<char> >, COMDAT

; 617  :     _In_reads_(_Right_size) const _Traits_ptr_t<_Traits> _Right, const size_t _Right_size) noexcept {

	push	ebp
	mov	ebp, esp
	push	ecx
	mov	DWORD PTR [ebp-4], -858993460		; ccccccccH

; 618  :     // compare [_Left, _Left + _Left_size) to [_Right, _Right + _Right_size) using _Traits
; 619  :     const int _Ans = _Traits::compare(_Left, _Right, (_STD min)(_Left_size, _Right_size));

	lea	eax, DWORD PTR __Right_size$[ebp]
	push	eax
	lea	ecx, DWORD PTR __Left_size$[ebp]
	push	ecx
	call	??$min@I@std@@YAABIABI0@Z		; std::min<unsigned int>
	add	esp, 8
	mov	edx, DWORD PTR [eax]
	push	edx
	mov	eax, DWORD PTR __Right$[ebp]
	push	eax
	mov	ecx, DWORD PTR __Left$[ebp]
	push	ecx
	call	?compare@?$_Narrow_char_traits@DH@std@@SAHQBD0I@Z ; std::_Narrow_char_traits<char,int>::compare
	add	esp, 12					; 0000000cH
	mov	DWORD PTR __Ans$[ebp], eax

; 620  : 
; 621  :     if (_Ans != 0) {

	cmp	DWORD PTR __Ans$[ebp], 0
	je	SHORT $LN2@Traits_com

; 622  :         return _Ans;

	mov	eax, DWORD PTR __Ans$[ebp]
	jmp	SHORT $LN1@Traits_com
$LN2@Traits_com:

; 623  :     }
; 624  : 
; 625  :     if (_Left_size < _Right_size) {

	mov	edx, DWORD PTR __Left_size$[ebp]
	cmp	edx, DWORD PTR __Right_size$[ebp]
	jae	SHORT $LN3@Traits_com

; 626  :         return -1;

	or	eax, -1
	jmp	SHORT $LN1@Traits_com
$LN3@Traits_com:

; 627  :     }
; 628  : 
; 629  :     if (_Left_size > _Right_size) {

	mov	eax, DWORD PTR __Left_size$[ebp]
	cmp	eax, DWORD PTR __Right_size$[ebp]
	jbe	SHORT $LN4@Traits_com

; 630  :         return 1;

	mov	eax, 1
	jmp	SHORT $LN1@Traits_com
$LN4@Traits_com:

; 631  :     }
; 632  : 
; 633  :     return 0;

	xor	eax, eax
$LN1@Traits_com:

; 634  : }

	add	esp, 4
	cmp	ebp, esp
	call	__RTC_CheckEsp
	mov	esp, ebp
	pop	ebp
	ret	0
??$_Traits_compare@U?$char_traits@D@std@@@std@@YAHQBDI0I@Z ENDP ; std::_Traits_compare<std::char_traits<char> >
_TEXT	ENDS
; Function compile flags: /Odtp /RTCsu
; File C:\Program Files\Microsoft Visual Studio\2022\Community\VC\Tools\MSVC\14.44.35207\include\tuple
;	COMDAT ??$_Tuple_get@$0A@ABV?$basic_string@DU?$char_traits@D@std@@V?$allocator@D@2@@std@@@std@@YA$$QA_P$$QAV?$tuple@ABV?$basic_string@DU?$char_traits@D@std@@V?$allocator@D@2@@std@@@0@@Z
_TEXT	SEGMENT
__Tuple$ = 8						; size = 4
??$_Tuple_get@$0A@ABV?$basic_string@DU?$char_traits@D@std@@V?$allocator@D@2@@std@@@std@@YA$$QA_P$$QAV?$tuple@ABV?$basic_string@DU?$char_traits@D@std@@V?$allocator@D@2@@std@@@0@@Z PROC ; std::_Tuple_get<0,std::basic_string<char,std::char_traits<char>,std::allocator<char> > const &>, COMDAT

; 925  : _NODISCARD constexpr auto&& _Tuple_get(tuple<_Types...>&& _Tuple) noexcept {

	push	ebp
	mov	ebp, esp

; 926  :     // used by pair's piecewise constructor
; 927  :     using _Ty    = tuple_element_t<_Index, tuple<_Types...>>;
; 928  :     using _Ttype = typename tuple_element<_Index, tuple<_Types...>>::_Ttype;
; 929  :     return static_cast<_Ty&&>(static_cast<_Ttype&>(_Tuple)._Myfirst._Val);

	mov	eax, DWORD PTR __Tuple$[ebp]
	mov	eax, DWORD PTR [eax]

; 930  : }

	pop	ebp
	ret	0
??$_Tuple_get@$0A@ABV?$basic_string@DU?$char_traits@D@std@@V?$allocator@D@2@@std@@@std@@YA$$QA_P$$QAV?$tuple@ABV?$basic_string@DU?$char_traits@D@std@@V?$allocator@D@2@@std@@@0@@Z ENDP ; std::_Tuple_get<0,std::basic_string<char,std::char_traits<char>,std::allocator<char> > const &>
_TEXT	ENDS
; Function compile flags: /Odtp /RTCsu
; File C:\Program Files\Microsoft Visual Studio\2022\Community\VC\Tools\MSVC\14.44.35207\include\type_traits
;	COMDAT ??$move@AAV?$tuple@ABV?$basic_string@DU?$char_traits@D@std@@V?$allocator@D@2@@std@@@std@@@std@@YA$$QAV?$tuple@ABV?$basic_string@DU?$char_traits@D@std@@V?$allocator@D@2@@std@@@0@AAV10@@Z
_TEXT	SEGMENT
__Arg$ = 8						; size = 4
??$move@AAV?$tuple@ABV?$basic_string@DU?$char_traits@D@std@@V?$allocator@D@2@@std@@@std@@@std@@YA$$QAV?$tuple@ABV?$basic_string@DU?$char_traits@D@std@@V?$allocator@D@2@@std@@@0@AAV10@@Z PROC ; std::move<std::tuple<std::basic_string<char,std::char_traits<char>,std::allocator<char> > const &> &>, COMDAT

; 1512 : _NODISCARD _MSVC_INTRINSIC constexpr remove_reference_t<_Ty>&& move(_Ty&& _Arg) noexcept {

	push	ebp
	mov	ebp, esp

; 1513 :     return static_cast<remove_reference_t<_Ty>&&>(_Arg);

	mov	eax, DWORD PTR __Arg$[ebp]

; 1514 : }

	pop	ebp
	ret	0
??$move@AAV?$tuple@ABV?$basic_string@DU?$char_traits@D@std@@V?$allocator@D@2@@std@@@std@@@std@@YA$$QAV?$tuple@ABV?$basic_string@DU?$char_traits@D@std@@V?$allocator@D@2@@std@@@0@AAV10@@Z ENDP ; std::move<std::tuple<std::basic_string<char,std::char_traits<char>,std::allocator<char> > const &> &>
_TEXT	ENDS
; Function compile flags: /Odtp /RTCsu
; File C:\Program Files\Microsoft Visual Studio\2022\Community\VC\Tools\MSVC\14.44.35207\include\xmemory
;	COMDAT ??$_Get_size_of_n@$00@std@@YAII@Z
_TEXT	SEGMENT
__Overflow_is_possible$ = -1				; size = 1
__Count$ = 8						; size = 4
??$_Get_size_of_n@$00@std@@YAII@Z PROC			; std::_Get_size_of_n<1>, COMDAT

; 112  : _NODISCARD constexpr size_t _Get_size_of_n(const size_t _Count) {

	push	ebp
	mov	ebp, esp
	push	ecx

; 113  :     constexpr bool _Overflow_is_possible = _Ty_size > 1;

	mov	BYTE PTR __Overflow_is_possible$[ebp], 0

; 114  : 
; 115  :     if constexpr (_Overflow_is_possible) {
; 116  :         constexpr size_t _Max_possible = static_cast<size_t>(-1) / _Ty_size;
; 117  :         if (_Count > _Max_possible) {
; 118  :             _Throw_bad_array_new_length(); // multiply overflow
; 119  :         }
; 120  :     }
; 121  : 
; 122  :     return _Count * _Ty_size;

	mov	eax, DWORD PTR __Count$[ebp]

; 123  : }

	mov	esp, ebp
	pop	ebp
	ret	0
??$_Get_size_of_n@$00@std@@YAII@Z ENDP			; std::_Get_size_of_n<1>
_TEXT	ENDS
; Function compile flags: /Odtp /RTCsu
; File C:\Program Files\Microsoft Visual Studio\2022\Community\VC\Tools\MSVC\14.44.35207\include\xmemory
;	COMDAT ??$_Get_size_of_n@$0DA@@std@@YAII@Z
_TEXT	SEGMENT
__Max_possible$1 = -8					; size = 4
__Overflow_is_possible$ = -1				; size = 1
__Count$ = 8						; size = 4
??$_Get_size_of_n@$0DA@@std@@YAII@Z PROC		; std::_Get_size_of_n<48>, COMDAT

; 112  : _NODISCARD constexpr size_t _Get_size_of_n(const size_t _Count) {

	push	ebp
	mov	ebp, esp
	sub	esp, 8
	mov	DWORD PTR [ebp-8], -858993460		; ccccccccH
	mov	DWORD PTR [ebp-4], -858993460		; ccccccccH

; 113  :     constexpr bool _Overflow_is_possible = _Ty_size > 1;

	mov	BYTE PTR __Overflow_is_possible$[ebp], 1

; 114  : 
; 115  :     if constexpr (_Overflow_is_possible) {
; 116  :         constexpr size_t _Max_possible = static_cast<size_t>(-1) / _Ty_size;

	mov	DWORD PTR __Max_possible$1[ebp], 89478485 ; 05555555H

; 117  :         if (_Count > _Max_possible) {

	cmp	DWORD PTR __Count$[ebp], 89478485	; 05555555H
	jbe	SHORT $LN2@Get_size_o

; 118  :             _Throw_bad_array_new_length(); // multiply overflow

	call	?_Throw_bad_array_new_length@std@@YAXXZ	; std::_Throw_bad_array_new_length
	npad	1
$LN2@Get_size_o:

; 119  :         }
; 120  :     }
; 121  : 
; 122  :     return _Count * _Ty_size;

	imul	eax, DWORD PTR __Count$[ebp], 48
$LN1@Get_size_o:

; 123  : }

	add	esp, 8
	cmp	ebp, esp
	call	__RTC_CheckEsp
	mov	esp, ebp
	pop	ebp
	ret	0
??$_Get_size_of_n@$0DA@@std@@YAII@Z ENDP		; std::_Get_size_of_n<48>
_TEXT	ENDS
; Function compile flags: /Odtp /RTCsu
; File C:\Program Files\Microsoft Visual Studio\2022\Community\VC\Tools\MSVC\14.44.35207\include\xmemory
;	COMDAT ??$_Get_size_of_n@$03@std@@YAII@Z
_TEXT	SEGMENT
__Max_possible$1 = -8					; size = 4
__Overflow_is_possible$ = -1				; size = 1
__Count$ = 8						; size = 4
??$_Get_size_of_n@$03@std@@YAII@Z PROC			; std::_Get_size_of_n<4>, COMDAT

; 112  : _NODISCARD constexpr size_t _Get_size_of_n(const size_t _Count) {

	push	ebp
	mov	ebp, esp
	sub	esp, 8
	mov	DWORD PTR [ebp-8], -858993460		; ccccccccH
	mov	DWORD PTR [ebp-4], -858993460		; ccccccccH

; 113  :     constexpr bool _Overflow_is_possible = _Ty_size > 1;

	mov	BYTE PTR __Overflow_is_possible$[ebp], 1

; 114  : 
; 115  :     if constexpr (_Overflow_is_possible) {
; 116  :         constexpr size_t _Max_possible = static_cast<size_t>(-1) / _Ty_size;

	mov	DWORD PTR __Max_possible$1[ebp], 1073741823 ; 3fffffffH

; 117  :         if (_Count > _Max_possible) {

	cmp	DWORD PTR __Count$[ebp], 1073741823	; 3fffffffH
	jbe	SHORT $LN2@Get_size_o

; 118  :             _Throw_bad_array_new_length(); // multiply overflow

	call	?_Throw_bad_array_new_length@std@@YAXXZ	; std::_Throw_bad_array_new_length
	npad	1
$LN2@Get_size_o:

; 119  :         }
; 120  :     }
; 121  : 
; 122  :     return _Count * _Ty_size;

	mov	eax, DWORD PTR __Count$[ebp]
	shl	eax, 2
$LN1@Get_size_o:

; 123  : }

	add	esp, 8
	cmp	ebp, esp
	call	__RTC_CheckEsp
	mov	esp, ebp
	pop	ebp
	ret	0
??$_Get_size_of_n@$03@std@@YAII@Z ENDP			; std::_Get_size_of_n<4>
_TEXT	ENDS
; Function compile flags: /Odtp /RTCsu
; File C:\Program Files\Microsoft Visual Studio\2022\Community\VC\Tools\MSVC\14.44.35207\include\type_traits
;	COMDAT ??$forward@ABQAU?$_Tree_node@U?$pair@$$CBV?$basic_string@DU?$char_traits@D@std@@V?$allocator@D@2@@std@@PAVFuzzySet@@@std@@PAX@std@@@std@@YAABQAU?$_Tree_node@U?$pair@$$CBV?$basic_string@DU?$char_traits@D@std@@V?$allocator@D@2@@std@@PAVFuzzySet@@@std@@PAX@0@ABQAU10@@Z
_TEXT	SEGMENT
__Arg$ = 8						; size = 4
??$forward@ABQAU?$_Tree_node@U?$pair@$$CBV?$basic_string@DU?$char_traits@D@std@@V?$allocator@D@2@@std@@PAVFuzzySet@@@std@@PAX@std@@@std@@YAABQAU?$_Tree_node@U?$pair@$$CBV?$basic_string@DU?$char_traits@D@std@@V?$allocator@D@2@@std@@PAVFuzzySet@@@std@@PAX@0@ABQAU10@@Z PROC ; std::forward<std::_Tree_node<std::pair<std::basic_string<char,std::char_traits<char>,std::allocator<char> > const ,FuzzySet *>,void *> * const &>, COMDAT

; 1501 : _NODISCARD _MSVC_INTRINSIC constexpr _Ty&& forward(remove_reference_t<_Ty>& _Arg) noexcept {

	push	ebp
	mov	ebp, esp

; 1502 :     return static_cast<_Ty&&>(_Arg);

	mov	eax, DWORD PTR __Arg$[ebp]

; 1503 : }

	pop	ebp
	ret	0
??$forward@ABQAU?$_Tree_node@U?$pair@$$CBV?$basic_string@DU?$char_traits@D@std@@V?$allocator@D@2@@std@@PAVFuzzySet@@@std@@PAX@std@@@std@@YAABQAU?$_Tree_node@U?$pair@$$CBV?$basic_string@DU?$char_traits@D@std@@V?$allocator@D@2@@std@@PAVFuzzySet@@@std@@PAX@0@ABQAU10@@Z ENDP ; std::forward<std::_Tree_node<std::pair<std::basic_string<char,std::char_traits<char>,std::allocator<char> > const ,FuzzySet *>,void *> * const &>
_TEXT	ENDS
; Function compile flags: /Odtp /RTCsu
; File C:\Program Files\Microsoft Visual Studio\2022\Community\VC\Tools\MSVC\14.44.35207\include\type_traits
;	COMDAT ??$addressof@PAU?$_Tree_node@U?$pair@$$CBV?$basic_string@DU?$char_traits@D@std@@V?$allocator@D@2@@std@@PAVFuzzySet@@@std@@PAX@std@@@std@@YAPAPAU?$_Tree_node@U?$pair@$$CBV?$basic_string@DU?$char_traits@D@std@@V?$allocator@D@2@@std@@PAVFuzzySet@@@std@@PAX@0@AAPAU10@@Z
_TEXT	SEGMENT
__Val$ = 8						; size = 4
??$addressof@PAU?$_Tree_node@U?$pair@$$CBV?$basic_string@DU?$char_traits@D@std@@V?$allocator@D@2@@std@@PAVFuzzySet@@@std@@PAX@std@@@std@@YAPAPAU?$_Tree_node@U?$pair@$$CBV?$basic_string@DU?$char_traits@D@std@@V?$allocator@D@2@@std@@PAVFuzzySet@@@std@@PAX@0@AAPAU10@@Z PROC ; std::addressof<std::_Tree_node<std::pair<std::basic_string<char,std::char_traits<char>,std::allocator<char> > const ,FuzzySet *>,void *> *>, COMDAT

; 1524 : _NODISCARD constexpr _Ty* addressof(_Ty& _Val) noexcept {

	push	ebp
	mov	ebp, esp

; 1525 :     return __builtin_addressof(_Val);

	mov	eax, DWORD PTR __Val$[ebp]

; 1526 : }

	pop	ebp
	ret	0
??$addressof@PAU?$_Tree_node@U?$pair@$$CBV?$basic_string@DU?$char_traits@D@std@@V?$allocator@D@2@@std@@PAVFuzzySet@@@std@@PAX@std@@@std@@YAPAPAU?$_Tree_node@U?$pair@$$CBV?$basic_string@DU?$char_traits@D@std@@V?$allocator@D@2@@std@@PAVFuzzySet@@@std@@PAX@0@AAPAU10@@Z ENDP ; std::addressof<std::_Tree_node<std::pair<std::basic_string<char,std::char_traits<char>,std::allocator<char> > const ,FuzzySet *>,void *> *>
_TEXT	ENDS
; Function compile flags: /Odtp /RTCsu
; File C:\Program Files\Microsoft Visual Studio\2022\Community\VC\Tools\MSVC\14.44.35207\include\utility
;	COMDAT ??$?0V?$tuple@ABV?$basic_string@DU?$char_traits@D@std@@V?$allocator@D@2@@std@@@std@@V?$tuple@$$V@1@$0A@$$Z$S@?$pair@$$CBV?$basic_string@DU?$char_traits@D@std@@V?$allocator@D@2@@std@@PAVFuzzyVariable@@@std@@AAE@AAV?$tuple@ABV?$basic_string@DU?$char_traits@D@std@@V?$allocator@D@2@@std@@@1@AAV?$tuple@$$V@1@U?$integer_sequence@I$0A@@1@U?$integer_sequence@I$S@1@@Z
_TEXT	SEGMENT
_this$ = -4						; size = 4
__Val1$ = 8						; size = 4
__Val2$ = 12						; size = 4
___formal$ = 16						; size = 1
___formal$ = 20						; size = 1
??$?0V?$tuple@ABV?$basic_string@DU?$char_traits@D@std@@V?$allocator@D@2@@std@@@std@@V?$tuple@$$V@1@$0A@$$Z$S@?$pair@$$CBV?$basic_string@DU?$char_traits@D@std@@V?$allocator@D@2@@std@@PAVFuzzyVariable@@@std@@AAE@AAV?$tuple@ABV?$basic_string@DU?$char_traits@D@std@@V?$allocator@D@2@@std@@@1@AAV?$tuple@$$V@1@U?$integer_sequence@I$0A@@1@U?$integer_sequence@I$S@1@@Z PROC ; std::pair<std::basic_string<char,std::char_traits<char>,std::allocator<char> > const ,FuzzyVariable *>::pair<std::basic_string<char,std::char_traits<char>,std::allocator<char> > const ,FuzzyVariable *><std::tuple<std::basic_string<char,std::char_traits<char>,std::allocator<char> > const &>,std::tuple<>,0>, COMDAT
; _this$ = ecx

; 479  :           second(_STD _Tuple_get<_Indices2>(_STD move(_Val2))...) {}

	push	ebp
	mov	ebp, esp
	push	ecx
	mov	DWORD PTR [ebp-4], -858993460		; ccccccccH
	mov	DWORD PTR _this$[ebp], ecx

; 478  :         : first(_STD _Tuple_get<_Indices1>(_STD move(_Val1))...),

	mov	eax, DWORD PTR __Val1$[ebp]
	push	eax
	call	??$move@AAV?$tuple@ABV?$basic_string@DU?$char_traits@D@std@@V?$allocator@D@2@@std@@@std@@@std@@YA$$QAV?$tuple@ABV?$basic_string@DU?$char_traits@D@std@@V?$allocator@D@2@@std@@@0@AAV10@@Z ; std::move<std::tuple<std::basic_string<char,std::char_traits<char>,std::allocator<char> > const &> &>
	add	esp, 4
	push	eax
	call	??$_Tuple_get@$0A@ABV?$basic_string@DU?$char_traits@D@std@@V?$allocator@D@2@@std@@@std@@YA$$QA_P$$QAV?$tuple@ABV?$basic_string@DU?$char_traits@D@std@@V?$allocator@D@2@@std@@@0@@Z ; std::_Tuple_get<0,std::basic_string<char,std::char_traits<char>,std::allocator<char> > const &>
	add	esp, 4
	push	eax
	mov	ecx, DWORD PTR _this$[ebp]
	call	??0?$basic_string@DU?$char_traits@D@std@@V?$allocator@D@2@@std@@QAE@ABV01@@Z ; std::basic_string<char,std::char_traits<char>,std::allocator<char> >::basic_string<char,std::char_traits<char>,std::allocator<char> >

; 479  :           second(_STD _Tuple_get<_Indices2>(_STD move(_Val2))...) {}

	mov	ecx, DWORD PTR _this$[ebp]
	mov	DWORD PTR [ecx+28], 0
	mov	eax, DWORD PTR _this$[ebp]
	add	esp, 4
	cmp	ebp, esp
	call	__RTC_CheckEsp
	mov	esp, ebp
	pop	ebp
	ret	16					; 00000010H
??$?0V?$tuple@ABV?$basic_string@DU?$char_traits@D@std@@V?$allocator@D@2@@std@@@std@@V?$tuple@$$V@1@$0A@$$Z$S@?$pair@$$CBV?$basic_string@DU?$char_traits@D@std@@V?$allocator@D@2@@std@@PAVFuzzyVariable@@@std@@AAE@AAV?$tuple@ABV?$basic_string@DU?$char_traits@D@std@@V?$allocator@D@2@@std@@@1@AAV?$tuple@$$V@1@U?$integer_sequence@I$0A@@1@U?$integer_sequence@I$S@1@@Z ENDP ; std::pair<std::basic_string<char,std::char_traits<char>,std::allocator<char> > const ,FuzzyVariable *>::pair<std::basic_string<char,std::char_traits<char>,std::allocator<char> > const ,FuzzyVariable *><std::tuple<std::basic_string<char,std::char_traits<char>,std::allocator<char> > const &>,std::tuple<>,0>
_TEXT	ENDS
; Function compile flags: /Odtp /RTCsu
; File C:\Program Files\Microsoft Visual Studio\2022\Community\VC\Tools\MSVC\14.44.35207\include\tuple
;	COMDAT ??$?0ABV?$basic_string@DU?$char_traits@D@std@@V?$allocator@D@2@@std@@@?$_Tuple_val@ABV?$basic_string@DU?$char_traits@D@std@@V?$allocator@D@2@@std@@@std@@QAE@ABV?$basic_string@DU?$char_traits@D@std@@V?$allocator@D@2@@1@@Z
_TEXT	SEGMENT
_this$ = -4						; size = 4
__Arg$ = 8						; size = 4
??$?0ABV?$basic_string@DU?$char_traits@D@std@@V?$allocator@D@2@@std@@@?$_Tuple_val@ABV?$basic_string@DU?$char_traits@D@std@@V?$allocator@D@2@@std@@@std@@QAE@ABV?$basic_string@DU?$char_traits@D@std@@V?$allocator@D@2@@1@@Z PROC ; std::_Tuple_val<std::basic_string<char,std::char_traits<char>,std::allocator<char> > const &>::_Tuple_val<std::basic_string<char,std::char_traits<char>,std::allocator<char> > const &><std::basic_string<char,std::char_traits<char>,std::allocator<char> > const &>, COMDAT
; _this$ = ecx

; 132  :     constexpr _Tuple_val(_Other&& _Arg) : _Val(_STD forward<_Other>(_Arg)) {}

	push	ebp
	mov	ebp, esp
	push	ecx
	mov	DWORD PTR [ebp-4], -858993460		; ccccccccH
	mov	DWORD PTR _this$[ebp], ecx
	mov	eax, DWORD PTR __Arg$[ebp]
	push	eax
	call	??$forward@ABV?$basic_string@DU?$char_traits@D@std@@V?$allocator@D@2@@std@@@std@@YAABV?$basic_string@DU?$char_traits@D@std@@V?$allocator@D@2@@0@ABV10@@Z ; std::forward<std::basic_string<char,std::char_traits<char>,std::allocator<char> > const &>
	add	esp, 4
	mov	ecx, DWORD PTR _this$[ebp]
	mov	DWORD PTR [ecx], eax
	mov	eax, DWORD PTR _this$[ebp]
	add	esp, 4
	cmp	ebp, esp
	call	__RTC_CheckEsp
	mov	esp, ebp
	pop	ebp
	ret	4
??$?0ABV?$basic_string@DU?$char_traits@D@std@@V?$allocator@D@2@@std@@@?$_Tuple_val@ABV?$basic_string@DU?$char_traits@D@std@@V?$allocator@D@2@@std@@@std@@QAE@ABV?$basic_string@DU?$char_traits@D@std@@V?$allocator@D@2@@1@@Z ENDP ; std::_Tuple_val<std::basic_string<char,std::char_traits<char>,std::allocator<char> > const &>::_Tuple_val<std::basic_string<char,std::char_traits<char>,std::allocator<char> > const &><std::basic_string<char,std::char_traits<char>,std::allocator<char> > const &>
_TEXT	ENDS
; Function compile flags: /Odtp /RTCsu
; File C:\Program Files\Microsoft Visual Studio\2022\Community\VC\Tools\MSVC\14.44.35207\include\tuple
;	COMDAT ??$?0U_Exact_args_t@std@@$0A@@?$tuple@$$V@std@@QAE@U_Exact_args_t@1@@Z
_TEXT	SEGMENT
_this$ = -4						; size = 4
___formal$ = 8						; size = 1
??$?0U_Exact_args_t@std@@$0A@@?$tuple@$$V@std@@QAE@U_Exact_args_t@1@@Z PROC ; std::tuple<>::tuple<><std::_Exact_args_t,0>, COMDAT
; _this$ = ecx

; 235  :     constexpr tuple(_Tag) noexcept /* strengthened */ {}

	push	ebp
	mov	ebp, esp
	push	ecx
	mov	DWORD PTR _this$[ebp], ecx
	mov	eax, DWORD PTR _this$[ebp]
	mov	esp, ebp
	pop	ebp
	ret	4
??$?0U_Exact_args_t@std@@$0A@@?$tuple@$$V@std@@QAE@U_Exact_args_t@1@@Z ENDP ; std::tuple<>::tuple<><std::_Exact_args_t,0>
_TEXT	ENDS
; Function compile flags: /Odtp /RTCsu
; File C:\Program Files\Microsoft Visual Studio\2022\Community\VC\Tools\MSVC\14.44.35207\include\xutility
;	COMDAT ??$_Copy_memmove_tail@PAPAVFuzzyRule@@@std@@YAPAPAVFuzzyRule@@QBDQAPAV1@II@Z
_TEXT	SEGMENT
__Dest_ch$ = -8						; size = 4
__Dest_ptr$ = -4					; size = 4
__First_ch$ = 8						; size = 4
__Dest$ = 12						; size = 4
__Byte_count$ = 16					; size = 4
__Object_count$ = 20					; size = 4
??$_Copy_memmove_tail@PAPAVFuzzyRule@@@std@@YAPAPAVFuzzyRule@@QBDQAPAV1@II@Z PROC ; std::_Copy_memmove_tail<FuzzyRule * *>, COMDAT

; 4747 :     const char* const _First_ch, const _OutCtgIt _Dest, const size_t _Byte_count, const size_t _Object_count) {

	push	ebp
	mov	ebp, esp
	sub	esp, 8
	mov	DWORD PTR [ebp-8], -858993460		; ccccccccH
	mov	DWORD PTR [ebp-4], -858993460		; ccccccccH

; 4748 :     _STL_INTERNAL_CHECK(_Byte_count == _Object_count * sizeof(*_Dest));
; 4749 :     const auto _Dest_ptr = _STD _To_address(_Dest);

	lea	eax, DWORD PTR __Dest$[ebp]
	push	eax
	call	??$_To_address@PAPAVFuzzyRule@@@std@@YA?A_PABQAPAVFuzzyRule@@@Z ; std::_To_address<FuzzyRule * *>
	add	esp, 4
	mov	DWORD PTR __Dest_ptr$[ebp], eax

; 4750 :     const auto _Dest_ch  = const_cast<char*>(reinterpret_cast<const volatile char*>(_Dest_ptr));

	mov	ecx, DWORD PTR __Dest_ptr$[ebp]
	mov	DWORD PTR __Dest_ch$[ebp], ecx

; 4751 :     _CSTD memmove(_Dest_ch, _First_ch, _Byte_count);

	mov	edx, DWORD PTR __Byte_count$[ebp]
	push	edx
	mov	eax, DWORD PTR __First_ch$[ebp]
	push	eax
	mov	ecx, DWORD PTR __Dest_ch$[ebp]
	push	ecx
	call	_memmove
	add	esp, 12					; 0000000cH

; 4752 :     if constexpr (is_pointer_v<_OutCtgIt>) {
; 4753 :         (void) _Object_count;
; 4754 :         // CodeQL [SM02986] This cast is correct: we're bypassing pointer arithmetic for performance.
; 4755 :         return reinterpret_cast<_OutCtgIt>(_Dest_ch + _Byte_count);

	mov	eax, DWORD PTR __Dest_ch$[ebp]
	add	eax, DWORD PTR __Byte_count$[ebp]

; 4756 :     } else {
; 4757 :         return _Dest + static_cast<_Iter_diff_t<_OutCtgIt>>(_Object_count);
; 4758 :     }
; 4759 : }

	add	esp, 8
	cmp	ebp, esp
	call	__RTC_CheckEsp
	mov	esp, ebp
	pop	ebp
	ret	0
??$_Copy_memmove_tail@PAPAVFuzzyRule@@@std@@YAPAPAVFuzzyRule@@QBDQAPAV1@II@Z ENDP ; std::_Copy_memmove_tail<FuzzyRule * *>
_TEXT	ENDS
; Function compile flags: /Odtp /RTCsu
; File C:\Program Files\Microsoft Visual Studio\2022\Community\VC\Tools\MSVC\14.44.35207\include\type_traits
;	COMDAT ??$move@AAPAPAVFuzzyRule@@@std@@YA$$QAPAPAVFuzzyRule@@AAPAPAV1@@Z
_TEXT	SEGMENT
__Arg$ = 8						; size = 4
??$move@AAPAPAVFuzzyRule@@@std@@YA$$QAPAPAVFuzzyRule@@AAPAPAV1@@Z PROC ; std::move<FuzzyRule * * &>, COMDAT

; 1512 : _NODISCARD _MSVC_INTRINSIC constexpr remove_reference_t<_Ty>&& move(_Ty&& _Arg) noexcept {

	push	ebp
	mov	ebp, esp

; 1513 :     return static_cast<remove_reference_t<_Ty>&&>(_Arg);

	mov	eax, DWORD PTR __Arg$[ebp]

; 1514 : }

	pop	ebp
	ret	0
??$move@AAPAPAVFuzzyRule@@@std@@YA$$QAPAPAVFuzzyRule@@AAPAPAV1@@Z ENDP ; std::move<FuzzyRule * * &>
_TEXT	ENDS
; Function compile flags: /Odtp /RTCsu
; File C:\Program Files\Microsoft Visual Studio\2022\Community\VC\Tools\MSVC\14.44.35207\include\xutility
;	COMDAT ??$_To_address@PAPAVFuzzyRule@@@std@@YA?A_PABQAPAVFuzzyRule@@@Z
_TEXT	SEGMENT
__Val$ = 8						; size = 4
??$_To_address@PAPAVFuzzyRule@@@std@@YA?A_PABQAPAVFuzzyRule@@@Z PROC ; std::_To_address<FuzzyRule * *>, COMDAT

; 4625 : _NODISCARD constexpr auto _To_address(const _Iter& _Val) noexcept {

	push	ebp
	mov	ebp, esp

; 4626 :     _STL_INTERNAL_STATIC_ASSERT(is_pointer_v<_Iter>);
; 4627 :     return _Val;

	mov	eax, DWORD PTR __Val$[ebp]
	mov	eax, DWORD PTR [eax]

; 4628 : }

	pop	ebp
	ret	0
??$_To_address@PAPAVFuzzyRule@@@std@@YA?A_PABQAPAVFuzzyRule@@@Z ENDP ; std::_To_address<FuzzyRule * *>
_TEXT	ENDS
; Function compile flags: /Odtp /RTCsu
; File C:\Program Files\Microsoft Visual Studio\2022\Community\VC\Tools\MSVC\14.44.35207\include\xutility
;	COMDAT ??$_Construct_in_place@PAU?$_Tree_node@U?$pair@$$CBV?$basic_string@DU?$char_traits@D@std@@V?$allocator@D@2@@std@@PAVFuzzySet@@@std@@PAX@std@@ABQAU12@@std@@YAXAAPAU?$_Tree_node@U?$pair@$$CBV?$basic_string@DU?$char_traits@D@std@@V?$allocator@D@2@@std@@PAVFuzzySet@@@std@@PAX@0@ABQAU10@@Z
_TEXT	SEGMENT
$T1 = -4						; size = 4
__Obj$ = 8						; size = 4
_<_Args_0>$ = 12					; size = 4
??$_Construct_in_place@PAU?$_Tree_node@U?$pair@$$CBV?$basic_string@DU?$char_traits@D@std@@V?$allocator@D@2@@std@@PAVFuzzySet@@@std@@PAX@std@@ABQAU12@@std@@YAXAAPAU?$_Tree_node@U?$pair@$$CBV?$basic_string@DU?$char_traits@D@std@@V?$allocator@D@2@@std@@PAVFuzzySet@@@std@@PAX@0@ABQAU10@@Z PROC ; std::_Construct_in_place<std::_Tree_node<std::pair<std::basic_string<char,std::char_traits<char>,std::allocator<char> > const ,FuzzySet *>,void *> *,std::_Tree_node<std::pair<std::basic_string<char,std::char_traits<char>,std::allocator<char> > const ,FuzzySet *>,void *> * const &>, COMDAT

; 469  :     noexcept(is_nothrow_constructible_v<_Ty, _Types...>) {

	push	ebp
	mov	ebp, esp
	push	ecx
	mov	DWORD PTR [ebp-4], -858993460		; ccccccccH

; 470  : #if _HAS_CXX20
; 471  :     if (_STD is_constant_evaluated()) {
; 472  :         _STD construct_at(_STD addressof(_Obj), _STD forward<_Types>(_Args)...);
; 473  :     } else
; 474  : #endif // _HAS_CXX20
; 475  :     {
; 476  :         ::new (static_cast<void*>(_STD addressof(_Obj))) _Ty(_STD forward<_Types>(_Args)...);

	mov	eax, DWORD PTR __Obj$[ebp]
	push	eax
	call	??$addressof@PAU?$_Tree_node@U?$pair@$$CBV?$basic_string@DU?$char_traits@D@std@@V?$allocator@D@2@@std@@PAVFuzzySet@@@std@@PAX@std@@@std@@YAPAPAU?$_Tree_node@U?$pair@$$CBV?$basic_string@DU?$char_traits@D@std@@V?$allocator@D@2@@std@@PAVFuzzySet@@@std@@PAX@0@AAPAU10@@Z ; std::addressof<std::_Tree_node<std::pair<std::basic_string<char,std::char_traits<char>,std::allocator<char> > const ,FuzzySet *>,void *> *>
	add	esp, 4
	push	eax
	push	4
	call	??2@YAPAXIPAX@Z				; operator new
	add	esp, 8
	mov	DWORD PTR $T1[ebp], eax
	mov	ecx, DWORD PTR _<_Args_0>$[ebp]
	push	ecx
	call	??$forward@ABQAU?$_Tree_node@U?$pair@$$CBV?$basic_string@DU?$char_traits@D@std@@V?$allocator@D@2@@std@@PAVFuzzySet@@@std@@PAX@std@@@std@@YAABQAU?$_Tree_node@U?$pair@$$CBV?$basic_string@DU?$char_traits@D@std@@V?$allocator@D@2@@std@@PAVFuzzySet@@@std@@PAX@0@ABQAU10@@Z ; std::forward<std::_Tree_node<std::pair<std::basic_string<char,std::char_traits<char>,std::allocator<char> > const ,FuzzySet *>,void *> * const &>
	add	esp, 4
	mov	edx, DWORD PTR $T1[ebp]
	mov	eax, DWORD PTR [eax]
	mov	DWORD PTR [edx], eax

; 477  :     }
; 478  : }

	add	esp, 4
	cmp	ebp, esp
	call	__RTC_CheckEsp
	mov	esp, ebp
	pop	ebp
	ret	0
??$_Construct_in_place@PAU?$_Tree_node@U?$pair@$$CBV?$basic_string@DU?$char_traits@D@std@@V?$allocator@D@2@@std@@PAVFuzzySet@@@std@@PAX@std@@ABQAU12@@std@@YAXAAPAU?$_Tree_node@U?$pair@$$CBV?$basic_string@DU?$char_traits@D@std@@V?$allocator@D@2@@std@@PAVFuzzySet@@@std@@PAX@0@ABQAU10@@Z ENDP ; std::_Construct_in_place<std::_Tree_node<std::pair<std::basic_string<char,std::char_traits<char>,std::allocator<char> > const ,FuzzySet *>,void *> *,std::_Tree_node<std::pair<std::basic_string<char,std::char_traits<char>,std::allocator<char> > const ,FuzzySet *>,void *> * const &>
_TEXT	ENDS
; Function compile flags: /Odtp /RTCsu
; File C:\Program Files\Microsoft Visual Studio\2022\Community\VC\Tools\MSVC\14.44.35207\include\xmemory
;	COMDAT ??$_Allocate_manually_vector_aligned@U_Default_allocate_traits@std@@@std@@YAPAXI@Z
_TEXT	SEGMENT
__Ptr$ = -12						; size = 4
__Ptr_container$ = -8					; size = 4
__Block_size$ = -4					; size = 4
__Bytes$ = 8						; size = 4
??$_Allocate_manually_vector_aligned@U_Default_allocate_traits@std@@@std@@YAPAXI@Z PROC ; std::_Allocate_manually_vector_aligned<std::_Default_allocate_traits>, COMDAT

; 182  : __declspec(allocator) void* _Allocate_manually_vector_aligned(const size_t _Bytes) {

	push	ebp
	mov	ebp, esp
	sub	esp, 12					; 0000000cH
	mov	DWORD PTR [ebp-12], -858993460		; ccccccccH
	mov	DWORD PTR [ebp-8], -858993460		; ccccccccH
	mov	DWORD PTR [ebp-4], -858993460		; ccccccccH

; 183  :     // allocate _Bytes manually aligned to at least _Big_allocation_alignment
; 184  :     const size_t _Block_size = _Non_user_size + _Bytes;

	mov	eax, DWORD PTR __Bytes$[ebp]
	add	eax, 39					; 00000027H
	mov	DWORD PTR __Block_size$[ebp], eax

; 185  :     if (_Block_size <= _Bytes) {

	mov	ecx, DWORD PTR __Block_size$[ebp]
	cmp	ecx, DWORD PTR __Bytes$[ebp]
	ja	SHORT $LN2@Allocate_m

; 186  :         _Throw_bad_array_new_length(); // add overflow

	call	?_Throw_bad_array_new_length@std@@YAXXZ	; std::_Throw_bad_array_new_length
	npad	1
$LN2@Allocate_m:

; 187  :     }
; 188  : 
; 189  :     const uintptr_t _Ptr_container = reinterpret_cast<uintptr_t>(_Traits::_Allocate(_Block_size));

	mov	edx, DWORD PTR __Block_size$[ebp]
	push	edx
	call	?_Allocate@_Default_allocate_traits@std@@SAPAXI@Z ; std::_Default_allocate_traits::_Allocate
	add	esp, 4
	mov	DWORD PTR __Ptr_container$[ebp], eax

; 190  :     _STL_VERIFY(_Ptr_container != 0, "invalid argument"); // validate even in release since we're doing p[-1]

	cmp	DWORD PTR __Ptr_container$[ebp], 0
	jne	SHORT $LN3@Allocate_m
	push	OFFSET $SG87443
	push	OFFSET $SG87444
	push	0
	push	190					; 000000beH
	push	OFFSET $SG87445
	push	2
	call	__CrtDbgReport
	add	esp, 24					; 00000018H
	cmp	eax, 1
	jne	SHORT $LN5@Allocate_m
	int	3
$LN5@Allocate_m:
	push	0
	push	0
	push	0
	push	0
	push	0
	call	__invoke_watson
	npad	1
$LN3@Allocate_m:

; 191  :     void* const _Ptr = reinterpret_cast<void*>((_Ptr_container + _Non_user_size) & ~(_Big_allocation_alignment - 1));

	mov	ecx, DWORD PTR __Ptr_container$[ebp]
	add	ecx, 39					; 00000027H
	and	ecx, -32				; ffffffe0H
	mov	DWORD PTR __Ptr$[ebp], ecx

; 192  :     static_cast<uintptr_t*>(_Ptr)[-1] = _Ptr_container;

	mov	edx, 4
	imul	eax, edx, -1
	mov	ecx, DWORD PTR __Ptr$[ebp]
	mov	edx, DWORD PTR __Ptr_container$[ebp]
	mov	DWORD PTR [ecx+eax], edx

; 193  : 
; 194  : #ifdef _DEBUG
; 195  :     static_cast<uintptr_t*>(_Ptr)[-2] = _Big_allocation_sentinel;

	mov	eax, 4
	imul	ecx, eax, -2
	mov	edx, DWORD PTR __Ptr$[ebp]
	mov	DWORD PTR [edx+ecx], -84215046		; fafafafaH

; 196  : #endif // defined(_DEBUG)
; 197  :     return _Ptr;

	mov	eax, DWORD PTR __Ptr$[ebp]
$LN1@Allocate_m:

; 198  : }

	add	esp, 12					; 0000000cH
	cmp	ebp, esp
	call	__RTC_CheckEsp
	mov	esp, ebp
	pop	ebp
	ret	0
??$_Allocate_manually_vector_aligned@U_Default_allocate_traits@std@@@std@@YAPAXI@Z ENDP ; std::_Allocate_manually_vector_aligned<std::_Default_allocate_traits>
_TEXT	ENDS
; Function compile flags: /Odtp /RTCsu
; File C:\Program Files\Microsoft Visual Studio\2022\Community\VC\Tools\MSVC\14.44.35207\include\type_traits
;	COMDAT ??$forward@AAPAU?$_Tree_node@U?$pair@$$CBV?$basic_string@DU?$char_traits@D@std@@V?$allocator@D@2@@std@@PAVFuzzyVariable@@@std@@PAX@std@@@std@@YAAAPAU?$_Tree_node@U?$pair@$$CBV?$basic_string@DU?$char_traits@D@std@@V?$allocator@D@2@@std@@PAVFuzzyVariable@@@std@@PAX@0@AAPAU10@@Z
_TEXT	SEGMENT
__Arg$ = 8						; size = 4
??$forward@AAPAU?$_Tree_node@U?$pair@$$CBV?$basic_string@DU?$char_traits@D@std@@V?$allocator@D@2@@std@@PAVFuzzyVariable@@@std@@PAX@std@@@std@@YAAAPAU?$_Tree_node@U?$pair@$$CBV?$basic_string@DU?$char_traits@D@std@@V?$allocator@D@2@@std@@PAVFuzzyVariable@@@std@@PAX@0@AAPAU10@@Z PROC ; std::forward<std::_Tree_node<std::pair<std::basic_string<char,std::char_traits<char>,std::allocator<char> > const ,FuzzyVariable *>,void *> * &>, COMDAT

; 1501 : _NODISCARD _MSVC_INTRINSIC constexpr _Ty&& forward(remove_reference_t<_Ty>& _Arg) noexcept {

	push	ebp
	mov	ebp, esp

; 1502 :     return static_cast<_Ty&&>(_Arg);

	mov	eax, DWORD PTR __Arg$[ebp]

; 1503 : }

	pop	ebp
	ret	0
??$forward@AAPAU?$_Tree_node@U?$pair@$$CBV?$basic_string@DU?$char_traits@D@std@@V?$allocator@D@2@@std@@PAVFuzzyVariable@@@std@@PAX@std@@@std@@YAAAPAU?$_Tree_node@U?$pair@$$CBV?$basic_string@DU?$char_traits@D@std@@V?$allocator@D@2@@std@@PAVFuzzyVariable@@@std@@PAX@0@AAPAU10@@Z ENDP ; std::forward<std::_Tree_node<std::pair<std::basic_string<char,std::char_traits<char>,std::allocator<char> > const ,FuzzyVariable *>,void *> * &>
_TEXT	ENDS
; Function compile flags: /Odtp /RTCsu
; File C:\Program Files\Microsoft Visual Studio\2022\Community\VC\Tools\MSVC\14.44.35207\include\type_traits
;	COMDAT ??$addressof@PAU?$_Tree_node@U?$pair@$$CBV?$basic_string@DU?$char_traits@D@std@@V?$allocator@D@2@@std@@PAVFuzzyVariable@@@std@@PAX@std@@@std@@YAPAPAU?$_Tree_node@U?$pair@$$CBV?$basic_string@DU?$char_traits@D@std@@V?$allocator@D@2@@std@@PAVFuzzyVariable@@@std@@PAX@0@AAPAU10@@Z
_TEXT	SEGMENT
__Val$ = 8						; size = 4
??$addressof@PAU?$_Tree_node@U?$pair@$$CBV?$basic_string@DU?$char_traits@D@std@@V?$allocator@D@2@@std@@PAVFuzzyVariable@@@std@@PAX@std@@@std@@YAPAPAU?$_Tree_node@U?$pair@$$CBV?$basic_string@DU?$char_traits@D@std@@V?$allocator@D@2@@std@@PAVFuzzyVariable@@@std@@PAX@0@AAPAU10@@Z PROC ; std::addressof<std::_Tree_node<std::pair<std::basic_string<char,std::char_traits<char>,std::allocator<char> > const ,FuzzyVariable *>,void *> *>, COMDAT

; 1524 : _NODISCARD constexpr _Ty* addressof(_Ty& _Val) noexcept {

	push	ebp
	mov	ebp, esp

; 1525 :     return __builtin_addressof(_Val);

	mov	eax, DWORD PTR __Val$[ebp]

; 1526 : }

	pop	ebp
	ret	0
??$addressof@PAU?$_Tree_node@U?$pair@$$CBV?$basic_string@DU?$char_traits@D@std@@V?$allocator@D@2@@std@@PAVFuzzyVariable@@@std@@PAX@std@@@std@@YAPAPAU?$_Tree_node@U?$pair@$$CBV?$basic_string@DU?$char_traits@D@std@@V?$allocator@D@2@@std@@PAVFuzzyVariable@@@std@@PAX@0@AAPAU10@@Z ENDP ; std::addressof<std::_Tree_node<std::pair<std::basic_string<char,std::char_traits<char>,std::allocator<char> > const ,FuzzyVariable *>,void *> *>
_TEXT	ENDS
; Function compile flags: /Odtp /RTCsu
; File C:\Program Files\Microsoft Visual Studio\2022\Community\VC\Tools\MSVC\14.44.35207\include\utility
;	COMDAT ??$?0ABV?$basic_string@DU?$char_traits@D@std@@V?$allocator@D@2@@std@@$$Z$$V@?$pair@$$CBV?$basic_string@DU?$char_traits@D@std@@V?$allocator@D@2@@std@@PAVFuzzyVariable@@@std@@QAE@Upiecewise_construct_t@1@V?$tuple@ABV?$basic_string@DU?$char_traits@D@std@@V?$allocator@D@2@@std@@@1@V?$tuple@$$V@1@@Z
_TEXT	SEGMENT
$T1 = -6						; size = 1
$T2 = -5						; size = 1
_this$ = -4						; size = 4
___formal$ = 8						; size = 1
__Val1$ = 12						; size = 4
__Val2$ = 16						; size = 1
??$?0ABV?$basic_string@DU?$char_traits@D@std@@V?$allocator@D@2@@std@@$$Z$$V@?$pair@$$CBV?$basic_string@DU?$char_traits@D@std@@V?$allocator@D@2@@std@@PAVFuzzyVariable@@@std@@QAE@Upiecewise_construct_t@1@V?$tuple@ABV?$basic_string@DU?$char_traits@D@std@@V?$allocator@D@2@@std@@@1@V?$tuple@$$V@1@@Z PROC ; std::pair<std::basic_string<char,std::char_traits<char>,std::allocator<char> > const ,FuzzyVariable *>::pair<std::basic_string<char,std::char_traits<char>,std::allocator<char> > const ,FuzzyVariable *><std::basic_string<char,std::char_traits<char>,std::allocator<char> > const &>, COMDAT
; _this$ = ecx

; 331  :         : pair(_Val1, _Val2, index_sequence_for<_Types1...>{}, index_sequence_for<_Types2...>{}) {}

	push	ebp
	mov	ebp, esp
	sub	esp, 8
	mov	DWORD PTR [ebp-8], -858993460		; ccccccccH
	mov	DWORD PTR [ebp-4], -858993460		; ccccccccH
	mov	DWORD PTR _this$[ebp], ecx
	xor	eax, eax
	mov	BYTE PTR $T2[ebp], al
	xor	ecx, ecx
	mov	BYTE PTR $T1[ebp], cl
	movzx	edx, BYTE PTR $T2[ebp]
	push	edx
	movzx	eax, BYTE PTR $T1[ebp]
	push	eax
	lea	ecx, DWORD PTR __Val2$[ebp]
	push	ecx
	lea	edx, DWORD PTR __Val1$[ebp]
	push	edx
	mov	ecx, DWORD PTR _this$[ebp]
	call	??$?0V?$tuple@ABV?$basic_string@DU?$char_traits@D@std@@V?$allocator@D@2@@std@@@std@@V?$tuple@$$V@1@$0A@$$Z$S@?$pair@$$CBV?$basic_string@DU?$char_traits@D@std@@V?$allocator@D@2@@std@@PAVFuzzyVariable@@@std@@AAE@AAV?$tuple@ABV?$basic_string@DU?$char_traits@D@std@@V?$allocator@D@2@@std@@@1@AAV?$tuple@$$V@1@U?$integer_sequence@I$0A@@1@U?$integer_sequence@I$S@1@@Z ; std::pair<std::basic_string<char,std::char_traits<char>,std::allocator<char> > const ,FuzzyVariable *>::pair<std::basic_string<char,std::char_traits<char>,std::allocator<char> > const ,FuzzyVariable *><std::tuple<std::basic_string<char,std::char_traits<char>,std::allocator<char> > const &>,std::tuple<>,0>
	npad	1
	mov	eax, DWORD PTR _this$[ebp]
	add	esp, 8
	cmp	ebp, esp
	call	__RTC_CheckEsp
	mov	esp, ebp
	pop	ebp
	ret	12					; 0000000cH
??$?0ABV?$basic_string@DU?$char_traits@D@std@@V?$allocator@D@2@@std@@$$Z$$V@?$pair@$$CBV?$basic_string@DU?$char_traits@D@std@@V?$allocator@D@2@@std@@PAVFuzzyVariable@@@std@@QAE@Upiecewise_construct_t@1@V?$tuple@ABV?$basic_string@DU?$char_traits@D@std@@V?$allocator@D@2@@std@@@1@V?$tuple@$$V@1@@Z ENDP ; std::pair<std::basic_string<char,std::char_traits<char>,std::allocator<char> > const ,FuzzyVariable *>::pair<std::basic_string<char,std::char_traits<char>,std::allocator<char> > const ,FuzzyVariable *><std::basic_string<char,std::char_traits<char>,std::allocator<char> > const &>
_TEXT	ENDS
; Function compile flags: /Odtp /RTCsu
; File C:\Program Files\Microsoft Visual Studio\2022\Community\VC\Tools\MSVC\14.44.35207\include\tuple
;	COMDAT ??$?0U_Exact_args_t@std@@ABV?$basic_string@DU?$char_traits@D@std@@V?$allocator@D@2@@1@$$V$0A@@?$tuple@ABV?$basic_string@DU?$char_traits@D@std@@V?$allocator@D@2@@std@@@std@@QAE@U_Exact_args_t@1@ABV?$basic_string@DU?$char_traits@D@std@@V?$allocator@D@2@@1@@Z
_TEXT	SEGMENT
$T1 = -5						; size = 1
_this$ = -4						; size = 4
___formal$ = 8						; size = 1
__This_arg$ = 12					; size = 4
??$?0U_Exact_args_t@std@@ABV?$basic_string@DU?$char_traits@D@std@@V?$allocator@D@2@@1@$$V$0A@@?$tuple@ABV?$basic_string@DU?$char_traits@D@std@@V?$allocator@D@2@@std@@@std@@QAE@U_Exact_args_t@1@ABV?$basic_string@DU?$char_traits@D@std@@V?$allocator@D@2@@1@@Z PROC ; std::tuple<std::basic_string<char,std::char_traits<char>,std::allocator<char> > const &>::tuple<std::basic_string<char,std::char_traits<char>,std::allocator<char> > const &><std::_Exact_args_t,std::basic_string<char,std::char_traits<char>,std::allocator<char> > const &,0>, COMDAT
; _this$ = ecx

; 301  :         : _Mybase(_Exact_args_t{}, _STD forward<_Rest2>(_Rest_arg)...), _Myfirst(_STD forward<_This2>(_This_arg)) {}

	push	ebp
	mov	ebp, esp
	sub	esp, 8
	mov	DWORD PTR [ebp-8], -858993460		; ccccccccH
	mov	DWORD PTR [ebp-4], -858993460		; ccccccccH
	mov	DWORD PTR _this$[ebp], ecx
	movzx	eax, BYTE PTR $T1[ebp]
	push	eax
	mov	ecx, DWORD PTR _this$[ebp]
	call	??$?0U_Exact_args_t@std@@$0A@@?$tuple@$$V@std@@QAE@U_Exact_args_t@1@@Z ; std::tuple<>::tuple<><std::_Exact_args_t,0>
	npad	1
	mov	ecx, DWORD PTR __This_arg$[ebp]
	push	ecx
	call	??$forward@ABV?$basic_string@DU?$char_traits@D@std@@V?$allocator@D@2@@std@@@std@@YAABV?$basic_string@DU?$char_traits@D@std@@V?$allocator@D@2@@0@ABV10@@Z ; std::forward<std::basic_string<char,std::char_traits<char>,std::allocator<char> > const &>
	add	esp, 4
	push	eax
	mov	ecx, DWORD PTR _this$[ebp]
	call	??$?0ABV?$basic_string@DU?$char_traits@D@std@@V?$allocator@D@2@@std@@@?$_Tuple_val@ABV?$basic_string@DU?$char_traits@D@std@@V?$allocator@D@2@@std@@@std@@QAE@ABV?$basic_string@DU?$char_traits@D@std@@V?$allocator@D@2@@1@@Z ; std::_Tuple_val<std::basic_string<char,std::char_traits<char>,std::allocator<char> > const &>::_Tuple_val<std::basic_string<char,std::char_traits<char>,std::allocator<char> > const &><std::basic_string<char,std::char_traits<char>,std::allocator<char> > const &>
	npad	1
	mov	eax, DWORD PTR _this$[ebp]
	add	esp, 8
	cmp	ebp, esp
	call	__RTC_CheckEsp
	mov	esp, ebp
	pop	ebp
	ret	8
??$?0U_Exact_args_t@std@@ABV?$basic_string@DU?$char_traits@D@std@@V?$allocator@D@2@@1@$$V$0A@@?$tuple@ABV?$basic_string@DU?$char_traits@D@std@@V?$allocator@D@2@@std@@@std@@QAE@U_Exact_args_t@1@ABV?$basic_string@DU?$char_traits@D@std@@V?$allocator@D@2@@1@@Z ENDP ; std::tuple<std::basic_string<char,std::char_traits<char>,std::allocator<char> > const &>::tuple<std::basic_string<char,std::char_traits<char>,std::allocator<char> > const &><std::_Exact_args_t,std::basic_string<char,std::char_traits<char>,std::allocator<char> > const &,0>
_TEXT	ENDS
; Function compile flags: /Odtp /RTCsu
; File C:\Program Files\Microsoft Visual Studio\2022\Community\VC\Tools\MSVC\14.44.35207\include\xmemory
;	COMDAT ??$_Emplace_back@PAVFuzzyRule@@@?$_Uninitialized_backout_al@V?$allocator@PAVFuzzyRule@@@std@@@std@@QAEX$$QAPAVFuzzyRule@@@Z
_TEXT	SEGMENT
_this$ = -4						; size = 4
_<_Vals_0>$ = 8						; size = 4
??$_Emplace_back@PAVFuzzyRule@@@?$_Uninitialized_backout_al@V?$allocator@PAVFuzzyRule@@@std@@@std@@QAEX$$QAPAVFuzzyRule@@@Z PROC ; std::_Uninitialized_backout_al<std::allocator<FuzzyRule *> >::_Emplace_back<FuzzyRule *>, COMDAT
; _this$ = ecx

; 1843 :     _CONSTEXPR20 void _Emplace_back(_Types&&... _Vals) { // construct a new element at *_Last and increment

	push	ebp
	mov	ebp, esp
	push	ecx
	mov	DWORD PTR [ebp-4], -858993460		; ccccccccH
	mov	DWORD PTR _this$[ebp], ecx

; 1844 :         allocator_traits<_Alloc>::construct(_Al, _STD _Unfancy(_Last), _STD forward<_Types>(_Vals)...);

	mov	eax, DWORD PTR _<_Vals_0>$[ebp]
	push	eax
	call	??$forward@PAVFuzzyRule@@@std@@YA$$QAPAVFuzzyRule@@AAPAV1@@Z ; std::forward<FuzzyRule *>
	add	esp, 4
	push	eax
	mov	ecx, DWORD PTR _this$[ebp]
	mov	edx, DWORD PTR [ecx+4]
	push	edx
	call	??$_Unfancy@PAVFuzzyRule@@@std@@YAPAPAVFuzzyRule@@PAPAV1@@Z ; std::_Unfancy<FuzzyRule *>
	add	esp, 4
	push	eax
	mov	eax, DWORD PTR _this$[ebp]
	mov	ecx, DWORD PTR [eax+8]
	push	ecx
	call	??$construct@PAVFuzzyRule@@PAV1@@?$_Default_allocator_traits@V?$allocator@PAVFuzzyRule@@@std@@@std@@SAXAAV?$allocator@PAVFuzzyRule@@@1@QAPAVFuzzyRule@@$$QAPAV3@@Z ; std::_Default_allocator_traits<std::allocator<FuzzyRule *> >::construct<FuzzyRule *,FuzzyRule *>
	add	esp, 12					; 0000000cH

; 1845 :         ++_Last;

	mov	edx, DWORD PTR _this$[ebp]
	mov	eax, DWORD PTR [edx+4]
	add	eax, 4
	mov	ecx, DWORD PTR _this$[ebp]
	mov	DWORD PTR [ecx+4], eax

; 1846 :     }

	add	esp, 4
	cmp	ebp, esp
	call	__RTC_CheckEsp
	mov	esp, ebp
	pop	ebp
	ret	4
??$_Emplace_back@PAVFuzzyRule@@@?$_Uninitialized_backout_al@V?$allocator@PAVFuzzyRule@@@std@@@std@@QAEX$$QAPAVFuzzyRule@@@Z ENDP ; std::_Uninitialized_backout_al<std::allocator<FuzzyRule *> >::_Emplace_back<FuzzyRule *>
_TEXT	ENDS
; Function compile flags: /Odtp /RTCsu
; File C:\Program Files\Microsoft Visual Studio\2022\Community\VC\Tools\MSVC\14.44.35207\include\xmemory
;	COMDAT ?_Release@?$_Uninitialized_backout_al@V?$allocator@PAVFuzzyRule@@@std@@@std@@QAEPAPAVFuzzyRule@@XZ
_TEXT	SEGMENT
_this$ = -4						; size = 4
?_Release@?$_Uninitialized_backout_al@V?$allocator@PAVFuzzyRule@@@std@@@std@@QAEPAPAVFuzzyRule@@XZ PROC ; std::_Uninitialized_backout_al<std::allocator<FuzzyRule *> >::_Release, COMDAT
; _this$ = ecx

; 1848 :     constexpr pointer _Release() { // suppress any exception handling backout and return _Last

	push	ebp
	mov	ebp, esp
	push	ecx
	mov	DWORD PTR _this$[ebp], ecx

; 1849 :         _First = _Last;

	mov	eax, DWORD PTR _this$[ebp]
	mov	ecx, DWORD PTR _this$[ebp]
	mov	edx, DWORD PTR [ecx+4]
	mov	DWORD PTR [eax], edx

; 1850 :         return _Last;

	mov	eax, DWORD PTR _this$[ebp]
	mov	eax, DWORD PTR [eax+4]

; 1851 :     }

	mov	esp, ebp
	pop	ebp
	ret	0
?_Release@?$_Uninitialized_backout_al@V?$allocator@PAVFuzzyRule@@@std@@@std@@QAEPAPAVFuzzyRule@@XZ ENDP ; std::_Uninitialized_backout_al<std::allocator<FuzzyRule *> >::_Release
_TEXT	ENDS
; Function compile flags: /Odtp /RTCsu
; File C:\Program Files\Microsoft Visual Studio\2022\Community\VC\Tools\MSVC\14.44.35207\include\xmemory
;	COMDAT ??1?$_Uninitialized_backout_al@V?$allocator@PAVFuzzyRule@@@std@@@std@@QAE@XZ
_TEXT	SEGMENT
_this$ = -4						; size = 4
??1?$_Uninitialized_backout_al@V?$allocator@PAVFuzzyRule@@@std@@@std@@QAE@XZ PROC ; std::_Uninitialized_backout_al<std::allocator<FuzzyRule *> >::~_Uninitialized_backout_al<std::allocator<FuzzyRule *> >, COMDAT
; _this$ = ecx

; 1838 :     _CONSTEXPR20 ~_Uninitialized_backout_al() {

	push	ebp
	mov	ebp, esp
	push	ecx
	mov	DWORD PTR [ebp-4], -858993460		; ccccccccH
	mov	DWORD PTR _this$[ebp], ecx

; 1839 :         _STD _Destroy_range(_First, _Last, _Al);

	mov	eax, DWORD PTR _this$[ebp]
	mov	ecx, DWORD PTR [eax+8]
	push	ecx
	mov	edx, DWORD PTR _this$[ebp]
	mov	eax, DWORD PTR [edx+4]
	push	eax
	mov	ecx, DWORD PTR _this$[ebp]
	mov	edx, DWORD PTR [ecx]
	push	edx
	call	??$_Destroy_range@V?$allocator@PAVFuzzyRule@@@std@@@std@@YAXPAPAVFuzzyRule@@QAPAV1@AAV?$allocator@PAVFuzzyRule@@@0@@Z ; std::_Destroy_range<std::allocator<FuzzyRule *> >
	add	esp, 12					; 0000000cH

; 1840 :     }

	add	esp, 4
	cmp	ebp, esp
	call	__RTC_CheckEsp
	mov	esp, ebp
	pop	ebp
	ret	0
??1?$_Uninitialized_backout_al@V?$allocator@PAVFuzzyRule@@@std@@@std@@QAE@XZ ENDP ; std::_Uninitialized_backout_al<std::allocator<FuzzyRule *> >::~_Uninitialized_backout_al<std::allocator<FuzzyRule *> >
_TEXT	ENDS
; Function compile flags: /Odtp /RTCsu
; File C:\Program Files\Microsoft Visual Studio\2022\Community\VC\Tools\MSVC\14.44.35207\include\xmemory
;	COMDAT ??0?$_Uninitialized_backout_al@V?$allocator@PAVFuzzyRule@@@std@@@std@@QAE@PAPAVFuzzyRule@@AAV?$allocator@PAVFuzzyRule@@@1@@Z
_TEXT	SEGMENT
_this$ = -4						; size = 4
__Dest$ = 8						; size = 4
__Al_$ = 12						; size = 4
??0?$_Uninitialized_backout_al@V?$allocator@PAVFuzzyRule@@@std@@@std@@QAE@PAPAVFuzzyRule@@AAV?$allocator@PAVFuzzyRule@@@1@@Z PROC ; std::_Uninitialized_backout_al<std::allocator<FuzzyRule *> >::_Uninitialized_backout_al<std::allocator<FuzzyRule *> >, COMDAT
; _this$ = ecx

; 1833 :     _CONSTEXPR20 _Uninitialized_backout_al(pointer _Dest, _Alloc& _Al_) : _First(_Dest), _Last(_Dest), _Al(_Al_) {}

	push	ebp
	mov	ebp, esp
	push	ecx
	mov	DWORD PTR _this$[ebp], ecx
	mov	eax, DWORD PTR _this$[ebp]
	mov	ecx, DWORD PTR __Dest$[ebp]
	mov	DWORD PTR [eax], ecx
	mov	edx, DWORD PTR _this$[ebp]
	mov	eax, DWORD PTR __Dest$[ebp]
	mov	DWORD PTR [edx+4], eax
	mov	ecx, DWORD PTR _this$[ebp]
	mov	edx, DWORD PTR __Al_$[ebp]
	mov	DWORD PTR [ecx+8], edx
	mov	eax, DWORD PTR _this$[ebp]
	mov	esp, ebp
	pop	ebp
	ret	8
??0?$_Uninitialized_backout_al@V?$allocator@PAVFuzzyRule@@@std@@@std@@QAE@PAPAVFuzzyRule@@AAV?$allocator@PAVFuzzyRule@@@1@@Z ENDP ; std::_Uninitialized_backout_al<std::allocator<FuzzyRule *> >::_Uninitialized_backout_al<std::allocator<FuzzyRule *> >
_TEXT	ENDS
; Function compile flags: /Odtp /RTCsu
; File C:\Program Files\Microsoft Visual Studio\2022\Community\VC\Tools\MSVC\14.44.35207\include\xutility
;	COMDAT ??$_Copy_memmove@PAPAVFuzzyRule@@PAPAV1@@std@@YAPAPAVFuzzyRule@@PAPAV1@00@Z
_TEXT	SEGMENT
__Byte_count$ = -24					; size = 4
__Last_ch$ = -20					; size = 4
__First_ch$ = -16					; size = 4
__Object_count$ = -12					; size = 4
__Last_ptr$ = -8					; size = 4
__First_ptr$ = -4					; size = 4
__First$ = 8						; size = 4
__Last$ = 12						; size = 4
__Dest$ = 16						; size = 4
??$_Copy_memmove@PAPAVFuzzyRule@@PAPAV1@@std@@YAPAPAVFuzzyRule@@PAPAV1@00@Z PROC ; std::_Copy_memmove<FuzzyRule * *,FuzzyRule * *>, COMDAT

; 4762 : _OutCtgIt _Copy_memmove(_CtgIt _First, _CtgIt _Last, _OutCtgIt _Dest) {

	push	ebp
	mov	ebp, esp
	sub	esp, 24					; 00000018H
	mov	eax, -858993460				; ccccccccH
	mov	DWORD PTR [ebp-24], eax
	mov	DWORD PTR [ebp-20], eax
	mov	DWORD PTR [ebp-16], eax
	mov	DWORD PTR [ebp-12], eax
	mov	DWORD PTR [ebp-8], eax
	mov	DWORD PTR [ebp-4], eax

; 4763 :     _STL_INTERNAL_CHECK(_First <= _Last);
; 4764 :     const auto _First_ptr    = _STD _To_address(_First);

	lea	eax, DWORD PTR __First$[ebp]
	push	eax
	call	??$_To_address@PAPAVFuzzyRule@@@std@@YA?A_PABQAPAVFuzzyRule@@@Z ; std::_To_address<FuzzyRule * *>
	add	esp, 4
	mov	DWORD PTR __First_ptr$[ebp], eax

; 4765 :     const auto _Last_ptr     = _STD _To_address(_Last);

	lea	ecx, DWORD PTR __Last$[ebp]
	push	ecx
	call	??$_To_address@PAPAVFuzzyRule@@@std@@YA?A_PABQAPAVFuzzyRule@@@Z ; std::_To_address<FuzzyRule * *>
	add	esp, 4
	mov	DWORD PTR __Last_ptr$[ebp], eax

; 4766 :     const auto _Object_count = static_cast<size_t>(_Last_ptr - _First_ptr);

	mov	edx, DWORD PTR __Last_ptr$[ebp]
	sub	edx, DWORD PTR __First_ptr$[ebp]
	sar	edx, 2
	mov	DWORD PTR __Object_count$[ebp], edx

; 4767 :     const auto _First_ch     = const_cast<const char*>(reinterpret_cast<const volatile char*>(_First_ptr));

	mov	eax, DWORD PTR __First_ptr$[ebp]
	mov	DWORD PTR __First_ch$[ebp], eax

; 4768 :     const auto _Last_ch      = const_cast<const char*>(reinterpret_cast<const volatile char*>(_Last_ptr));

	mov	ecx, DWORD PTR __Last_ptr$[ebp]
	mov	DWORD PTR __Last_ch$[ebp], ecx

; 4769 :     const auto _Byte_count   = static_cast<size_t>(_Last_ch - _First_ch);

	mov	edx, DWORD PTR __Last_ch$[ebp]
	sub	edx, DWORD PTR __First_ch$[ebp]
	mov	DWORD PTR __Byte_count$[ebp], edx

; 4770 :     return _STD _Copy_memmove_tail(_First_ch, _STD move(_Dest), _Byte_count, _Object_count);

	mov	eax, DWORD PTR __Object_count$[ebp]
	push	eax
	mov	ecx, DWORD PTR __Byte_count$[ebp]
	push	ecx
	lea	edx, DWORD PTR __Dest$[ebp]
	push	edx
	call	??$move@AAPAPAVFuzzyRule@@@std@@YA$$QAPAPAVFuzzyRule@@AAPAPAV1@@Z ; std::move<FuzzyRule * * &>
	add	esp, 4
	mov	eax, DWORD PTR [eax]
	push	eax
	mov	ecx, DWORD PTR __First_ch$[ebp]
	push	ecx
	call	??$_Copy_memmove_tail@PAPAVFuzzyRule@@@std@@YAPAPAVFuzzyRule@@QBDQAPAV1@II@Z ; std::_Copy_memmove_tail<FuzzyRule * *>
	add	esp, 16					; 00000010H

; 4771 : }

	add	esp, 24					; 00000018H
	cmp	ebp, esp
	call	__RTC_CheckEsp
	mov	esp, ebp
	pop	ebp
	ret	0
??$_Copy_memmove@PAPAVFuzzyRule@@PAPAV1@@std@@YAPAPAVFuzzyRule@@PAPAV1@00@Z ENDP ; std::_Copy_memmove<FuzzyRule * *,FuzzyRule * *>
_TEXT	ENDS
; Function compile flags: /Odtp /RTCsu
; File C:\Program Files\Microsoft Visual Studio\2022\Community\VC\Tools\MSVC\14.44.35207\include\xutility
;	COMDAT ??$_Get_unwrapped@ABQAPAVFuzzyRule@@@std@@YA?A_TABQAPAVFuzzyRule@@@Z
_TEXT	SEGMENT
__It$ = 8						; size = 4
??$_Get_unwrapped@ABQAPAVFuzzyRule@@@std@@YA?A_TABQAPAVFuzzyRule@@@Z PROC ; std::_Get_unwrapped<FuzzyRule * * const &>, COMDAT

; 1379 :     noexcept(!_Unwrappable_v<_Iter> || _Has_nothrow_unwrapped<_Iter>) {

	push	ebp
	mov	ebp, esp

; 1380 :     // unwrap an iterator previously subjected to _Adl_verify_range or otherwise validated
; 1381 :     if constexpr (is_pointer_v<decay_t<_Iter>>) { // special-case pointers and arrays
; 1382 :         return _It + 0;

	mov	eax, DWORD PTR __It$[ebp]
	mov	eax, DWORD PTR [eax]

; 1383 :     } else if constexpr (_Unwrappable_v<_Iter>) {
; 1384 :         return static_cast<_Iter&&>(_It)._Unwrapped();
; 1385 :     } else {
; 1386 :         return static_cast<_Iter&&>(_It);
; 1387 :     }
; 1388 : }

	pop	ebp
	ret	0
??$_Get_unwrapped@ABQAPAVFuzzyRule@@@std@@YA?A_TABQAPAVFuzzyRule@@@Z ENDP ; std::_Get_unwrapped<FuzzyRule * * const &>
_TEXT	ENDS
; Function compile flags: /Odtp /RTCsu
; File C:\Program Files\Microsoft Visual Studio\2022\Community\VC\Tools\MSVC\14.44.35207\include\type_traits
;	COMDAT ??$addressof@PAVFuzzyRule@@@std@@YAPAPAVFuzzyRule@@AAPAV1@@Z
_TEXT	SEGMENT
__Val$ = 8						; size = 4
??$addressof@PAVFuzzyRule@@@std@@YAPAPAVFuzzyRule@@AAPAV1@@Z PROC ; std::addressof<FuzzyRule *>, COMDAT

; 1524 : _NODISCARD constexpr _Ty* addressof(_Ty& _Val) noexcept {

	push	ebp
	mov	ebp, esp

; 1525 :     return __builtin_addressof(_Val);

	mov	eax, DWORD PTR __Val$[ebp]

; 1526 : }

	pop	ebp
	ret	0
??$addressof@PAVFuzzyRule@@@std@@YAPAPAVFuzzyRule@@AAPAV1@@Z ENDP ; std::addressof<FuzzyRule *>
_TEXT	ENDS
; Function compile flags: /Odtp /RTCsu
; File C:\Program Files\Microsoft Visual Studio\2022\Community\VC\Tools\MSVC\14.44.35207\include\utility
;	COMDAT ??$_Max_limit@H@std@@YAHXZ
_TEXT	SEGMENT
__Unsigned_max$1 = -4					; size = 4
??$_Max_limit@H@std@@YAHXZ PROC				; std::_Max_limit<int>, COMDAT

; 863  : _NODISCARD constexpr _Ty _Max_limit() noexcept { // same as (numeric_limits<_Ty>::max)(), less throughput cost

	push	ebp
	mov	ebp, esp
	push	ecx

; 864  :     _STL_INTERNAL_STATIC_ASSERT(is_integral_v<_Ty>); // doesn't attempt to handle all types
; 865  :     if constexpr (is_signed_v<_Ty>) {
; 866  :         constexpr auto _Unsigned_max = static_cast<make_unsigned_t<_Ty>>(-1);

	mov	DWORD PTR __Unsigned_max$1[ebp], -1

; 867  :         return static_cast<_Ty>(_Unsigned_max >> 1);

	mov	eax, 2147483647				; 7fffffffH

; 868  :     } else {
; 869  :         return static_cast<_Ty>(-1);
; 870  :     }
; 871  : }

	mov	esp, ebp
	pop	ebp
	ret	0
??$_Max_limit@H@std@@YAHXZ ENDP				; std::_Max_limit<int>
_TEXT	ENDS
; Function compile flags: /Odtp /RTCsu
; File C:\Program Files\Microsoft Visual Studio\2022\Community\VC\Tools\MSVC\14.44.35207\include\xmemory
;	COMDAT ??$_Destroy_in_place@PAD@std@@YAXAAPAD@Z
_TEXT	SEGMENT
__Obj$ = 8						; size = 4
??$_Destroy_in_place@PAD@std@@YAXAAPAD@Z PROC		; std::_Destroy_in_place<char *>, COMDAT

; 320  : _CONSTEXPR20 void _Destroy_in_place(_Ty& _Obj) noexcept {

	push	ebp
	mov	ebp, esp

; 321  :     if constexpr (is_array_v<_Ty>) {
; 322  :         _STD _Destroy_range(_Obj, _Obj + extent_v<_Ty>);
; 323  :     } else {
; 324  :         _Obj.~_Ty();
; 325  :     }
; 326  : }

	pop	ebp
	ret	0
??$_Destroy_in_place@PAD@std@@YAXAAPAD@Z ENDP		; std::_Destroy_in_place<char *>
_TEXT	ENDS
; Function compile flags: /Odtp /RTCsu
; File C:\Program Files\Microsoft Visual Studio\2022\Community\VC\Tools\MSVC\14.44.35207\include\xtree
;	COMDAT ??$_Buyheadnode@V?$allocator@U?$_Tree_node@U?$pair@$$CBV?$basic_string@DU?$char_traits@D@std@@V?$allocator@D@2@@std@@PAVFuzzySet@@@std@@PAX@std@@@std@@@?$_Tree_node@U?$pair@$$CBV?$basic_string@DU?$char_traits@D@std@@V?$allocator@D@2@@std@@PAVFuzzySet@@@std@@PAX@std@@SAPAU01@AAV?$allocator@U?$_Tree_node@U?$pair@$$CBV?$basic_string@DU?$char_traits@D@std@@V?$allocator@D@2@@std@@PAVFuzzySet@@@std@@PAX@std@@@1@@Z
_TEXT	SEGMENT
__Pnode$ = -8						; size = 4
__Al$ = 8						; size = 4
??$_Buyheadnode@V?$allocator@U?$_Tree_node@U?$pair@$$CBV?$basic_string@DU?$char_traits@D@std@@V?$allocator@D@2@@std@@PAVFuzzySet@@@std@@PAX@std@@@std@@@?$_Tree_node@U?$pair@$$CBV?$basic_string@DU?$char_traits@D@std@@V?$allocator@D@2@@std@@PAVFuzzySet@@@std@@PAX@std@@SAPAU01@AAV?$allocator@U?$_Tree_node@U?$pair@$$CBV?$basic_string@DU?$char_traits@D@std@@V?$allocator@D@2@@std@@PAVFuzzySet@@@std@@PAX@std@@@1@@Z PROC ; std::_Tree_node<std::pair<std::basic_string<char,std::char_traits<char>,std::allocator<char> > const ,FuzzySet *>,void *>::_Buyheadnode<std::allocator<std::_Tree_node<std::pair<std::basic_string<char,std::char_traits<char>,std::allocator<char> > const ,FuzzySet *>,void *> > >, COMDAT

; 343  :     static _Nodeptr _Buyheadnode(_Alloc& _Al) {

	push	ebp
	mov	ebp, esp
	sub	esp, 12					; 0000000cH
	mov	DWORD PTR [ebp-12], -858993460		; ccccccccH
	mov	DWORD PTR [ebp-8], -858993460		; ccccccccH
	mov	DWORD PTR [ebp-4], -858993460		; ccccccccH

; 344  :         static_assert(is_same_v<typename _Alloc::value_type, _Tree_node>, "Bad _Buyheadnode call");
; 345  :         const auto _Pnode = _Al.allocate(1);

	push	1
	mov	ecx, DWORD PTR __Al$[ebp]
	call	?allocate@?$allocator@U?$_Tree_node@U?$pair@$$CBV?$basic_string@DU?$char_traits@D@std@@V?$allocator@D@2@@std@@PAVFuzzySet@@@std@@PAX@std@@@std@@QAEPAU?$_Tree_node@U?$pair@$$CBV?$basic_string@DU?$char_traits@D@std@@V?$allocator@D@2@@std@@PAVFuzzySet@@@std@@PAX@2@I@Z ; std::allocator<std::_Tree_node<std::pair<std::basic_string<char,std::char_traits<char>,std::allocator<char> > const ,FuzzySet *>,void *> >::allocate
	mov	DWORD PTR __Pnode$[ebp], eax

; 346  :         _Construct_in_place(_Pnode->_Left, _Pnode);

	lea	eax, DWORD PTR __Pnode$[ebp]
	push	eax
	mov	ecx, DWORD PTR __Pnode$[ebp]
	push	ecx
	call	??$_Construct_in_place@PAU?$_Tree_node@U?$pair@$$CBV?$basic_string@DU?$char_traits@D@std@@V?$allocator@D@2@@std@@PAVFuzzySet@@@std@@PAX@std@@ABQAU12@@std@@YAXAAPAU?$_Tree_node@U?$pair@$$CBV?$basic_string@DU?$char_traits@D@std@@V?$allocator@D@2@@std@@PAVFuzzySet@@@std@@PAX@0@ABQAU10@@Z ; std::_Construct_in_place<std::_Tree_node<std::pair<std::basic_string<char,std::char_traits<char>,std::allocator<char> > const ,FuzzySet *>,void *> *,std::_Tree_node<std::pair<std::basic_string<char,std::char_traits<char>,std::allocator<char> > const ,FuzzySet *>,void *> * const &>
	add	esp, 8

; 347  :         _Construct_in_place(_Pnode->_Parent, _Pnode);

	lea	edx, DWORD PTR __Pnode$[ebp]
	push	edx
	mov	eax, DWORD PTR __Pnode$[ebp]
	add	eax, 4
	push	eax
	call	??$_Construct_in_place@PAU?$_Tree_node@U?$pair@$$CBV?$basic_string@DU?$char_traits@D@std@@V?$allocator@D@2@@std@@PAVFuzzySet@@@std@@PAX@std@@ABQAU12@@std@@YAXAAPAU?$_Tree_node@U?$pair@$$CBV?$basic_string@DU?$char_traits@D@std@@V?$allocator@D@2@@std@@PAVFuzzySet@@@std@@PAX@0@ABQAU10@@Z ; std::_Construct_in_place<std::_Tree_node<std::pair<std::basic_string<char,std::char_traits<char>,std::allocator<char> > const ,FuzzySet *>,void *> *,std::_Tree_node<std::pair<std::basic_string<char,std::char_traits<char>,std::allocator<char> > const ,FuzzySet *>,void *> * const &>
	add	esp, 8

; 348  :         _Construct_in_place(_Pnode->_Right, _Pnode);

	lea	ecx, DWORD PTR __Pnode$[ebp]
	push	ecx
	mov	edx, DWORD PTR __Pnode$[ebp]
	add	edx, 8
	push	edx
	call	??$_Construct_in_place@PAU?$_Tree_node@U?$pair@$$CBV?$basic_string@DU?$char_traits@D@std@@V?$allocator@D@2@@std@@PAVFuzzySet@@@std@@PAX@std@@ABQAU12@@std@@YAXAAPAU?$_Tree_node@U?$pair@$$CBV?$basic_string@DU?$char_traits@D@std@@V?$allocator@D@2@@std@@PAVFuzzySet@@@std@@PAX@0@ABQAU10@@Z ; std::_Construct_in_place<std::_Tree_node<std::pair<std::basic_string<char,std::char_traits<char>,std::allocator<char> > const ,FuzzySet *>,void *> *,std::_Tree_node<std::pair<std::basic_string<char,std::char_traits<char>,std::allocator<char> > const ,FuzzySet *>,void *> * const &>
	add	esp, 8

; 349  :         _Pnode->_Color = _Black;

	mov	eax, DWORD PTR __Pnode$[ebp]
	mov	BYTE PTR [eax+12], 1

; 350  :         _Pnode->_Isnil = true;

	mov	ecx, DWORD PTR __Pnode$[ebp]
	mov	BYTE PTR [ecx+13], 1

; 351  :         return _Pnode;

	mov	eax, DWORD PTR __Pnode$[ebp]

; 352  :     }

	push	edx
	mov	ecx, ebp
	push	eax
	lea	edx, DWORD PTR $LN5@Buyheadnod
	call	@_RTC_CheckStackVars@8
	pop	eax
	pop	edx
	add	esp, 12					; 0000000cH
	cmp	ebp, esp
	call	__RTC_CheckEsp
	mov	esp, ebp
	pop	ebp
	ret	0
	npad	2
$LN5@Buyheadnod:
	DD	1
	DD	$LN4@Buyheadnod
$LN4@Buyheadnod:
	DD	-8					; fffffff8H
	DD	4
	DD	$LN3@Buyheadnod
$LN3@Buyheadnod:
	DB	95					; 0000005fH
	DB	80					; 00000050H
	DB	110					; 0000006eH
	DB	111					; 0000006fH
	DB	100					; 00000064H
	DB	101					; 00000065H
	DB	0
??$_Buyheadnode@V?$allocator@U?$_Tree_node@U?$pair@$$CBV?$basic_string@DU?$char_traits@D@std@@V?$allocator@D@2@@std@@PAVFuzzySet@@@std@@PAX@std@@@std@@@?$_Tree_node@U?$pair@$$CBV?$basic_string@DU?$char_traits@D@std@@V?$allocator@D@2@@std@@PAVFuzzySet@@@std@@PAX@std@@SAPAU01@AAV?$allocator@U?$_Tree_node@U?$pair@$$CBV?$basic_string@DU?$char_traits@D@std@@V?$allocator@D@2@@std@@PAVFuzzySet@@@std@@PAX@std@@@1@@Z ENDP ; std::_Tree_node<std::pair<std::basic_string<char,std::char_traits<char>,std::allocator<char> > const ,FuzzySet *>,void *>::_Buyheadnode<std::allocator<std::_Tree_node<std::pair<std::basic_string<char,std::char_traits<char>,std::allocator<char> > const ,FuzzySet *>,void *> > >
_TEXT	ENDS
; Function compile flags: /Odtp /RTCsu
; File C:\Program Files\Microsoft Visual Studio\2022\Community\VC\Tools\MSVC\14.44.35207\include\type_traits
;	COMDAT ??$addressof@$$CBV?$_Tree_val@U?$_Tree_simple_types@U?$pair@$$CBV?$basic_string@DU?$char_traits@D@std@@V?$allocator@D@2@@std@@PAVFuzzyVariable@@@std@@@std@@@std@@@std@@YAPBV?$_Tree_val@U?$_Tree_simple_types@U?$pair@$$CBV?$basic_string@DU?$char_traits@D@std@@V?$allocator@D@2@@std@@PAVFuzzyVariable@@@std@@@std@@@0@ABV10@@Z
_TEXT	SEGMENT
__Val$ = 8						; size = 4
??$addressof@$$CBV?$_Tree_val@U?$_Tree_simple_types@U?$pair@$$CBV?$basic_string@DU?$char_traits@D@std@@V?$allocator@D@2@@std@@PAVFuzzyVariable@@@std@@@std@@@std@@@std@@YAPBV?$_Tree_val@U?$_Tree_simple_types@U?$pair@$$CBV?$basic_string@DU?$char_traits@D@std@@V?$allocator@D@2@@std@@PAVFuzzyVariable@@@std@@@std@@@0@ABV10@@Z PROC ; std::addressof<std::_Tree_val<std::_Tree_simple_types<std::pair<std::basic_string<char,std::char_traits<char>,std::allocator<char> > const ,FuzzyVariable *> > > const >, COMDAT

; 1524 : _NODISCARD constexpr _Ty* addressof(_Ty& _Val) noexcept {

	push	ebp
	mov	ebp, esp

; 1525 :     return __builtin_addressof(_Val);

	mov	eax, DWORD PTR __Val$[ebp]

; 1526 : }

	pop	ebp
	ret	0
??$addressof@$$CBV?$_Tree_val@U?$_Tree_simple_types@U?$pair@$$CBV?$basic_string@DU?$char_traits@D@std@@V?$allocator@D@2@@std@@PAVFuzzyVariable@@@std@@@std@@@std@@@std@@YAPBV?$_Tree_val@U?$_Tree_simple_types@U?$pair@$$CBV?$basic_string@DU?$char_traits@D@std@@V?$allocator@D@2@@std@@PAVFuzzyVariable@@@std@@@std@@@0@ABV10@@Z ENDP ; std::addressof<std::_Tree_val<std::_Tree_simple_types<std::pair<std::basic_string<char,std::char_traits<char>,std::allocator<char> > const ,FuzzyVariable *> > > const >
_TEXT	ENDS
; Function compile flags: /Odtp /RTCsu
; File C:\Program Files\Microsoft Visual Studio\2022\Community\VC\Tools\MSVC\14.44.35207\include\xmemory
;	COMDAT ??$_Deallocate@$07@std@@YAXPAXI@Z
_TEXT	SEGMENT
__$EHRec$ = -12						; size = 12
__Ptr$ = 8						; size = 4
__Bytes$ = 12						; size = 4
??$_Deallocate@$07@std@@YAXPAXI@Z PROC			; std::_Deallocate<8>, COMDAT

; 261  : _CONSTEXPR20 void _Deallocate(void* _Ptr, size_t _Bytes) noexcept {

	push	ebp
	mov	ebp, esp
	push	-1
	push	__ehhandler$??$_Deallocate@$07@std@@YAXPAXI@Z
	mov	eax, DWORD PTR fs:0
	push	eax
	mov	eax, DWORD PTR ___security_cookie
	xor	eax, ebp
	push	eax
	lea	eax, DWORD PTR __$EHRec$[ebp]
	mov	DWORD PTR fs:0, eax

; 262  :     // deallocate storage allocated by _Allocate
; 263  : #if _HAS_CXX20 // TRANSITION, GH-1532
; 264  :     if (_STD is_constant_evaluated()) {
; 265  :         ::operator delete(_Ptr);
; 266  :         return;
; 267  :     }
; 268  : #endif // _HAS_CXX20
; 269  : 
; 270  : #ifdef __cpp_aligned_new
; 271  :     if constexpr (_Align > __STDCPP_DEFAULT_NEW_ALIGNMENT__) {
; 272  :         size_t _Passed_align = _Align;
; 273  : #if defined(_M_IX86) || defined(_M_X64)
; 274  :         if (_Bytes >= _Big_allocation_threshold) {
; 275  :             // boost the alignment of big allocations to help autovectorization
; 276  :             _Passed_align = (_STD max)(_Align, _Big_allocation_alignment);
; 277  :         }
; 278  : #endif // defined(_M_IX86) || defined(_M_X64)
; 279  :         ::operator delete(_Ptr, _Bytes, align_val_t{_Passed_align});
; 280  :     } else
; 281  : #endif // defined(__cpp_aligned_new)
; 282  :     {
; 283  : #if defined(_M_IX86) || defined(_M_X64)
; 284  :         if (_Bytes >= _Big_allocation_threshold) {

	cmp	DWORD PTR __Bytes$[ebp], 4096		; 00001000H
	jb	SHORT $LN2@Deallocate

; 285  :             // boost the alignment of big allocations to help autovectorization
; 286  :             _Adjust_manually_vector_aligned(_Ptr, _Bytes);

	lea	eax, DWORD PTR __Bytes$[ebp]
	push	eax
	lea	ecx, DWORD PTR __Ptr$[ebp]
	push	ecx
	call	?_Adjust_manually_vector_aligned@std@@YAXAAPAXAAI@Z ; std::_Adjust_manually_vector_aligned
	add	esp, 8
$LN2@Deallocate:

; 287  :         }
; 288  : #endif // defined(_M_IX86) || defined(_M_X64)
; 289  :         ::operator delete(_Ptr, _Bytes);

	mov	edx, DWORD PTR __Bytes$[ebp]
	push	edx
	mov	eax, DWORD PTR __Ptr$[ebp]
	push	eax
	call	??3@YAXPAXI@Z				; operator delete
	add	esp, 8

; 290  :     }
; 291  : }

	mov	ecx, DWORD PTR __$EHRec$[ebp]
	mov	DWORD PTR fs:0, ecx
	pop	ecx
	add	esp, 12					; 0000000cH
	cmp	ebp, esp
	call	__RTC_CheckEsp
	mov	esp, ebp
	pop	ebp
	ret	0
	int	3
	int	3
	int	3
	int	3
	int	3
_TEXT	ENDS
;	COMDAT text$x
text$x	SEGMENT
__ehhandler$??$_Deallocate@$07@std@@YAXPAXI@Z:
	npad	1
	npad	1
	mov	edx, DWORD PTR [esp+8]
	lea	eax, DWORD PTR [edx+12]
	mov	ecx, DWORD PTR [edx-4]
	xor	ecx, eax
	call	@__security_check_cookie@4
	mov	eax, OFFSET __ehfuncinfo$??$_Deallocate@$07@std@@YAXPAXI@Z
	jmp	___CxxFrameHandler3
text$x	ENDS
??$_Deallocate@$07@std@@YAXPAXI@Z ENDP			; std::_Deallocate<8>
; Function compile flags: /Odtp /RTCsu
; File C:\Program Files\Microsoft Visual Studio\2022\Community\VC\Tools\MSVC\14.44.35207\include\xmemory
;	COMDAT ??$_Allocate@$07U_Default_allocate_traits@std@@@std@@YAPAXI@Z
_TEXT	SEGMENT
__Bytes$ = 8						; size = 4
??$_Allocate@$07U_Default_allocate_traits@std@@@std@@YAPAXI@Z PROC ; std::_Allocate<8,std::_Default_allocate_traits>, COMDAT

; 225  : __declspec(allocator) _CONSTEXPR20 void* _Allocate(const size_t _Bytes) {

	push	ebp
	mov	ebp, esp

; 226  :     // allocate _Bytes
; 227  :     if (_Bytes == 0) {

	cmp	DWORD PTR __Bytes$[ebp], 0
	jne	SHORT $LN2@Allocate

; 228  :         return nullptr;

	xor	eax, eax
	jmp	SHORT $LN1@Allocate
$LN2@Allocate:

; 229  :     }
; 230  : 
; 231  : #if _HAS_CXX20 // TRANSITION, GH-1532
; 232  :     if (_STD is_constant_evaluated()) {
; 233  :         return _Traits::_Allocate(_Bytes);
; 234  :     }
; 235  : #endif // _HAS_CXX20
; 236  : 
; 237  : #ifdef __cpp_aligned_new
; 238  :     if constexpr (_Align > __STDCPP_DEFAULT_NEW_ALIGNMENT__) {
; 239  :         size_t _Passed_align = _Align;
; 240  : #if defined(_M_IX86) || defined(_M_X64)
; 241  :         if (_Bytes >= _Big_allocation_threshold) {
; 242  :             // boost the alignment of big allocations to help autovectorization
; 243  :             _Passed_align = (_STD max)(_Align, _Big_allocation_alignment);
; 244  :         }
; 245  : #endif // defined(_M_IX86) || defined(_M_X64)
; 246  :         return _Traits::_Allocate_aligned(_Bytes, _Passed_align);
; 247  :     } else
; 248  : #endif // defined(__cpp_aligned_new)
; 249  :     {
; 250  : #if defined(_M_IX86) || defined(_M_X64)
; 251  :         if (_Bytes >= _Big_allocation_threshold) {

	cmp	DWORD PTR __Bytes$[ebp], 4096		; 00001000H
	jb	SHORT $LN3@Allocate

; 252  :             // boost the alignment of big allocations to help autovectorization
; 253  :             return _Allocate_manually_vector_aligned<_Traits>(_Bytes);

	mov	eax, DWORD PTR __Bytes$[ebp]
	push	eax
	call	??$_Allocate_manually_vector_aligned@U_Default_allocate_traits@std@@@std@@YAPAXI@Z ; std::_Allocate_manually_vector_aligned<std::_Default_allocate_traits>
	add	esp, 4
	jmp	SHORT $LN1@Allocate
$LN3@Allocate:

; 254  :         }
; 255  : #endif // defined(_M_IX86) || defined(_M_X64)
; 256  :         return _Traits::_Allocate(_Bytes);

	mov	ecx, DWORD PTR __Bytes$[ebp]
	push	ecx
	call	?_Allocate@_Default_allocate_traits@std@@SAPAXI@Z ; std::_Default_allocate_traits::_Allocate
	add	esp, 4
$LN1@Allocate:

; 257  :     }
; 258  : }

	cmp	ebp, esp
	call	__RTC_CheckEsp
	pop	ebp
	ret	0
??$_Allocate@$07U_Default_allocate_traits@std@@@std@@YAPAXI@Z ENDP ; std::_Allocate<8,std::_Default_allocate_traits>
_TEXT	ENDS
; Function compile flags: /Odtp /RTCsu
; File C:\Program Files\Microsoft Visual Studio\2022\Community\VC\Tools\MSVC\14.44.35207\include\xmemory
;	COMDAT ??$_Get_size_of_n@$07@std@@YAII@Z
_TEXT	SEGMENT
__Max_possible$1 = -8					; size = 4
__Overflow_is_possible$ = -1				; size = 1
__Count$ = 8						; size = 4
??$_Get_size_of_n@$07@std@@YAII@Z PROC			; std::_Get_size_of_n<8>, COMDAT

; 112  : _NODISCARD constexpr size_t _Get_size_of_n(const size_t _Count) {

	push	ebp
	mov	ebp, esp
	sub	esp, 8
	mov	DWORD PTR [ebp-8], -858993460		; ccccccccH
	mov	DWORD PTR [ebp-4], -858993460		; ccccccccH

