; Listing generated by Microsoft (R) Optimizing Compiler Version 19.44.35217.0 

	TITLE	C:\Users\Hamzzi\Desktop\AI_Practice\Source\VS2010\Buckland_Chapter7 to 10_Raven\Debug\Goal_AdjustRange.obj
	.686P
	.XMM
	include listing.inc
	.model	flat

INCLUDELIB LIBCMTD
INCLUDELIB OLDNAMES

PUBLIC	__Avx2WmemEnabledWeakValue
;	COMDAT __Avx2WmemEnabledWeakValue
_BSS	SEGMENT
__Avx2WmemEnabledWeakValue DD 01H DUP (?)
_BSS	ENDS
CONST	SEGMENT
$SG213271 DB	'invalid argument', 00H
?piecewise_construct@std@@3Upiecewise_construct_t@1@B	ORG $+1 ; std::piecewise_construct
	ORG $+2
$SG213272 DB	'%s', 00H
	ORG $+1
$SG213273 DB	'C:\Program Files\Microsoft Visual Studio\2022\Community\'
	DB	'VC\Tools\MSVC\14.44.35207\include\xmemory', 00H
	ORG $+6
$SG213955 DB	'C:\Program Files\Microsoft Visual Studio\2022\Community\'
	DB	'VC\Tools\MSVC\14.44.35207\include\xlocale', 00H
	ORG $+2
?_Valid_strftime_specifiers@std@@3QBDB DB 061H		; std::_Valid_strftime_specifiers
	DB	041H
	DB	062H
	DB	042H
	DB	063H
	DB	043H
	DB	064H
	DB	044H
	DB	065H
	DB	046H
	DB	067H
	DB	047H
	DB	068H
	DB	048H
	DB	049H
	DB	06aH
	DB	06dH
	DB	04dH
	DB	06eH
	DB	070H
	DB	072H
	DB	052H
	DB	053H
	DB	074H
	DB	054H
	DB	075H
	DB	055H
	DB	056H
	DB	077H
	DB	057H
	DB	078H
	DB	058H
	DB	079H
	DB	059H
	DB	07aH
	DB	05aH
?colors@@3QBKB DD 0ffH					; colors
	DD	0ff0000H
	DD	0ff00H
	DD	00H
	DD	0c8c8ffH
	DD	0c8c8c8H
	DD	0ffffH
	DD	0aaffH
	DD	0aa00ffH
	DD	05a85H
	DD	0ffffffH
	DD	06400H
	DD	0ffff00H
	DD	0c8c8c8H
	DD	0e6e6ffH
CONST	ENDS
PUBLIC	?__empty_global_delete@@YAXPAX@Z		; __empty_global_delete
PUBLIC	?__empty_global_delete@@YAXPAXI@Z		; __empty_global_delete
PUBLIC	?assign@?$_Narrow_char_traits@DH@std@@SAXAADABD@Z ; std::_Narrow_char_traits<char,int>::assign
PUBLIC	??0exception@std@@QAE@QBD@Z			; std::exception::exception
PUBLIC	??0exception@std@@QAE@ABV01@@Z			; std::exception::exception
PUBLIC	??1exception@std@@UAE@XZ			; std::exception::~exception
PUBLIC	?what@exception@std@@UBEPBDXZ			; std::exception::what
PUBLIC	??_Gexception@std@@UAEPAXI@Z			; std::exception::`scalar deleting destructor'
PUBLIC	?_Adjust_manually_vector_aligned@std@@YAXAAPAXAAI@Z ; std::_Adjust_manually_vector_aligned
PUBLIC	?_Orphan_all@_Container_base12@std@@QAEXXZ	; std::_Container_base12::_Orphan_all
PUBLIC	?_Orphan_all_unlocked_v3@_Container_base12@std@@AAEXXZ ; std::_Container_base12::_Orphan_all_unlocked_v3
PUBLIC	?_Orphan_all_locked_v3@_Container_base12@std@@AAEXXZ ; std::_Container_base12::_Orphan_all_locked_v3
PUBLIC	??$exchange@PAU_Iterator_base12@std@@$$T@std@@YAPAU_Iterator_base12@0@AAPAU10@$$QA$$T@Z ; std::exchange<std::_Iterator_base12 *,std::nullptr_t>
PUBLIC	?deallocate@?$allocator@D@std@@QAEXQADI@Z	; std::allocator<char>::deallocate
PUBLIC	?_Myptr@?$_String_val@U?$_Simple_types@D@std@@@std@@QBEPBDXZ ; std::_String_val<std::_Simple_types<char> >::_Myptr
PUBLIC	?_Large_mode_engaged@?$_String_val@U?$_Simple_types@D@std@@@std@@QBE_NXZ ; std::_String_val<std::_Simple_types<char> >::_Large_mode_engaged
PUBLIC	??1_Bxty@?$_String_val@U?$_Simple_types@D@std@@@std@@QAE@XZ ; std::_String_val<std::_Simple_types<char> >::_Bxty::~_Bxty
PUBLIC	?_Switch_to_buf@_Bxty@?$_String_val@U?$_Simple_types@D@std@@@std@@QAEXXZ ; std::_String_val<std::_Simple_types<char> >::_Bxty::_Switch_to_buf
PUBLIC	??1?$_String_val@U?$_Simple_types@D@std@@@std@@QAE@XZ ; std::_String_val<std::_Simple_types<char> >::~_String_val<std::_Simple_types<char> >
PUBLIC	?_Deallocate_for_capacity@?$basic_string@DU?$char_traits@D@std@@V?$allocator@D@2@@std@@CAXAAV?$allocator@D@2@QADI@Z ; std::basic_string<char,std::char_traits<char>,std::allocator<char> >::_Deallocate_for_capacity
PUBLIC	??1?$basic_string@DU?$char_traits@D@std@@V?$allocator@D@2@@std@@QAE@XZ ; std::basic_string<char,std::char_traits<char>,std::allocator<char> >::~basic_string<char,std::char_traits<char>,std::allocator<char> >
PUBLIC	?c_str@?$basic_string@DU?$char_traits@D@std@@V?$allocator@D@2@@std@@QBEPBDXZ ; std::basic_string<char,std::char_traits<char>,std::allocator<char> >::c_str
PUBLIC	?size@?$basic_string@DU?$char_traits@D@std@@V?$allocator@D@2@@std@@QBEIXZ ; std::basic_string<char,std::char_traits<char>,std::allocator<char> >::size
PUBLIC	?_Tidy_deallocate@?$basic_string@DU?$char_traits@D@std@@V?$allocator@D@2@@std@@AAEXXZ ; std::basic_string<char,std::char_traits<char>,std::allocator<char> >::_Tidy_deallocate
PUBLIC	?_Getal@?$basic_string@DU?$char_traits@D@std@@V?$allocator@D@2@@std@@AAEAAV?$allocator@D@2@XZ ; std::basic_string<char,std::char_traits<char>,std::allocator<char> >::_Getal
PUBLIC	?_Get_first@?$_Compressed_pair@V?$allocator@D@std@@V?$_String_val@U?$_Simple_types@D@std@@@2@$00@std@@QAEAAV?$allocator@D@2@XZ ; std::_Compressed_pair<std::allocator<char>,std::_String_val<std::_Simple_types<char> >,1>::_Get_first
PUBLIC	??1?$_Compressed_pair@V?$allocator@D@std@@V?$_String_val@U?$_Simple_types@D@std@@@2@$00@std@@QAE@XZ ; std::_Compressed_pair<std::allocator<char>,std::_String_val<std::_Simple_types<char> >,1>::~_Compressed_pair<std::allocator<char>,std::_String_val<std::_Simple_types<char> >,1>
PUBLIC	??0runtime_error@std@@QAE@PBD@Z			; std::runtime_error::runtime_error
PUBLIC	??1runtime_error@std@@UAE@XZ			; std::runtime_error::~runtime_error
PUBLIC	??0runtime_error@std@@QAE@ABV01@@Z		; std::runtime_error::runtime_error
PUBLIC	??_Gruntime_error@std@@UAEPAXI@Z		; std::runtime_error::`scalar deleting destructor'
PUBLIC	?TextAtPos@Cgdi@@QAEXNNABV?$basic_string@DU?$char_traits@D@std@@V?$allocator@D@2@@std@@@Z ; Cgdi::TextAtPos
PUBLIC	?TransparentText@Cgdi@@QAEXXZ			; Cgdi::TransparentText
PUBLIC	?TextColor@Cgdi@@QAEXHHH@Z			; Cgdi::TextColor
PUBLIC	?Pos@BaseGameEntity@@QBE?AUVector2D@@XZ		; BaseGameEntity::Pos
PUBLIC	?GetTarget@Raven_TargetingSystem@@QBEPAVRaven_Bot@@XZ ; Raven_TargetingSystem::GetTarget
PUBLIC	?GetSteering@Raven_Bot@@QAEQAVRaven_Steering@@XZ ; Raven_Bot::GetSteering
PUBLIC	?GetTargetBot@Raven_Bot@@QBEQAV1@XZ		; Raven_Bot::GetTargetBot
PUBLIC	?ActivateIfInactive@?$Goal@VRaven_Bot@@@@IAEXXZ	; Goal<Raven_Bot>::ActivateIfInactive
PUBLIC	??0?$Goal@VRaven_Bot@@@@QAE@PAVRaven_Bot@@H@Z	; Goal<Raven_Bot>::Goal<Raven_Bot>
PUBLIC	??1?$Goal@VRaven_Bot@@@@UAE@XZ			; Goal<Raven_Bot>::~Goal<Raven_Bot>
PUBLIC	?HandleMessage@?$Goal@VRaven_Bot@@@@UAE_NABUTelegram@@@Z ; Goal<Raven_Bot>::HandleMessage
PUBLIC	?AddSubgoal@?$Goal@VRaven_Bot@@@@UAEXPAV1@@Z	; Goal<Raven_Bot>::AddSubgoal
PUBLIC	?isComplete@?$Goal@VRaven_Bot@@@@QBE_NXZ	; Goal<Raven_Bot>::isComplete
PUBLIC	?isActive@?$Goal@VRaven_Bot@@@@QBE_NXZ		; Goal<Raven_Bot>::isActive
PUBLIC	?isInactive@?$Goal@VRaven_Bot@@@@QBE_NXZ	; Goal<Raven_Bot>::isInactive
PUBLIC	?hasFailed@?$Goal@VRaven_Bot@@@@QBE_NXZ		; Goal<Raven_Bot>::hasFailed
PUBLIC	?GetType@?$Goal@VRaven_Bot@@@@QBEHXZ		; Goal<Raven_Bot>::GetType
PUBLIC	?RenderAtPos@?$Goal@VRaven_Bot@@@@UBEXAAUVector2D@@PAVTypeToString@@@Z ; Goal<Raven_Bot>::RenderAtPos
PUBLIC	?Render@?$Goal@VRaven_Bot@@@@UAEXXZ		; Goal<Raven_Bot>::Render
PUBLIC	??_G?$Goal@VRaven_Bot@@@@UAEPAXI@Z		; Goal<Raven_Bot>::`scalar deleting destructor'
PUBLIC	??0Goal_AdjustRange@@QAE@PAVRaven_Bot@@@Z	; Goal_AdjustRange::Goal_AdjustRange
PUBLIC	?Activate@Goal_AdjustRange@@UAEXXZ		; Goal_AdjustRange::Activate
PUBLIC	?Process@Goal_AdjustRange@@UAEHXZ		; Goal_AdjustRange::Process
PUBLIC	?Terminate@Goal_AdjustRange@@UAEXXZ		; Goal_AdjustRange::Terminate
PUBLIC	??1Goal_AdjustRange@@UAE@XZ			; Goal_AdjustRange::~Goal_AdjustRange
PUBLIC	??_GGoal_AdjustRange@@UAEPAXI@Z			; Goal_AdjustRange::`scalar deleting destructor'
PUBLIC	?SetTarget@Raven_Steering@@QAEXUVector2D@@@Z	; Raven_Steering::SetTarget
PUBLIC	??$_Delete_plain_internal@V?$allocator@U_Container_proxy@std@@@std@@@std@@YAXAAV?$allocator@U_Container_proxy@std@@@0@QAU_Container_proxy@0@@Z ; std::_Delete_plain_internal<std::allocator<std::_Container_proxy> >
PUBLIC	??$?0D@?$allocator@U_Container_proxy@std@@@std@@QAE@ABV?$allocator@D@1@@Z ; std::allocator<std::_Container_proxy>::allocator<std::_Container_proxy><char>
PUBLIC	??$_Deallocate_plain@V?$allocator@U_Container_proxy@std@@@std@@@std@@YAXAAV?$allocator@U_Container_proxy@std@@@0@QAU_Container_proxy@0@@Z ; std::_Deallocate_plain<std::allocator<std::_Container_proxy> >
PUBLIC	??$_Unfancy@D@std@@YAPADPAD@Z			; std::_Unfancy<char>
PUBLIC	?deallocate@?$_Default_allocator_traits@V?$allocator@U_Container_proxy@std@@@std@@@std@@SAXAAV?$allocator@U_Container_proxy@std@@@2@QAU_Container_proxy@2@I@Z ; std::_Default_allocator_traits<std::allocator<std::_Container_proxy> >::deallocate
PUBLIC	??$_Deallocate@$07@std@@YAXPAXI@Z		; std::_Deallocate<8>
PUBLIC	??$_Destroy_in_place@PAD@std@@YAXAAPAD@Z	; std::_Destroy_in_place<char *>
PUBLIC	??$?0$0A@@id@locale@std@@QAE@XZ			; std::locale::id::id<0>
PUBLIC	??_7exception@std@@6B@				; std::exception::`vftable'
PUBLIC	??_C@_0BC@EOODALEL@Unknown?5exception@		; `string'
PUBLIC	??_R0?AVexception@std@@@8			; std::exception `RTTI Type Descriptor'
PUBLIC	__CT??_R0?AVexception@std@@@8??0exception@std@@QAE@ABV01@@Z12
PUBLIC	??_C@_0BB@FCMFBGOM@invalid?5argument@		; `string'
PUBLIC	??_C@_02DKCKIIND@?$CFs@				; `string'
PUBLIC	??_C@_0GC@KLECFGLI@C?3?2Program?5Files?2Microsoft?5Visu@ ; `string'
PUBLIC	??_7runtime_error@std@@6B@			; std::runtime_error::`vftable'
PUBLIC	??_R0?AVruntime_error@std@@@8			; std::runtime_error `RTTI Type Descriptor'
PUBLIC	__CT??_R0?AVruntime_error@std@@@8??0runtime_error@std@@QAE@ABV01@@Z12
PUBLIC	??_7?$Goal@VRaven_Bot@@@@6B@			; Goal<Raven_Bot>::`vftable'
PUBLIC	??_7Goal_AdjustRange@@6B@			; Goal_AdjustRange::`vftable'
PUBLIC	__TI2?AVruntime_error@std@@
PUBLIC	__CTA2?AVruntime_error@std@@
PUBLIC	??_C@_0CB@OHIHCHGJ@Cannot?5add?5goals?5to?5atomic?5goal@ ; `string'
PUBLIC	?id@?$num_put@DV?$ostreambuf_iterator@DU?$char_traits@D@std@@@std@@@std@@2V0locale@2@A ; std::num_put<char,std::ostreambuf_iterator<char,std::char_traits<char> > >::id
PUBLIC	?id@?$numpunct@D@std@@2V0locale@2@A		; std::numpunct<char>::id
PUBLIC	??_C@_0DG@KGHKKGBC@null?5pointer?5cannot?5point?5to?5a?5@ ; `string'
PUBLIC	??_R4exception@std@@6B@				; std::exception::`RTTI Complete Object Locator'
PUBLIC	??_R3exception@std@@8				; std::exception::`RTTI Class Hierarchy Descriptor'
PUBLIC	??_R2exception@std@@8				; std::exception::`RTTI Base Class Array'
PUBLIC	??_R1A@?0A@EA@exception@std@@8			; std::exception::`RTTI Base Class Descriptor at (0,-1,0,64)'
PUBLIC	??_R4runtime_error@std@@6B@			; std::runtime_error::`RTTI Complete Object Locator'
PUBLIC	??_R3runtime_error@std@@8			; std::runtime_error::`RTTI Class Hierarchy Descriptor'
PUBLIC	??_R2runtime_error@std@@8			; std::runtime_error::`RTTI Base Class Array'
PUBLIC	??_R1A@?0A@EA@runtime_error@std@@8		; std::runtime_error::`RTTI Base Class Descriptor at (0,-1,0,64)'
PUBLIC	??_R4Goal_AdjustRange@@6B@			; Goal_AdjustRange::`RTTI Complete Object Locator'
PUBLIC	??_R0?AVGoal_AdjustRange@@@8			; Goal_AdjustRange `RTTI Type Descriptor'
PUBLIC	??_R3Goal_AdjustRange@@8			; Goal_AdjustRange::`RTTI Class Hierarchy Descriptor'
PUBLIC	??_R2Goal_AdjustRange@@8			; Goal_AdjustRange::`RTTI Base Class Array'
PUBLIC	??_R1A@?0A@EA@Goal_AdjustRange@@8		; Goal_AdjustRange::`RTTI Base Class Descriptor at (0,-1,0,64)'
PUBLIC	??_R1A@?0A@EA@?$Goal@VRaven_Bot@@@@8		; Goal<Raven_Bot>::`RTTI Base Class Descriptor at (0,-1,0,64)'
PUBLIC	??_R0?AV?$Goal@VRaven_Bot@@@@@8			; Goal<Raven_Bot> `RTTI Type Descriptor'
PUBLIC	??_R3?$Goal@VRaven_Bot@@@@8			; Goal<Raven_Bot>::`RTTI Class Hierarchy Descriptor'
PUBLIC	??_R2?$Goal@VRaven_Bot@@@@8			; Goal<Raven_Bot>::`RTTI Base Class Array'
PUBLIC	??_R4?$Goal@VRaven_Bot@@@@6B@			; Goal<Raven_Bot>::`RTTI Complete Object Locator'
PUBLIC	__real@402e000000000000
EXTRN	__purecall:PROC
EXTRN	??3@YAXPAXI@Z:PROC				; operator delete
EXTRN	__invoke_watson:PROC
EXTRN	__imp__SetBkMode@8:PROC
EXTRN	__imp__SetTextColor@8:PROC
EXTRN	__imp__TextOutA@20:PROC
EXTRN	__CrtDbgReport:PROC
EXTRN	??0_Lockit@std@@QAE@H@Z:PROC			; std::_Lockit::_Lockit
EXTRN	??1_Lockit@std@@QAE@XZ:PROC			; std::_Lockit::~_Lockit
EXTRN	___std_exception_copy:PROC
EXTRN	___std_exception_destroy:PROC
EXTRN	??_Eexception@std@@UAEPAXI@Z:PROC		; std::exception::`vector deleting destructor'
EXTRN	??_Eruntime_error@std@@UAEPAXI@Z:PROC		; std::runtime_error::`vector deleting destructor'
EXTRN	?Instance@Cgdi@@SAPAV1@XZ:PROC			; Cgdi::Instance
EXTRN	??_E?$Goal@VRaven_Bot@@@@UAEPAXI@Z:PROC		; Goal<Raven_Bot>::`vector deleting destructor'
EXTRN	??_EGoal_AdjustRange@@UAEPAXI@Z:PROC		; Goal_AdjustRange::`vector deleting destructor'
EXTRN	@_RTC_CheckStackVars@8:PROC
EXTRN	@__security_check_cookie@4:PROC
EXTRN	__CxxThrowException@8:PROC
EXTRN	__RTC_CheckEsp:PROC
EXTRN	__RTC_InitBase:PROC
EXTRN	__RTC_Shutdown:PROC
EXTRN	___CxxFrameHandler3:PROC
EXTRN	??_7type_info@@6B@:QWORD			; type_info::`vftable'
EXTRN	___security_cookie:DWORD
EXTRN	__fltused:DWORD
;	COMDAT ?id@?$num_put@DV?$ostreambuf_iterator@DU?$char_traits@D@std@@@std@@@std@@2V0locale@2@A
_BSS	SEGMENT
?id@?$num_put@DV?$ostreambuf_iterator@DU?$char_traits@D@std@@@std@@@std@@2V0locale@2@A DD 01H DUP (?) ; std::num_put<char,std::ostreambuf_iterator<char,std::char_traits<char> > >::id
_BSS	ENDS
;	COMDAT ?id@?$numpunct@D@std@@2V0locale@2@A
_BSS	SEGMENT
?id@?$numpunct@D@std@@2V0locale@2@A DD 01H DUP (?)	; std::numpunct<char>::id
_BSS	ENDS
;	COMDAT CRT$XCU
CRT$XCU	SEGMENT
??id$initializer$@?$num_put@DV?$ostreambuf_iterator@DU?$char_traits@D@std@@@std@@@std@@2P6AXXZA@@3P6AXXZA DD FLAT:??__E?id@?$num_put@DV?$ostreambuf_iterator@DU?$char_traits@D@std@@@std@@@std@@2V0locale@2@A@@YAXXZ ; ??id$initializer$@?$num_put@DV?$ostreambuf_iterator@DU?$char_traits@D@std@@@std@@@std@@2P6AXXZA@@3P6AXXZA
CRT$XCU	ENDS
;	COMDAT __real@402e000000000000
CONST	SEGMENT
__real@402e000000000000 DQ 0402e000000000000r	; 15
CONST	ENDS
;	COMDAT rtc$TMZ
rtc$TMZ	SEGMENT
__RTC_Shutdown.rtc$TMZ DD FLAT:__RTC_Shutdown
rtc$TMZ	ENDS
;	COMDAT rtc$IMZ
rtc$IMZ	SEGMENT
__RTC_InitBase.rtc$IMZ DD FLAT:__RTC_InitBase
rtc$IMZ	ENDS
;	COMDAT ??_R4?$Goal@VRaven_Bot@@@@6B@
rdata$r	SEGMENT
??_R4?$Goal@VRaven_Bot@@@@6B@ DD 00H			; Goal<Raven_Bot>::`RTTI Complete Object Locator'
	DD	00H
	DD	00H
	DD	FLAT:??_R0?AV?$Goal@VRaven_Bot@@@@@8
	DD	FLAT:??_R3?$Goal@VRaven_Bot@@@@8
rdata$r	ENDS
;	COMDAT ??_R2?$Goal@VRaven_Bot@@@@8
rdata$r	SEGMENT
??_R2?$Goal@VRaven_Bot@@@@8 DD FLAT:??_R1A@?0A@EA@?$Goal@VRaven_Bot@@@@8 ; Goal<Raven_Bot>::`RTTI Base Class Array'
rdata$r	ENDS
;	COMDAT ??_R3?$Goal@VRaven_Bot@@@@8
rdata$r	SEGMENT
??_R3?$Goal@VRaven_Bot@@@@8 DD 00H			; Goal<Raven_Bot>::`RTTI Class Hierarchy Descriptor'
	DD	00H
	DD	01H
	DD	FLAT:??_R2?$Goal@VRaven_Bot@@@@8
rdata$r	ENDS
;	COMDAT ??_R0?AV?$Goal@VRaven_Bot@@@@@8
data$rs	SEGMENT
??_R0?AV?$Goal@VRaven_Bot@@@@@8 DD FLAT:??_7type_info@@6B@ ; Goal<Raven_Bot> `RTTI Type Descriptor'
	DD	00H
	DB	'.?AV?$Goal@VRaven_Bot@@@@', 00H
data$rs	ENDS
;	COMDAT ??_R1A@?0A@EA@?$Goal@VRaven_Bot@@@@8
rdata$r	SEGMENT
??_R1A@?0A@EA@?$Goal@VRaven_Bot@@@@8 DD FLAT:??_R0?AV?$Goal@VRaven_Bot@@@@@8 ; Goal<Raven_Bot>::`RTTI Base Class Descriptor at (0,-1,0,64)'
	DD	00H
	DD	00H
	DD	0ffffffffH
	DD	00H
	DD	040H
	DD	FLAT:??_R3?$Goal@VRaven_Bot@@@@8
rdata$r	ENDS
;	COMDAT ??_R1A@?0A@EA@Goal_AdjustRange@@8
rdata$r	SEGMENT
??_R1A@?0A@EA@Goal_AdjustRange@@8 DD FLAT:??_R0?AVGoal_AdjustRange@@@8 ; Goal_AdjustRange::`RTTI Base Class Descriptor at (0,-1,0,64)'
	DD	01H
	DD	00H
	DD	0ffffffffH
	DD	00H
	DD	040H
	DD	FLAT:??_R3Goal_AdjustRange@@8
rdata$r	ENDS
;	COMDAT ??_R2Goal_AdjustRange@@8
rdata$r	SEGMENT
??_R2Goal_AdjustRange@@8 DD FLAT:??_R1A@?0A@EA@Goal_AdjustRange@@8 ; Goal_AdjustRange::`RTTI Base Class Array'
	DD	FLAT:??_R1A@?0A@EA@?$Goal@VRaven_Bot@@@@8
rdata$r	ENDS
;	COMDAT ??_R3Goal_AdjustRange@@8
rdata$r	SEGMENT
??_R3Goal_AdjustRange@@8 DD 00H				; Goal_AdjustRange::`RTTI Class Hierarchy Descriptor'
	DD	00H
	DD	02H
	DD	FLAT:??_R2Goal_AdjustRange@@8
rdata$r	ENDS
;	COMDAT ??_R0?AVGoal_AdjustRange@@@8
data$rs	SEGMENT
??_R0?AVGoal_AdjustRange@@@8 DD FLAT:??_7type_info@@6B@	; Goal_AdjustRange `RTTI Type Descriptor'
	DD	00H
	DB	'.?AVGoal_AdjustRange@@', 00H
data$rs	ENDS
;	COMDAT ??_R4Goal_AdjustRange@@6B@
rdata$r	SEGMENT
??_R4Goal_AdjustRange@@6B@ DD 00H			; Goal_AdjustRange::`RTTI Complete Object Locator'
	DD	00H
	DD	00H
	DD	FLAT:??_R0?AVGoal_AdjustRange@@@8
	DD	FLAT:??_R3Goal_AdjustRange@@8
rdata$r	ENDS
;	COMDAT ??_R1A@?0A@EA@runtime_error@std@@8
rdata$r	SEGMENT
??_R1A@?0A@EA@runtime_error@std@@8 DD FLAT:??_R0?AVruntime_error@std@@@8 ; std::runtime_error::`RTTI Base Class Descriptor at (0,-1,0,64)'
	DD	01H
	DD	00H
	DD	0ffffffffH
	DD	00H
	DD	040H
	DD	FLAT:??_R3runtime_error@std@@8
rdata$r	ENDS
;	COMDAT ??_R2runtime_error@std@@8
rdata$r	SEGMENT
??_R2runtime_error@std@@8 DD FLAT:??_R1A@?0A@EA@runtime_error@std@@8 ; std::runtime_error::`RTTI Base Class Array'
	DD	FLAT:??_R1A@?0A@EA@exception@std@@8
rdata$r	ENDS
;	COMDAT ??_R3runtime_error@std@@8
rdata$r	SEGMENT
??_R3runtime_error@std@@8 DD 00H			; std::runtime_error::`RTTI Class Hierarchy Descriptor'
	DD	00H
	DD	02H
	DD	FLAT:??_R2runtime_error@std@@8
rdata$r	ENDS
;	COMDAT ??_R4runtime_error@std@@6B@
rdata$r	SEGMENT
??_R4runtime_error@std@@6B@ DD 00H			; std::runtime_error::`RTTI Complete Object Locator'
	DD	00H
	DD	00H
	DD	FLAT:??_R0?AVruntime_error@std@@@8
	DD	FLAT:??_R3runtime_error@std@@8
rdata$r	ENDS
;	COMDAT ??_R1A@?0A@EA@exception@std@@8
rdata$r	SEGMENT
??_R1A@?0A@EA@exception@std@@8 DD FLAT:??_R0?AVexception@std@@@8 ; std::exception::`RTTI Base Class Descriptor at (0,-1,0,64)'
	DD	00H
	DD	00H
	DD	0ffffffffH
	DD	00H
	DD	040H
	DD	FLAT:??_R3exception@std@@8
rdata$r	ENDS
;	COMDAT ??_R2exception@std@@8
rdata$r	SEGMENT
??_R2exception@std@@8 DD FLAT:??_R1A@?0A@EA@exception@std@@8 ; std::exception::`RTTI Base Class Array'
rdata$r	ENDS
;	COMDAT ??_R3exception@std@@8
rdata$r	SEGMENT
??_R3exception@std@@8 DD 00H				; std::exception::`RTTI Class Hierarchy Descriptor'
	DD	00H
	DD	01H
	DD	FLAT:??_R2exception@std@@8
rdata$r	ENDS
;	COMDAT ??_R4exception@std@@6B@
rdata$r	SEGMENT
??_R4exception@std@@6B@ DD 00H				; std::exception::`RTTI Complete Object Locator'
	DD	00H
	DD	00H
	DD	FLAT:??_R0?AVexception@std@@@8
	DD	FLAT:??_R3exception@std@@8
rdata$r	ENDS
;	COMDAT ??_C@_0DG@KGHKKGBC@null?5pointer?5cannot?5point?5to?5a?5@
CONST	SEGMENT
??_C@_0DG@KGHKKGBC@null?5pointer?5cannot?5point?5to?5a?5@ DB 'null pointe'
	DB	'r cannot point to a block of non-zero size', 00H ; `string'
CONST	ENDS
;	COMDAT ??_C@_0CB@OHIHCHGJ@Cannot?5add?5goals?5to?5atomic?5goal@
CONST	SEGMENT
??_C@_0CB@OHIHCHGJ@Cannot?5add?5goals?5to?5atomic?5goal@ DB 'Cannot add g'
	DB	'oals to atomic goals', 00H			; `string'
CONST	ENDS
;	COMDAT __CTA2?AVruntime_error@std@@
xdata$x	SEGMENT
__CTA2?AVruntime_error@std@@ DD 02H
	DD	FLAT:__CT??_R0?AVruntime_error@std@@@8??0runtime_error@std@@QAE@ABV01@@Z12
	DD	FLAT:__CT??_R0?AVexception@std@@@8??0exception@std@@QAE@ABV01@@Z12
xdata$x	ENDS
;	COMDAT __TI2?AVruntime_error@std@@
xdata$x	SEGMENT
__TI2?AVruntime_error@std@@ DD 00H
	DD	FLAT:??1runtime_error@std@@UAE@XZ
	DD	00H
	DD	FLAT:__CTA2?AVruntime_error@std@@
xdata$x	ENDS
;	COMDAT ??_7Goal_AdjustRange@@6B@
CONST	SEGMENT
??_7Goal_AdjustRange@@6B@ DD FLAT:??_R4Goal_AdjustRange@@6B@ ; Goal_AdjustRange::`vftable'
	DD	FLAT:??_EGoal_AdjustRange@@UAEPAXI@Z
	DD	FLAT:?Activate@Goal_AdjustRange@@UAEXXZ
	DD	FLAT:?Process@Goal_AdjustRange@@UAEHXZ
	DD	FLAT:?Terminate@Goal_AdjustRange@@UAEXXZ
	DD	FLAT:?HandleMessage@?$Goal@VRaven_Bot@@@@UAE_NABUTelegram@@@Z
	DD	FLAT:?AddSubgoal@?$Goal@VRaven_Bot@@@@UAEXPAV1@@Z
	DD	FLAT:?RenderAtPos@?$Goal@VRaven_Bot@@@@UBEXAAUVector2D@@PAVTypeToString@@@Z
	DD	FLAT:?Render@?$Goal@VRaven_Bot@@@@UAEXXZ
CONST	ENDS
;	COMDAT ??_7?$Goal@VRaven_Bot@@@@6B@
CONST	SEGMENT
??_7?$Goal@VRaven_Bot@@@@6B@ DD FLAT:??_R4?$Goal@VRaven_Bot@@@@6B@ ; Goal<Raven_Bot>::`vftable'
	DD	FLAT:??_E?$Goal@VRaven_Bot@@@@UAEPAXI@Z
	DD	FLAT:__purecall
	DD	FLAT:__purecall
	DD	FLAT:__purecall
	DD	FLAT:?HandleMessage@?$Goal@VRaven_Bot@@@@UAE_NABUTelegram@@@Z
	DD	FLAT:?AddSubgoal@?$Goal@VRaven_Bot@@@@UAEXPAV1@@Z
	DD	FLAT:?RenderAtPos@?$Goal@VRaven_Bot@@@@UBEXAAUVector2D@@PAVTypeToString@@@Z
	DD	FLAT:?Render@?$Goal@VRaven_Bot@@@@UAEXXZ
CONST	ENDS
;	COMDAT __CT??_R0?AVruntime_error@std@@@8??0runtime_error@std@@QAE@ABV01@@Z12
xdata$x	SEGMENT
__CT??_R0?AVruntime_error@std@@@8??0runtime_error@std@@QAE@ABV01@@Z12 DD 00H
	DD	FLAT:??_R0?AVruntime_error@std@@@8
	DD	00H
	DD	0ffffffffH
	ORG $+4
	DD	0cH
	DD	FLAT:??0runtime_error@std@@QAE@ABV01@@Z
xdata$x	ENDS
;	COMDAT ??_R0?AVruntime_error@std@@@8
data$r	SEGMENT
??_R0?AVruntime_error@std@@@8 DD FLAT:??_7type_info@@6B@ ; std::runtime_error `RTTI Type Descriptor'
	DD	00H
	DB	'.?AVruntime_error@std@@', 00H
data$r	ENDS
;	COMDAT ??_7runtime_error@std@@6B@
CONST	SEGMENT
??_7runtime_error@std@@6B@ DD FLAT:??_R4runtime_error@std@@6B@ ; std::runtime_error::`vftable'
	DD	FLAT:??_Eruntime_error@std@@UAEPAXI@Z
	DD	FLAT:?what@exception@std@@UBEPBDXZ
CONST	ENDS
;	COMDAT ??_C@_0GC@KLECFGLI@C?3?2Program?5Files?2Microsoft?5Visu@
CONST	SEGMENT
??_C@_0GC@KLECFGLI@C?3?2Program?5Files?2Microsoft?5Visu@ DB 'C:\Program F'
	DB	'iles\Microsoft Visual Studio\2022\Community\VC\Tools\MSVC\14.'
	DB	'44.35207\include\xmemory', 00H		; `string'
CONST	ENDS
;	COMDAT ??_C@_02DKCKIIND@?$CFs@
CONST	SEGMENT
??_C@_02DKCKIIND@?$CFs@ DB '%s', 00H			; `string'
CONST	ENDS
;	COMDAT ??_C@_0BB@FCMFBGOM@invalid?5argument@
CONST	SEGMENT
??_C@_0BB@FCMFBGOM@invalid?5argument@ DB 'invalid argument', 00H ; `string'
CONST	ENDS
;	COMDAT __CT??_R0?AVexception@std@@@8??0exception@std@@QAE@ABV01@@Z12
xdata$x	SEGMENT
__CT??_R0?AVexception@std@@@8??0exception@std@@QAE@ABV01@@Z12 DD 00H
	DD	FLAT:??_R0?AVexception@std@@@8
	DD	00H
	DD	0ffffffffH
	ORG $+4
	DD	0cH
	DD	FLAT:??0exception@std@@QAE@ABV01@@Z
xdata$x	ENDS
;	COMDAT ??_R0?AVexception@std@@@8
data$r	SEGMENT
??_R0?AVexception@std@@@8 DD FLAT:??_7type_info@@6B@	; std::exception `RTTI Type Descriptor'
	DD	00H
	DB	'.?AVexception@std@@', 00H
data$r	ENDS
;	COMDAT ??_C@_0BC@EOODALEL@Unknown?5exception@
CONST	SEGMENT
??_C@_0BC@EOODALEL@Unknown?5exception@ DB 'Unknown exception', 00H ; `string'
CONST	ENDS
;	COMDAT ??_7exception@std@@6B@
CONST	SEGMENT
??_7exception@std@@6B@ DD FLAT:??_R4exception@std@@6B@	; std::exception::`vftable'
	DD	FLAT:??_Eexception@std@@UAEPAXI@Z
	DD	FLAT:?what@exception@std@@UBEPBDXZ
CONST	ENDS
;	COMDAT voltbl
voltbl	SEGMENT
_volmd	DB	09H
voltbl	ENDS
;	COMDAT xdata$x
xdata$x	SEGMENT
__ehfuncinfo$??$_Deallocate@$07@std@@YAXPAXI@Z DD 019930522H
	DD	00H
	DD	00H
	DD	2 DUP(00H)
	DD	2 DUP(00H)
	DD	00H
	DD	05H
xdata$x	ENDS
;	COMDAT voltbl
voltbl	SEGMENT
_volmd	DB	016H
	DB	020H
voltbl	ENDS
;	COMDAT voltbl
voltbl	SEGMENT
_volmd	DW	02eH
	DW	0172H
voltbl	ENDS
;	COMDAT xdata$x
xdata$x	SEGMENT
__unwindtable$?RenderAtPos@?$Goal@VRaven_Bot@@@@UBEXAAUVector2D@@PAVTypeToString@@@Z DD 0ffffffffH
	DD	FLAT:__unwindfunclet$?RenderAtPos@?$Goal@VRaven_Bot@@@@UBEXAAUVector2D@@PAVTypeToString@@@Z$0
__ehfuncinfo$?RenderAtPos@?$Goal@VRaven_Bot@@@@UBEXAAUVector2D@@PAVTypeToString@@@Z DD 019930522H
	DD	01H
	DD	FLAT:__unwindtable$?RenderAtPos@?$Goal@VRaven_Bot@@@@UBEXAAUVector2D@@PAVTypeToString@@@Z
	DD	2 DUP(00H)
	DD	2 DUP(00H)
	DD	00H
	DD	01H
xdata$x	ENDS
;	COMDAT CRT$XCU
CRT$XCU	SEGMENT
??id$initializer$@?$numpunct@D@std@@2P6AXXZA@@3P6AXXZA DD FLAT:??__E?id@?$numpunct@D@std@@2V0locale@2@A@@YAXXZ ; ??id$initializer$@?$numpunct@D@std@@2P6AXXZA@@3P6AXXZA
CRT$XCU	ENDS
; Function compile flags: /Odtp /RTCsu
; File C:\Program Files\Microsoft Visual Studio\2022\Community\VC\Tools\MSVC\14.44.35207\include\xlocnum
;	COMDAT ??__E?id@?$numpunct@D@std@@2V0locale@2@A@@YAXXZ
text$di	SEGMENT
??__E?id@?$numpunct@D@std@@2V0locale@2@A@@YAXXZ PROC	; `dynamic initializer for 'std::numpunct<char>::id'', COMDAT

; 236  : __PURE_APPDOMAIN_GLOBAL locale::id numpunct<_Elem>::id;

	push	ebp
	mov	ebp, esp
	mov	ecx, OFFSET ?id@?$numpunct@D@std@@2V0locale@2@A ; std::numpunct<char>::id
	call	??$?0$0A@@id@locale@std@@QAE@XZ		; std::locale::id::id<0>
	npad	1
	cmp	ebp, esp
	call	__RTC_CheckEsp
	pop	ebp
	ret	0
??__E?id@?$numpunct@D@std@@2V0locale@2@A@@YAXXZ ENDP	; `dynamic initializer for 'std::numpunct<char>::id''
text$di	ENDS
; Function compile flags: /Odtp /RTCsu
; File C:\Program Files\Microsoft Visual Studio\2022\Community\VC\Tools\MSVC\14.44.35207\include\xlocnum
;	COMDAT ??__E?id@?$num_put@DV?$ostreambuf_iterator@DU?$char_traits@D@std@@@std@@@std@@2V0locale@2@A@@YAXXZ
text$di	SEGMENT
??__E?id@?$num_put@DV?$ostreambuf_iterator@DU?$char_traits@D@std@@@std@@@std@@2V0locale@2@A@@YAXXZ PROC ; `dynamic initializer for 'std::num_put<char,std::ostreambuf_iterator<char,std::char_traits<char> > >::id'', COMDAT

; 1646 : __PURE_APPDOMAIN_GLOBAL locale::id num_put<_Elem, _OutIt>::id;

	push	ebp
	mov	ebp, esp
	mov	ecx, OFFSET ?id@?$num_put@DV?$ostreambuf_iterator@DU?$char_traits@D@std@@@std@@@std@@2V0locale@2@A ; std::num_put<char,std::ostreambuf_iterator<char,std::char_traits<char> > >::id
	call	??$?0$0A@@id@locale@std@@QAE@XZ		; std::locale::id::id<0>
	npad	1
	cmp	ebp, esp
	call	__RTC_CheckEsp
	pop	ebp
	ret	0
??__E?id@?$num_put@DV?$ostreambuf_iterator@DU?$char_traits@D@std@@@std@@@std@@2V0locale@2@A@@YAXXZ ENDP ; `dynamic initializer for 'std::num_put<char,std::ostreambuf_iterator<char,std::char_traits<char> > >::id''
text$di	ENDS
; Function compile flags: /Odtp /RTCsu
; File C:\Program Files\Microsoft Visual Studio\2022\Community\VC\Tools\MSVC\14.44.35207\include\xlocale
;	COMDAT ??$?0$0A@@id@locale@std@@QAE@XZ
_TEXT	SEGMENT
_this$ = -4						; size = 4
??$?0$0A@@id@locale@std@@QAE@XZ PROC			; std::locale::id::id<0>, COMDAT
; _this$ = ecx

; 83   :         id() noexcept /* strengthened */ {}

	push	ebp
	mov	ebp, esp
	push	ecx
	mov	DWORD PTR _this$[ebp], ecx

; 84   : #endif // ^^^ !defined(_CRTBLD) ^^^
; 85   : 
; 86   :         id(const id&)            = delete;
; 87   :         id& operator=(const id&) = delete;
; 88   : 
; 89   :         template <int = 0> // TRANSITION, ABI
; 90   :         size_t _Get_index() { // get stamp, with lazy allocation
; 91   :             if (_Id == 0) { // still zero, allocate stamp
; 92   :                 _BEGIN_LOCK(_LOCK_LOCALE)
; 93   :                 if (_Id == 0) {
; 94   :                     _Id = static_cast<size_t>(++_Id_cnt);
; 95   :                 }
; 96   :                 _END_LOCK()
; 97   :             }
; 98   :             return _Id;
; 99   :         }
; 100  : 
; 101  : #ifdef _CRTBLD // TRANSITION, ABI: preserved for binary compatibility
; 102  :         __CLR_OR_THIS_CALL operator size_t() {
; 103  :             return _Get_index();
; 104  :         }
; 105  : #endif // defined(_CRTBLD)
; 106  : 
; 107  :     private:
; 108  :         size_t _Id = 0; // the identifier stamp

	mov	eax, DWORD PTR _this$[ebp]
	mov	DWORD PTR [eax], 0

; 83   :         id() noexcept /* strengthened */ {}

	mov	eax, DWORD PTR _this$[ebp]
	mov	esp, ebp
	pop	ebp
	ret	0
??$?0$0A@@id@locale@std@@QAE@XZ ENDP			; std::locale::id::id<0>
_TEXT	ENDS
; Function compile flags: /Odtp /RTCsu
; File C:\Program Files\Microsoft Visual Studio\2022\Community\VC\Tools\MSVC\14.44.35207\include\xmemory
;	COMDAT ??$_Destroy_in_place@PAD@std@@YAXAAPAD@Z
_TEXT	SEGMENT
__Obj$ = 8						; size = 4
??$_Destroy_in_place@PAD@std@@YAXAAPAD@Z PROC		; std::_Destroy_in_place<char *>, COMDAT

; 320  : _CONSTEXPR20 void _Destroy_in_place(_Ty& _Obj) noexcept {

	push	ebp
	mov	ebp, esp

; 321  :     if constexpr (is_array_v<_Ty>) {
; 322  :         _STD _Destroy_range(_Obj, _Obj + extent_v<_Ty>);
; 323  :     } else {
; 324  :         _Obj.~_Ty();
; 325  :     }
; 326  : }

	pop	ebp
	ret	0
??$_Destroy_in_place@PAD@std@@YAXAAPAD@Z ENDP		; std::_Destroy_in_place<char *>
_TEXT	ENDS
; Function compile flags: /Odtp /RTCsu
; File C:\Program Files\Microsoft Visual Studio\2022\Community\VC\Tools\MSVC\14.44.35207\include\xmemory
;	COMDAT ??$_Deallocate@$07@std@@YAXPAXI@Z
_TEXT	SEGMENT
__$EHRec$ = -12						; size = 12
__Ptr$ = 8						; size = 4
__Bytes$ = 12						; size = 4
??$_Deallocate@$07@std@@YAXPAXI@Z PROC			; std::_Deallocate<8>, COMDAT

; 261  : _CONSTEXPR20 void _Deallocate(void* _Ptr, size_t _Bytes) noexcept {

	push	ebp
	mov	ebp, esp
	push	-1
	push	__ehhandler$??$_Deallocate@$07@std@@YAXPAXI@Z
	mov	eax, DWORD PTR fs:0
	push	eax
	mov	eax, DWORD PTR ___security_cookie
	xor	eax, ebp
	push	eax
	lea	eax, DWORD PTR __$EHRec$[ebp]
	mov	DWORD PTR fs:0, eax

; 262  :     // deallocate storage allocated by _Allocate
; 263  : #if _HAS_CXX20 // TRANSITION, GH-1532
; 264  :     if (_STD is_constant_evaluated()) {
; 265  :         ::operator delete(_Ptr);
; 266  :         return;
; 267  :     }
; 268  : #endif // _HAS_CXX20
; 269  : 
; 270  : #ifdef __cpp_aligned_new
; 271  :     if constexpr (_Align > __STDCPP_DEFAULT_NEW_ALIGNMENT__) {
; 272  :         size_t _Passed_align = _Align;
; 273  : #if defined(_M_IX86) || defined(_M_X64)
; 274  :         if (_Bytes >= _Big_allocation_threshold) {
; 275  :             // boost the alignment of big allocations to help autovectorization
; 276  :             _Passed_align = (_STD max)(_Align, _Big_allocation_alignment);
; 277  :         }
; 278  : #endif // defined(_M_IX86) || defined(_M_X64)
; 279  :         ::operator delete(_Ptr, _Bytes, align_val_t{_Passed_align});
; 280  :     } else
; 281  : #endif // defined(__cpp_aligned_new)
; 282  :     {
; 283  : #if defined(_M_IX86) || defined(_M_X64)
; 284  :         if (_Bytes >= _Big_allocation_threshold) {

	cmp	DWORD PTR __Bytes$[ebp], 4096		; 00001000H
	jb	SHORT $LN2@Deallocate

; 285  :             // boost the alignment of big allocations to help autovectorization
; 286  :             _Adjust_manually_vector_aligned(_Ptr, _Bytes);

	lea	eax, DWORD PTR __Bytes$[ebp]
	push	eax
	lea	ecx, DWORD PTR __Ptr$[ebp]
	push	ecx
	call	?_Adjust_manually_vector_aligned@std@@YAXAAPAXAAI@Z ; std::_Adjust_manually_vector_aligned
	add	esp, 8
$LN2@Deallocate:

; 287  :         }
; 288  : #endif // defined(_M_IX86) || defined(_M_X64)
; 289  :         ::operator delete(_Ptr, _Bytes);

	mov	edx, DWORD PTR __Bytes$[ebp]
	push	edx
	mov	eax, DWORD PTR __Ptr$[ebp]
	push	eax
	call	??3@YAXPAXI@Z				; operator delete
	add	esp, 8

; 290  :     }
; 291  : }

	mov	ecx, DWORD PTR __$EHRec$[ebp]
	mov	DWORD PTR fs:0, ecx
	pop	ecx
	add	esp, 12					; 0000000cH
	cmp	ebp, esp
	call	__RTC_CheckEsp
	mov	esp, ebp
	pop	ebp
	ret	0
	int	3
	int	3
	int	3
	int	3
	int	3
_TEXT	ENDS
;	COMDAT text$x
text$x	SEGMENT
__ehhandler$??$_Deallocate@$07@std@@YAXPAXI@Z:
	npad	1
	npad	1
	mov	edx, DWORD PTR [esp+8]
	lea	eax, DWORD PTR [edx+12]
	mov	ecx, DWORD PTR [edx-4]
	xor	ecx, eax
	call	@__security_check_cookie@4
	mov	eax, OFFSET __ehfuncinfo$??$_Deallocate@$07@std@@YAXPAXI@Z
	jmp	___CxxFrameHandler3
text$x	ENDS
??$_Deallocate@$07@std@@YAXPAXI@Z ENDP			; std::_Deallocate<8>
; Function compile flags: /Odtp /RTCsu
; File C:\Program Files\Microsoft Visual Studio\2022\Community\VC\Tools\MSVC\14.44.35207\include\xmemory
;	COMDAT ?deallocate@?$_Default_allocator_traits@V?$allocator@U_Container_proxy@std@@@std@@@std@@SAXAAV?$allocator@U_Container_proxy@std@@@2@QAU_Container_proxy@2@I@Z
_TEXT	SEGMENT
__Al$ = 8						; size = 4
__Ptr$ = 12						; size = 4
__Count$ = 16						; size = 4
?deallocate@?$_Default_allocator_traits@V?$allocator@U_Container_proxy@std@@@std@@@std@@SAXAAV?$allocator@U_Container_proxy@std@@@2@QAU_Container_proxy@2@I@Z PROC ; std::_Default_allocator_traits<std::allocator<std::_Container_proxy> >::deallocate, COMDAT

; 714  :     /* strengthened */ {

	push	ebp
	mov	ebp, esp

; 715  :         // no overflow check on the following multiply; we assume _Allocate did that check
; 716  : #if _HAS_CXX20 // TRANSITION, GH-1532
; 717  :         if (_STD is_constant_evaluated()) {
; 718  :             _Al.deallocate(_Ptr, _Count);
; 719  :         } else
; 720  : #endif // _HAS_CXX20
; 721  :         {
; 722  :             (void) _Al;
; 723  :             _STD _Deallocate<_New_alignof<value_type>>(_Ptr, sizeof(value_type) * _Count);

	mov	eax, DWORD PTR __Count$[ebp]
	shl	eax, 3
	push	eax
	mov	ecx, DWORD PTR __Ptr$[ebp]
	push	ecx
	call	??$_Deallocate@$07@std@@YAXPAXI@Z	; std::_Deallocate<8>
	add	esp, 8

; 724  :         }
; 725  :     }

	cmp	ebp, esp
	call	__RTC_CheckEsp
	pop	ebp
	ret	0
?deallocate@?$_Default_allocator_traits@V?$allocator@U_Container_proxy@std@@@std@@@std@@SAXAAV?$allocator@U_Container_proxy@std@@@2@QAU_Container_proxy@2@I@Z ENDP ; std::_Default_allocator_traits<std::allocator<std::_Container_proxy> >::deallocate
_TEXT	ENDS
; Function compile flags: /Odtp /RTCsu
; File C:\Program Files\Microsoft Visual Studio\2022\Community\VC\Tools\MSVC\14.44.35207\include\xmemory
;	COMDAT ??$_Unfancy@D@std@@YAPADPAD@Z
_TEXT	SEGMENT
__Ptr$ = 8						; size = 4
??$_Unfancy@D@std@@YAPADPAD@Z PROC			; std::_Unfancy<char>, COMDAT

; 68   : _NODISCARD constexpr _Ty* _Unfancy(_Ty* _Ptr) noexcept { // do nothing for plain pointers

	push	ebp
	mov	ebp, esp

; 69   :     return _Ptr;

	mov	eax, DWORD PTR __Ptr$[ebp]

; 70   : }

	pop	ebp
	ret	0
??$_Unfancy@D@std@@YAPADPAD@Z ENDP			; std::_Unfancy<char>
_TEXT	ENDS
; Function compile flags: /Odtp /RTCsu
; File C:\Program Files\Microsoft Visual Studio\2022\Community\VC\Tools\MSVC\14.44.35207\include\xmemory
;	COMDAT ??$_Deallocate_plain@V?$allocator@U_Container_proxy@std@@@std@@@std@@YAXAAV?$allocator@U_Container_proxy@std@@@0@QAU_Container_proxy@0@@Z
_TEXT	SEGMENT
__Al$ = 8						; size = 4
__Ptr$ = 12						; size = 4
??$_Deallocate_plain@V?$allocator@U_Container_proxy@std@@@std@@@std@@YAXAAV?$allocator@U_Container_proxy@std@@@0@QAU_Container_proxy@0@@Z PROC ; std::_Deallocate_plain<std::allocator<std::_Container_proxy> >, COMDAT

; 1135 : _CONSTEXPR20 void _Deallocate_plain(_Alloc& _Al, typename _Alloc::value_type* const _Ptr) noexcept {

	push	ebp
	mov	ebp, esp

; 1136 :     // deallocate a plain pointer using an allocator
; 1137 :     using _Alloc_traits = allocator_traits<_Alloc>;
; 1138 :     if constexpr (is_same_v<_Alloc_ptr_t<_Alloc>, typename _Alloc::value_type*>) {
; 1139 :         _Alloc_traits::deallocate(_Al, _Ptr, 1);

	push	1
	mov	eax, DWORD PTR __Ptr$[ebp]
	push	eax
	mov	ecx, DWORD PTR __Al$[ebp]
	push	ecx
	call	?deallocate@?$_Default_allocator_traits@V?$allocator@U_Container_proxy@std@@@std@@@std@@SAXAAV?$allocator@U_Container_proxy@std@@@2@QAU_Container_proxy@2@I@Z ; std::_Default_allocator_traits<std::allocator<std::_Container_proxy> >::deallocate
	add	esp, 12					; 0000000cH

; 1140 :     } else {
; 1141 :         using _Ptr_traits = pointer_traits<_Alloc_ptr_t<_Alloc>>;
; 1142 :         _Alloc_traits::deallocate(_Al, _Ptr_traits::pointer_to(*_Ptr), 1);
; 1143 :     }
; 1144 : }

	cmp	ebp, esp
	call	__RTC_CheckEsp
	pop	ebp
	ret	0
??$_Deallocate_plain@V?$allocator@U_Container_proxy@std@@@std@@@std@@YAXAAV?$allocator@U_Container_proxy@std@@@0@QAU_Container_proxy@0@@Z ENDP ; std::_Deallocate_plain<std::allocator<std::_Container_proxy> >
_TEXT	ENDS
; Function compile flags: /Odtp /RTCsu
; File C:\Program Files\Microsoft Visual Studio\2022\Community\VC\Tools\MSVC\14.44.35207\include\xmemory
;	COMDAT ??$?0D@?$allocator@U_Container_proxy@std@@@std@@QAE@ABV?$allocator@D@1@@Z
_TEXT	SEGMENT
_this$ = -4						; size = 4
___formal$ = 8						; size = 4
??$?0D@?$allocator@U_Container_proxy@std@@@std@@QAE@ABV?$allocator@D@1@@Z PROC ; std::allocator<std::_Container_proxy>::allocator<std::_Container_proxy><char>, COMDAT
; _this$ = ecx

; 978  :     constexpr allocator(const allocator<_Other>&) noexcept {}

	push	ebp
	mov	ebp, esp
	push	ecx
	mov	DWORD PTR _this$[ebp], ecx
	mov	eax, DWORD PTR _this$[ebp]
	mov	esp, ebp
	pop	ebp
	ret	4
??$?0D@?$allocator@U_Container_proxy@std@@@std@@QAE@ABV?$allocator@D@1@@Z ENDP ; std::allocator<std::_Container_proxy>::allocator<std::_Container_proxy><char>
_TEXT	ENDS
; Function compile flags: /Odtp /RTCsu
; File C:\Program Files\Microsoft Visual Studio\2022\Community\VC\Tools\MSVC\14.44.35207\include\xmemory
;	COMDAT ??$_Delete_plain_internal@V?$allocator@U_Container_proxy@std@@@std@@@std@@YAXAAV?$allocator@U_Container_proxy@std@@@0@QAU_Container_proxy@0@@Z
_TEXT	SEGMENT
__Al$ = 8						; size = 4
__Ptr$ = 12						; size = 4
??$_Delete_plain_internal@V?$allocator@U_Container_proxy@std@@@std@@@std@@YAXAAV?$allocator@U_Container_proxy@std@@@0@QAU_Container_proxy@0@@Z PROC ; std::_Delete_plain_internal<std::allocator<std::_Container_proxy> >, COMDAT

; 1147 : _CONSTEXPR20 void _Delete_plain_internal(_Alloc& _Al, typename _Alloc::value_type* const _Ptr) noexcept {

	push	ebp
	mov	ebp, esp

; 1148 :     // destroy *_Ptr in place, then deallocate _Ptr using _Al; used for internal container types the user didn't name
; 1149 :     using _Ty = typename _Alloc::value_type;
; 1150 :     _Ptr->~_Ty();
; 1151 :     _STD _Deallocate_plain(_Al, _Ptr);

	mov	eax, DWORD PTR __Ptr$[ebp]
	push	eax
	mov	ecx, DWORD PTR __Al$[ebp]
	push	ecx
	call	??$_Deallocate_plain@V?$allocator@U_Container_proxy@std@@@std@@@std@@YAXAAV?$allocator@U_Container_proxy@std@@@0@QAU_Container_proxy@0@@Z ; std::_Deallocate_plain<std::allocator<std::_Container_proxy> >
	add	esp, 8

; 1152 : }

	cmp	ebp, esp
	call	__RTC_CheckEsp
	pop	ebp
	ret	0
??$_Delete_plain_internal@V?$allocator@U_Container_proxy@std@@@std@@@std@@YAXAAV?$allocator@U_Container_proxy@std@@@0@QAU_Container_proxy@0@@Z ENDP ; std::_Delete_plain_internal<std::allocator<std::_Container_proxy> >
_TEXT	ENDS
; Function compile flags: /Odtp /RTCsu
; File C:\Users\Hamzzi\Desktop\AI_Practice\Source\VS2010\Buckland_Chapter7 to 10_Raven\Raven_SteeringBehaviors.h
;	COMDAT ?SetTarget@Raven_Steering@@QAEXUVector2D@@@Z
_TEXT	SEGMENT
_this$ = -4						; size = 4
_t$ = 8							; size = 16
?SetTarget@Raven_Steering@@QAEXUVector2D@@@Z PROC	; Raven_Steering::SetTarget, COMDAT
; _this$ = ecx

; 194  :   void      SetTarget(Vector2D t){m_vTarget = t;}

	push	ebp
	mov	ebp, esp
	push	ecx
	mov	DWORD PTR _this$[ebp], ecx
	mov	eax, DWORD PTR _this$[ebp]
	add	eax, 40					; 00000028H
	mov	ecx, DWORD PTR _t$[ebp]
	mov	DWORD PTR [eax], ecx
	mov	edx, DWORD PTR _t$[ebp+4]
	mov	DWORD PTR [eax+4], edx
	mov	ecx, DWORD PTR _t$[ebp+8]
	mov	DWORD PTR [eax+8], ecx
	mov	edx, DWORD PTR _t$[ebp+12]
	mov	DWORD PTR [eax+12], edx
	mov	esp, ebp
	pop	ebp
	ret	16					; 00000010H
?SetTarget@Raven_Steering@@QAEXUVector2D@@@Z ENDP	; Raven_Steering::SetTarget
_TEXT	ENDS
; Function compile flags: /Odtp /RTCsu
;	COMDAT ??_GGoal_AdjustRange@@UAEPAXI@Z
_TEXT	SEGMENT
_this$ = -4						; size = 4
___flags$ = 8						; size = 4
??_GGoal_AdjustRange@@UAEPAXI@Z PROC			; Goal_AdjustRange::`scalar deleting destructor', COMDAT
; _this$ = ecx
	push	ebp
	mov	ebp, esp
	push	ecx
	mov	DWORD PTR [ebp-4], -858993460		; ccccccccH
	mov	DWORD PTR _this$[ebp], ecx
	mov	ecx, DWORD PTR _this$[ebp]
	call	??1Goal_AdjustRange@@UAE@XZ
	mov	eax, DWORD PTR ___flags$[ebp]
	and	eax, 1
	je	SHORT $LN2@scalar
	push	32					; 00000020H
	mov	ecx, DWORD PTR _this$[ebp]
	push	ecx
	call	??3@YAXPAXI@Z				; operator delete
	add	esp, 8
$LN2@scalar:
	mov	eax, DWORD PTR _this$[ebp]
	add	esp, 4
	cmp	ebp, esp
	call	__RTC_CheckEsp
	mov	esp, ebp
	pop	ebp
	ret	4
??_GGoal_AdjustRange@@UAEPAXI@Z ENDP			; Goal_AdjustRange::`scalar deleting destructor'
_TEXT	ENDS
; Function compile flags: /Odtp /RTCsu
;	COMDAT ??1Goal_AdjustRange@@UAE@XZ
_TEXT	SEGMENT
_this$ = -4						; size = 4
??1Goal_AdjustRange@@UAE@XZ PROC			; Goal_AdjustRange::~Goal_AdjustRange, COMDAT
; _this$ = ecx
	push	ebp
	mov	ebp, esp
	push	ecx
	mov	DWORD PTR [ebp-4], -858993460		; ccccccccH
	mov	DWORD PTR _this$[ebp], ecx
	mov	ecx, DWORD PTR _this$[ebp]
	call	??1?$Goal@VRaven_Bot@@@@UAE@XZ		; Goal<Raven_Bot>::~Goal<Raven_Bot>
	npad	1
	add	esp, 4
	cmp	ebp, esp
	call	__RTC_CheckEsp
	mov	esp, ebp
	pop	ebp
	ret	0
??1Goal_AdjustRange@@UAE@XZ ENDP			; Goal_AdjustRange::~Goal_AdjustRange
_TEXT	ENDS
; Function compile flags: /Odtp /RTCsu
; File C:\Users\Hamzzi\Desktop\AI_Practice\Source\VS2010\Buckland_Chapter7 to 10_Raven\goals\Goal_AdjustRange.cpp
_TEXT	SEGMENT
_this$ = -4						; size = 4
?Terminate@Goal_AdjustRange@@UAEXXZ PROC		; Goal_AdjustRange::Terminate
; _this$ = ecx

; 40   : {

	push	ebp
	mov	ebp, esp
	push	ecx
	mov	DWORD PTR _this$[ebp], ecx

; 41   : 
; 42   : 
; 43   : 
; 44   : 
; 45   : }

	mov	esp, ebp
	pop	ebp
	ret	0
?Terminate@Goal_AdjustRange@@UAEXXZ ENDP		; Goal_AdjustRange::Terminate
_TEXT	ENDS
; Function compile flags: /Odtp /RTCsu
; File C:\Users\Hamzzi\Desktop\AI_Practice\Source\VS2010\Buckland_Chapter7 to 10_Raven\goals\Goal_AdjustRange.cpp
_TEXT	SEGMENT
_this$ = -4						; size = 4
?Process@Goal_AdjustRange@@UAEHXZ PROC			; Goal_AdjustRange::Process
; _this$ = ecx

; 24   : {

	push	ebp
	mov	ebp, esp
	push	ecx
	mov	DWORD PTR [ebp-4], -858993460		; ccccccccH
	mov	DWORD PTR _this$[ebp], ecx

; 25   :   //if status is inactive, call Activate()
; 26   :   ActivateIfInactive();

	mov	ecx, DWORD PTR _this$[ebp]
	call	?ActivateIfInactive@?$Goal@VRaven_Bot@@@@IAEXXZ ; Goal<Raven_Bot>::ActivateIfInactive

; 27   : 
; 28   :   /*
; 29   :   if (m_pOwner->GetCurrentWeapon()->isInIdealWeaponRange())
; 30   :   {
; 31   :     m_iStatus = completed;
; 32   :   }
; 33   : */
; 34   :   return m_iStatus;

	mov	eax, DWORD PTR _this$[ebp]
	mov	eax, DWORD PTR [eax+12]

; 35   : }

	add	esp, 4
	cmp	ebp, esp
	call	__RTC_CheckEsp
	mov	esp, ebp
	pop	ebp
	ret	0
?Process@Goal_AdjustRange@@UAEHXZ ENDP			; Goal_AdjustRange::Process
_TEXT	ENDS
; Function compile flags: /Odtp /RTCsu
; File C:\Users\Hamzzi\Desktop\AI_Practice\Source\VS2010\Buckland_Chapter7 to 10_Raven\goals\Goal_AdjustRange.cpp
_TEXT	SEGMENT
$T1 = -20						; size = 16
_this$ = -4						; size = 4
?Activate@Goal_AdjustRange@@UAEXXZ PROC			; Goal_AdjustRange::Activate
; _this$ = ecx

; 15   : {

	push	ebp
	mov	ebp, esp
	sub	esp, 20					; 00000014H
	mov	eax, -858993460				; ccccccccH
	mov	DWORD PTR [ebp-20], eax
	mov	DWORD PTR [ebp-16], eax
	mov	DWORD PTR [ebp-12], eax
	mov	DWORD PTR [ebp-8], eax
	mov	DWORD PTR [ebp-4], eax
	mov	DWORD PTR _this$[ebp], ecx

; 16   :   m_pOwner->GetSteering()->SetTarget(m_pOwner->GetTargetBot()->Pos());

	lea	eax, DWORD PTR $T1[ebp]
	push	eax
	mov	ecx, DWORD PTR _this$[ebp]
	mov	ecx, DWORD PTR [ecx+8]
	call	?GetTargetBot@Raven_Bot@@QBEQAV1@XZ	; Raven_Bot::GetTargetBot
	mov	ecx, eax
	call	?Pos@BaseGameEntity@@QBE?AUVector2D@@XZ	; BaseGameEntity::Pos
	sub	esp, 16					; 00000010H
	mov	edx, esp
	mov	ecx, DWORD PTR [eax]
	mov	DWORD PTR [edx], ecx
	mov	ecx, DWORD PTR [eax+4]
	mov	DWORD PTR [edx+4], ecx
	mov	ecx, DWORD PTR [eax+8]
	mov	DWORD PTR [edx+8], ecx
	mov	eax, DWORD PTR [eax+12]
	mov	DWORD PTR [edx+12], eax
	mov	ecx, DWORD PTR _this$[ebp]
	mov	ecx, DWORD PTR [ecx+8]
	call	?GetSteering@Raven_Bot@@QAEQAVRaven_Steering@@XZ ; Raven_Bot::GetSteering
	mov	ecx, eax
	call	?SetTarget@Raven_Steering@@QAEXUVector2D@@@Z ; Raven_Steering::SetTarget
	npad	1

; 17   : 
; 18   : 
; 19   : }

	add	esp, 20					; 00000014H
	cmp	ebp, esp
	call	__RTC_CheckEsp
	mov	esp, ebp
	pop	ebp
	ret	0
?Activate@Goal_AdjustRange@@UAEXXZ ENDP			; Goal_AdjustRange::Activate
_TEXT	ENDS
; Function compile flags: /Odtp /RTCsu
; File C:\Users\Hamzzi\Desktop\AI_Practice\Source\VS2010\Buckland_Chapter7 to 10_Raven\goals\Goal_AdjustRange.cpp
_TEXT	SEGMENT
_this$ = -4						; size = 4
_pBot$ = 8						; size = 4
??0Goal_AdjustRange@@QAE@PAVRaven_Bot@@@Z PROC		; Goal_AdjustRange::Goal_AdjustRange
; _this$ = ecx

; 10   : {}

	push	ebp
	mov	ebp, esp
	push	ecx
	mov	DWORD PTR [ebp-4], -858993460		; ccccccccH
	mov	DWORD PTR _this$[ebp], ecx

; 8    : Goal_AdjustRange::Goal_AdjustRange(Raven_Bot* pBot):Goal<Raven_Bot>(pBot, goal_adjust_range),

	push	16					; 00000010H
	mov	eax, DWORD PTR _pBot$[ebp]
	push	eax
	mov	ecx, DWORD PTR _this$[ebp]
	call	??0?$Goal@VRaven_Bot@@@@QAE@PAVRaven_Bot@@H@Z ; Goal<Raven_Bot>::Goal<Raven_Bot>

; 10   : {}

	mov	ecx, DWORD PTR _this$[ebp]
	mov	DWORD PTR [ecx], OFFSET ??_7Goal_AdjustRange@@6B@

; 9    :                                                     m_dIdealRange(0)

	mov	edx, DWORD PTR _this$[ebp]
	xorps	xmm0, xmm0
	movsd	QWORD PTR [edx+24], xmm0

; 10   : {}

	mov	eax, DWORD PTR _this$[ebp]
	add	esp, 4
	cmp	ebp, esp
	call	__RTC_CheckEsp
	mov	esp, ebp
	pop	ebp
	ret	4
??0Goal_AdjustRange@@QAE@PAVRaven_Bot@@@Z ENDP		; Goal_AdjustRange::Goal_AdjustRange
_TEXT	ENDS
; Function compile flags: /Odtp /RTCsu
;	COMDAT ??_G?$Goal@VRaven_Bot@@@@UAEPAXI@Z
_TEXT	SEGMENT
_this$ = -4						; size = 4
___flags$ = 8						; size = 4
??_G?$Goal@VRaven_Bot@@@@UAEPAXI@Z PROC			; Goal<Raven_Bot>::`scalar deleting destructor', COMDAT
; _this$ = ecx
	push	ebp
	mov	ebp, esp
	push	ecx
	mov	DWORD PTR [ebp-4], -858993460		; ccccccccH
	mov	DWORD PTR _this$[ebp], ecx
	mov	ecx, DWORD PTR _this$[ebp]
	call	??1?$Goal@VRaven_Bot@@@@UAE@XZ		; Goal<Raven_Bot>::~Goal<Raven_Bot>
	mov	eax, DWORD PTR ___flags$[ebp]
	and	eax, 1
	je	SHORT $LN2@scalar
	push	16					; 00000010H
	mov	ecx, DWORD PTR _this$[ebp]
	push	ecx
	call	??3@YAXPAXI@Z				; operator delete
	add	esp, 8
$LN2@scalar:
	mov	eax, DWORD PTR _this$[ebp]
	add	esp, 4
	cmp	ebp, esp
	call	__RTC_CheckEsp
	mov	esp, ebp
	pop	ebp
	ret	4
??_G?$Goal@VRaven_Bot@@@@UAEPAXI@Z ENDP			; Goal<Raven_Bot>::`scalar deleting destructor'
_TEXT	ENDS
; Function compile flags: /Odtp /RTCsu
; File C:\Users\Hamzzi\Desktop\AI_Practice\Source\VS2010\Common\goals\Goal.h
;	COMDAT ?Render@?$Goal@VRaven_Bot@@@@UAEXXZ
_TEXT	SEGMENT
_this$ = -4						; size = 4
?Render@?$Goal@VRaven_Bot@@@@UAEXXZ PROC		; Goal<Raven_Bot>::Render, COMDAT
; _this$ = ecx

; 93   :   virtual void Render(){}

	push	ebp
	mov	ebp, esp
	push	ecx
	mov	DWORD PTR _this$[ebp], ecx
	mov	esp, ebp
	pop	ebp
	ret	0
?Render@?$Goal@VRaven_Bot@@@@UAEXXZ ENDP		; Goal<Raven_Bot>::Render
_TEXT	ENDS
; Function compile flags: /Odtp /RTCsu
; File C:\Users\Hamzzi\Desktop\AI_Practice\Source\VS2010\Common\goals\Goal.h
;	COMDAT ?RenderAtPos@?$Goal@VRaven_Bot@@@@UBEXAAUVector2D@@PAVTypeToString@@@Z
_TEXT	SEGMENT
tv155 = -56						; size = 4
tv156 = -52						; size = 4
$T2 = -48						; size = 28
_this$ = -20						; size = 4
__$ArrayPad$ = -16					; size = 4
__$EHRec$ = -12						; size = 12
_pos$ = 8						; size = 4
_tts$ = 12						; size = 4
?RenderAtPos@?$Goal@VRaven_Bot@@@@UBEXAAUVector2D@@PAVTypeToString@@@Z PROC ; Goal<Raven_Bot>::RenderAtPos, COMDAT
; _this$ = ecx

; 123  : {

	push	ebp
	mov	ebp, esp
	push	-1
	push	__ehhandler$?RenderAtPos@?$Goal@VRaven_Bot@@@@UBEXAAUVector2D@@PAVTypeToString@@@Z
	mov	eax, DWORD PTR fs:0
	push	eax
	sub	esp, 44					; 0000002cH
	push	esi
	push	edi
	push	ecx
	lea	edi, DWORD PTR [ebp-56]
	mov	ecx, 11					; 0000000bH
	mov	eax, -858993460				; ccccccccH
	rep stosd
	pop	ecx
	mov	eax, DWORD PTR ___security_cookie
	xor	eax, ebp
	mov	DWORD PTR __$ArrayPad$[ebp], eax
	push	eax
	lea	eax, DWORD PTR __$EHRec$[ebp]
	mov	DWORD PTR fs:0, eax
	mov	DWORD PTR _this$[ebp], ecx

; 124  :   pos.y += 15;

	mov	eax, DWORD PTR _pos$[ebp]
	movsd	xmm0, QWORD PTR [eax+8]
	addsd	xmm0, QWORD PTR __real@402e000000000000
	mov	ecx, DWORD PTR _pos$[ebp]
	movsd	QWORD PTR [ecx+8], xmm0

; 125  :   gdi->TransparentText();

	call	?Instance@Cgdi@@SAPAV1@XZ		; Cgdi::Instance
	mov	ecx, eax
	call	?TransparentText@Cgdi@@QAEXXZ		; Cgdi::TransparentText
	npad	1

; 126  :   if (isComplete()) gdi->TextColor(0,255,0);

	mov	ecx, DWORD PTR _this$[ebp]
	call	?isComplete@?$Goal@VRaven_Bot@@@@QBE_NXZ ; Goal<Raven_Bot>::isComplete
	movzx	edx, al
	test	edx, edx
	je	SHORT $LN2@RenderAtPo
	push	0
	push	255					; 000000ffH
	push	0
	call	?Instance@Cgdi@@SAPAV1@XZ		; Cgdi::Instance
	mov	ecx, eax
	call	?TextColor@Cgdi@@QAEXHHH@Z		; Cgdi::TextColor
	npad	1
$LN2@RenderAtPo:

; 127  :   if (isInactive()) gdi->TextColor(0,0,0);

	mov	ecx, DWORD PTR _this$[ebp]
	call	?isInactive@?$Goal@VRaven_Bot@@@@QBE_NXZ ; Goal<Raven_Bot>::isInactive
	movzx	eax, al
	test	eax, eax
	je	SHORT $LN3@RenderAtPo
	push	0
	push	0
	push	0
	call	?Instance@Cgdi@@SAPAV1@XZ		; Cgdi::Instance
	mov	ecx, eax
	call	?TextColor@Cgdi@@QAEXHHH@Z		; Cgdi::TextColor
	npad	1
$LN3@RenderAtPo:

; 128  :   if (hasFailed()) gdi->TextColor(255,0,0);

	mov	ecx, DWORD PTR _this$[ebp]
	call	?hasFailed@?$Goal@VRaven_Bot@@@@QBE_NXZ	; Goal<Raven_Bot>::hasFailed
	movzx	ecx, al
	test	ecx, ecx
	je	SHORT $LN4@RenderAtPo
	push	0
	push	0
	push	255					; 000000ffH
	call	?Instance@Cgdi@@SAPAV1@XZ		; Cgdi::Instance
	mov	ecx, eax
	call	?TextColor@Cgdi@@QAEXHHH@Z		; Cgdi::TextColor
	npad	1
$LN4@RenderAtPo:

; 129  :   if (isActive()) gdi->TextColor(0,0,255);

	mov	ecx, DWORD PTR _this$[ebp]
	call	?isActive@?$Goal@VRaven_Bot@@@@QBE_NXZ	; Goal<Raven_Bot>::isActive
	movzx	edx, al
	test	edx, edx
	je	SHORT $LN5@RenderAtPo
	push	255					; 000000ffH
	push	0
	push	0
	call	?Instance@Cgdi@@SAPAV1@XZ		; Cgdi::Instance
	mov	ecx, eax
	call	?TextColor@Cgdi@@QAEXHHH@Z		; Cgdi::TextColor
	npad	1
$LN5@RenderAtPo:

; 130  : 
; 131  :   gdi->TextAtPos(pos.x, pos.y, tts->Convert(GetType())); 

	mov	ecx, DWORD PTR _this$[ebp]
	call	?GetType@?$Goal@VRaven_Bot@@@@QBEHXZ	; Goal<Raven_Bot>::GetType
	mov	esi, esp
	push	eax
	lea	eax, DWORD PTR $T2[ebp]
	push	eax
	mov	ecx, DWORD PTR _tts$[ebp]
	mov	edx, DWORD PTR [ecx]
	mov	ecx, DWORD PTR _tts$[ebp]
	mov	eax, DWORD PTR [edx]
	call	eax
	cmp	esi, esp
	call	__RTC_CheckEsp
	mov	DWORD PTR tv156[ebp], eax
	mov	ecx, DWORD PTR tv156[ebp]
	mov	DWORD PTR tv155[ebp], ecx
	mov	DWORD PTR __$EHRec$[ebp+8], 0
	mov	edx, DWORD PTR tv155[ebp]
	push	edx
	mov	eax, DWORD PTR _pos$[ebp]
	sub	esp, 8
	movsd	xmm0, QWORD PTR [eax+8]
	movsd	QWORD PTR [esp], xmm0
	mov	ecx, DWORD PTR _pos$[ebp]
	sub	esp, 8
	movsd	xmm0, QWORD PTR [ecx]
	movsd	QWORD PTR [esp], xmm0
	call	?Instance@Cgdi@@SAPAV1@XZ		; Cgdi::Instance
	mov	ecx, eax
	call	?TextAtPos@Cgdi@@QAEXNNABV?$basic_string@DU?$char_traits@D@std@@V?$allocator@D@2@@std@@@Z ; Cgdi::TextAtPos
	mov	DWORD PTR __$EHRec$[ebp+8], -1
	lea	ecx, DWORD PTR $T2[ebp]
	call	??1?$basic_string@DU?$char_traits@D@std@@V?$allocator@D@2@@std@@QAE@XZ ; std::basic_string<char,std::char_traits<char>,std::allocator<char> >::~basic_string<char,std::char_traits<char>,std::allocator<char> >
	npad	1

; 132  : }

	mov	ecx, DWORD PTR __$EHRec$[ebp]
	mov	DWORD PTR fs:0, ecx
	pop	ecx
	pop	edi
	pop	esi
	mov	ecx, DWORD PTR __$ArrayPad$[ebp]
	xor	ecx, ebp
	call	@__security_check_cookie@4
	add	esp, 56					; 00000038H
	cmp	ebp, esp
	call	__RTC_CheckEsp
	mov	esp, ebp
	pop	ebp
	ret	8
_TEXT	ENDS
;	COMDAT text$x
text$x	SEGMENT
__unwindfunclet$?RenderAtPos@?$Goal@VRaven_Bot@@@@UBEXAAUVector2D@@PAVTypeToString@@@Z$0:
	lea	ecx, DWORD PTR $T2[ebp]
	jmp	??1?$basic_string@DU?$char_traits@D@std@@V?$allocator@D@2@@std@@QAE@XZ ; std::basic_string<char,std::char_traits<char>,std::allocator<char> >::~basic_string<char,std::char_traits<char>,std::allocator<char> >
	int	3
	int	3
	int	3
	int	3
	int	3
__ehhandler$?RenderAtPos@?$Goal@VRaven_Bot@@@@UBEXAAUVector2D@@PAVTypeToString@@@Z:
	npad	1
	npad	1
	mov	edx, DWORD PTR [esp+8]
	lea	eax, DWORD PTR [edx+12]
	mov	ecx, DWORD PTR [edx-56]
	xor	ecx, eax
	call	@__security_check_cookie@4
	mov	ecx, DWORD PTR [edx-4]
	xor	ecx, eax
	call	@__security_check_cookie@4
	mov	eax, OFFSET __ehfuncinfo$?RenderAtPos@?$Goal@VRaven_Bot@@@@UBEXAAUVector2D@@PAVTypeToString@@@Z
	jmp	___CxxFrameHandler3
text$x	ENDS
?RenderAtPos@?$Goal@VRaven_Bot@@@@UBEXAAUVector2D@@PAVTypeToString@@@Z ENDP ; Goal<Raven_Bot>::RenderAtPos
; Function compile flags: /Odtp /RTCsu
; File C:\Users\Hamzzi\Desktop\AI_Practice\Source\VS2010\Common\goals\Goal.h
;	COMDAT ?GetType@?$Goal@VRaven_Bot@@@@QBEHXZ
_TEXT	SEGMENT
_this$ = -4						; size = 4
?GetType@?$Goal@VRaven_Bot@@@@QBEHXZ PROC		; Goal<Raven_Bot>::GetType, COMDAT
; _this$ = ecx

; 84   :   int          GetType()const{return m_iType;}

	push	ebp
	mov	ebp, esp
	push	ecx
	mov	DWORD PTR _this$[ebp], ecx
	mov	eax, DWORD PTR _this$[ebp]
	mov	eax, DWORD PTR [eax+4]
	mov	esp, ebp
	pop	ebp
	ret	0
?GetType@?$Goal@VRaven_Bot@@@@QBEHXZ ENDP		; Goal<Raven_Bot>::GetType
_TEXT	ENDS
; Function compile flags: /Odtp /RTCsu
; File C:\Users\Hamzzi\Desktop\AI_Practice\Source\VS2010\Common\goals\Goal.h
;	COMDAT ?hasFailed@?$Goal@VRaven_Bot@@@@QBE_NXZ
_TEXT	SEGMENT
tv66 = -8						; size = 4
_this$ = -4						; size = 4
?hasFailed@?$Goal@VRaven_Bot@@@@QBE_NXZ PROC		; Goal<Raven_Bot>::hasFailed, COMDAT
; _this$ = ecx

; 83   :   bool         hasFailed()const{return m_iStatus == failed;}

	push	ebp
	mov	ebp, esp
	sub	esp, 8
	mov	DWORD PTR _this$[ebp], ecx
	mov	eax, DWORD PTR _this$[ebp]
	cmp	DWORD PTR [eax+12], 3
	jne	SHORT $LN3@hasFailed
	mov	DWORD PTR tv66[ebp], 1
	jmp	SHORT $LN4@hasFailed
$LN3@hasFailed:
	mov	DWORD PTR tv66[ebp], 0
$LN4@hasFailed:
	movzx	eax, BYTE PTR tv66[ebp]
	mov	esp, ebp
	pop	ebp
	ret	0
?hasFailed@?$Goal@VRaven_Bot@@@@QBE_NXZ ENDP		; Goal<Raven_Bot>::hasFailed
_TEXT	ENDS
; Function compile flags: /Odtp /RTCsu
; File C:\Users\Hamzzi\Desktop\AI_Practice\Source\VS2010\Common\goals\Goal.h
;	COMDAT ?isInactive@?$Goal@VRaven_Bot@@@@QBE_NXZ
_TEXT	SEGMENT
tv66 = -8						; size = 4
_this$ = -4						; size = 4
?isInactive@?$Goal@VRaven_Bot@@@@QBE_NXZ PROC		; Goal<Raven_Bot>::isInactive, COMDAT
; _this$ = ecx

; 82   :   bool         isInactive()const{return m_iStatus == inactive;}

	push	ebp
	mov	ebp, esp
	sub	esp, 8
	mov	DWORD PTR _this$[ebp], ecx
	mov	eax, DWORD PTR _this$[ebp]
	cmp	DWORD PTR [eax+12], 1
	jne	SHORT $LN3@isInactive
	mov	DWORD PTR tv66[ebp], 1
	jmp	SHORT $LN4@isInactive
$LN3@isInactive:
	mov	DWORD PTR tv66[ebp], 0
$LN4@isInactive:
	movzx	eax, BYTE PTR tv66[ebp]
	mov	esp, ebp
	pop	ebp
	ret	0
?isInactive@?$Goal@VRaven_Bot@@@@QBE_NXZ ENDP		; Goal<Raven_Bot>::isInactive
_TEXT	ENDS
; Function compile flags: /Odtp /RTCsu
; File C:\Users\Hamzzi\Desktop\AI_Practice\Source\VS2010\Common\goals\Goal.h
;	COMDAT ?isActive@?$Goal@VRaven_Bot@@@@QBE_NXZ
_TEXT	SEGMENT
tv66 = -8						; size = 4
_this$ = -4						; size = 4
?isActive@?$Goal@VRaven_Bot@@@@QBE_NXZ PROC		; Goal<Raven_Bot>::isActive, COMDAT
; _this$ = ecx

; 81   :   bool         isActive()const{return m_iStatus == active;}

	push	ebp
	mov	ebp, esp
	sub	esp, 8
	mov	DWORD PTR _this$[ebp], ecx
	mov	eax, DWORD PTR _this$[ebp]
	cmp	DWORD PTR [eax+12], 0
	jne	SHORT $LN3@isActive
	mov	DWORD PTR tv66[ebp], 1
	jmp	SHORT $LN4@isActive
$LN3@isActive:
	mov	DWORD PTR tv66[ebp], 0
$LN4@isActive:
	movzx	eax, BYTE PTR tv66[ebp]
	mov	esp, ebp
	pop	ebp
	ret	0
?isActive@?$Goal@VRaven_Bot@@@@QBE_NXZ ENDP		; Goal<Raven_Bot>::isActive
_TEXT	ENDS
; Function compile flags: /Odtp /RTCsu
; File C:\Users\Hamzzi\Desktop\AI_Practice\Source\VS2010\Common\goals\Goal.h
;	COMDAT ?isComplete@?$Goal@VRaven_Bot@@@@QBE_NXZ
_TEXT	SEGMENT
tv66 = -8						; size = 4
_this$ = -4						; size = 4
?isComplete@?$Goal@VRaven_Bot@@@@QBE_NXZ PROC		; Goal<Raven_Bot>::isComplete, COMDAT
; _this$ = ecx

; 80   :   bool         isComplete()const{return m_iStatus == completed;} 

	push	ebp
	mov	ebp, esp
	sub	esp, 8
	mov	DWORD PTR _this$[ebp], ecx
	mov	eax, DWORD PTR _this$[ebp]
	cmp	DWORD PTR [eax+12], 2
	jne	SHORT $LN3@isComplete
	mov	DWORD PTR tv66[ebp], 1
	jmp	SHORT $LN4@isComplete
$LN3@isComplete:
	mov	DWORD PTR tv66[ebp], 0
$LN4@isComplete:
	movzx	eax, BYTE PTR tv66[ebp]
	mov	esp, ebp
	pop	ebp
	ret	0
?isComplete@?$Goal@VRaven_Bot@@@@QBE_NXZ ENDP		; Goal<Raven_Bot>::isComplete
_TEXT	ENDS
; Function compile flags: /Odtp /RTCsu
; File C:\Users\Hamzzi\Desktop\AI_Practice\Source\VS2010\Common\goals\Goal.h
;	COMDAT ?AddSubgoal@?$Goal@VRaven_Bot@@@@UAEXPAV1@@Z
_TEXT	SEGMENT
$T1 = -16						; size = 12
_this$ = -4						; size = 4
_g$ = 8							; size = 4
?AddSubgoal@?$Goal@VRaven_Bot@@@@UAEXPAV1@@Z PROC	; Goal<Raven_Bot>::AddSubgoal, COMDAT
; _this$ = ecx

; 77   :   {throw std::runtime_error("Cannot add goals to atomic goals");}

	push	ebp
	mov	ebp, esp
	sub	esp, 16					; 00000010H
	mov	eax, -858993460				; ccccccccH
	mov	DWORD PTR [ebp-16], eax
	mov	DWORD PTR [ebp-12], eax
	mov	DWORD PTR [ebp-8], eax
	mov	DWORD PTR [ebp-4], eax
	mov	DWORD PTR _this$[ebp], ecx
	push	OFFSET ??_C@_0CB@OHIHCHGJ@Cannot?5add?5goals?5to?5atomic?5goal@
	lea	ecx, DWORD PTR $T1[ebp]
	call	??0runtime_error@std@@QAE@PBD@Z		; std::runtime_error::runtime_error
	push	OFFSET __TI2?AVruntime_error@std@@
	lea	eax, DWORD PTR $T1[ebp]
	push	eax
	call	__CxxThrowException@8
	npad	1
$LN1@AddSubgoal:
	add	esp, 16					; 00000010H
	cmp	ebp, esp
	call	__RTC_CheckEsp
	mov	esp, ebp
	pop	ebp
	ret	4
?AddSubgoal@?$Goal@VRaven_Bot@@@@UAEXPAV1@@Z ENDP	; Goal<Raven_Bot>::AddSubgoal
_TEXT	ENDS
; Function compile flags: /Odtp /RTCsu
; File C:\Users\Hamzzi\Desktop\AI_Practice\Source\VS2010\Common\goals\Goal.h
;	COMDAT ?HandleMessage@?$Goal@VRaven_Bot@@@@UAE_NABUTelegram@@@Z
_TEXT	SEGMENT
_this$ = -4						; size = 4
_msg$ = 8						; size = 4
?HandleMessage@?$Goal@VRaven_Bot@@@@UAE_NABUTelegram@@@Z PROC ; Goal<Raven_Bot>::HandleMessage, COMDAT
; _this$ = ecx

; 70   :   virtual bool HandleMessage(const Telegram& msg){return false;}

	push	ebp
	mov	ebp, esp
	push	ecx
	mov	DWORD PTR _this$[ebp], ecx
	xor	al, al
	mov	esp, ebp
	pop	ebp
	ret	4
?HandleMessage@?$Goal@VRaven_Bot@@@@UAE_NABUTelegram@@@Z ENDP ; Goal<Raven_Bot>::HandleMessage
_TEXT	ENDS
; Function compile flags: /Odtp /RTCsu
; File C:\Users\Hamzzi\Desktop\AI_Practice\Source\VS2010\Common\goals\Goal.h
;	COMDAT ??1?$Goal@VRaven_Bot@@@@UAE@XZ
_TEXT	SEGMENT
_this$ = -4						; size = 4
??1?$Goal@VRaven_Bot@@@@UAE@XZ PROC			; Goal<Raven_Bot>::~Goal<Raven_Bot>, COMDAT
; _this$ = ecx

; 56   :   virtual ~Goal(){}

	push	ebp
	mov	ebp, esp
	push	ecx
	mov	DWORD PTR _this$[ebp], ecx
	mov	eax, DWORD PTR _this$[ebp]
	mov	DWORD PTR [eax], OFFSET ??_7?$Goal@VRaven_Bot@@@@6B@
	mov	esp, ebp
	pop	ebp
	ret	0
??1?$Goal@VRaven_Bot@@@@UAE@XZ ENDP			; Goal<Raven_Bot>::~Goal<Raven_Bot>
_TEXT	ENDS
; Function compile flags: /Odtp /RTCsu
; File C:\Users\Hamzzi\Desktop\AI_Practice\Source\VS2010\Common\goals\Goal.h
;	COMDAT ??0?$Goal@VRaven_Bot@@@@QAE@PAVRaven_Bot@@H@Z
_TEXT	SEGMENT
_this$ = -4						; size = 4
_pE$ = 8						; size = 4
_type$ = 12						; size = 4
??0?$Goal@VRaven_Bot@@@@QAE@PAVRaven_Bot@@H@Z PROC	; Goal<Raven_Bot>::Goal<Raven_Bot>, COMDAT
; _this$ = ecx

; 54   :   {}

	push	ebp
	mov	ebp, esp
	push	ecx
	mov	DWORD PTR _this$[ebp], ecx
	mov	eax, DWORD PTR _this$[ebp]
	mov	DWORD PTR [eax], OFFSET ??_7?$Goal@VRaven_Bot@@@@6B@

; 51   :   Goal(entity_type*  pE, int type):m_iType(type),

	mov	ecx, DWORD PTR _this$[ebp]
	mov	edx, DWORD PTR _type$[ebp]
	mov	DWORD PTR [ecx+4], edx

; 52   :                                    m_pOwner(pE),

	mov	eax, DWORD PTR _this$[ebp]
	mov	ecx, DWORD PTR _pE$[ebp]
	mov	DWORD PTR [eax+8], ecx

; 53   :                                    m_iStatus(inactive)

	mov	edx, DWORD PTR _this$[ebp]
	mov	DWORD PTR [edx+12], 1

; 54   :   {}

	mov	eax, DWORD PTR _this$[ebp]
	mov	esp, ebp
	pop	ebp
	ret	8
??0?$Goal@VRaven_Bot@@@@QAE@PAVRaven_Bot@@H@Z ENDP	; Goal<Raven_Bot>::Goal<Raven_Bot>
_TEXT	ENDS
; Function compile flags: /Odtp /RTCsu
; File C:\Users\Hamzzi\Desktop\AI_Practice\Source\VS2010\Common\goals\Goal.h
;	COMDAT ?ActivateIfInactive@?$Goal@VRaven_Bot@@@@IAEXXZ
_TEXT	SEGMENT
_this$ = -4						; size = 4
?ActivateIfInactive@?$Goal@VRaven_Bot@@@@IAEXXZ PROC	; Goal<Raven_Bot>::ActivateIfInactive, COMDAT
; _this$ = ecx

; 114  : {

	push	ebp
	mov	ebp, esp
	push	ecx
	push	esi
	mov	DWORD PTR [ebp-4], -858993460		; ccccccccH
	mov	DWORD PTR _this$[ebp], ecx

; 115  :   if (isInactive())

	mov	ecx, DWORD PTR _this$[ebp]
	call	?isInactive@?$Goal@VRaven_Bot@@@@QBE_NXZ ; Goal<Raven_Bot>::isInactive
	movzx	eax, al
	test	eax, eax
	je	SHORT $LN2@ActivateIf

; 116  :   {
; 117  :     Activate();   

	mov	ecx, DWORD PTR _this$[ebp]
	mov	edx, DWORD PTR [ecx]
	mov	esi, esp
	mov	ecx, DWORD PTR _this$[ebp]
	mov	eax, DWORD PTR [edx+4]
	call	eax
	cmp	esi, esp
	call	__RTC_CheckEsp
	npad	1
$LN2@ActivateIf:

; 118  :   }
; 119  : }

	pop	esi
	add	esp, 4
	cmp	ebp, esp
	call	__RTC_CheckEsp
	mov	esp, ebp
	pop	ebp
	ret	0
?ActivateIfInactive@?$Goal@VRaven_Bot@@@@IAEXXZ ENDP	; Goal<Raven_Bot>::ActivateIfInactive
_TEXT	ENDS
; Function compile flags: /Odtp /RTCsu
; File C:\Users\Hamzzi\Desktop\AI_Practice\Source\VS2010\Buckland_Chapter7 to 10_Raven\Raven_Bot.h
;	COMDAT ?GetTargetBot@Raven_Bot@@QBEQAV1@XZ
_TEXT	SEGMENT
_this$ = -4						; size = 4
?GetTargetBot@Raven_Bot@@QBEQAV1@XZ PROC		; Raven_Bot::GetTargetBot, COMDAT
; _this$ = ecx

; 209  :   Raven_Bot* const                   GetTargetBot()const{return m_pTargSys->GetTarget();}

	push	ebp
	mov	ebp, esp
	push	ecx
	mov	DWORD PTR [ebp-4], -858993460		; ccccccccH
	mov	DWORD PTR _this$[ebp], ecx
	mov	eax, DWORD PTR _this$[ebp]
	mov	ecx, DWORD PTR [eax+168]
	call	?GetTarget@Raven_TargetingSystem@@QBEPAVRaven_Bot@@XZ ; Raven_TargetingSystem::GetTarget
	add	esp, 4
	cmp	ebp, esp
	call	__RTC_CheckEsp
	mov	esp, ebp
	pop	ebp
	ret	0
?GetTargetBot@Raven_Bot@@QBEQAV1@XZ ENDP		; Raven_Bot::GetTargetBot
_TEXT	ENDS
; Function compile flags: /Odtp /RTCsu
; File C:\Users\Hamzzi\Desktop\AI_Practice\Source\VS2010\Buckland_Chapter7 to 10_Raven\Raven_Bot.h
;	COMDAT ?GetSteering@Raven_Bot@@QAEQAVRaven_Steering@@XZ
_TEXT	SEGMENT
_this$ = -4						; size = 4
?GetSteering@Raven_Bot@@QAEQAVRaven_Steering@@XZ PROC	; Raven_Bot::GetSteering, COMDAT
; _this$ = ecx

; 204  :   Raven_Steering* const              GetSteering(){return m_pSteering;}

	push	ebp
	mov	ebp, esp
	push	ecx
	mov	DWORD PTR _this$[ebp], ecx
	mov	eax, DWORD PTR _this$[ebp]
	mov	eax, DWORD PTR [eax+160]
	mov	esp, ebp
	pop	ebp
	ret	0
?GetSteering@Raven_Bot@@QAEQAVRaven_Steering@@XZ ENDP	; Raven_Bot::GetSteering
_TEXT	ENDS
; Function compile flags: /Odtp /RTCsu
; File C:\Users\Hamzzi\Desktop\AI_Practice\Source\VS2010\Buckland_Chapter7 to 10_Raven\Raven_TargetingSystem.h
;	COMDAT ?GetTarget@Raven_TargetingSystem@@QBEPAVRaven_Bot@@XZ
_TEXT	SEGMENT
_this$ = -4						; size = 4
?GetTarget@Raven_TargetingSystem@@QBEPAVRaven_Bot@@XZ PROC ; Raven_TargetingSystem::GetTarget, COMDAT
; _this$ = ecx

; 65   :   Raven_Bot* GetTarget()const{return m_pCurrentTarget;}

	push	ebp
	mov	ebp, esp
	push	ecx
	mov	DWORD PTR _this$[ebp], ecx
	mov	eax, DWORD PTR _this$[ebp]
	mov	eax, DWORD PTR [eax+4]
	mov	esp, ebp
	pop	ebp
	ret	0
?GetTarget@Raven_TargetingSystem@@QBEPAVRaven_Bot@@XZ ENDP ; Raven_TargetingSystem::GetTarget
_TEXT	ENDS
; Function compile flags: /Odtp /RTCsu
; File C:\Users\Hamzzi\Desktop\AI_Practice\Source\VS2010\Common\Game\BaseGameEntity.h
;	COMDAT ?Pos@BaseGameEntity@@QBE?AUVector2D@@XZ
_TEXT	SEGMENT
_this$ = -4						; size = 4
___$ReturnUdt$ = 8					; size = 4
?Pos@BaseGameEntity@@QBE?AUVector2D@@XZ PROC		; BaseGameEntity::Pos, COMDAT
; _this$ = ecx

; 89   :   Vector2D     Pos()const{return m_vPosition;}

	push	ebp
	mov	ebp, esp
	push	ecx
	mov	DWORD PTR _this$[ebp], ecx
	mov	eax, DWORD PTR _this$[ebp]
	add	eax, 24					; 00000018H
	mov	ecx, DWORD PTR ___$ReturnUdt$[ebp]
	mov	edx, DWORD PTR [eax]
	mov	DWORD PTR [ecx], edx
	mov	edx, DWORD PTR [eax+4]
	mov	DWORD PTR [ecx+4], edx
	mov	edx, DWORD PTR [eax+8]
	mov	DWORD PTR [ecx+8], edx
	mov	eax, DWORD PTR [eax+12]
	mov	DWORD PTR [ecx+12], eax
	mov	eax, DWORD PTR ___$ReturnUdt$[ebp]
	mov	esp, ebp
	pop	ebp
	ret	4
?Pos@BaseGameEntity@@QBE?AUVector2D@@XZ ENDP		; BaseGameEntity::Pos
_TEXT	ENDS
; Function compile flags: /Odtp /RTCsu
; File C:\Users\Hamzzi\Desktop\AI_Practice\Source\VS2010\Common\misc\cgdi.h
;	COMDAT ?TextColor@Cgdi@@QAEXHHH@Z
_TEXT	SEGMENT
_this$ = -4						; size = 4
_r$ = 8							; size = 4
_g$ = 12						; size = 4
_b$ = 16						; size = 4
?TextColor@Cgdi@@QAEXHHH@Z PROC				; Cgdi::TextColor, COMDAT
; _this$ = ecx

; 227  :   void TextColor(int r, int g, int b){SetTextColor(m_hdc, RGB(r,g,b));}

	push	ebp
	mov	ebp, esp
	push	ecx
	push	esi
	mov	DWORD PTR [ebp-4], -858993460		; ccccccccH
	mov	DWORD PTR _this$[ebp], ecx
	movzx	eax, BYTE PTR _r$[ebp]
	movzx	ecx, BYTE PTR _g$[ebp]
	shl	ecx, 8
	or	eax, ecx
	movzx	edx, BYTE PTR _b$[ebp]
	shl	edx, 16					; 00000010H
	or	eax, edx
	mov	esi, esp
	push	eax
	mov	eax, DWORD PTR _this$[ebp]
	mov	ecx, DWORD PTR [eax+124]
	push	ecx
	call	DWORD PTR __imp__SetTextColor@8
	cmp	esi, esp
	call	__RTC_CheckEsp
	npad	1
	pop	esi
	add	esp, 4
	cmp	ebp, esp
	call	__RTC_CheckEsp
	mov	esp, ebp
	pop	ebp
	ret	12					; 0000000cH
?TextColor@Cgdi@@QAEXHHH@Z ENDP				; Cgdi::TextColor
_TEXT	ENDS
; Function compile flags: /Odtp /RTCsu
; File C:\Users\Hamzzi\Desktop\AI_Practice\Source\VS2010\Common\misc\cgdi.h
;	COMDAT ?TransparentText@Cgdi@@QAEXXZ
_TEXT	SEGMENT
_this$ = -4						; size = 4
?TransparentText@Cgdi@@QAEXXZ PROC			; Cgdi::TransparentText, COMDAT
; _this$ = ecx

; 222  :   void TransparentText(){SetBkMode(m_hdc, TRANSPARENT);}

	push	ebp
	mov	ebp, esp
	push	ecx
	push	esi
	mov	DWORD PTR [ebp-4], -858993460		; ccccccccH
	mov	DWORD PTR _this$[ebp], ecx
	mov	esi, esp
	push	1
	mov	eax, DWORD PTR _this$[ebp]
	mov	ecx, DWORD PTR [eax+124]
	push	ecx
	call	DWORD PTR __imp__SetBkMode@8
	cmp	esi, esp
	call	__RTC_CheckEsp
	npad	1
	pop	esi
	add	esp, 4
	cmp	ebp, esp
	call	__RTC_CheckEsp
	mov	esp, ebp
	pop	ebp
	ret	0
?TransparentText@Cgdi@@QAEXXZ ENDP			; Cgdi::TransparentText
_TEXT	ENDS
; Function compile flags: /Odtp /RTCsu
; File C:\Users\Hamzzi\Desktop\AI_Practice\Source\VS2010\Common\misc\cgdi.h
;	COMDAT ?TextAtPos@Cgdi@@QAEXNNABV?$basic_string@DU?$char_traits@D@std@@V?$allocator@D@2@@std@@@Z
_TEXT	SEGMENT
_this$ = -4						; size = 4
_x$ = 8							; size = 8
_y$ = 16						; size = 8
_s$ = 24						; size = 4
?TextAtPos@Cgdi@@QAEXNNABV?$basic_string@DU?$char_traits@D@std@@V?$allocator@D@2@@std@@@Z PROC ; Cgdi::TextAtPos, COMDAT
; _this$ = ecx

; 213  :   {

	push	ebp
	mov	ebp, esp
	push	ecx
	push	esi
	mov	DWORD PTR [ebp-4], -858993460		; ccccccccH
	mov	DWORD PTR _this$[ebp], ecx

; 214  :     TextOut(m_hdc, (int)x, (int)y, s.c_str(), (int)s.size());

	mov	ecx, DWORD PTR _s$[ebp]
	call	?size@?$basic_string@DU?$char_traits@D@std@@V?$allocator@D@2@@std@@QBEIXZ ; std::basic_string<char,std::char_traits<char>,std::allocator<char> >::size
	mov	esi, esp
	push	eax
	mov	ecx, DWORD PTR _s$[ebp]
	call	?c_str@?$basic_string@DU?$char_traits@D@std@@V?$allocator@D@2@@std@@QBEPBDXZ ; std::basic_string<char,std::char_traits<char>,std::allocator<char> >::c_str
	push	eax
	cvttsd2si eax, QWORD PTR _y$[ebp]
	push	eax
	cvttsd2si ecx, QWORD PTR _x$[ebp]
	push	ecx
	mov	edx, DWORD PTR _this$[ebp]
	mov	eax, DWORD PTR [edx+124]
	push	eax
	call	DWORD PTR __imp__TextOutA@20
	cmp	esi, esp
	call	__RTC_CheckEsp
	npad	1

; 215  :   }

	pop	esi
	add	esp, 4
	cmp	ebp, esp
	call	__RTC_CheckEsp
	mov	esp, ebp
	pop	ebp
	ret	20					; 00000014H
?TextAtPos@Cgdi@@QAEXNNABV?$basic_string@DU?$char_traits@D@std@@V?$allocator@D@2@@std@@@Z ENDP ; Cgdi::TextAtPos
_TEXT	ENDS
; Function compile flags: /Odtp /RTCsu
;	COMDAT ??_Gruntime_error@std@@UAEPAXI@Z
_TEXT	SEGMENT
_this$ = -4						; size = 4
___flags$ = 8						; size = 4
??_Gruntime_error@std@@UAEPAXI@Z PROC			; std::runtime_error::`scalar deleting destructor', COMDAT
; _this$ = ecx
	push	ebp
	mov	ebp, esp
	push	ecx
	mov	DWORD PTR [ebp-4], -858993460		; ccccccccH
	mov	DWORD PTR _this$[ebp], ecx
	mov	ecx, DWORD PTR _this$[ebp]
	call	??1runtime_error@std@@UAE@XZ
	mov	eax, DWORD PTR ___flags$[ebp]
	and	eax, 1
	je	SHORT $LN2@scalar
	push	12					; 0000000cH
	mov	ecx, DWORD PTR _this$[ebp]
	push	ecx
	call	??3@YAXPAXI@Z				; operator delete
	add	esp, 8
$LN2@scalar:
	mov	eax, DWORD PTR _this$[ebp]
	add	esp, 4
	cmp	ebp, esp
	call	__RTC_CheckEsp
	mov	esp, ebp
	pop	ebp
	ret	4
??_Gruntime_error@std@@UAEPAXI@Z ENDP			; std::runtime_error::`scalar deleting destructor'
_TEXT	ENDS
; Function compile flags: /Odtp /RTCsu
;	COMDAT ??0runtime_error@std@@QAE@ABV01@@Z
_TEXT	SEGMENT
_this$ = -4						; size = 4
___that$ = 8						; size = 4
??0runtime_error@std@@QAE@ABV01@@Z PROC			; std::runtime_error::runtime_error, COMDAT
; _this$ = ecx
	push	ebp
	mov	ebp, esp
	push	ecx
	mov	DWORD PTR [ebp-4], -858993460		; ccccccccH
	mov	DWORD PTR _this$[ebp], ecx
	mov	eax, DWORD PTR ___that$[ebp]
	push	eax
	mov	ecx, DWORD PTR _this$[ebp]
	call	??0exception@std@@QAE@ABV01@@Z		; std::exception::exception
	mov	ecx, DWORD PTR _this$[ebp]
	mov	DWORD PTR [ecx], OFFSET ??_7runtime_error@std@@6B@
	mov	eax, DWORD PTR _this$[ebp]
	add	esp, 4
	cmp	ebp, esp
	call	__RTC_CheckEsp
	mov	esp, ebp
	pop	ebp
	ret	4
??0runtime_error@std@@QAE@ABV01@@Z ENDP			; std::runtime_error::runtime_error
_TEXT	ENDS
; Function compile flags: /Odtp /RTCsu
;	COMDAT ??1runtime_error@std@@UAE@XZ
_TEXT	SEGMENT
_this$ = -4						; size = 4
??1runtime_error@std@@UAE@XZ PROC			; std::runtime_error::~runtime_error, COMDAT
; _this$ = ecx
	push	ebp
	mov	ebp, esp
	push	ecx
	mov	DWORD PTR [ebp-4], -858993460		; ccccccccH
	mov	DWORD PTR _this$[ebp], ecx
	mov	ecx, DWORD PTR _this$[ebp]
	call	??1exception@std@@UAE@XZ		; std::exception::~exception
	npad	1
	add	esp, 4
	cmp	ebp, esp
	call	__RTC_CheckEsp
	mov	esp, ebp
	pop	ebp
	ret	0
??1runtime_error@std@@UAE@XZ ENDP			; std::runtime_error::~runtime_error
_TEXT	ENDS
; Function compile flags: /Odtp /RTCsu
; File C:\Program Files\Microsoft Visual Studio\2022\Community\VC\Tools\MSVC\14.44.35207\include\stdexcept
;	COMDAT ??0runtime_error@std@@QAE@PBD@Z
_TEXT	SEGMENT
_this$ = -4						; size = 4
__Message$ = 8						; size = 4
??0runtime_error@std@@QAE@PBD@Z PROC			; std::runtime_error::runtime_error, COMDAT
; _this$ = ecx

; 106  :     explicit runtime_error(const char* _Message) : _Mybase(_Message) {}

	push	ebp
	mov	ebp, esp
	push	ecx
	mov	DWORD PTR [ebp-4], -858993460		; ccccccccH
	mov	DWORD PTR _this$[ebp], ecx
	mov	eax, DWORD PTR __Message$[ebp]
	push	eax
	mov	ecx, DWORD PTR _this$[ebp]
	call	??0exception@std@@QAE@QBD@Z		; std::exception::exception
	mov	ecx, DWORD PTR _this$[ebp]
	mov	DWORD PTR [ecx], OFFSET ??_7runtime_error@std@@6B@
	mov	eax, DWORD PTR _this$[ebp]
	add	esp, 4
	cmp	ebp, esp
	call	__RTC_CheckEsp
	mov	esp, ebp
	pop	ebp
	ret	4
??0runtime_error@std@@QAE@PBD@Z ENDP			; std::runtime_error::runtime_error
_TEXT	ENDS
; Function compile flags: /Odtp /RTCsu
;	COMDAT ??1?$_Compressed_pair@V?$allocator@D@std@@V?$_String_val@U?$_Simple_types@D@std@@@2@$00@std@@QAE@XZ
_TEXT	SEGMENT
_this$ = -4						; size = 4
??1?$_Compressed_pair@V?$allocator@D@std@@V?$_String_val@U?$_Simple_types@D@std@@@2@$00@std@@QAE@XZ PROC ; std::_Compressed_pair<std::allocator<char>,std::_String_val<std::_Simple_types<char> >,1>::~_Compressed_pair<std::allocator<char>,std::_String_val<std::_Simple_types<char> >,1>, COMDAT
; _this$ = ecx
	push	ebp
	mov	ebp, esp
	push	ecx
	mov	DWORD PTR [ebp-4], -858993460		; ccccccccH
	mov	DWORD PTR _this$[ebp], ecx
	mov	ecx, DWORD PTR _this$[ebp]
	call	??1?$_String_val@U?$_Simple_types@D@std@@@std@@QAE@XZ
	npad	1
	add	esp, 4
	cmp	ebp, esp
	call	__RTC_CheckEsp
	mov	esp, ebp
	pop	ebp
	ret	0
??1?$_Compressed_pair@V?$allocator@D@std@@V?$_String_val@U?$_Simple_types@D@std@@@2@$00@std@@QAE@XZ ENDP ; std::_Compressed_pair<std::allocator<char>,std::_String_val<std::_Simple_types<char> >,1>::~_Compressed_pair<std::allocator<char>,std::_String_val<std::_Simple_types<char> >,1>
_TEXT	ENDS
; Function compile flags: /Odtp /RTCsu
; File C:\Program Files\Microsoft Visual Studio\2022\Community\VC\Tools\MSVC\14.44.35207\include\xmemory
;	COMDAT ?_Get_first@?$_Compressed_pair@V?$allocator@D@std@@V?$_String_val@U?$_Simple_types@D@std@@@2@$00@std@@QAEAAV?$allocator@D@2@XZ
_TEXT	SEGMENT
_this$ = -4						; size = 4
?_Get_first@?$_Compressed_pair@V?$allocator@D@std@@V?$_String_val@U?$_Simple_types@D@std@@@2@$00@std@@QAEAAV?$allocator@D@2@XZ PROC ; std::_Compressed_pair<std::allocator<char>,std::_String_val<std::_Simple_types<char> >,1>::_Get_first, COMDAT
; _this$ = ecx

; 1538 :     constexpr _Ty1& _Get_first() noexcept {

	push	ebp
	mov	ebp, esp
	push	ecx
	mov	DWORD PTR _this$[ebp], ecx

; 1539 :         return *this;

	mov	eax, DWORD PTR _this$[ebp]

; 1540 :     }

	mov	esp, ebp
	pop	ebp
	ret	0
?_Get_first@?$_Compressed_pair@V?$allocator@D@std@@V?$_String_val@U?$_Simple_types@D@std@@@2@$00@std@@QAEAAV?$allocator@D@2@XZ ENDP ; std::_Compressed_pair<std::allocator<char>,std::_String_val<std::_Simple_types<char> >,1>::_Get_first
_TEXT	ENDS
; Function compile flags: /Odtp /RTCsu
; File C:\Program Files\Microsoft Visual Studio\2022\Community\VC\Tools\MSVC\14.44.35207\include\xstring
;	COMDAT ?_Getal@?$basic_string@DU?$char_traits@D@std@@V?$allocator@D@2@@std@@AAEAAV?$allocator@D@2@XZ
_TEXT	SEGMENT
_this$ = -4						; size = 4
?_Getal@?$basic_string@DU?$char_traits@D@std@@V?$allocator@D@2@@std@@AAEAAV?$allocator@D@2@XZ PROC ; std::basic_string<char,std::char_traits<char>,std::allocator<char> >::_Getal, COMDAT
; _this$ = ecx

; 3106 :     _CONSTEXPR20 _Alty& _Getal() noexcept {

	push	ebp
	mov	ebp, esp
	push	ecx
	mov	DWORD PTR [ebp-4], -858993460		; ccccccccH
	mov	DWORD PTR _this$[ebp], ecx

; 3107 :         return _Mypair._Get_first();

	mov	ecx, DWORD PTR _this$[ebp]
	call	?_Get_first@?$_Compressed_pair@V?$allocator@D@std@@V?$_String_val@U?$_Simple_types@D@std@@@2@$00@std@@QAEAAV?$allocator@D@2@XZ ; std::_Compressed_pair<std::allocator<char>,std::_String_val<std::_Simple_types<char> >,1>::_Get_first

; 3108 :     }

	add	esp, 4
	cmp	ebp, esp
	call	__RTC_CheckEsp
	mov	esp, ebp
	pop	ebp
	ret	0
?_Getal@?$basic_string@DU?$char_traits@D@std@@V?$allocator@D@2@@std@@AAEAAV?$allocator@D@2@XZ ENDP ; std::basic_string<char,std::char_traits<char>,std::allocator<char> >::_Getal
_TEXT	ENDS
; Function compile flags: /Odtp /RTCsu
; File C:\Program Files\Microsoft Visual Studio\2022\Community\VC\Tools\MSVC\14.44.35207\include\xstring
;	COMDAT ?_Tidy_deallocate@?$basic_string@DU?$char_traits@D@std@@V?$allocator@D@2@@std@@AAEXXZ
_TEXT	SEGMENT
$T1 = -13						; size = 1
__Al$2 = -12						; size = 4
__My_data$ = -8						; size = 4
_this$ = -4						; size = 4
?_Tidy_deallocate@?$basic_string@DU?$char_traits@D@std@@V?$allocator@D@2@@std@@AAEXXZ PROC ; std::basic_string<char,std::char_traits<char>,std::allocator<char> >::_Tidy_deallocate, COMDAT
; _this$ = ecx

; 3080 :     _CONSTEXPR20 void _Tidy_deallocate() noexcept { // initialize buffer, deallocating any storage

	push	ebp
	mov	ebp, esp
	sub	esp, 16					; 00000010H
	mov	eax, -858993460				; ccccccccH
	mov	DWORD PTR [ebp-16], eax
	mov	DWORD PTR [ebp-12], eax
	mov	DWORD PTR [ebp-8], eax
	mov	DWORD PTR [ebp-4], eax
	mov	DWORD PTR _this$[ebp], ecx

; 3081 :         auto& _My_data = _Mypair._Myval2;

	mov	eax, DWORD PTR _this$[ebp]
	mov	DWORD PTR __My_data$[ebp], eax

; 3082 :         _My_data._Orphan_all();

	mov	ecx, DWORD PTR __My_data$[ebp]
	call	?_Orphan_all@_Container_base12@std@@QAEXXZ ; std::_Container_base12::_Orphan_all
	npad	1

; 3083 :         if (_My_data._Large_mode_engaged()) {

	mov	ecx, DWORD PTR __My_data$[ebp]
	call	?_Large_mode_engaged@?$_String_val@U?$_Simple_types@D@std@@@std@@QBE_NXZ ; std::_String_val<std::_Simple_types<char> >::_Large_mode_engaged
	movzx	ecx, al
	test	ecx, ecx
	je	SHORT $LN2@Tidy_deall

; 3084 :             _ASAN_STRING_REMOVE(*this);
; 3085 :             auto& _Al = _Getal();

	mov	ecx, DWORD PTR _this$[ebp]
	call	?_Getal@?$basic_string@DU?$char_traits@D@std@@V?$allocator@D@2@@std@@AAEAAV?$allocator@D@2@XZ ; std::basic_string<char,std::char_traits<char>,std::allocator<char> >::_Getal
	mov	DWORD PTR __Al$2[ebp], eax

; 3086 :             _Deallocate_for_capacity(_Al, _My_data._Bx._Ptr, _My_data._Myres);

	mov	edx, DWORD PTR __My_data$[ebp]
	mov	eax, DWORD PTR [edx+24]
	push	eax
	mov	ecx, DWORD PTR __My_data$[ebp]
	mov	edx, DWORD PTR [ecx+4]
	push	edx
	mov	eax, DWORD PTR __Al$2[ebp]
	push	eax
	call	?_Deallocate_for_capacity@?$basic_string@DU?$char_traits@D@std@@V?$allocator@D@2@@std@@CAXAAV?$allocator@D@2@QADI@Z ; std::basic_string<char,std::char_traits<char>,std::allocator<char> >::_Deallocate_for_capacity
	add	esp, 12					; 0000000cH

; 3087 :             _My_data._Bx._Switch_to_buf();

	mov	ecx, DWORD PTR __My_data$[ebp]
	add	ecx, 4
	call	?_Switch_to_buf@_Bxty@?$_String_val@U?$_Simple_types@D@std@@@std@@QAEXXZ ; std::_String_val<std::_Simple_types<char> >::_Bxty::_Switch_to_buf
	npad	1
$LN2@Tidy_deall:

; 3088 :         }
; 3089 : 
; 3090 :         _My_data._Mysize = 0;

	mov	ecx, DWORD PTR __My_data$[ebp]
	mov	DWORD PTR [ecx+20], 0

; 3091 :         _My_data._Myres  = _Small_string_capacity;

	mov	edx, DWORD PTR __My_data$[ebp]
	mov	DWORD PTR [edx+24], 15			; 0000000fH

; 3092 :         // the _Traits::assign is last so the codegen doesn't think the char write can alias this
; 3093 :         _Traits::assign(_My_data._Bx._Buf[0], _Elem());

	mov	BYTE PTR $T1[ebp], 0
	lea	eax, DWORD PTR $T1[ebp]
	push	eax
	mov	ecx, 1
	imul	edx, ecx, 0
	mov	eax, DWORD PTR __My_data$[ebp]
	lea	ecx, DWORD PTR [eax+edx+4]
	push	ecx
	call	?assign@?$_Narrow_char_traits@DH@std@@SAXAADABD@Z ; std::_Narrow_char_traits<char,int>::assign
	add	esp, 8

; 3094 :     }

	add	esp, 16					; 00000010H
	cmp	ebp, esp
	call	__RTC_CheckEsp
	mov	esp, ebp
	pop	ebp
	ret	0
?_Tidy_deallocate@?$basic_string@DU?$char_traits@D@std@@V?$allocator@D@2@@std@@AAEXXZ ENDP ; std::basic_string<char,std::char_traits<char>,std::allocator<char> >::_Tidy_deallocate
_TEXT	ENDS
; Function compile flags: /Odtp /RTCsu
; File C:\Program Files\Microsoft Visual Studio\2022\Community\VC\Tools\MSVC\14.44.35207\include\xstring
;	COMDAT ?size@?$basic_string@DU?$char_traits@D@std@@V?$allocator@D@2@@std@@QBEIXZ
_TEXT	SEGMENT
_this$ = -4						; size = 4
?size@?$basic_string@DU?$char_traits@D@std@@V?$allocator@D@2@@std@@QBEIXZ PROC ; std::basic_string<char,std::char_traits<char>,std::allocator<char> >::size, COMDAT
; _this$ = ecx

; 2373 :     _NODISCARD _CONSTEXPR20 size_type size() const noexcept {

	push	ebp
	mov	ebp, esp
	push	ecx
	mov	DWORD PTR _this$[ebp], ecx

; 2374 :         return _Mypair._Myval2._Mysize;

	mov	eax, DWORD PTR _this$[ebp]
	mov	eax, DWORD PTR [eax+20]

; 2375 :     }

	mov	esp, ebp
	pop	ebp
	ret	0
?size@?$basic_string@DU?$char_traits@D@std@@V?$allocator@D@2@@std@@QBEIXZ ENDP ; std::basic_string<char,std::char_traits<char>,std::allocator<char> >::size
_TEXT	ENDS
; Function compile flags: /Odtp /RTCsu
; File C:\Program Files\Microsoft Visual Studio\2022\Community\VC\Tools\MSVC\14.44.35207\include\xstring
;	COMDAT ?c_str@?$basic_string@DU?$char_traits@D@std@@V?$allocator@D@2@@std@@QBEPBDXZ
_TEXT	SEGMENT
_this$ = -4						; size = 4
?c_str@?$basic_string@DU?$char_traits@D@std@@V?$allocator@D@2@@std@@QBEPBDXZ PROC ; std::basic_string<char,std::char_traits<char>,std::allocator<char> >::c_str, COMDAT
; _this$ = ecx

; 2355 :     _NODISCARD _CONSTEXPR20 _Ret_z_ const _Elem* c_str() const noexcept {

	push	ebp
	mov	ebp, esp
	push	ecx
	mov	DWORD PTR [ebp-4], -858993460		; ccccccccH
	mov	DWORD PTR _this$[ebp], ecx

; 2356 :         return _Mypair._Myval2._Myptr();

	mov	ecx, DWORD PTR _this$[ebp]
	call	?_Myptr@?$_String_val@U?$_Simple_types@D@std@@@std@@QBEPBDXZ ; std::_String_val<std::_Simple_types<char> >::_Myptr

; 2357 :     }

	add	esp, 4
	cmp	ebp, esp
	call	__RTC_CheckEsp
	mov	esp, ebp
	pop	ebp
	ret	0
?c_str@?$basic_string@DU?$char_traits@D@std@@V?$allocator@D@2@@std@@QBEPBDXZ ENDP ; std::basic_string<char,std::char_traits<char>,std::allocator<char> >::c_str
_TEXT	ENDS
; Function compile flags: /Odtp /RTCsu
; File C:\Program Files\Microsoft Visual Studio\2022\Community\VC\Tools\MSVC\14.44.35207\include\xstring
;	COMDAT ??1?$basic_string@DU?$char_traits@D@std@@V?$allocator@D@2@@std@@QAE@XZ
_TEXT	SEGMENT
__To_delete$ = -24					; size = 4
_$S8$ = -13						; size = 1
__Alproxy$ = -8						; size = 4
_this$ = -4						; size = 4
??1?$basic_string@DU?$char_traits@D@std@@V?$allocator@D@2@@std@@QAE@XZ PROC ; std::basic_string<char,std::char_traits<char>,std::allocator<char> >::~basic_string<char,std::char_traits<char>,std::allocator<char> >, COMDAT
; _this$ = ecx

; 1382 :     _CONSTEXPR20 ~basic_string() noexcept {

	push	ebp
	mov	ebp, esp
	sub	esp, 24					; 00000018H
	mov	eax, -858993460				; ccccccccH
	mov	DWORD PTR [ebp-24], eax
	mov	DWORD PTR [ebp-20], eax
	mov	DWORD PTR [ebp-16], eax
	mov	DWORD PTR [ebp-12], eax
	mov	DWORD PTR [ebp-8], eax
	mov	DWORD PTR [ebp-4], eax
	mov	DWORD PTR _this$[ebp], ecx

; 1383 :         _Tidy_deallocate();

	mov	ecx, DWORD PTR _this$[ebp]
	call	?_Tidy_deallocate@?$basic_string@DU?$char_traits@D@std@@V?$allocator@D@2@@std@@AAEXXZ ; std::basic_string<char,std::char_traits<char>,std::allocator<char> >::_Tidy_deallocate

; 1384 : #if _ITERATOR_DEBUG_LEVEL != 0
; 1385 :         auto&& _Alproxy          = _GET_PROXY_ALLOCATOR(_Alty, _Getal());

	mov	ecx, DWORD PTR _this$[ebp]
	call	?_Getal@?$basic_string@DU?$char_traits@D@std@@V?$allocator@D@2@@std@@AAEAAV?$allocator@D@2@XZ ; std::basic_string<char,std::char_traits<char>,std::allocator<char> >::_Getal
	push	eax
	lea	ecx, DWORD PTR _$S8$[ebp]
	call	??$?0D@?$allocator@U_Container_proxy@std@@@std@@QAE@ABV?$allocator@D@1@@Z ; std::allocator<std::_Container_proxy>::allocator<std::_Container_proxy><char>
	lea	eax, DWORD PTR _$S8$[ebp]
	mov	DWORD PTR __Alproxy$[ebp], eax

; 1386 :         const auto _To_delete    = _Mypair._Myval2._Myproxy;

	mov	ecx, DWORD PTR _this$[ebp]
	mov	edx, DWORD PTR [ecx]
	mov	DWORD PTR __To_delete$[ebp], edx

; 1387 :         _Mypair._Myval2._Myproxy = nullptr;

	mov	eax, DWORD PTR _this$[ebp]
	mov	DWORD PTR [eax], 0

; 1388 :         _Delete_plain_internal(_Alproxy, _To_delete);

	mov	ecx, DWORD PTR __To_delete$[ebp]
	push	ecx
	mov	edx, DWORD PTR __Alproxy$[ebp]
	push	edx
	call	??$_Delete_plain_internal@V?$allocator@U_Container_proxy@std@@@std@@@std@@YAXAAV?$allocator@U_Container_proxy@std@@@0@QAU_Container_proxy@0@@Z ; std::_Delete_plain_internal<std::allocator<std::_Container_proxy> >
	add	esp, 8

; 1389 : #endif // _ITERATOR_DEBUG_LEVEL != 0
; 1390 :     }

	mov	ecx, DWORD PTR _this$[ebp]
	call	??1?$_Compressed_pair@V?$allocator@D@std@@V?$_String_val@U?$_Simple_types@D@std@@@2@$00@std@@QAE@XZ
	npad	1
	push	edx
	mov	ecx, ebp
	push	eax
	lea	edx, DWORD PTR $LN6@basic_stri
	call	@_RTC_CheckStackVars@8
	pop	eax
	pop	edx
	add	esp, 24					; 00000018H
	cmp	ebp, esp
	call	__RTC_CheckEsp
	mov	esp, ebp
	pop	ebp
	ret	0
$LN6@basic_stri:
	DD	1
	DD	$LN5@basic_stri
$LN5@basic_stri:
	DD	-13					; fffffff3H
	DD	1
	DD	$LN4@basic_stri
$LN4@basic_stri:
	DB	36					; 00000024H
	DB	83					; 00000053H
	DB	56					; 00000038H
	DB	0
??1?$basic_string@DU?$char_traits@D@std@@V?$allocator@D@2@@std@@QAE@XZ ENDP ; std::basic_string<char,std::char_traits<char>,std::allocator<char> >::~basic_string<char,std::char_traits<char>,std::allocator<char> >
_TEXT	ENDS
; Function compile flags: /Odtp /RTCsu
; File C:\Program Files\Microsoft Visual Studio\2022\Community\VC\Tools\MSVC\14.44.35207\include\xstring
;	COMDAT ?_Deallocate_for_capacity@?$basic_string@DU?$char_traits@D@std@@V?$allocator@D@2@@std@@CAXAAV?$allocator@D@2@QADI@Z
_TEXT	SEGMENT
__Al$ = 8						; size = 4
__Old_ptr$ = 12						; size = 4
__Capacity$ = 16					; size = 4
?_Deallocate_for_capacity@?$basic_string@DU?$char_traits@D@std@@V?$allocator@D@2@@std@@CAXAAV?$allocator@D@2@QADI@Z PROC ; std::basic_string<char,std::char_traits<char>,std::allocator<char> >::_Deallocate_for_capacity, COMDAT

; 850  :         _Alty& _Al, const pointer _Old_ptr, const size_type _Capacity) noexcept {

	push	ebp
	mov	ebp, esp

; 851  :         _STL_INTERNAL_CHECK(_Capacity > _Small_string_capacity);
; 852  :         _Al.deallocate(_Old_ptr, _Capacity + 1); // +1 for null terminator

	mov	eax, DWORD PTR __Capacity$[ebp]
	add	eax, 1
	push	eax
	mov	ecx, DWORD PTR __Old_ptr$[ebp]
	push	ecx
	mov	ecx, DWORD PTR __Al$[ebp]
	call	?deallocate@?$allocator@D@std@@QAEXQADI@Z ; std::allocator<char>::deallocate
	npad	1

; 853  :     }

	cmp	ebp, esp
	call	__RTC_CheckEsp
	pop	ebp
	ret	0
?_Deallocate_for_capacity@?$basic_string@DU?$char_traits@D@std@@V?$allocator@D@2@@std@@CAXAAV?$allocator@D@2@QADI@Z ENDP ; std::basic_string<char,std::char_traits<char>,std::allocator<char> >::_Deallocate_for_capacity
_TEXT	ENDS
; Function compile flags: /Odtp /RTCsu
;	COMDAT ??1?$_String_val@U?$_Simple_types@D@std@@@std@@QAE@XZ
_TEXT	SEGMENT
_this$ = -4						; size = 4
??1?$_String_val@U?$_Simple_types@D@std@@@std@@QAE@XZ PROC ; std::_String_val<std::_Simple_types<char> >::~_String_val<std::_Simple_types<char> >, COMDAT
; _this$ = ecx
	push	ebp
	mov	ebp, esp
	push	ecx
	mov	DWORD PTR [ebp-4], -858993460		; ccccccccH
	mov	DWORD PTR _this$[ebp], ecx
	mov	ecx, DWORD PTR _this$[ebp]
	add	ecx, 4
	call	??1_Bxty@?$_String_val@U?$_Simple_types@D@std@@@std@@QAE@XZ ; std::_String_val<std::_Simple_types<char> >::_Bxty::~_Bxty
	npad	1
	add	esp, 4
	cmp	ebp, esp
	call	__RTC_CheckEsp
	mov	esp, ebp
	pop	ebp
	ret	0
??1?$_String_val@U?$_Simple_types@D@std@@@std@@QAE@XZ ENDP ; std::_String_val<std::_Simple_types<char> >::~_String_val<std::_Simple_types<char> >
_TEXT	ENDS
; Function compile flags: /Odtp /RTCsu
; File C:\Program Files\Microsoft Visual Studio\2022\Community\VC\Tools\MSVC\14.44.35207\include\xstring
;	COMDAT ?_Switch_to_buf@_Bxty@?$_String_val@U?$_Simple_types@D@std@@@std@@QAEXXZ
_TEXT	SEGMENT
_this$ = -4						; size = 4
?_Switch_to_buf@_Bxty@?$_String_val@U?$_Simple_types@D@std@@@std@@QAEXXZ PROC ; std::_String_val<std::_Simple_types<char> >::_Bxty::_Switch_to_buf, COMDAT
; _this$ = ecx

; 500  :         _CONSTEXPR20 void _Switch_to_buf() noexcept {

	push	ebp
	mov	ebp, esp
	push	ecx
	mov	DWORD PTR [ebp-4], -858993460		; ccccccccH
	mov	DWORD PTR _this$[ebp], ecx

; 501  :             _STD _Destroy_in_place(_Ptr);

	mov	eax, DWORD PTR _this$[ebp]
	push	eax
	call	??$_Destroy_in_place@PAD@std@@YAXAAPAD@Z ; std::_Destroy_in_place<char *>
	add	esp, 4

; 502  : 
; 503  : #if _HAS_CXX20
; 504  :             // start the lifetime of the array elements
; 505  :             if (_STD is_constant_evaluated()) {
; 506  :                 for (size_type _Idx = 0; _Idx < _BUF_SIZE; ++_Idx) {
; 507  :                     _Buf[_Idx] = value_type();
; 508  :                 }
; 509  :             }
; 510  : #endif // _HAS_CXX20
; 511  :         }

	add	esp, 4
	cmp	ebp, esp
	call	__RTC_CheckEsp
	mov	esp, ebp
	pop	ebp
	ret	0
?_Switch_to_buf@_Bxty@?$_String_val@U?$_Simple_types@D@std@@@std@@QAEXXZ ENDP ; std::_String_val<std::_Simple_types<char> >::_Bxty::_Switch_to_buf
_TEXT	ENDS
; Function compile flags: /Odtp /RTCsu
; File C:\Program Files\Microsoft Visual Studio\2022\Community\VC\Tools\MSVC\14.44.35207\include\xstring
;	COMDAT ??1_Bxty@?$_String_val@U?$_Simple_types@D@std@@@std@@QAE@XZ
_TEXT	SEGMENT
_this$ = -4						; size = 4
??1_Bxty@?$_String_val@U?$_Simple_types@D@std@@@std@@QAE@XZ PROC ; std::_String_val<std::_Simple_types<char> >::_Bxty::~_Bxty, COMDAT
; _this$ = ecx

; 494  :         _CONSTEXPR20 ~_Bxty() noexcept {} // user-provided, for fancy pointers

	push	ebp
	mov	ebp, esp
	push	ecx
	mov	DWORD PTR _this$[ebp], ecx
	mov	esp, ebp
	pop	ebp
	ret	0
??1_Bxty@?$_String_val@U?$_Simple_types@D@std@@@std@@QAE@XZ ENDP ; std::_String_val<std::_Simple_types<char> >::_Bxty::~_Bxty
_TEXT	ENDS
; Function compile flags: /Odtp /RTCsu
; File C:\Program Files\Microsoft Visual Studio\2022\Community\VC\Tools\MSVC\14.44.35207\include\xstring
;	COMDAT ?_Large_mode_engaged@?$_String_val@U?$_Simple_types@D@std@@@std@@QBE_NXZ
_TEXT	SEGMENT
tv66 = -8						; size = 4
_this$ = -4						; size = 4
?_Large_mode_engaged@?$_String_val@U?$_Simple_types@D@std@@@std@@QBE_NXZ PROC ; std::_String_val<std::_Simple_types<char> >::_Large_mode_engaged, COMDAT
; _this$ = ecx

; 452  :     _NODISCARD _CONSTEXPR20 bool _Large_mode_engaged() const noexcept {

	push	ebp
	mov	ebp, esp
	sub	esp, 8
	mov	DWORD PTR _this$[ebp], ecx

; 453  :         return _Myres > _Small_string_capacity;

	mov	eax, DWORD PTR _this$[ebp]
	cmp	DWORD PTR [eax+24], 15			; 0000000fH
	jbe	SHORT $LN3@Large_mode
	mov	DWORD PTR tv66[ebp], 1
	jmp	SHORT $LN4@Large_mode
$LN3@Large_mode:
	mov	DWORD PTR tv66[ebp], 0
$LN4@Large_mode:
	movzx	eax, BYTE PTR tv66[ebp]

; 454  :     }

	mov	esp, ebp
	pop	ebp
	ret	0
?_Large_mode_engaged@?$_String_val@U?$_Simple_types@D@std@@@std@@QBE_NXZ ENDP ; std::_String_val<std::_Simple_types<char> >::_Large_mode_engaged
_TEXT	ENDS
; Function compile flags: /Odtp /RTCsu
; File C:\Program Files\Microsoft Visual Studio\2022\Community\VC\Tools\MSVC\14.44.35207\include\xstring
;	COMDAT ?_Myptr@?$_String_val@U?$_Simple_types@D@std@@@std@@QBEPBDXZ
_TEXT	SEGMENT
__Result$ = -8						; size = 4
_this$ = -4						; size = 4
?_Myptr@?$_String_val@U?$_Simple_types@D@std@@@std@@QBEPBDXZ PROC ; std::_String_val<std::_Simple_types<char> >::_Myptr, COMDAT
; _this$ = ecx

; 443  :     _NODISCARD _CONSTEXPR20 const value_type* _Myptr() const noexcept {

	push	ebp
	mov	ebp, esp
	sub	esp, 8
	mov	DWORD PTR [ebp-8], -858993460		; ccccccccH
	mov	DWORD PTR [ebp-4], -858993460		; ccccccccH
	mov	DWORD PTR _this$[ebp], ecx

; 444  :         const value_type* _Result = _Bx._Buf;

	mov	eax, DWORD PTR _this$[ebp]
	add	eax, 4
	mov	DWORD PTR __Result$[ebp], eax

; 445  :         if (_Large_mode_engaged()) {

	mov	ecx, DWORD PTR _this$[ebp]
	call	?_Large_mode_engaged@?$_String_val@U?$_Simple_types@D@std@@@std@@QBE_NXZ ; std::_String_val<std::_Simple_types<char> >::_Large_mode_engaged
	movzx	ecx, al
	test	ecx, ecx
	je	SHORT $LN2@Myptr

; 446  :             _Result = _Unfancy(_Bx._Ptr);

	mov	edx, DWORD PTR _this$[ebp]
	mov	eax, DWORD PTR [edx+4]
	push	eax
	call	??$_Unfancy@D@std@@YAPADPAD@Z		; std::_Unfancy<char>
	add	esp, 4
	mov	DWORD PTR __Result$[ebp], eax
$LN2@Myptr:

; 447  :         }
; 448  : 
; 449  :         return _Result;

	mov	eax, DWORD PTR __Result$[ebp]

; 450  :     }

	add	esp, 8
	cmp	ebp, esp
	call	__RTC_CheckEsp
	mov	esp, ebp
	pop	ebp
	ret	0
?_Myptr@?$_String_val@U?$_Simple_types@D@std@@@std@@QBEPBDXZ ENDP ; std::_String_val<std::_Simple_types<char> >::_Myptr
_TEXT	ENDS
; Function compile flags: /Odtp /RTCsu
; File C:\Program Files\Microsoft Visual Studio\2022\Community\VC\Tools\MSVC\14.44.35207\include\xmemory
;	COMDAT ?deallocate@?$allocator@D@std@@QAEXQADI@Z
_TEXT	SEGMENT
_this$ = -4						; size = 4
__Ptr$ = 8						; size = 4
__Count$ = 12						; size = 4
?deallocate@?$allocator@D@std@@QAEXQADI@Z PROC		; std::allocator<char>::deallocate, COMDAT
; _this$ = ecx

; 982  :     _CONSTEXPR20 void deallocate(_Ty* const _Ptr, const size_t _Count) noexcept /* strengthened */ {

	push	ebp
	mov	ebp, esp
	push	ecx
	mov	DWORD PTR [ebp-4], -858993460		; ccccccccH
	mov	DWORD PTR _this$[ebp], ecx

; 983  :         _STL_ASSERT(_Ptr != nullptr || _Count == 0, "null pointer cannot point to a block of non-zero size");

	cmp	DWORD PTR __Ptr$[ebp], 0
	jne	SHORT $LN2@deallocate
	cmp	DWORD PTR __Count$[ebp], 0
	je	SHORT $LN2@deallocate
	push	OFFSET ??_C@_0DG@KGHKKGBC@null?5pointer?5cannot?5point?5to?5a?5@
	push	OFFSET ??_C@_02DKCKIIND@?$CFs@
	push	0
	push	983					; 000003d7H
	push	OFFSET ??_C@_0GC@KLECFGLI@C?3?2Program?5Files?2Microsoft?5Visu@
	push	2
	call	__CrtDbgReport
	add	esp, 24					; 00000018H
	cmp	eax, 1
	jne	SHORT $LN4@deallocate
	int	3
$LN4@deallocate:
	push	0
	push	0
	push	0
	push	0
	push	0
	call	__invoke_watson
	npad	1
$LN2@deallocate:

; 984  :         // no overflow check on the following multiply; we assume _Allocate did that check
; 985  :         _STD _Deallocate<_New_alignof<_Ty>>(_Ptr, sizeof(_Ty) * _Count);

	mov	ecx, DWORD PTR __Count$[ebp]
	push	ecx
	mov	edx, DWORD PTR __Ptr$[ebp]
	push	edx
	call	??$_Deallocate@$07@std@@YAXPAXI@Z	; std::_Deallocate<8>
	add	esp, 8
$LN1@deallocate:

; 986  :     }

	add	esp, 4
	cmp	ebp, esp
	call	__RTC_CheckEsp
	mov	esp, ebp
	pop	ebp
	ret	8
?deallocate@?$allocator@D@std@@QAEXQADI@Z ENDP		; std::allocator<char>::deallocate
_TEXT	ENDS
; Function compile flags: /Odtp /RTCsu
; File C:\Program Files\Microsoft Visual Studio\2022\Community\VC\Tools\MSVC\14.44.35207\include\utility
;	COMDAT ??$exchange@PAU_Iterator_base12@std@@$$T@std@@YAPAU_Iterator_base12@0@AAPAU10@$$QA$$T@Z
_TEXT	SEGMENT
__Old_val$ = -4						; size = 4
__Val$ = 8						; size = 4
__New_val$ = 12						; size = 4
??$exchange@PAU_Iterator_base12@std@@$$T@std@@YAPAU_Iterator_base12@0@AAPAU10@$$QA$$T@Z PROC ; std::exchange<std::_Iterator_base12 *,std::nullptr_t>, COMDAT

; 771  :     noexcept(conjunction_v<is_nothrow_move_constructible<_Ty>, is_nothrow_assignable<_Ty&, _Other>>) {

	push	ebp
	mov	ebp, esp
	push	ecx

; 772  :     // assign _New_val to _Val, return previous _Val
; 773  :     _Ty _Old_val = static_cast<_Ty&&>(_Val);

	mov	eax, DWORD PTR __Val$[ebp]
	mov	ecx, DWORD PTR [eax]
	mov	DWORD PTR __Old_val$[ebp], ecx

; 774  :     _Val         = static_cast<_Other&&>(_New_val);

	mov	edx, DWORD PTR __Val$[ebp]
	mov	eax, DWORD PTR __New_val$[ebp]
	mov	ecx, DWORD PTR [eax]
	mov	DWORD PTR [edx], ecx

; 775  :     return _Old_val;

	mov	eax, DWORD PTR __Old_val$[ebp]

; 776  : }

	mov	esp, ebp
	pop	ebp
	ret	0
??$exchange@PAU_Iterator_base12@std@@$$T@std@@YAPAU_Iterator_base12@0@AAPAU10@$$QA$$T@Z ENDP ; std::exchange<std::_Iterator_base12 *,std::nullptr_t>
_TEXT	ENDS
; Function compile flags: /Odtp /RTCsu
; File C:\Program Files\Microsoft Visual Studio\2022\Community\VC\Tools\MSVC\14.44.35207\include\xmemory
;	COMDAT ?_Orphan_all_locked_v3@_Container_base12@std@@AAEXXZ
_TEXT	SEGMENT
__Lock$ = -12						; size = 4
_this$ = -4						; size = 4
?_Orphan_all_locked_v3@_Container_base12@std@@AAEXXZ PROC ; std::_Container_base12::_Orphan_all_locked_v3, COMDAT
; _this$ = ecx

; 1241 :     void _Orphan_all_locked_v3() noexcept {

	push	ebp
	mov	ebp, esp
	sub	esp, 16					; 00000010H
	mov	eax, -858993460				; ccccccccH
	mov	DWORD PTR [ebp-16], eax
	mov	DWORD PTR [ebp-12], eax
	mov	DWORD PTR [ebp-8], eax
	mov	DWORD PTR [ebp-4], eax
	mov	DWORD PTR _this$[ebp], ecx

; 1242 :         _Lockit _Lock(_LOCK_DEBUG);

	push	3
	lea	ecx, DWORD PTR __Lock$[ebp]
	call	??0_Lockit@std@@QAE@H@Z			; std::_Lockit::_Lockit

; 1243 :         _Orphan_all_unlocked_v3();

	mov	ecx, DWORD PTR _this$[ebp]
	call	?_Orphan_all_unlocked_v3@_Container_base12@std@@AAEXXZ ; std::_Container_base12::_Orphan_all_unlocked_v3

; 1244 :     }

	lea	ecx, DWORD PTR __Lock$[ebp]
	call	??1_Lockit@std@@QAE@XZ			; std::_Lockit::~_Lockit
	npad	1
	push	edx
	mov	ecx, ebp
	push	eax
	lea	edx, DWORD PTR $LN6@Orphan_all
	call	@_RTC_CheckStackVars@8
	pop	eax
	pop	edx
	add	esp, 16					; 00000010H
	cmp	ebp, esp
	call	__RTC_CheckEsp
	mov	esp, ebp
	pop	ebp
	ret	0
$LN6@Orphan_all:
	DD	1
	DD	$LN5@Orphan_all
$LN5@Orphan_all:
	DD	-12					; fffffff4H
	DD	4
	DD	$LN4@Orphan_all
$LN4@Orphan_all:
	DB	95					; 0000005fH
	DB	76					; 0000004cH
	DB	111					; 0000006fH
	DB	99					; 00000063H
	DB	107					; 0000006bH
	DB	0
?_Orphan_all_locked_v3@_Container_base12@std@@AAEXXZ ENDP ; std::_Container_base12::_Orphan_all_locked_v3
_TEXT	ENDS
; Function compile flags: /Odtp /RTCsu
; File C:\Program Files\Microsoft Visual Studio\2022\Community\VC\Tools\MSVC\14.44.35207\include\xmemory
;	COMDAT ?_Orphan_all_unlocked_v3@_Container_base12@std@@AAEXXZ
_TEXT	SEGMENT
$T1 = -12						; size = 4
__Pnext$2 = -8						; size = 4
_this$ = -4						; size = 4
?_Orphan_all_unlocked_v3@_Container_base12@std@@AAEXXZ PROC ; std::_Container_base12::_Orphan_all_unlocked_v3, COMDAT
; _this$ = ecx

; 1381 : _CONSTEXPR20 void _Container_base12::_Orphan_all_unlocked_v3() noexcept {

	push	ebp
	mov	ebp, esp
	sub	esp, 12					; 0000000cH
	mov	DWORD PTR [ebp-12], -858993460		; ccccccccH
	mov	DWORD PTR [ebp-8], -858993460		; ccccccccH
	mov	DWORD PTR [ebp-4], -858993460		; ccccccccH
	mov	DWORD PTR _this$[ebp], ecx

; 1382 :     if (!_Myproxy) { // no proxy, already done

	mov	eax, DWORD PTR _this$[ebp]
	cmp	DWORD PTR [eax], 0
	jne	SHORT $LN5@Orphan_all

; 1383 :         return;

	jmp	SHORT $LN1@Orphan_all
$LN5@Orphan_all:

; 1384 :     }
; 1385 : 
; 1386 :     // proxy allocated, drain it
; 1387 :     for (auto _Pnext = _STD exchange(_Myproxy->_Myfirstiter, nullptr); _Pnext; _Pnext = _Pnext->_Mynextiter) {

	mov	DWORD PTR $T1[ebp], 0
	lea	ecx, DWORD PTR $T1[ebp]
	push	ecx
	mov	edx, DWORD PTR _this$[ebp]
	mov	eax, DWORD PTR [edx]
	add	eax, 4
	push	eax
	call	??$exchange@PAU_Iterator_base12@std@@$$T@std@@YAPAU_Iterator_base12@0@AAPAU10@$$QA$$T@Z ; std::exchange<std::_Iterator_base12 *,std::nullptr_t>
	add	esp, 8
	mov	DWORD PTR __Pnext$2[ebp], eax
	jmp	SHORT $LN4@Orphan_all
$LN2@Orphan_all:
	mov	ecx, DWORD PTR __Pnext$2[ebp]
	mov	edx, DWORD PTR [ecx+4]
	mov	DWORD PTR __Pnext$2[ebp], edx
$LN4@Orphan_all:
	cmp	DWORD PTR __Pnext$2[ebp], 0
	je	SHORT $LN3@Orphan_all

; 1388 :         _Pnext->_Myproxy = nullptr;

	mov	eax, DWORD PTR __Pnext$2[ebp]
	mov	DWORD PTR [eax], 0

; 1389 :     }

	jmp	SHORT $LN2@Orphan_all
$LN3@Orphan_all:
$LN1@Orphan_all:

; 1390 : }

	add	esp, 12					; 0000000cH
	cmp	ebp, esp
	call	__RTC_CheckEsp
	mov	esp, ebp
	pop	ebp
	ret	0
?_Orphan_all_unlocked_v3@_Container_base12@std@@AAEXXZ ENDP ; std::_Container_base12::_Orphan_all_unlocked_v3
_TEXT	ENDS
; Function compile flags: /Odtp /RTCsu
; File C:\Program Files\Microsoft Visual Studio\2022\Community\VC\Tools\MSVC\14.44.35207\include\xmemory
;	COMDAT ?_Orphan_all@_Container_base12@std@@QAEXXZ
_TEXT	SEGMENT
_this$ = -4						; size = 4
?_Orphan_all@_Container_base12@std@@QAEXXZ PROC		; std::_Container_base12::_Orphan_all, COMDAT
; _this$ = ecx

; 1392 : _CONSTEXPR20 void _Container_base12::_Orphan_all() noexcept {

	push	ebp
	mov	ebp, esp
	push	ecx
	mov	DWORD PTR [ebp-4], -858993460		; ccccccccH
	mov	DWORD PTR _this$[ebp], ecx

; 1393 : #if _ITERATOR_DEBUG_LEVEL == 2
; 1394 : #if _HAS_CXX20
; 1395 :     if (_STD is_constant_evaluated()) {
; 1396 :         _Orphan_all_unlocked_v3();
; 1397 :     } else
; 1398 : #endif // _HAS_CXX20
; 1399 :     {
; 1400 :         _Orphan_all_locked_v3();

	mov	ecx, DWORD PTR _this$[ebp]
	call	?_Orphan_all_locked_v3@_Container_base12@std@@AAEXXZ ; std::_Container_base12::_Orphan_all_locked_v3
	npad	1

; 1401 :     }
; 1402 : #endif // _ITERATOR_DEBUG_LEVEL == 2
; 1403 : }

	add	esp, 4
	cmp	ebp, esp
	call	__RTC_CheckEsp
	mov	esp, ebp
	pop	ebp
	ret	0
?_Orphan_all@_Container_base12@std@@QAEXXZ ENDP		; std::_Container_base12::_Orphan_all
_TEXT	ENDS
; Function compile flags: /Odtp /RTCsu
; File C:\Program Files\Microsoft Visual Studio\2022\Community\VC\Tools\MSVC\14.44.35207\include\xmemory
;	COMDAT ?_Adjust_manually_vector_aligned@std@@YAXAAPAXAAI@Z
_TEXT	SEGMENT
__Back_shift$ = -16					; size = 4
__Min_back_shift$ = -12					; size = 4
__Ptr_container$ = -8					; size = 4
__Ptr_user$ = -4					; size = 4
__Ptr$ = 8						; size = 4
__Bytes$ = 12						; size = 4
?_Adjust_manually_vector_aligned@std@@YAXAAPAXAAI@Z PROC ; std::_Adjust_manually_vector_aligned, COMDAT

; 200  : inline void _Adjust_manually_vector_aligned(void*& _Ptr, size_t& _Bytes) {

	push	ebp
	mov	ebp, esp
	sub	esp, 16					; 00000010H
	mov	eax, -858993460				; ccccccccH
	mov	DWORD PTR [ebp-16], eax
	mov	DWORD PTR [ebp-12], eax
	mov	DWORD PTR [ebp-8], eax
	mov	DWORD PTR [ebp-4], eax

; 201  :     // adjust parameters from _Allocate_manually_vector_aligned to pass to operator delete
; 202  :     _Bytes += _Non_user_size;

	mov	eax, DWORD PTR __Bytes$[ebp]
	mov	ecx, DWORD PTR [eax]
	add	ecx, 39					; 00000027H
	mov	edx, DWORD PTR __Bytes$[ebp]
	mov	DWORD PTR [edx], ecx

; 203  : 
; 204  :     const uintptr_t* const _Ptr_user = static_cast<uintptr_t*>(_Ptr);

	mov	eax, DWORD PTR __Ptr$[ebp]
	mov	ecx, DWORD PTR [eax]
	mov	DWORD PTR __Ptr_user$[ebp], ecx

; 205  :     const uintptr_t _Ptr_container   = _Ptr_user[-1];

	mov	edx, 4
	imul	eax, edx, -1
	mov	ecx, DWORD PTR __Ptr_user$[ebp]
	mov	edx, DWORD PTR [ecx+eax]
	mov	DWORD PTR __Ptr_container$[ebp], edx

; 206  : 
; 207  :     // If the following asserts, it likely means that we are performing
; 208  :     // an aligned delete on memory coming from an unaligned allocation.
; 209  :     _STL_ASSERT(_Ptr_user[-2] == _Big_allocation_sentinel, "invalid argument");

	mov	eax, 4
	imul	ecx, eax, -2
	mov	edx, DWORD PTR __Ptr_user$[ebp]
	cmp	DWORD PTR [edx+ecx], -84215046		; fafafafaH
	je	SHORT $LN2@Adjust_man
	push	OFFSET ??_C@_0BB@FCMFBGOM@invalid?5argument@
	push	OFFSET ??_C@_02DKCKIIND@?$CFs@
	push	0
	push	209					; 000000d1H
	push	OFFSET ??_C@_0GC@KLECFGLI@C?3?2Program?5Files?2Microsoft?5Visu@
	push	2
	call	__CrtDbgReport
	add	esp, 24					; 00000018H
	cmp	eax, 1
	jne	SHORT $LN6@Adjust_man
	int	3
$LN6@Adjust_man:
	push	0
	push	0
	push	0
	push	0
	push	0
	call	__invoke_watson
	npad	1
$LN2@Adjust_man:

; 210  : 
; 211  :     // Extra paranoia on aligned allocation/deallocation; ensure _Ptr_container is
; 212  :     // in range [_Min_back_shift, _Non_user_size]
; 213  : #ifdef _DEBUG
; 214  :     constexpr uintptr_t _Min_back_shift = 2 * sizeof(void*);

	mov	DWORD PTR __Min_back_shift$[ebp], 8

; 215  : #else // ^^^ defined(_DEBUG) / !defined(_DEBUG) vvv
; 216  :     constexpr uintptr_t _Min_back_shift = sizeof(void*);
; 217  : #endif // ^^^ !defined(_DEBUG) ^^^
; 218  :     const uintptr_t _Back_shift = reinterpret_cast<uintptr_t>(_Ptr) - _Ptr_container;

	mov	ecx, DWORD PTR __Ptr$[ebp]
	mov	edx, DWORD PTR [ecx]
	sub	edx, DWORD PTR __Ptr_container$[ebp]
	mov	DWORD PTR __Back_shift$[ebp], edx

; 219  :     _STL_VERIFY(_Back_shift >= _Min_back_shift && _Back_shift <= _Non_user_size, "invalid argument");

	cmp	DWORD PTR __Back_shift$[ebp], 8
	jb	SHORT $LN4@Adjust_man
	cmp	DWORD PTR __Back_shift$[ebp], 39	; 00000027H
	jbe	SHORT $LN3@Adjust_man
$LN4@Adjust_man:
	push	OFFSET ??_C@_0BB@FCMFBGOM@invalid?5argument@
	push	OFFSET ??_C@_02DKCKIIND@?$CFs@
	push	0
	push	219					; 000000dbH
	push	OFFSET ??_C@_0GC@KLECFGLI@C?3?2Program?5Files?2Microsoft?5Visu@
	push	2
	call	__CrtDbgReport
	add	esp, 24					; 00000018H
	cmp	eax, 1
	jne	SHORT $LN7@Adjust_man
	int	3
$LN7@Adjust_man:
	push	0
	push	0
	push	0
	push	0
	push	0
	call	__invoke_watson
	npad	1
$LN3@Adjust_man:

; 220  :     _Ptr = reinterpret_cast<void*>(_Ptr_container);

	mov	ecx, DWORD PTR __Ptr$[ebp]
	mov	edx, DWORD PTR __Ptr_container$[ebp]
	mov	DWORD PTR [ecx], edx
$LN1@Adjust_man:

; 221  : }

	add	esp, 16					; 00000010H
	cmp	ebp, esp
	call	__RTC_CheckEsp
	mov	esp, ebp
	pop	ebp
	ret	0
?_Adjust_manually_vector_aligned@std@@YAXAAPAXAAI@Z ENDP ; std::_Adjust_manually_vector_aligned
_TEXT	ENDS
; Function compile flags: /Odtp /RTCsu
;	COMDAT ??_Gexception@std@@UAEPAXI@Z
_TEXT	SEGMENT
_this$ = -4						; size = 4
___flags$ = 8						; size = 4
??_Gexception@std@@UAEPAXI@Z PROC			; std::exception::`scalar deleting destructor', COMDAT
; _this$ = ecx
	push	ebp
	mov	ebp, esp
	push	ecx
	mov	DWORD PTR [ebp-4], -858993460		; ccccccccH
	mov	DWORD PTR _this$[ebp], ecx
	mov	ecx, DWORD PTR _this$[ebp]
	call	??1exception@std@@UAE@XZ		; std::exception::~exception
	mov	eax, DWORD PTR ___flags$[ebp]
	and	eax, 1
	je	SHORT $LN2@scalar
	push	12					; 0000000cH
	mov	ecx, DWORD PTR _this$[ebp]
	push	ecx
	call	??3@YAXPAXI@Z				; operator delete
	add	esp, 8
$LN2@scalar:
	mov	eax, DWORD PTR _this$[ebp]
	add	esp, 4
	cmp	ebp, esp
	call	__RTC_CheckEsp
	mov	esp, ebp
	pop	ebp
	ret	4
??_Gexception@std@@UAEPAXI@Z ENDP			; std::exception::`scalar deleting destructor'
_TEXT	ENDS
; Function compile flags: /Odtp /RTCsu
; File C:\Program Files\Microsoft Visual Studio\2022\Community\VC\Tools\MSVC\14.44.35207\include\vcruntime_exception.h
;	COMDAT ?what@exception@std@@UBEPBDXZ
_TEXT	SEGMENT
tv69 = -8						; size = 4
_this$ = -4						; size = 4
?what@exception@std@@UBEPBDXZ PROC			; std::exception::what, COMDAT
; _this$ = ecx

; 95   :     {

	push	ebp
	mov	ebp, esp
	sub	esp, 8
	mov	DWORD PTR _this$[ebp], ecx

; 96   :         return _Data._What ? _Data._What : "Unknown exception";

	mov	eax, DWORD PTR _this$[ebp]
	cmp	DWORD PTR [eax+4], 0
	je	SHORT $LN3@what
	mov	ecx, DWORD PTR _this$[ebp]
	mov	edx, DWORD PTR [ecx+4]
	mov	DWORD PTR tv69[ebp], edx
	jmp	SHORT $LN4@what
$LN3@what:
	mov	DWORD PTR tv69[ebp], OFFSET ??_C@_0BC@EOODALEL@Unknown?5exception@
$LN4@what:
	mov	eax, DWORD PTR tv69[ebp]

; 97   :     }

	mov	esp, ebp
	pop	ebp
	ret	0
?what@exception@std@@UBEPBDXZ ENDP			; std::exception::what
_TEXT	ENDS
; Function compile flags: /Odtp /RTCsu
; File C:\Program Files\Microsoft Visual Studio\2022\Community\VC\Tools\MSVC\14.44.35207\include\vcruntime_exception.h
;	COMDAT ??1exception@std@@UAE@XZ
_TEXT	SEGMENT
_this$ = -4						; size = 4
??1exception@std@@UAE@XZ PROC				; std::exception::~exception, COMDAT
; _this$ = ecx

; 90   :     {

	push	ebp
	mov	ebp, esp
	push	ecx
	mov	DWORD PTR [ebp-4], -858993460		; ccccccccH
	mov	DWORD PTR _this$[ebp], ecx
	mov	eax, DWORD PTR _this$[ebp]
	mov	DWORD PTR [eax], OFFSET ??_7exception@std@@6B@

; 91   :         __std_exception_destroy(&_Data);

	mov	ecx, DWORD PTR _this$[ebp]
	add	ecx, 4
	push	ecx
	call	___std_exception_destroy
	add	esp, 4

; 92   :     }

	add	esp, 4
	cmp	ebp, esp
	call	__RTC_CheckEsp
	mov	esp, ebp
	pop	ebp
	ret	0
??1exception@std@@UAE@XZ ENDP				; std::exception::~exception
_TEXT	ENDS
; Function compile flags: /Odtp /RTCsu
; File C:\Program Files\Microsoft Visual Studio\2022\Community\VC\Tools\MSVC\14.44.35207\include\vcruntime_exception.h
;	COMDAT ??0exception@std@@QAE@ABV01@@Z
_TEXT	SEGMENT
_this$ = -4						; size = 4
__Other$ = 8						; size = 4
??0exception@std@@QAE@ABV01@@Z PROC			; std::exception::exception, COMDAT
; _this$ = ecx

; 73   :     {

	push	ebp
	mov	ebp, esp
	push	ecx
	mov	DWORD PTR [ebp-4], -858993460		; ccccccccH
	mov	DWORD PTR _this$[ebp], ecx
	mov	eax, DWORD PTR _this$[ebp]
	mov	DWORD PTR [eax], OFFSET ??_7exception@std@@6B@

; 72   :         : _Data()

	xor	ecx, ecx
	mov	edx, DWORD PTR _this$[ebp]
	add	edx, 4
	mov	DWORD PTR [edx], ecx
	mov	DWORD PTR [edx+4], ecx

; 74   :         __std_exception_copy(&_Other._Data, &_Data);

	mov	eax, DWORD PTR _this$[ebp]
	add	eax, 4
	push	eax
	mov	ecx, DWORD PTR __Other$[ebp]
	add	ecx, 4
	push	ecx
	call	___std_exception_copy
	add	esp, 8

; 75   :     }

	mov	eax, DWORD PTR _this$[ebp]
	add	esp, 4
	cmp	ebp, esp
	call	__RTC_CheckEsp
	mov	esp, ebp
	pop	ebp
	ret	4
??0exception@std@@QAE@ABV01@@Z ENDP			; std::exception::exception
_TEXT	ENDS
; Function compile flags: /Odtp /RTCsu
; File C:\Program Files\Microsoft Visual Studio\2022\Community\VC\Tools\MSVC\14.44.35207\include\vcruntime_exception.h
;	COMDAT ??0exception@std@@QAE@QBD@Z
_TEXT	SEGMENT
__InitData$ = -16					; size = 8
_this$ = -4						; size = 4
__Message$ = 8						; size = 4
??0exception@std@@QAE@QBD@Z PROC			; std::exception::exception, COMDAT
; _this$ = ecx

; 60   :     {

	push	ebp
	mov	ebp, esp
	sub	esp, 20					; 00000014H
	mov	eax, -858993460				; ccccccccH
	mov	DWORD PTR [ebp-20], eax
	mov	DWORD PTR [ebp-16], eax
	mov	DWORD PTR [ebp-12], eax
	mov	DWORD PTR [ebp-8], eax
	mov	DWORD PTR [ebp-4], eax
	mov	DWORD PTR _this$[ebp], ecx
	mov	eax, DWORD PTR _this$[ebp]
	mov	DWORD PTR [eax], OFFSET ??_7exception@std@@6B@

; 59   :         : _Data()

	xor	ecx, ecx
	mov	edx, DWORD PTR _this$[ebp]
	add	edx, 4
	mov	DWORD PTR [edx], ecx
	mov	DWORD PTR [edx+4], ecx

; 61   :         __std_exception_data _InitData = { _Message, true };

	mov	eax, DWORD PTR __Message$[ebp]
	mov	DWORD PTR __InitData$[ebp], eax
	mov	BYTE PTR __InitData$[ebp+4], 1

; 62   :         __std_exception_copy(&_InitData, &_Data);

	mov	ecx, DWORD PTR _this$[ebp]
	add	ecx, 4
	push	ecx
	lea	edx, DWORD PTR __InitData$[ebp]
	push	edx
	call	___std_exception_copy
	add	esp, 8

; 63   :     }

	mov	eax, DWORD PTR _this$[ebp]
	push	edx
	mov	ecx, ebp
	push	eax
	lea	edx, DWORD PTR $LN6@exception
	call	@_RTC_CheckStackVars@8
	pop	eax
	pop	edx
	add	esp, 20					; 00000014H
	cmp	ebp, esp
	call	__RTC_CheckEsp
	mov	esp, ebp
	pop	ebp
	ret	4
$LN6@exception:
	DD	1
	DD	$LN5@exception
$LN5@exception:
	DD	-16					; fffffff0H
	DD	8
	DD	$LN4@exception
$LN4@exception:
	DB	95					; 0000005fH
	DB	73					; 00000049H
	DB	110					; 0000006eH
	DB	105					; 00000069H
	DB	116					; 00000074H
	DB	68					; 00000044H
	DB	97					; 00000061H
	DB	116					; 00000074H
	DB	97					; 00000061H
	DB	0
??0exception@std@@QAE@QBD@Z ENDP			; std::exception::exception
_TEXT	ENDS
; Function compile flags: /Odtp /RTCsu
; File C:\Program Files\Microsoft Visual Studio\2022\Community\VC\Tools\MSVC\14.44.35207\include\__msvc_string_view.hpp
;	COMDAT ?assign@?$_Narrow_char_traits@DH@std@@SAXAADABD@Z
_TEXT	SEGMENT
__Left$ = 8						; size = 4
__Right$ = 12						; size = 4
?assign@?$_Narrow_char_traits@DH@std@@SAXAADABD@Z PROC	; std::_Narrow_char_traits<char,int>::assign, COMDAT

; 496  :     static _CONSTEXPR17 void assign(_Elem& _Left, const _Elem& _Right) noexcept {

	push	ebp
	mov	ebp, esp

; 497  : #if _HAS_CXX20
; 498  :         if (_STD is_constant_evaluated()) {
; 499  :             return _Primary_char_traits::assign(_Left, _Right);
; 500  :         }
; 501  : #endif // _HAS_CXX20
; 502  :         _Left = _Right;

	mov	eax, DWORD PTR __Left$[ebp]
	mov	ecx, DWORD PTR __Right$[ebp]
	mov	dl, BYTE PTR [ecx]
	mov	BYTE PTR [eax], dl

; 503  :     }

	pop	ebp
	ret	0
?assign@?$_Narrow_char_traits@DH@std@@SAXAADABD@Z ENDP	; std::_Narrow_char_traits<char,int>::assign
_TEXT	ENDS
; Function compile flags: /Odtp /RTCsu
; File C:\Users\Hamzzi\Desktop\AI_Practice\Source\VS2010\Buckland_Chapter7 to 10_Raven\goals\Goal_AdjustRange.cpp
;	COMDAT ?__empty_global_delete@@YAXPAXI@Z
_TEXT	SEGMENT
___formal$ = 8						; size = 4
___formal$ = 12						; size = 4
?__empty_global_delete@@YAXPAXI@Z PROC			; __empty_global_delete, COMDAT

	push	ebp
	mov	ebp, esp
	pop	ebp
	ret	0
?__empty_global_delete@@YAXPAXI@Z ENDP			; __empty_global_delete
_TEXT	ENDS
; Function compile flags: /Odtp /RTCsu
; File C:\Users\Hamzzi\Desktop\AI_Practice\Source\VS2010\Buckland_Chapter7 to 10_Raven\goals\Goal_AdjustRange.cpp
;	COMDAT ?__empty_global_delete@@YAXPAX@Z
_TEXT	SEGMENT
___formal$ = 8						; size = 4
?__empty_global_delete@@YAXPAX@Z PROC			; __empty_global_delete, COMDAT

	push	ebp
	mov	ebp, esp
	pop	ebp
	ret	0
?__empty_global_delete@@YAXPAX@Z ENDP			; __empty_global_delete
_TEXT	ENDS
END
