; Listing generated by Microsoft (R) Optimizing Compiler Version 19.44.35217.0 

	TITLE	C:\Users\Hamzzi\Desktop\AI_Practice\Source\VS2010\Buckland_Chapter7 to 10_Raven\Debug\Goal_FollowPath.obj
	.686P
	.XMM
	include listing.inc
	.model	flat

INCLUDELIB LIBCMTD
INCLUDELIB OLDNAMES

PUBLIC	__Avx2WmemEnabledWeakValue
;	COMDAT __Avx2WmemEnabledWeakValue
_BSS	SEGMENT
__Avx2WmemEnabledWeakValue DD 01H DUP (?)
_BSS	ENDS
CONST	SEGMENT
?_Valid_strftime_specifiers@std@@3QBDB DB 061H		; std::_Valid_strftime_specifiers
	DB	041H
	DB	062H
	DB	042H
	DB	063H
	DB	043H
	DB	064H
	DB	044H
	DB	065H
	DB	046H
	DB	067H
	DB	047H
	DB	068H
	DB	048H
	DB	049H
	DB	06aH
	DB	06dH
	DB	04dH
	DB	06eH
	DB	070H
	DB	072H
	DB	052H
	DB	053H
	DB	074H
	DB	054H
	DB	075H
	DB	055H
	DB	056H
	DB	077H
	DB	057H
	DB	078H
	DB	058H
	DB	079H
	DB	059H
	DB	07aH
	DB	05aH
$SG209999 DB	'<Goal_FollowPath::Activate>: Unrecognized edge type', 00H
?colors@@3QBKB DD 0ffH					; colors
	DD	0ff0000H
	DD	0ff00H
	DD	00H
	DD	0c8c8ffH
	DD	0c8c8c8H
	DD	0ffffH
	DD	0aaffH
	DD	0aa00ffH
	DD	05a85H
	DD	0ffffffH
	DD	06400H
	DD	0ffff00H
	DD	0c8c8c8H
	DD	0e6e6ffH
$SG220120 DB	'invalid argument', 00H
	ORG $+3
$SG220121 DB	'%s', 00H
	ORG $+5
$SG220122 DB	'C:\Program Files\Microsoft Visual Studio\2022\Community\'
	DB	'VC\Tools\MSVC\14.44.35207\include\xmemory', 00H
	ORG $+6
$SG220791 DB	'C:\Program Files\Microsoft Visual Studio\2022\Community\'
	DB	'VC\Tools\MSVC\14.44.35207\include\xlocale', 00H
CONST	ENDS
PUBLIC	?__empty_global_delete@@YAXPAX@Z		; __empty_global_delete
PUBLIC	?__empty_global_delete@@YAXPAXI@Z		; __empty_global_delete
PUBLIC	?epsilon@?$numeric_limits@N@std@@SANXZ		; std::numeric_limits<double>::epsilon
PUBLIC	??2@YAPAXIPAX@Z					; operator new
PUBLIC	??0exception@std@@QAE@QBD@Z			; std::exception::exception
PUBLIC	??0exception@std@@QAE@QBDH@Z			; std::exception::exception
PUBLIC	??0exception@std@@QAE@ABV01@@Z			; std::exception::exception
PUBLIC	??1exception@std@@UAE@XZ			; std::exception::~exception
PUBLIC	?what@exception@std@@UBEPBDXZ			; std::exception::what
PUBLIC	??_Gexception@std@@UAEPAXI@Z			; std::exception::`scalar deleting destructor'
PUBLIC	??0bad_alloc@std@@AAE@QBD@Z			; std::bad_alloc::bad_alloc
PUBLIC	??1bad_alloc@std@@UAE@XZ			; std::bad_alloc::~bad_alloc
PUBLIC	??0bad_alloc@std@@QAE@ABV01@@Z			; std::bad_alloc::bad_alloc
PUBLIC	??_Gbad_alloc@std@@UAEPAXI@Z			; std::bad_alloc::`scalar deleting destructor'
PUBLIC	??0bad_array_new_length@std@@QAE@XZ		; std::bad_array_new_length::bad_array_new_length
PUBLIC	??1bad_array_new_length@std@@UAE@XZ		; std::bad_array_new_length::~bad_array_new_length
PUBLIC	??0bad_array_new_length@std@@QAE@ABV01@@Z	; std::bad_array_new_length::bad_array_new_length
PUBLIC	??_Gbad_array_new_length@std@@UAEPAXI@Z		; std::bad_array_new_length::`scalar deleting destructor'
PUBLIC	?_Throw_bad_array_new_length@std@@YAXXZ		; std::_Throw_bad_array_new_length
PUBLIC	?_Allocate@_Default_allocate_traits@std@@SAPAXI@Z ; std::_Default_allocate_traits::_Allocate
PUBLIC	?_Adjust_manually_vector_aligned@std@@YAXAAPAXAAI@Z ; std::_Adjust_manually_vector_aligned
PUBLIC	?_Adopt@_Iterator_base0@std@@QAEXPBX@Z		; std::_Iterator_base0::_Adopt
PUBLIC	??0_Container_proxy@std@@QAE@PAU_Container_base12@1@@Z ; std::_Container_proxy::_Container_proxy
PUBLIC	??0_Container_base12@std@@QAE@XZ		; std::_Container_base12::_Container_base12
PUBLIC	?_Orphan_all@_Container_base12@std@@QAEXXZ	; std::_Container_base12::_Orphan_all
PUBLIC	?_Orphan_all_unlocked_v3@_Container_base12@std@@AAEXXZ ; std::_Container_base12::_Orphan_all_unlocked_v3
PUBLIC	?_Orphan_all_locked_v3@_Container_base12@std@@AAEXXZ ; std::_Container_base12::_Orphan_all_locked_v3
PUBLIC	??0_Iterator_base12@std@@QAE@XZ			; std::_Iterator_base12::_Iterator_base12
PUBLIC	??0_Iterator_base12@std@@QAE@ABU01@@Z		; std::_Iterator_base12::_Iterator_base12
PUBLIC	??4_Iterator_base12@std@@QAEAAU01@ABU01@@Z	; std::_Iterator_base12::operator=
PUBLIC	??1_Iterator_base12@std@@QAE@XZ			; std::_Iterator_base12::~_Iterator_base12
PUBLIC	?_Adopt@_Iterator_base12@std@@QAEXPBU_Container_base12@2@@Z ; std::_Iterator_base12::_Adopt
PUBLIC	?_Getcont@_Iterator_base12@std@@QBEPBU_Container_base12@2@XZ ; std::_Iterator_base12::_Getcont
PUBLIC	?_Assign_unlocked@_Iterator_base12@std@@AAEXABU12@@Z ; std::_Iterator_base12::_Assign_unlocked
PUBLIC	?_Assign_locked@_Iterator_base12@std@@AAEXABU12@@Z ; std::_Iterator_base12::_Assign_locked
PUBLIC	?_Adopt_unlocked@_Iterator_base12@std@@AAEXPBU_Container_base12@2@@Z ; std::_Iterator_base12::_Adopt_unlocked
PUBLIC	?_Adopt_locked@_Iterator_base12@std@@AAEXPBU_Container_base12@2@@Z ; std::_Iterator_base12::_Adopt_locked
PUBLIC	?_Orphan_me_unlocked_v3@_Iterator_base12@std@@AAEXXZ ; std::_Iterator_base12::_Orphan_me_unlocked_v3
PUBLIC	?_Orphan_me_locked_v3@_Iterator_base12@std@@AAEXXZ ; std::_Iterator_base12::_Orphan_me_locked_v3
PUBLIC	??$exchange@PAU_Iterator_base12@std@@$$T@std@@YAPAU_Iterator_base12@0@AAPAU10@$$QA$$T@Z ; std::exchange<std::_Iterator_base12 *,std::nullptr_t>
PUBLIC	?_Release@_Basic_container_proxy_ptr12@std@@QAEXXZ ; std::_Basic_container_proxy_ptr12::_Release
PUBLIC	??0_Basic_container_proxy_ptr12@std@@IAE@XZ	; std::_Basic_container_proxy_ptr12::_Basic_container_proxy_ptr12
PUBLIC	?assign@?$_Narrow_char_traits@DH@std@@SAXAADABD@Z ; std::_Narrow_char_traits<char,int>::assign
PUBLIC	?deallocate@?$allocator@D@std@@QAEXQADI@Z	; std::allocator<char>::deallocate
PUBLIC	?_Myptr@?$_String_val@U?$_Simple_types@D@std@@@std@@QBEPBDXZ ; std::_String_val<std::_Simple_types<char> >::_Myptr
PUBLIC	?_Large_mode_engaged@?$_String_val@U?$_Simple_types@D@std@@@std@@QBE_NXZ ; std::_String_val<std::_Simple_types<char> >::_Large_mode_engaged
PUBLIC	??1_Bxty@?$_String_val@U?$_Simple_types@D@std@@@std@@QAE@XZ ; std::_String_val<std::_Simple_types<char> >::_Bxty::~_Bxty
PUBLIC	?_Switch_to_buf@_Bxty@?$_String_val@U?$_Simple_types@D@std@@@std@@QAEXXZ ; std::_String_val<std::_Simple_types<char> >::_Bxty::_Switch_to_buf
PUBLIC	??1?$_String_val@U?$_Simple_types@D@std@@@std@@QAE@XZ ; std::_String_val<std::_Simple_types<char> >::~_String_val<std::_Simple_types<char> >
PUBLIC	?_Deallocate_for_capacity@?$basic_string@DU?$char_traits@D@std@@V?$allocator@D@2@@std@@CAXAAV?$allocator@D@2@QADI@Z ; std::basic_string<char,std::char_traits<char>,std::allocator<char> >::_Deallocate_for_capacity
PUBLIC	??1?$basic_string@DU?$char_traits@D@std@@V?$allocator@D@2@@std@@QAE@XZ ; std::basic_string<char,std::char_traits<char>,std::allocator<char> >::~basic_string<char,std::char_traits<char>,std::allocator<char> >
PUBLIC	?c_str@?$basic_string@DU?$char_traits@D@std@@V?$allocator@D@2@@std@@QBEPBDXZ ; std::basic_string<char,std::char_traits<char>,std::allocator<char> >::c_str
PUBLIC	?size@?$basic_string@DU?$char_traits@D@std@@V?$allocator@D@2@@std@@QBEIXZ ; std::basic_string<char,std::char_traits<char>,std::allocator<char> >::size
PUBLIC	?_Tidy_deallocate@?$basic_string@DU?$char_traits@D@std@@V?$allocator@D@2@@std@@AAEXXZ ; std::basic_string<char,std::char_traits<char>,std::allocator<char> >::_Tidy_deallocate
PUBLIC	?_Getal@?$basic_string@DU?$char_traits@D@std@@V?$allocator@D@2@@std@@AAEAAV?$allocator@D@2@XZ ; std::basic_string<char,std::char_traits<char>,std::allocator<char> >::_Getal
PUBLIC	?_Get_first@?$_Compressed_pair@V?$allocator@D@std@@V?$_String_val@U?$_Simple_types@D@std@@@2@$00@std@@QAEAAV?$allocator@D@2@XZ ; std::_Compressed_pair<std::allocator<char>,std::_String_val<std::_Simple_types<char> >,1>::_Get_first
PUBLIC	??1?$_Compressed_pair@V?$allocator@D@std@@V?$_String_val@U?$_Simple_types@D@std@@@2@$00@std@@QAE@XZ ; std::_Compressed_pair<std::allocator<char>,std::_String_val<std::_Simple_types<char> >,1>::~_Compressed_pair<std::allocator<char>,std::_String_val<std::_Simple_types<char> >,1>
PUBLIC	??0runtime_error@std@@QAE@PBD@Z			; std::runtime_error::runtime_error
PUBLIC	??1runtime_error@std@@UAE@XZ			; std::runtime_error::~runtime_error
PUBLIC	??0runtime_error@std@@QAE@ABV01@@Z		; std::runtime_error::runtime_error
PUBLIC	??_Gruntime_error@std@@UAEPAXI@Z		; std::runtime_error::`scalar deleting destructor'
PUBLIC	??0Vector2D@@QAE@NN@Z				; Vector2D::Vector2D
PUBLIC	?Length@Vector2D@@QBENXZ			; Vector2D::Length
PUBLIC	?Perp@Vector2D@@QBE?AU1@XZ			; Vector2D::Perp
PUBLIC	??XVector2D@@QAEABU0@ABN@Z			; Vector2D::operator*=
PUBLIC	??D@YA?AUVector2D@@ABU0@N@Z			; operator*
PUBLIC	??G@YA?AUVector2D@@ABU0@0@Z			; operator-
PUBLIC	??H@YA?AUVector2D@@ABU0@0@Z			; operator+
PUBLIC	?Vec2DNormalize@@YA?AUVector2D@@ABU1@@Z		; Vec2DNormalize
PUBLIC	?VectorToPOINT@@YA?AUtagPOINT@@ABUVector2D@@@Z	; VectorToPOINT
PUBLIC	?BlackPen@Cgdi@@QAEXXZ				; Cgdi::BlackPen
PUBLIC	?RedBrush@Cgdi@@QAEXXZ				; Cgdi::RedBrush
PUBLIC	?TextAtPos@Cgdi@@QAEXNNABV?$basic_string@DU?$char_traits@D@std@@V?$allocator@D@2@@std@@@Z ; Cgdi::TextAtPos
PUBLIC	?TransparentText@Cgdi@@QAEXXZ			; Cgdi::TransparentText
PUBLIC	?TextColor@Cgdi@@QAEXHHH@Z			; Cgdi::TextColor
PUBLIC	?LineWithArrow@Cgdi@@QAEXUVector2D@@0N@Z	; Cgdi::LineWithArrow
PUBLIC	?Circle@Cgdi@@QAEXUVector2D@@N@Z		; Cgdi::Circle
PUBLIC	?Destination@PathEdge@@QBE?AUVector2D@@XZ	; PathEdge::Destination
PUBLIC	?Source@PathEdge@@QBE?AUVector2D@@XZ		; PathEdge::Source
PUBLIC	?Behavior@PathEdge@@QBEHXZ			; PathEdge::Behavior
PUBLIC	?ActivateIfInactive@?$Goal@VRaven_Bot@@@@IAEXXZ	; Goal<Raven_Bot>::ActivateIfInactive
PUBLIC	??0?$Goal@VRaven_Bot@@@@QAE@PAVRaven_Bot@@H@Z	; Goal<Raven_Bot>::Goal<Raven_Bot>
PUBLIC	??1?$Goal@VRaven_Bot@@@@UAE@XZ			; Goal<Raven_Bot>::~Goal<Raven_Bot>
PUBLIC	?HandleMessage@?$Goal@VRaven_Bot@@@@UAE_NABUTelegram@@@Z ; Goal<Raven_Bot>::HandleMessage
PUBLIC	?AddSubgoal@?$Goal@VRaven_Bot@@@@UAEXPAV1@@Z	; Goal<Raven_Bot>::AddSubgoal
PUBLIC	?isComplete@?$Goal@VRaven_Bot@@@@QBE_NXZ	; Goal<Raven_Bot>::isComplete
PUBLIC	?isActive@?$Goal@VRaven_Bot@@@@QBE_NXZ		; Goal<Raven_Bot>::isActive
PUBLIC	?isInactive@?$Goal@VRaven_Bot@@@@QBE_NXZ	; Goal<Raven_Bot>::isInactive
PUBLIC	?hasFailed@?$Goal@VRaven_Bot@@@@QBE_NXZ		; Goal<Raven_Bot>::hasFailed
PUBLIC	?GetType@?$Goal@VRaven_Bot@@@@QBEHXZ		; Goal<Raven_Bot>::GetType
PUBLIC	?RenderAtPos@?$Goal@VRaven_Bot@@@@UBEXAAUVector2D@@PAVTypeToString@@@Z ; Goal<Raven_Bot>::RenderAtPos
PUBLIC	?Render@?$Goal@VRaven_Bot@@@@UAEXXZ		; Goal<Raven_Bot>::Render
PUBLIC	??_G?$Goal@VRaven_Bot@@@@UAEPAXI@Z		; Goal<Raven_Bot>::`scalar deleting destructor'
PUBLIC	??0?$allocator@U?$_List_node@PAV?$Goal@VRaven_Bot@@@@PAX@std@@@std@@QAE@XZ ; std::allocator<std::_List_node<Goal<Raven_Bot> *,void *> >::allocator<std::_List_node<Goal<Raven_Bot> *,void *> >
PUBLIC	?deallocate@?$allocator@U?$_List_node@PAV?$Goal@VRaven_Bot@@@@PAX@std@@@std@@QAEXQAU?$_List_node@PAV?$Goal@VRaven_Bot@@@@PAX@2@I@Z ; std::allocator<std::_List_node<Goal<Raven_Bot> *,void *> >::deallocate
PUBLIC	?allocate@?$allocator@U?$_List_node@PAV?$Goal@VRaven_Bot@@@@PAX@std@@@std@@QAEPAU?$_List_node@PAV?$Goal@VRaven_Bot@@@@PAX@2@I@Z ; std::allocator<std::_List_node<Goal<Raven_Bot> *,void *> >::allocate
PUBLIC	?deallocate@?$_Default_allocator_traits@V?$allocator@U?$_List_node@PAV?$Goal@VRaven_Bot@@@@PAX@std@@@std@@@std@@SAXAAV?$allocator@U?$_List_node@PAV?$Goal@VRaven_Bot@@@@PAX@std@@@2@QAU?$_List_node@PAV?$Goal@VRaven_Bot@@@@PAX@2@I@Z ; std::_Default_allocator_traits<std::allocator<std::_List_node<Goal<Raven_Bot> *,void *> > >::deallocate
PUBLIC	?max_size@?$_Default_allocator_traits@V?$allocator@U?$_List_node@PAV?$Goal@VRaven_Bot@@@@PAX@std@@@std@@@std@@SAIABV?$allocator@U?$_List_node@PAV?$Goal@VRaven_Bot@@@@PAX@std@@@2@@Z ; std::_Default_allocator_traits<std::allocator<std::_List_node<Goal<Raven_Bot> *,void *> > >::max_size
PUBLIC	??0?$list@PAV?$Goal@VRaven_Bot@@@@V?$allocator@PAV?$Goal@VRaven_Bot@@@@@std@@@std@@QAE@XZ ; std::list<Goal<Raven_Bot> *,std::allocator<Goal<Raven_Bot> *> >::list<Goal<Raven_Bot> *,std::allocator<Goal<Raven_Bot> *> >
PUBLIC	??1?$list@PAV?$Goal@VRaven_Bot@@@@V?$allocator@PAV?$Goal@VRaven_Bot@@@@@std@@@std@@QAE@XZ ; std::list<Goal<Raven_Bot> *,std::allocator<Goal<Raven_Bot> *> >::~list<Goal<Raven_Bot> *,std::allocator<Goal<Raven_Bot> *> >
PUBLIC	?begin@?$list@PAV?$Goal@VRaven_Bot@@@@V?$allocator@PAV?$Goal@VRaven_Bot@@@@@std@@@std@@QAE?AV?$_List_iterator@V?$_List_val@U?$_List_simple_types@PAV?$Goal@VRaven_Bot@@@@@std@@@std@@@2@XZ ; std::list<Goal<Raven_Bot> *,std::allocator<Goal<Raven_Bot> *> >::begin
PUBLIC	?begin@?$list@PAV?$Goal@VRaven_Bot@@@@V?$allocator@PAV?$Goal@VRaven_Bot@@@@@std@@@std@@QBE?AV?$_List_const_iterator@V?$_List_val@U?$_List_simple_types@PAV?$Goal@VRaven_Bot@@@@@std@@@std@@@2@XZ ; std::list<Goal<Raven_Bot> *,std::allocator<Goal<Raven_Bot> *> >::begin
PUBLIC	?end@?$list@PAV?$Goal@VRaven_Bot@@@@V?$allocator@PAV?$Goal@VRaven_Bot@@@@@std@@@std@@QAE?AV?$_List_iterator@V?$_List_val@U?$_List_simple_types@PAV?$Goal@VRaven_Bot@@@@@std@@@std@@@2@XZ ; std::list<Goal<Raven_Bot> *,std::allocator<Goal<Raven_Bot> *> >::end
PUBLIC	?end@?$list@PAV?$Goal@VRaven_Bot@@@@V?$allocator@PAV?$Goal@VRaven_Bot@@@@@std@@@std@@QBE?AV?$_List_const_iterator@V?$_List_val@U?$_List_simple_types@PAV?$Goal@VRaven_Bot@@@@@std@@@std@@@2@XZ ; std::list<Goal<Raven_Bot> *,std::allocator<Goal<Raven_Bot> *> >::end
PUBLIC	?rbegin@?$list@PAV?$Goal@VRaven_Bot@@@@V?$allocator@PAV?$Goal@VRaven_Bot@@@@@std@@@std@@QBE?AV?$reverse_iterator@V?$_List_const_iterator@V?$_List_val@U?$_List_simple_types@PAV?$Goal@VRaven_Bot@@@@@std@@@std@@@std@@@2@XZ ; std::list<Goal<Raven_Bot> *,std::allocator<Goal<Raven_Bot> *> >::rbegin
PUBLIC	?rend@?$list@PAV?$Goal@VRaven_Bot@@@@V?$allocator@PAV?$Goal@VRaven_Bot@@@@@std@@@std@@QBE?AV?$reverse_iterator@V?$_List_const_iterator@V?$_List_val@U?$_List_simple_types@PAV?$Goal@VRaven_Bot@@@@@std@@@std@@@std@@@2@XZ ; std::list<Goal<Raven_Bot> *,std::allocator<Goal<Raven_Bot> *> >::rend
PUBLIC	?size@?$list@PAV?$Goal@VRaven_Bot@@@@V?$allocator@PAV?$Goal@VRaven_Bot@@@@@std@@@std@@QBEIXZ ; std::list<Goal<Raven_Bot> *,std::allocator<Goal<Raven_Bot> *> >::size
PUBLIC	?max_size@?$list@PAV?$Goal@VRaven_Bot@@@@V?$allocator@PAV?$Goal@VRaven_Bot@@@@@std@@@std@@QBEIXZ ; std::list<Goal<Raven_Bot> *,std::allocator<Goal<Raven_Bot> *> >::max_size
PUBLIC	?empty@?$list@PAV?$Goal@VRaven_Bot@@@@V?$allocator@PAV?$Goal@VRaven_Bot@@@@@std@@@std@@QBE_NXZ ; std::list<Goal<Raven_Bot> *,std::allocator<Goal<Raven_Bot> *> >::empty
PUBLIC	?front@?$list@PAV?$Goal@VRaven_Bot@@@@V?$allocator@PAV?$Goal@VRaven_Bot@@@@@std@@@std@@QAEAAPAV?$Goal@VRaven_Bot@@@@XZ ; std::list<Goal<Raven_Bot> *,std::allocator<Goal<Raven_Bot> *> >::front
PUBLIC	?push_front@?$list@PAV?$Goal@VRaven_Bot@@@@V?$allocator@PAV?$Goal@VRaven_Bot@@@@@std@@@std@@QAEXABQAV?$Goal@VRaven_Bot@@@@@Z ; std::list<Goal<Raven_Bot> *,std::allocator<Goal<Raven_Bot> *> >::push_front
PUBLIC	?pop_front@?$list@PAV?$Goal@VRaven_Bot@@@@V?$allocator@PAV?$Goal@VRaven_Bot@@@@@std@@@std@@QAEXXZ ; std::list<Goal<Raven_Bot> *,std::allocator<Goal<Raven_Bot> *> >::pop_front
PUBLIC	?_Unchecked_erase@?$list@PAV?$Goal@VRaven_Bot@@@@V?$allocator@PAV?$Goal@VRaven_Bot@@@@@std@@@std@@AAEPAU?$_List_node@PAV?$Goal@VRaven_Bot@@@@PAX@2@QAU32@@Z ; std::list<Goal<Raven_Bot> *,std::allocator<Goal<Raven_Bot> *> >::_Unchecked_erase
PUBLIC	?clear@?$list@PAV?$Goal@VRaven_Bot@@@@V?$allocator@PAV?$Goal@VRaven_Bot@@@@@std@@@std@@QAEXXZ ; std::list<Goal<Raven_Bot> *,std::allocator<Goal<Raven_Bot> *> >::clear
PUBLIC	?_Tidy@?$list@PAV?$Goal@VRaven_Bot@@@@V?$allocator@PAV?$Goal@VRaven_Bot@@@@@std@@@std@@AAEXXZ ; std::list<Goal<Raven_Bot> *,std::allocator<Goal<Raven_Bot> *> >::_Tidy
PUBLIC	?_Alloc_sentinel_and_proxy@?$list@PAV?$Goal@VRaven_Bot@@@@V?$allocator@PAV?$Goal@VRaven_Bot@@@@@std@@@std@@AAEXXZ ; std::list<Goal<Raven_Bot> *,std::allocator<Goal<Raven_Bot> *> >::_Alloc_sentinel_and_proxy
PUBLIC	?_Getal@?$list@PAV?$Goal@VRaven_Bot@@@@V?$allocator@PAV?$Goal@VRaven_Bot@@@@@std@@@std@@AAEAAV?$allocator@U?$_List_node@PAV?$Goal@VRaven_Bot@@@@PAX@std@@@2@XZ ; std::list<Goal<Raven_Bot> *,std::allocator<Goal<Raven_Bot> *> >::_Getal
PUBLIC	?_Getal@?$list@PAV?$Goal@VRaven_Bot@@@@V?$allocator@PAV?$Goal@VRaven_Bot@@@@@std@@@std@@ABEABV?$allocator@U?$_List_node@PAV?$Goal@VRaven_Bot@@@@PAX@std@@@2@XZ ; std::list<Goal<Raven_Bot> *,std::allocator<Goal<Raven_Bot> *> >::_Getal
PUBLIC	??0?$_List_val@U?$_List_simple_types@PAV?$Goal@VRaven_Bot@@@@@std@@@std@@QAE@XZ ; std::_List_val<std::_List_simple_types<Goal<Raven_Bot> *> >::_List_val<std::_List_simple_types<Goal<Raven_Bot> *> >
PUBLIC	?_Orphan_ptr2@?$_List_val@U?$_List_simple_types@PAV?$Goal@VRaven_Bot@@@@@std@@@std@@QAEXPAU?$_List_node@PAV?$Goal@VRaven_Bot@@@@PAX@2@@Z ; std::_List_val<std::_List_simple_types<Goal<Raven_Bot> *> >::_Orphan_ptr2
PUBLIC	?_Orphan_non_end@?$_List_val@U?$_List_simple_types@PAV?$Goal@VRaven_Bot@@@@@std@@@std@@QAEXXZ ; std::_List_val<std::_List_simple_types<Goal<Raven_Bot> *> >::_Orphan_non_end
PUBLIC	?_Get_first@?$_Compressed_pair@V?$allocator@U?$_List_node@PAV?$Goal@VRaven_Bot@@@@PAX@std@@@std@@V?$_List_val@U?$_List_simple_types@PAV?$Goal@VRaven_Bot@@@@@std@@@2@$00@std@@QAEAAV?$allocator@U?$_List_node@PAV?$Goal@VRaven_Bot@@@@PAX@std@@@2@XZ ; std::_Compressed_pair<std::allocator<std::_List_node<Goal<Raven_Bot> *,void *> >,std::_List_val<std::_List_simple_types<Goal<Raven_Bot> *> >,1>::_Get_first
PUBLIC	?_Get_first@?$_Compressed_pair@V?$allocator@U?$_List_node@PAV?$Goal@VRaven_Bot@@@@PAX@std@@@std@@V?$_List_val@U?$_List_simple_types@PAV?$Goal@VRaven_Bot@@@@@std@@@2@$00@std@@QBEABV?$allocator@U?$_List_node@PAV?$Goal@VRaven_Bot@@@@PAX@std@@@2@XZ ; std::_Compressed_pair<std::allocator<std::_List_node<Goal<Raven_Bot> *,void *> >,std::_List_val<std::_List_simple_types<Goal<Raven_Bot> *> >,1>::_Get_first
PUBLIC	?ProcessSubgoals@?$Goal_Composite@VRaven_Bot@@@@IAEHXZ ; Goal_Composite<Raven_Bot>::ProcessSubgoals
PUBLIC	?ForwardMessageToFrontMostSubgoal@?$Goal_Composite@VRaven_Bot@@@@IAE_NABUTelegram@@@Z ; Goal_Composite<Raven_Bot>::ForwardMessageToFrontMostSubgoal
PUBLIC	??0?$Goal_Composite@VRaven_Bot@@@@QAE@PAVRaven_Bot@@H@Z ; Goal_Composite<Raven_Bot>::Goal_Composite<Raven_Bot>
PUBLIC	??1?$Goal_Composite@VRaven_Bot@@@@UAE@XZ	; Goal_Composite<Raven_Bot>::~Goal_Composite<Raven_Bot>
PUBLIC	?HandleMessage@?$Goal_Composite@VRaven_Bot@@@@UAE_NABUTelegram@@@Z ; Goal_Composite<Raven_Bot>::HandleMessage
PUBLIC	?AddSubgoal@?$Goal_Composite@VRaven_Bot@@@@UAEXPAV?$Goal@VRaven_Bot@@@@@Z ; Goal_Composite<Raven_Bot>::AddSubgoal
PUBLIC	?RemoveAllSubgoals@?$Goal_Composite@VRaven_Bot@@@@QAEXXZ ; Goal_Composite<Raven_Bot>::RemoveAllSubgoals
PUBLIC	?RenderAtPos@?$Goal_Composite@VRaven_Bot@@@@UBEXAAUVector2D@@PAVTypeToString@@@Z ; Goal_Composite<Raven_Bot>::RenderAtPos
PUBLIC	?Render@?$Goal_Composite@VRaven_Bot@@@@UAEXXZ	; Goal_Composite<Raven_Bot>::Render
PUBLIC	??_G?$Goal_Composite@VRaven_Bot@@@@UAEPAXI@Z	; Goal_Composite<Raven_Bot>::`scalar deleting destructor'
PUBLIC	?deallocate@?$allocator@U?$_List_node@VPathEdge@@PAX@std@@@std@@QAEXQAU?$_List_node@VPathEdge@@PAX@2@I@Z ; std::allocator<std::_List_node<PathEdge,void *> >::deallocate
PUBLIC	?allocate@?$allocator@U?$_List_node@VPathEdge@@PAX@std@@@std@@QAEPAU?$_List_node@VPathEdge@@PAX@2@I@Z ; std::allocator<std::_List_node<PathEdge,void *> >::allocate
PUBLIC	?deallocate@?$_Default_allocator_traits@V?$allocator@U?$_List_node@VPathEdge@@PAX@std@@@std@@@std@@SAXAAV?$allocator@U?$_List_node@VPathEdge@@PAX@std@@@2@QAU?$_List_node@VPathEdge@@PAX@2@I@Z ; std::_Default_allocator_traits<std::allocator<std::_List_node<PathEdge,void *> > >::deallocate
PUBLIC	?select_on_container_copy_construction@?$_Default_allocator_traits@V?$allocator@U?$_List_node@VPathEdge@@PAX@std@@@std@@@std@@SA?AV?$allocator@U?$_List_node@VPathEdge@@PAX@std@@@2@ABV32@@Z ; std::_Default_allocator_traits<std::allocator<std::_List_node<PathEdge,void *> > >::select_on_container_copy_construction
PUBLIC	??0?$list@VPathEdge@@V?$allocator@VPathEdge@@@std@@@std@@QAE@ABV01@@Z ; std::list<PathEdge,std::allocator<PathEdge> >::list<PathEdge,std::allocator<PathEdge> >
PUBLIC	??1?$list@VPathEdge@@V?$allocator@VPathEdge@@@std@@@std@@QAE@XZ ; std::list<PathEdge,std::allocator<PathEdge> >::~list<PathEdge,std::allocator<PathEdge> >
PUBLIC	?begin@?$list@VPathEdge@@V?$allocator@VPathEdge@@@std@@@std@@QAE?AV?$_List_iterator@V?$_List_val@U?$_List_simple_types@VPathEdge@@@std@@@std@@@2@XZ ; std::list<PathEdge,std::allocator<PathEdge> >::begin
PUBLIC	?end@?$list@VPathEdge@@V?$allocator@VPathEdge@@@std@@@std@@QAE?AV?$_List_iterator@V?$_List_val@U?$_List_simple_types@VPathEdge@@@std@@@std@@@2@XZ ; std::list<PathEdge,std::allocator<PathEdge> >::end
PUBLIC	?_Unchecked_begin@?$list@VPathEdge@@V?$allocator@VPathEdge@@@std@@@std@@QBE?AV?$_List_unchecked_const_iterator@V?$_List_val@U?$_List_simple_types@VPathEdge@@@std@@@std@@U_Iterator_base0@2@@2@XZ ; std::list<PathEdge,std::allocator<PathEdge> >::_Unchecked_begin
PUBLIC	?_Unchecked_end@?$list@VPathEdge@@V?$allocator@VPathEdge@@@std@@@std@@QBE?AV?$_List_unchecked_const_iterator@V?$_List_val@U?$_List_simple_types@VPathEdge@@@std@@@std@@U_Iterator_base0@2@@2@XZ ; std::list<PathEdge,std::allocator<PathEdge> >::_Unchecked_end
PUBLIC	?empty@?$list@VPathEdge@@V?$allocator@VPathEdge@@@std@@@std@@QBE_NXZ ; std::list<PathEdge,std::allocator<PathEdge> >::empty
PUBLIC	?front@?$list@VPathEdge@@V?$allocator@VPathEdge@@@std@@@std@@QAEAAVPathEdge@@XZ ; std::list<PathEdge,std::allocator<PathEdge> >::front
PUBLIC	?pop_front@?$list@VPathEdge@@V?$allocator@VPathEdge@@@std@@@std@@QAEXXZ ; std::list<PathEdge,std::allocator<PathEdge> >::pop_front
PUBLIC	?_Unchecked_erase@?$list@VPathEdge@@V?$allocator@VPathEdge@@@std@@@std@@AAEPAU?$_List_node@VPathEdge@@PAX@2@QAU32@@Z ; std::list<PathEdge,std::allocator<PathEdge> >::_Unchecked_erase
PUBLIC	?_Tidy@?$list@VPathEdge@@V?$allocator@VPathEdge@@@std@@@std@@AAEXXZ ; std::list<PathEdge,std::allocator<PathEdge> >::_Tidy
PUBLIC	?_Getal@?$list@VPathEdge@@V?$allocator@VPathEdge@@@std@@@std@@AAEAAV?$allocator@U?$_List_node@VPathEdge@@PAX@std@@@2@XZ ; std::list<PathEdge,std::allocator<PathEdge> >::_Getal
PUBLIC	?_Getal@?$list@VPathEdge@@V?$allocator@VPathEdge@@@std@@@std@@ABEABV?$allocator@U?$_List_node@VPathEdge@@PAX@std@@@2@XZ ; std::list<PathEdge,std::allocator<PathEdge> >::_Getal
PUBLIC	??0?$_List_val@U?$_List_simple_types@VPathEdge@@@std@@@std@@QAE@XZ ; std::_List_val<std::_List_simple_types<PathEdge> >::_List_val<std::_List_simple_types<PathEdge> >
PUBLIC	?_Orphan_ptr2@?$_List_val@U?$_List_simple_types@VPathEdge@@@std@@@std@@QAEXPAU?$_List_node@VPathEdge@@PAX@2@@Z ; std::_List_val<std::_List_simple_types<PathEdge> >::_Orphan_ptr2
PUBLIC	?_Get_first@?$_Compressed_pair@V?$allocator@U?$_List_node@VPathEdge@@PAX@std@@@std@@V?$_List_val@U?$_List_simple_types@VPathEdge@@@std@@@2@$00@std@@QAEAAV?$allocator@U?$_List_node@VPathEdge@@PAX@std@@@2@XZ ; std::_Compressed_pair<std::allocator<std::_List_node<PathEdge,void *> >,std::_List_val<std::_List_simple_types<PathEdge> >,1>::_Get_first
PUBLIC	?_Get_first@?$_Compressed_pair@V?$allocator@U?$_List_node@VPathEdge@@PAX@std@@@std@@V?$_List_val@U?$_List_simple_types@VPathEdge@@@std@@@2@$00@std@@QBEABV?$allocator@U?$_List_node@VPathEdge@@PAX@std@@@2@XZ ; std::_Compressed_pair<std::allocator<std::_List_node<PathEdge,void *> >,std::_List_val<std::_List_simple_types<PathEdge> >,1>::_Get_first
PUBLIC	??0Goal_FollowPath@@QAE@PAVRaven_Bot@@V?$list@VPathEdge@@V?$allocator@VPathEdge@@@std@@@std@@@Z ; Goal_FollowPath::Goal_FollowPath
PUBLIC	?Activate@Goal_FollowPath@@UAEXXZ		; Goal_FollowPath::Activate
PUBLIC	?Process@Goal_FollowPath@@UAEHXZ		; Goal_FollowPath::Process
PUBLIC	?Render@Goal_FollowPath@@UAEXXZ			; Goal_FollowPath::Render
PUBLIC	?Terminate@Goal_FollowPath@@UAEXXZ		; Goal_FollowPath::Terminate
PUBLIC	??1Goal_FollowPath@@UAE@XZ			; Goal_FollowPath::~Goal_FollowPath
PUBLIC	??_GGoal_FollowPath@@UAEPAXI@Z			; Goal_FollowPath::`scalar deleting destructor'
PUBLIC	??0?$_List_unchecked_const_iterator@V?$_List_val@U?$_List_simple_types@VPathEdge@@@std@@@std@@U_Iterator_base12@2@@std@@QAE@XZ ; std::_List_unchecked_const_iterator<std::_List_val<std::_List_simple_types<PathEdge> >,std::_Iterator_base12>::_List_unchecked_const_iterator<std::_List_val<std::_List_simple_types<PathEdge> >,std::_Iterator_base12>
PUBLIC	??0?$_List_unchecked_const_iterator@V?$_List_val@U?$_List_simple_types@VPathEdge@@@std@@@std@@U_Iterator_base12@2@@std@@QAE@PAU?$_List_node@VPathEdge@@PAX@1@PBV?$_List_val@U?$_List_simple_types@VPathEdge@@@std@@@1@@Z ; std::_List_unchecked_const_iterator<std::_List_val<std::_List_simple_types<PathEdge> >,std::_Iterator_base12>::_List_unchecked_const_iterator<std::_List_val<std::_List_simple_types<PathEdge> >,std::_Iterator_base12>
PUBLIC	??1?$_List_unchecked_const_iterator@V?$_List_val@U?$_List_simple_types@VPathEdge@@@std@@@std@@U_Iterator_base12@2@@std@@QAE@XZ ; std::_List_unchecked_const_iterator<std::_List_val<std::_List_simple_types<PathEdge> >,std::_Iterator_base12>::~_List_unchecked_const_iterator<std::_List_val<std::_List_simple_types<PathEdge> >,std::_Iterator_base12>
PUBLIC	??4?$_List_unchecked_const_iterator@V?$_List_val@U?$_List_simple_types@VPathEdge@@@std@@@std@@U_Iterator_base12@2@@std@@QAEAAV01@$$QAV01@@Z ; std::_List_unchecked_const_iterator<std::_List_val<std::_List_simple_types<PathEdge> >,std::_Iterator_base12>::operator=
PUBLIC	??D?$_List_const_iterator@V?$_List_val@U?$_List_simple_types@VPathEdge@@@std@@@std@@@std@@QBEABVPathEdge@@XZ ; std::_List_const_iterator<std::_List_val<std::_List_simple_types<PathEdge> > >::operator*
PUBLIC	??E?$_List_const_iterator@V?$_List_val@U?$_List_simple_types@VPathEdge@@@std@@@std@@@std@@QAEAAV01@XZ ; std::_List_const_iterator<std::_List_val<std::_List_simple_types<PathEdge> > >::operator++
PUBLIC	??8?$_List_const_iterator@V?$_List_val@U?$_List_simple_types@VPathEdge@@@std@@@std@@@std@@QBE_NABV01@@Z ; std::_List_const_iterator<std::_List_val<std::_List_simple_types<PathEdge> > >::operator==
PUBLIC	??9?$_List_const_iterator@V?$_List_val@U?$_List_simple_types@VPathEdge@@@std@@@std@@@std@@QBE_NABV01@@Z ; std::_List_const_iterator<std::_List_val<std::_List_simple_types<PathEdge> > >::operator!=
PUBLIC	??0?$_List_const_iterator@V?$_List_val@U?$_List_simple_types@VPathEdge@@@std@@@std@@@std@@QAE@XZ ; std::_List_const_iterator<std::_List_val<std::_List_simple_types<PathEdge> > >::_List_const_iterator<std::_List_val<std::_List_simple_types<PathEdge> > >
PUBLIC	??1?$_List_const_iterator@V?$_List_val@U?$_List_simple_types@VPathEdge@@@std@@@std@@@std@@QAE@XZ ; std::_List_const_iterator<std::_List_val<std::_List_simple_types<PathEdge> > >::~_List_const_iterator<std::_List_val<std::_List_simple_types<PathEdge> > >
PUBLIC	??4?$_List_const_iterator@V?$_List_val@U?$_List_simple_types@VPathEdge@@@std@@@std@@@std@@QAEAAV01@$$QAV01@@Z ; std::_List_const_iterator<std::_List_val<std::_List_simple_types<PathEdge> > >::operator=
PUBLIC	??0?$_List_const_iterator@V?$_List_val@U?$_List_simple_types@VPathEdge@@@std@@@std@@@std@@QAE@PAU?$_List_node@VPathEdge@@PAX@1@PBV?$_List_val@U?$_List_simple_types@VPathEdge@@@std@@@1@@Z ; std::_List_const_iterator<std::_List_val<std::_List_simple_types<PathEdge> > >::_List_const_iterator<std::_List_val<std::_List_simple_types<PathEdge> > >
PUBLIC	??D?$_List_iterator@V?$_List_val@U?$_List_simple_types@VPathEdge@@@std@@@std@@@std@@QBEAAVPathEdge@@XZ ; std::_List_iterator<std::_List_val<std::_List_simple_types<PathEdge> > >::operator*
PUBLIC	??C?$_List_iterator@V?$_List_val@U?$_List_simple_types@VPathEdge@@@std@@@std@@@std@@QBEPAVPathEdge@@XZ ; std::_List_iterator<std::_List_val<std::_List_simple_types<PathEdge> > >::operator->
PUBLIC	??E?$_List_iterator@V?$_List_val@U?$_List_simple_types@VPathEdge@@@std@@@std@@@std@@QAEAAV01@XZ ; std::_List_iterator<std::_List_val<std::_List_simple_types<PathEdge> > >::operator++
PUBLIC	??0?$_List_iterator@V?$_List_val@U?$_List_simple_types@VPathEdge@@@std@@@std@@@std@@QAE@XZ ; std::_List_iterator<std::_List_val<std::_List_simple_types<PathEdge> > >::_List_iterator<std::_List_val<std::_List_simple_types<PathEdge> > >
PUBLIC	??1?$_List_iterator@V?$_List_val@U?$_List_simple_types@VPathEdge@@@std@@@std@@@std@@QAE@XZ ; std::_List_iterator<std::_List_val<std::_List_simple_types<PathEdge> > >::~_List_iterator<std::_List_val<std::_List_simple_types<PathEdge> > >
PUBLIC	??4?$_List_iterator@V?$_List_val@U?$_List_simple_types@VPathEdge@@@std@@@std@@@std@@QAEAAV01@$$QAV01@@Z ; std::_List_iterator<std::_List_val<std::_List_simple_types<PathEdge> > >::operator=
PUBLIC	??0?$_List_iterator@V?$_List_val@U?$_List_simple_types@VPathEdge@@@std@@@std@@@std@@QAE@PAU?$_List_node@VPathEdge@@PAX@1@PBV?$_List_val@U?$_List_simple_types@VPathEdge@@@std@@@1@@Z ; std::_List_iterator<std::_List_val<std::_List_simple_types<PathEdge> > >::_List_iterator<std::_List_val<std::_List_simple_types<PathEdge> > >
PUBLIC	??$min@I@std@@YAABIABI0@Z			; std::min<unsigned int>
PUBLIC	??0?$_List_unchecked_const_iterator@V?$_List_val@U?$_List_simple_types@PAV?$Goal@VRaven_Bot@@@@@std@@@std@@U_Iterator_base12@2@@std@@QAE@XZ ; std::_List_unchecked_const_iterator<std::_List_val<std::_List_simple_types<Goal<Raven_Bot> *> >,std::_Iterator_base12>::_List_unchecked_const_iterator<std::_List_val<std::_List_simple_types<Goal<Raven_Bot> *> >,std::_Iterator_base12>
PUBLIC	??0?$_List_unchecked_const_iterator@V?$_List_val@U?$_List_simple_types@PAV?$Goal@VRaven_Bot@@@@@std@@@std@@U_Iterator_base12@2@@std@@QAE@PAU?$_List_node@PAV?$Goal@VRaven_Bot@@@@PAX@1@PBV?$_List_val@U?$_List_simple_types@PAV?$Goal@VRaven_Bot@@@@@std@@@1@@Z ; std::_List_unchecked_const_iterator<std::_List_val<std::_List_simple_types<Goal<Raven_Bot> *> >,std::_Iterator_base12>::_List_unchecked_const_iterator<std::_List_val<std::_List_simple_types<Goal<Raven_Bot> *> >,std::_Iterator_base12>
PUBLIC	??1?$_List_unchecked_const_iterator@V?$_List_val@U?$_List_simple_types@PAV?$Goal@VRaven_Bot@@@@@std@@@std@@U_Iterator_base12@2@@std@@QAE@XZ ; std::_List_unchecked_const_iterator<std::_List_val<std::_List_simple_types<Goal<Raven_Bot> *> >,std::_Iterator_base12>::~_List_unchecked_const_iterator<std::_List_val<std::_List_simple_types<Goal<Raven_Bot> *> >,std::_Iterator_base12>
PUBLIC	??0?$_List_unchecked_const_iterator@V?$_List_val@U?$_List_simple_types@PAV?$Goal@VRaven_Bot@@@@@std@@@std@@U_Iterator_base12@2@@std@@QAE@ABV01@@Z ; std::_List_unchecked_const_iterator<std::_List_val<std::_List_simple_types<Goal<Raven_Bot> *> >,std::_Iterator_base12>::_List_unchecked_const_iterator<std::_List_val<std::_List_simple_types<Goal<Raven_Bot> *> >,std::_Iterator_base12>
PUBLIC	??0?$_List_unchecked_const_iterator@V?$_List_val@U?$_List_simple_types@PAV?$Goal@VRaven_Bot@@@@@std@@@std@@U_Iterator_base12@2@@std@@QAE@$$QAV01@@Z ; std::_List_unchecked_const_iterator<std::_List_val<std::_List_simple_types<Goal<Raven_Bot> *> >,std::_Iterator_base12>::_List_unchecked_const_iterator<std::_List_val<std::_List_simple_types<Goal<Raven_Bot> *> >,std::_Iterator_base12>
PUBLIC	??4?$_List_unchecked_const_iterator@V?$_List_val@U?$_List_simple_types@PAV?$Goal@VRaven_Bot@@@@@std@@@std@@U_Iterator_base12@2@@std@@QAEAAV01@$$QAV01@@Z ; std::_List_unchecked_const_iterator<std::_List_val<std::_List_simple_types<Goal<Raven_Bot> *> >,std::_Iterator_base12>::operator=
PUBLIC	??D?$_List_const_iterator@V?$_List_val@U?$_List_simple_types@PAV?$Goal@VRaven_Bot@@@@@std@@@std@@@std@@QBEABQAV?$Goal@VRaven_Bot@@@@XZ ; std::_List_const_iterator<std::_List_val<std::_List_simple_types<Goal<Raven_Bot> *> > >::operator*
PUBLIC	??E?$_List_const_iterator@V?$_List_val@U?$_List_simple_types@PAV?$Goal@VRaven_Bot@@@@@std@@@std@@@std@@QAEAAV01@XZ ; std::_List_const_iterator<std::_List_val<std::_List_simple_types<Goal<Raven_Bot> *> > >::operator++
PUBLIC	??F?$_List_const_iterator@V?$_List_val@U?$_List_simple_types@PAV?$Goal@VRaven_Bot@@@@@std@@@std@@@std@@QAEAAV01@XZ ; std::_List_const_iterator<std::_List_val<std::_List_simple_types<Goal<Raven_Bot> *> > >::operator--
PUBLIC	??8?$_List_const_iterator@V?$_List_val@U?$_List_simple_types@PAV?$Goal@VRaven_Bot@@@@@std@@@std@@@std@@QBE_NABV01@@Z ; std::_List_const_iterator<std::_List_val<std::_List_simple_types<Goal<Raven_Bot> *> > >::operator==
PUBLIC	??9?$_List_const_iterator@V?$_List_val@U?$_List_simple_types@PAV?$Goal@VRaven_Bot@@@@@std@@@std@@@std@@QBE_NABV01@@Z ; std::_List_const_iterator<std::_List_val<std::_List_simple_types<Goal<Raven_Bot> *> > >::operator!=
PUBLIC	??0?$_List_const_iterator@V?$_List_val@U?$_List_simple_types@PAV?$Goal@VRaven_Bot@@@@@std@@@std@@@std@@QAE@XZ ; std::_List_const_iterator<std::_List_val<std::_List_simple_types<Goal<Raven_Bot> *> > >::_List_const_iterator<std::_List_val<std::_List_simple_types<Goal<Raven_Bot> *> > >
PUBLIC	??1?$_List_const_iterator@V?$_List_val@U?$_List_simple_types@PAV?$Goal@VRaven_Bot@@@@@std@@@std@@@std@@QAE@XZ ; std::_List_const_iterator<std::_List_val<std::_List_simple_types<Goal<Raven_Bot> *> > >::~_List_const_iterator<std::_List_val<std::_List_simple_types<Goal<Raven_Bot> *> > >
PUBLIC	??0?$_List_const_iterator@V?$_List_val@U?$_List_simple_types@PAV?$Goal@VRaven_Bot@@@@@std@@@std@@@std@@QAE@ABV01@@Z ; std::_List_const_iterator<std::_List_val<std::_List_simple_types<Goal<Raven_Bot> *> > >::_List_const_iterator<std::_List_val<std::_List_simple_types<Goal<Raven_Bot> *> > >
PUBLIC	??0?$_List_const_iterator@V?$_List_val@U?$_List_simple_types@PAV?$Goal@VRaven_Bot@@@@@std@@@std@@@std@@QAE@$$QAV01@@Z ; std::_List_const_iterator<std::_List_val<std::_List_simple_types<Goal<Raven_Bot> *> > >::_List_const_iterator<std::_List_val<std::_List_simple_types<Goal<Raven_Bot> *> > >
PUBLIC	??4?$_List_const_iterator@V?$_List_val@U?$_List_simple_types@PAV?$Goal@VRaven_Bot@@@@@std@@@std@@@std@@QAEAAV01@$$QAV01@@Z ; std::_List_const_iterator<std::_List_val<std::_List_simple_types<Goal<Raven_Bot> *> > >::operator=
PUBLIC	??0?$_List_const_iterator@V?$_List_val@U?$_List_simple_types@PAV?$Goal@VRaven_Bot@@@@@std@@@std@@@std@@QAE@PAU?$_List_node@PAV?$Goal@VRaven_Bot@@@@PAX@1@PBV?$_List_val@U?$_List_simple_types@PAV?$Goal@VRaven_Bot@@@@@std@@@1@@Z ; std::_List_const_iterator<std::_List_val<std::_List_simple_types<Goal<Raven_Bot> *> > >::_List_const_iterator<std::_List_val<std::_List_simple_types<Goal<Raven_Bot> *> > >
PUBLIC	??0?$reverse_iterator@V?$_List_const_iterator@V?$_List_val@U?$_List_simple_types@PAV?$Goal@VRaven_Bot@@@@@std@@@std@@@std@@@std@@QAE@XZ ; std::reverse_iterator<std::_List_const_iterator<std::_List_val<std::_List_simple_types<Goal<Raven_Bot> *> > > >::reverse_iterator<std::_List_const_iterator<std::_List_val<std::_List_simple_types<Goal<Raven_Bot> *> > > >
PUBLIC	??0?$reverse_iterator@V?$_List_const_iterator@V?$_List_val@U?$_List_simple_types@PAV?$Goal@VRaven_Bot@@@@@std@@@std@@@std@@@std@@QAE@V?$_List_const_iterator@V?$_List_val@U?$_List_simple_types@PAV?$Goal@VRaven_Bot@@@@@std@@@std@@@1@@Z ; std::reverse_iterator<std::_List_const_iterator<std::_List_val<std::_List_simple_types<Goal<Raven_Bot> *> > > >::reverse_iterator<std::_List_const_iterator<std::_List_val<std::_List_simple_types<Goal<Raven_Bot> *> > > >
PUBLIC	??D?$reverse_iterator@V?$_List_const_iterator@V?$_List_val@U?$_List_simple_types@PAV?$Goal@VRaven_Bot@@@@@std@@@std@@@std@@@std@@QBEABQAV?$Goal@VRaven_Bot@@@@XZ ; std::reverse_iterator<std::_List_const_iterator<std::_List_val<std::_List_simple_types<Goal<Raven_Bot> *> > > >::operator*
PUBLIC	??E?$reverse_iterator@V?$_List_const_iterator@V?$_List_val@U?$_List_simple_types@PAV?$Goal@VRaven_Bot@@@@@std@@@std@@@std@@@std@@QAEAAV01@XZ ; std::reverse_iterator<std::_List_const_iterator<std::_List_val<std::_List_simple_types<Goal<Raven_Bot> *> > > >::operator++
PUBLIC	?_Get_current@?$reverse_iterator@V?$_List_const_iterator@V?$_List_val@U?$_List_simple_types@PAV?$Goal@VRaven_Bot@@@@@std@@@std@@@std@@@std@@QBEABV?$_List_const_iterator@V?$_List_val@U?$_List_simple_types@PAV?$Goal@VRaven_Bot@@@@@std@@@std@@@2@XZ ; std::reverse_iterator<std::_List_const_iterator<std::_List_val<std::_List_simple_types<Goal<Raven_Bot> *> > > >::_Get_current
PUBLIC	??1?$reverse_iterator@V?$_List_const_iterator@V?$_List_val@U?$_List_simple_types@PAV?$Goal@VRaven_Bot@@@@@std@@@std@@@std@@@std@@QAE@XZ ; std::reverse_iterator<std::_List_const_iterator<std::_List_val<std::_List_simple_types<Goal<Raven_Bot> *> > > >::~reverse_iterator<std::_List_const_iterator<std::_List_val<std::_List_simple_types<Goal<Raven_Bot> *> > > >
PUBLIC	??4?$reverse_iterator@V?$_List_const_iterator@V?$_List_val@U?$_List_simple_types@PAV?$Goal@VRaven_Bot@@@@@std@@@std@@@std@@@std@@QAEAAV01@$$QAV01@@Z ; std::reverse_iterator<std::_List_const_iterator<std::_List_val<std::_List_simple_types<Goal<Raven_Bot> *> > > >::operator=
PUBLIC	??$?9V?$_List_const_iterator@V?$_List_val@U?$_List_simple_types@PAV?$Goal@VRaven_Bot@@@@@std@@@std@@@std@@V01@@std@@YA_NABV?$reverse_iterator@V?$_List_const_iterator@V?$_List_val@U?$_List_simple_types@PAV?$Goal@VRaven_Bot@@@@@std@@@std@@@std@@@0@0@Z ; std::operator!=<std::_List_const_iterator<std::_List_val<std::_List_simple_types<Goal<Raven_Bot> *> > >,std::_List_const_iterator<std::_List_val<std::_List_simple_types<Goal<Raven_Bot> *> > > >
PUBLIC	?pointer_to@?$pointer_traits@PAVPathEdge@@@std@@SAPAVPathEdge@@AAV3@@Z ; std::pointer_traits<PathEdge *>::pointer_to
PUBLIC	??$addressof@V?$_List_val@U?$_List_simple_types@VPathEdge@@@std@@@std@@@std@@YAPAV?$_List_val@U?$_List_simple_types@VPathEdge@@@std@@@0@AAV10@@Z ; std::addressof<std::_List_val<std::_List_simple_types<PathEdge> > >
PUBLIC	?allocate@?$allocator@U_Container_proxy@std@@@std@@QAEPAU_Container_proxy@2@I@Z ; std::allocator<std::_Container_proxy>::allocate
PUBLIC	??$?0U?$_List_node@VPathEdge@@PAX@std@@@?$allocator@U_Container_proxy@std@@@std@@QAE@ABV?$allocator@U?$_List_node@VPathEdge@@PAX@std@@@1@@Z ; std::allocator<std::_Container_proxy>::allocator<std::_Container_proxy><std::_List_node<PathEdge,void *> >
PUBLIC	??$_Delete_plain_internal@V?$allocator@U_Container_proxy@std@@@std@@@std@@YAXAAV?$allocator@U_Container_proxy@std@@@0@QAU_Container_proxy@0@@Z ; std::_Delete_plain_internal<std::allocator<std::_Container_proxy> >
PUBLIC	??$?0V?$allocator@U?$_List_node@VPathEdge@@PAX@std@@@std@@$$V@?$_Compressed_pair@V?$allocator@U?$_List_node@VPathEdge@@PAX@std@@@std@@V?$_List_val@U?$_List_simple_types@VPathEdge@@@std@@@2@$00@std@@QAE@U_One_then_variadic_args_t@1@$$QAV?$allocator@U?$_List_node@VPathEdge@@PAX@std@@@1@@Z ; std::_Compressed_pair<std::allocator<std::_List_node<PathEdge,void *> >,std::_List_val<std::_List_simple_types<PathEdge> >,1>::_Compressed_pair<std::allocator<std::_List_node<PathEdge,void *> >,std::_List_val<std::_List_simple_types<PathEdge> >,1><std::allocator<std::_List_node<PathEdge,void *> > >
PUBLIC	??0?$_List_unchecked_const_iterator@V?$_List_val@U?$_List_simple_types@VPathEdge@@@std@@@std@@U_Iterator_base0@2@@std@@QAE@PAU?$_List_node@VPathEdge@@PAX@1@PBV?$_List_val@U?$_List_simple_types@VPathEdge@@@std@@@1@@Z ; std::_List_unchecked_const_iterator<std::_List_val<std::_List_simple_types<PathEdge> >,std::_Iterator_base0>::_List_unchecked_const_iterator<std::_List_val<std::_List_simple_types<PathEdge> >,std::_Iterator_base0>
PUBLIC	??D?$_List_unchecked_const_iterator@V?$_List_val@U?$_List_simple_types@VPathEdge@@@std@@@std@@U_Iterator_base0@2@@std@@QBEABVPathEdge@@XZ ; std::_List_unchecked_const_iterator<std::_List_val<std::_List_simple_types<PathEdge> >,std::_Iterator_base0>::operator*
PUBLIC	??E?$_List_unchecked_const_iterator@V?$_List_val@U?$_List_simple_types@VPathEdge@@@std@@@std@@U_Iterator_base0@2@@std@@QAEAAV01@XZ ; std::_List_unchecked_const_iterator<std::_List_val<std::_List_simple_types<PathEdge> >,std::_Iterator_base0>::operator++
PUBLIC	??8?$_List_unchecked_const_iterator@V?$_List_val@U?$_List_simple_types@VPathEdge@@@std@@@std@@U_Iterator_base0@2@@std@@QBE_NABV01@@Z ; std::_List_unchecked_const_iterator<std::_List_val<std::_List_simple_types<PathEdge> >,std::_Iterator_base0>::operator==
PUBLIC	??9?$_List_unchecked_const_iterator@V?$_List_val@U?$_List_simple_types@VPathEdge@@@std@@@std@@U_Iterator_base0@2@@std@@QBE_NABV01@@Z ; std::_List_unchecked_const_iterator<std::_List_val<std::_List_simple_types<PathEdge> >,std::_Iterator_base0>::operator!=
PUBLIC	??$_Construct_range_unchecked@V?$_List_unchecked_const_iterator@V?$_List_val@U?$_List_simple_types@VPathEdge@@@std@@@std@@U_Iterator_base0@2@@std@@V12@@?$list@VPathEdge@@V?$allocator@VPathEdge@@@std@@@std@@AAEXV?$_List_unchecked_const_iterator@V?$_List_val@U?$_List_simple_types@VPathEdge@@@std@@@std@@U_Iterator_base0@2@@1@V21@@Z ; std::list<PathEdge,std::allocator<PathEdge> >::_Construct_range_unchecked<std::_List_unchecked_const_iterator<std::_List_val<std::_List_simple_types<PathEdge> >,std::_Iterator_base0>,std::_List_unchecked_const_iterator<std::_List_val<std::_List_simple_types<PathEdge> >,std::_Iterator_base0> >
PUBLIC	??$?0D@?$allocator@U_Container_proxy@std@@@std@@QAE@ABV?$allocator@D@1@@Z ; std::allocator<std::_Container_proxy>::allocator<std::_Container_proxy><char>
PUBLIC	??$_Deallocate_plain@V?$allocator@U_Container_proxy@std@@@std@@@std@@YAXAAV?$allocator@U_Container_proxy@std@@@0@QAU_Container_proxy@0@@Z ; std::_Deallocate_plain<std::allocator<std::_Container_proxy> >
PUBLIC	??$forward@V?$allocator@U?$_List_node@VPathEdge@@PAX@std@@@std@@@std@@YA$$QAV?$allocator@U?$_List_node@VPathEdge@@PAX@std@@@0@AAV10@@Z ; std::forward<std::allocator<std::_List_node<PathEdge,void *> > >
PUBLIC	??0?$_Container_proxy_ptr12@V?$allocator@U_Container_proxy@std@@@std@@@std@@QAE@AAV?$allocator@U_Container_proxy@std@@@1@AAU_Container_base12@1@@Z ; std::_Container_proxy_ptr12<std::allocator<std::_Container_proxy> >::_Container_proxy_ptr12<std::allocator<std::_Container_proxy> >
PUBLIC	??1?$_Container_proxy_ptr12@V?$allocator@U_Container_proxy@std@@@std@@@std@@QAE@XZ ; std::_Container_proxy_ptr12<std::allocator<std::_Container_proxy> >::~_Container_proxy_ptr12<std::allocator<std::_Container_proxy> >
PUBLIC	??0?$_List_node_insert_op2@V?$allocator@U?$_List_node@VPathEdge@@PAX@std@@@std@@@std@@QAE@AAV?$allocator@U?$_List_node@VPathEdge@@PAX@std@@@1@@Z ; std::_List_node_insert_op2<std::allocator<std::_List_node<PathEdge,void *> > >::_List_node_insert_op2<std::allocator<std::_List_node<PathEdge,void *> > >
PUBLIC	??1?$_List_node_insert_op2@V?$allocator@U?$_List_node@VPathEdge@@PAX@std@@@std@@@std@@QAE@XZ ; std::_List_node_insert_op2<std::allocator<std::_List_node<PathEdge,void *> > >::~_List_node_insert_op2<std::allocator<std::_List_node<PathEdge,void *> > >
PUBLIC	??$move@AAV?$_List_unchecked_const_iterator@V?$_List_val@U?$_List_simple_types@VPathEdge@@@std@@@std@@U_Iterator_base0@2@@std@@@std@@YA$$QAV?$_List_unchecked_const_iterator@V?$_List_val@U?$_List_simple_types@VPathEdge@@@std@@@std@@U_Iterator_base0@2@@0@AAV10@@Z ; std::move<std::_List_unchecked_const_iterator<std::_List_val<std::_List_simple_types<PathEdge> >,std::_Iterator_base0> &>
PUBLIC	??$_Append_range_unchecked@V?$_List_unchecked_const_iterator@V?$_List_val@U?$_List_simple_types@VPathEdge@@@std@@@std@@U_Iterator_base0@2@@std@@V12@@?$_List_node_insert_op2@V?$allocator@U?$_List_node@VPathEdge@@PAX@std@@@std@@@std@@QAEXV?$_List_unchecked_const_iterator@V?$_List_val@U?$_List_simple_types@VPathEdge@@@std@@@std@@U_Iterator_base0@2@@1@V21@@Z ; std::_List_node_insert_op2<std::allocator<std::_List_node<PathEdge,void *> > >::_Append_range_unchecked<std::_List_unchecked_const_iterator<std::_List_val<std::_List_simple_types<PathEdge> >,std::_Iterator_base0>,std::_List_unchecked_const_iterator<std::_List_val<std::_List_simple_types<PathEdge> >,std::_Iterator_base0> >
PUBLIC	??$_Attach_head@U?$_List_simple_types@VPathEdge@@@std@@@?$_List_node_insert_op2@V?$allocator@U?$_List_node@VPathEdge@@PAX@std@@@std@@@std@@QAEXAAV?$_List_val@U?$_List_simple_types@VPathEdge@@@std@@@1@@Z ; std::_List_node_insert_op2<std::allocator<std::_List_node<PathEdge,void *> > >::_Attach_head<std::_List_simple_types<PathEdge> >
PUBLIC	??$_Unfancy@U_Container_proxy@std@@@std@@YAPAU_Container_proxy@0@PAU10@@Z ; std::_Unfancy<std::_Container_proxy>
PUBLIC	??$_Construct_in_place@U_Container_proxy@std@@PAU_Container_base12@2@@std@@YAXAAU_Container_proxy@0@$$QAPAU_Container_base12@0@@Z ; std::_Construct_in_place<std::_Container_proxy,std::_Container_base12 *>
PUBLIC	??$_Unfancy@D@std@@YAPADPAD@Z			; std::_Unfancy<char>
PUBLIC	??D?$_List_iterator@V?$_List_val@U?$_List_simple_types@PAV?$Goal@VRaven_Bot@@@@@std@@@std@@@std@@QBEAAPAV?$Goal@VRaven_Bot@@@@XZ ; std::_List_iterator<std::_List_val<std::_List_simple_types<Goal<Raven_Bot> *> > >::operator*
PUBLIC	??E?$_List_iterator@V?$_List_val@U?$_List_simple_types@PAV?$Goal@VRaven_Bot@@@@@std@@@std@@@std@@QAEAAV01@XZ ; std::_List_iterator<std::_List_val<std::_List_simple_types<Goal<Raven_Bot> *> > >::operator++
PUBLIC	??1?$_List_iterator@V?$_List_val@U?$_List_simple_types@PAV?$Goal@VRaven_Bot@@@@@std@@@std@@@std@@QAE@XZ ; std::_List_iterator<std::_List_val<std::_List_simple_types<Goal<Raven_Bot> *> > >::~_List_iterator<std::_List_val<std::_List_simple_types<Goal<Raven_Bot> *> > >
PUBLIC	??0?$_List_iterator@V?$_List_val@U?$_List_simple_types@PAV?$Goal@VRaven_Bot@@@@@std@@@std@@@std@@QAE@PAU?$_List_node@PAV?$Goal@VRaven_Bot@@@@PAX@1@PBV?$_List_val@U?$_List_simple_types@PAV?$Goal@VRaven_Bot@@@@@std@@@1@@Z ; std::_List_iterator<std::_List_val<std::_List_simple_types<Goal<Raven_Bot> *> > >::_List_iterator<std::_List_val<std::_List_simple_types<Goal<Raven_Bot> *> > >
PUBLIC	??$addressof@VPathEdge@@@std@@YAPAVPathEdge@@AAV1@@Z ; std::addressof<PathEdge>
PUBLIC	??$_Emplace@ABQAV?$Goal@VRaven_Bot@@@@@?$list@PAV?$Goal@VRaven_Bot@@@@V?$allocator@PAV?$Goal@VRaven_Bot@@@@@std@@@std@@QAEPAU?$_List_node@PAV?$Goal@VRaven_Bot@@@@PAX@1@QAU21@ABQAV?$Goal@VRaven_Bot@@@@@Z ; std::list<Goal<Raven_Bot> *,std::allocator<Goal<Raven_Bot> *> >::_Emplace<Goal<Raven_Bot> * const &>
PUBLIC	??$?0U?$_List_node@PAV?$Goal@VRaven_Bot@@@@PAX@std@@@?$allocator@U_Container_proxy@std@@@std@@QAE@ABV?$allocator@U?$_List_node@PAV?$Goal@VRaven_Bot@@@@PAX@std@@@1@@Z ; std::allocator<std::_Container_proxy>::allocator<std::_Container_proxy><std::_List_node<Goal<Raven_Bot> *,void *> >
PUBLIC	??$?0$$V@?$_Compressed_pair@V?$allocator@U?$_List_node@PAV?$Goal@VRaven_Bot@@@@PAX@std@@@std@@V?$_List_val@U?$_List_simple_types@PAV?$Goal@VRaven_Bot@@@@@std@@@2@$00@std@@QAE@U_Zero_then_variadic_args_t@1@@Z ; std::_Compressed_pair<std::allocator<std::_List_node<Goal<Raven_Bot> *,void *> >,std::_List_val<std::_List_simple_types<Goal<Raven_Bot> *> >,1>::_Compressed_pair<std::allocator<std::_List_node<Goal<Raven_Bot> *,void *> >,std::_List_val<std::_List_simple_types<Goal<Raven_Bot> *> >,1><>
PUBLIC	??$_Free_non_head@V?$allocator@U?$_List_node@VPathEdge@@PAX@std@@@std@@@?$_List_node@VPathEdge@@PAX@std@@SAXAAV?$allocator@U?$_List_node@VPathEdge@@PAX@std@@@1@PAU01@@Z ; std::_List_node<PathEdge,void *>::_Free_non_head<std::allocator<std::_List_node<PathEdge,void *> > >
PUBLIC	??$_Freenode0@V?$allocator@U?$_List_node@VPathEdge@@PAX@std@@@std@@@?$_List_node@VPathEdge@@PAX@std@@SAXAAV?$allocator@U?$_List_node@VPathEdge@@PAX@std@@@1@PAU01@@Z ; std::_List_node<PathEdge,void *>::_Freenode0<std::allocator<std::_List_node<PathEdge,void *> > >
PUBLIC	??$_Freenode@V?$allocator@U?$_List_node@VPathEdge@@PAX@std@@@std@@@?$_List_node@VPathEdge@@PAX@std@@SAXAAV?$allocator@U?$_List_node@VPathEdge@@PAX@std@@@1@PAU01@@Z ; std::_List_node<PathEdge,void *>::_Freenode<std::allocator<std::_List_node<PathEdge,void *> > >
PUBLIC	?deallocate@?$_Default_allocator_traits@V?$allocator@U_Container_proxy@std@@@std@@@std@@SAXAAV?$allocator@U_Container_proxy@std@@@2@QAU_Container_proxy@2@I@Z ; std::_Default_allocator_traits<std::allocator<std::_Container_proxy> >::deallocate
PUBLIC	??0?$_Alloc_construct_ptr@V?$allocator@U?$_List_node@VPathEdge@@PAX@std@@@std@@@std@@QAE@AAV?$allocator@U?$_List_node@VPathEdge@@PAX@std@@@1@@Z ; std::_Alloc_construct_ptr<std::allocator<std::_List_node<PathEdge,void *> > >::_Alloc_construct_ptr<std::allocator<std::_List_node<PathEdge,void *> > >
PUBLIC	?_Release@?$_Alloc_construct_ptr@V?$allocator@U?$_List_node@VPathEdge@@PAX@std@@@std@@@std@@QAEPAU?$_List_node@VPathEdge@@PAX@2@XZ ; std::_Alloc_construct_ptr<std::allocator<std::_List_node<PathEdge,void *> > >::_Release
PUBLIC	?_Allocate@?$_Alloc_construct_ptr@V?$allocator@U?$_List_node@VPathEdge@@PAX@std@@@std@@@std@@QAEXXZ ; std::_Alloc_construct_ptr<std::allocator<std::_List_node<PathEdge,void *> > >::_Allocate
PUBLIC	??1?$_Alloc_construct_ptr@V?$allocator@U?$_List_node@VPathEdge@@PAX@std@@@std@@@std@@QAE@XZ ; std::_Alloc_construct_ptr<std::allocator<std::_List_node<PathEdge,void *> > >::~_Alloc_construct_ptr<std::allocator<std::_List_node<PathEdge,void *> > >
PUBLIC	??$construct@VPathEdge@@ABV1@@?$_Default_allocator_traits@V?$allocator@U?$_List_node@VPathEdge@@PAX@std@@@std@@@std@@SAXAAV?$allocator@U?$_List_node@VPathEdge@@PAX@std@@@1@QAVPathEdge@@ABV3@@Z ; std::_Default_allocator_traits<std::allocator<std::_List_node<PathEdge,void *> > >::construct<PathEdge,PathEdge const &>
PUBLIC	??$exchange@PAU?$_List_node@VPathEdge@@PAX@std@@PAU12@@std@@YAPAU?$_List_node@VPathEdge@@PAX@0@AAPAU10@$$QAPAU10@@Z ; std::exchange<std::_List_node<PathEdge,void *> *,std::_List_node<PathEdge,void *> *>
PUBLIC	??$_Construct_in_place@PAU?$_List_node@VPathEdge@@PAX@std@@AAPAU12@@std@@YAXAAPAU?$_List_node@VPathEdge@@PAX@0@0@Z ; std::_Construct_in_place<std::_List_node<PathEdge,void *> *,std::_List_node<PathEdge,void *> * &>
PUBLIC	??$exchange@II@std@@YAIAAI$$QAI@Z		; std::exchange<unsigned int,unsigned int>
PUBLIC	??$_Construct_in_place@PAU?$_List_node@VPathEdge@@PAX@std@@ABQAU12@@std@@YAXAAPAU?$_List_node@VPathEdge@@PAX@0@ABQAU10@@Z ; std::_Construct_in_place<std::_List_node<PathEdge,void *> *,std::_List_node<PathEdge,void *> * const &>
PUBLIC	??$addressof@U_Container_proxy@std@@@std@@YAPAU_Container_proxy@0@AAU10@@Z ; std::addressof<std::_Container_proxy>
PUBLIC	??$forward@PAU_Container_base12@std@@@std@@YA$$QAPAU_Container_base12@0@AAPAU10@@Z ; std::forward<std::_Container_base12 *>
PUBLIC	??0?$_Alloc_construct_ptr@V?$allocator@U?$_List_node@PAV?$Goal@VRaven_Bot@@@@PAX@std@@@std@@@std@@QAE@AAV?$allocator@U?$_List_node@PAV?$Goal@VRaven_Bot@@@@PAX@std@@@1@@Z ; std::_Alloc_construct_ptr<std::allocator<std::_List_node<Goal<Raven_Bot> *,void *> > >::_Alloc_construct_ptr<std::allocator<std::_List_node<Goal<Raven_Bot> *,void *> > >
PUBLIC	?_Allocate@?$_Alloc_construct_ptr@V?$allocator@U?$_List_node@PAV?$Goal@VRaven_Bot@@@@PAX@std@@@std@@@std@@QAEXXZ ; std::_Alloc_construct_ptr<std::allocator<std::_List_node<Goal<Raven_Bot> *,void *> > >::_Allocate
PUBLIC	??1?$_Alloc_construct_ptr@V?$allocator@U?$_List_node@PAV?$Goal@VRaven_Bot@@@@PAX@std@@@std@@@std@@QAE@XZ ; std::_Alloc_construct_ptr<std::allocator<std::_List_node<Goal<Raven_Bot> *,void *> > >::~_Alloc_construct_ptr<std::allocator<std::_List_node<Goal<Raven_Bot> *,void *> > >
PUBLIC	??1?$_List_node_emplace_op2@V?$allocator@U?$_List_node@PAV?$Goal@VRaven_Bot@@@@PAX@std@@@std@@@std@@QAE@XZ ; std::_List_node_emplace_op2<std::allocator<std::_List_node<Goal<Raven_Bot> *,void *> > >::~_List_node_emplace_op2<std::allocator<std::_List_node<Goal<Raven_Bot> *,void *> > >
PUBLIC	?_Transfer_before@?$_List_node_emplace_op2@V?$allocator@U?$_List_node@PAV?$Goal@VRaven_Bot@@@@PAX@std@@@std@@@std@@QAEPAU?$_List_node@PAV?$Goal@VRaven_Bot@@@@PAX@2@QAU32@@Z ; std::_List_node_emplace_op2<std::allocator<std::_List_node<Goal<Raven_Bot> *,void *> > >::_Transfer_before
PUBLIC	??$forward@ABQAV?$Goal@VRaven_Bot@@@@@std@@YAABQAV?$Goal@VRaven_Bot@@@@ABQAV1@@Z ; std::forward<Goal<Raven_Bot> * const &>
PUBLIC	??$?0ABQAV?$Goal@VRaven_Bot@@@@@?$_List_node_emplace_op2@V?$allocator@U?$_List_node@PAV?$Goal@VRaven_Bot@@@@PAX@std@@@std@@@std@@QAE@AAV?$allocator@U?$_List_node@PAV?$Goal@VRaven_Bot@@@@PAX@std@@@1@ABQAV?$Goal@VRaven_Bot@@@@@Z ; std::_List_node_emplace_op2<std::allocator<std::_List_node<Goal<Raven_Bot> *,void *> > >::_List_node_emplace_op2<std::allocator<std::_List_node<Goal<Raven_Bot> *,void *> > ><Goal<Raven_Bot> * const &>
PUBLIC	??$_Destroy_in_place@PAU?$_List_node@VPathEdge@@PAX@std@@@std@@YAXAAPAU?$_List_node@VPathEdge@@PAX@0@@Z ; std::_Destroy_in_place<std::_List_node<PathEdge,void *> *>
PUBLIC	??$destroy@VPathEdge@@@?$_Default_allocator_traits@V?$allocator@U?$_List_node@VPathEdge@@PAX@std@@@std@@@std@@SAXAAV?$allocator@U?$_List_node@VPathEdge@@PAX@std@@@1@QAVPathEdge@@@Z ; std::_Default_allocator_traits<std::allocator<std::_List_node<PathEdge,void *> > >::destroy<PathEdge>
PUBLIC	??$?0$0A@@id@locale@std@@QAE@XZ			; std::locale::id::id<0>
PUBLIC	??$_Construct_in_place@PAU?$_List_node@VPathEdge@@PAX@std@@PAU12@@std@@YAXAAPAU?$_List_node@VPathEdge@@PAX@0@$$QAPAU10@@Z ; std::_Construct_in_place<std::_List_node<PathEdge,void *> *,std::_List_node<PathEdge,void *> *>
PUBLIC	??$exchange@PAU?$_List_node@VPathEdge@@PAX@std@@AAPAU12@@std@@YAPAU?$_List_node@VPathEdge@@PAX@0@AAPAU10@0@Z ; std::exchange<std::_List_node<PathEdge,void *> *,std::_List_node<PathEdge,void *> * &>
PUBLIC	??$addressof@U_Container_base12@std@@@std@@YAPAU_Container_base12@0@AAU10@@Z ; std::addressof<std::_Container_base12>
PUBLIC	??$_Get_size_of_n@$07@std@@YAII@Z		; std::_Get_size_of_n<8>
PUBLIC	??$_Allocate@$07U_Default_allocate_traits@std@@@std@@YAPAXI@Z ; std::_Allocate<8,std::_Default_allocate_traits>
PUBLIC	??$move@AAV?$_List_const_iterator@V?$_List_val@U?$_List_simple_types@PAV?$Goal@VRaven_Bot@@@@@std@@@std@@@std@@@std@@YA$$QAV?$_List_const_iterator@V?$_List_val@U?$_List_simple_types@PAV?$Goal@VRaven_Bot@@@@@std@@@std@@@0@AAV10@@Z ; std::move<std::_List_const_iterator<std::_List_val<std::_List_simple_types<Goal<Raven_Bot> *> > > &>
PUBLIC	??$_Construct_in_place@PAU?$_List_node@PAV?$Goal@VRaven_Bot@@@@PAX@std@@AAPAU12@@std@@YAXAAPAU?$_List_node@PAV?$Goal@VRaven_Bot@@@@PAX@0@0@Z ; std::_Construct_in_place<std::_List_node<Goal<Raven_Bot> *,void *> *,std::_List_node<Goal<Raven_Bot> *,void *> * &>
PUBLIC	??$_Free_non_head@V?$allocator@U?$_List_node@PAV?$Goal@VRaven_Bot@@@@PAX@std@@@std@@@?$_List_node@PAV?$Goal@VRaven_Bot@@@@PAX@std@@SAXAAV?$allocator@U?$_List_node@PAV?$Goal@VRaven_Bot@@@@PAX@std@@@1@PAU01@@Z ; std::_List_node<Goal<Raven_Bot> *,void *>::_Free_non_head<std::allocator<std::_List_node<Goal<Raven_Bot> *,void *> > >
PUBLIC	??$_Freenode0@V?$allocator@U?$_List_node@PAV?$Goal@VRaven_Bot@@@@PAX@std@@@std@@@?$_List_node@PAV?$Goal@VRaven_Bot@@@@PAX@std@@SAXAAV?$allocator@U?$_List_node@PAV?$Goal@VRaven_Bot@@@@PAX@std@@@1@PAU01@@Z ; std::_List_node<Goal<Raven_Bot> *,void *>::_Freenode0<std::allocator<std::_List_node<Goal<Raven_Bot> *,void *> > >
PUBLIC	??$_Freenode@V?$allocator@U?$_List_node@PAV?$Goal@VRaven_Bot@@@@PAX@std@@@std@@@?$_List_node@PAV?$Goal@VRaven_Bot@@@@PAX@std@@SAXAAV?$allocator@U?$_List_node@PAV?$Goal@VRaven_Bot@@@@PAX@std@@@1@PAU01@@Z ; std::_List_node<Goal<Raven_Bot> *,void *>::_Freenode<std::allocator<std::_List_node<Goal<Raven_Bot> *,void *> > >
PUBLIC	??$addressof@$$CBV?$_List_val@U?$_List_simple_types@PAV?$Goal@VRaven_Bot@@@@@std@@@std@@@std@@YAPBV?$_List_val@U?$_List_simple_types@PAV?$Goal@VRaven_Bot@@@@@std@@@0@ABV10@@Z ; std::addressof<std::_List_val<std::_List_simple_types<Goal<Raven_Bot> *> > const >
PUBLIC	??$addressof@V?$_List_val@U?$_List_simple_types@PAV?$Goal@VRaven_Bot@@@@@std@@@std@@@std@@YAPAV?$_List_val@U?$_List_simple_types@PAV?$Goal@VRaven_Bot@@@@@std@@@0@AAV10@@Z ; std::addressof<std::_List_val<std::_List_simple_types<Goal<Raven_Bot> *> > >
PUBLIC	??$_Deallocate@$07@std@@YAXPAXI@Z		; std::_Deallocate<8>
PUBLIC	??$_Destroy_in_place@PAD@std@@YAXAAPAD@Z	; std::_Destroy_in_place<char *>
PUBLIC	??$_Max_limit@H@std@@YAHXZ			; std::_Max_limit<int>
PUBLIC	??$forward@ABVPathEdge@@@std@@YAABVPathEdge@@ABV1@@Z ; std::forward<PathEdge const &>
PUBLIC	??$addressof@PAU?$_List_node@VPathEdge@@PAX@std@@@std@@YAPAPAU?$_List_node@VPathEdge@@PAX@0@AAPAU10@@Z ; std::addressof<std::_List_node<PathEdge,void *> *>
PUBLIC	??$forward@AAPAU?$_List_node@VPathEdge@@PAX@std@@@std@@YAAAPAU?$_List_node@VPathEdge@@PAX@0@AAPAU10@@Z ; std::forward<std::_List_node<PathEdge,void *> * &>
PUBLIC	??$forward@ABQAU?$_List_node@VPathEdge@@PAX@std@@@std@@YAABQAU?$_List_node@VPathEdge@@PAX@0@ABQAU10@@Z ; std::forward<std::_List_node<PathEdge,void *> * const &>
PUBLIC	??$addressof@PAV?$Goal@VRaven_Bot@@@@@std@@YAPAPAV?$Goal@VRaven_Bot@@@@AAPAV1@@Z ; std::addressof<Goal<Raven_Bot> *>
PUBLIC	??$construct@PAV?$Goal@VRaven_Bot@@@@ABQAV1@@?$_Default_allocator_traits@V?$allocator@U?$_List_node@PAV?$Goal@VRaven_Bot@@@@PAX@std@@@std@@@std@@SAXAAV?$allocator@U?$_List_node@PAV?$Goal@VRaven_Bot@@@@PAX@std@@@1@QAPAV?$Goal@VRaven_Bot@@@@ABQAV3@@Z ; std::_Default_allocator_traits<std::allocator<std::_List_node<Goal<Raven_Bot> *,void *> > >::construct<Goal<Raven_Bot> *,Goal<Raven_Bot> * const &>
PUBLIC	??$forward@PAU?$_List_node@VPathEdge@@PAX@std@@@std@@YA$$QAPAU?$_List_node@VPathEdge@@PAX@0@AAPAU10@@Z ; std::forward<std::_List_node<PathEdge,void *> *>
PUBLIC	??$_Allocate_manually_vector_aligned@U_Default_allocate_traits@std@@@std@@YAPAXI@Z ; std::_Allocate_manually_vector_aligned<std::_Default_allocate_traits>
PUBLIC	??$addressof@PAU?$_List_node@PAV?$Goal@VRaven_Bot@@@@PAX@std@@@std@@YAPAPAU?$_List_node@PAV?$Goal@VRaven_Bot@@@@PAX@0@AAPAU10@@Z ; std::addressof<std::_List_node<Goal<Raven_Bot> *,void *> *>
PUBLIC	??$forward@AAPAU?$_List_node@PAV?$Goal@VRaven_Bot@@@@PAX@std@@@std@@YAAAPAU?$_List_node@PAV?$Goal@VRaven_Bot@@@@PAX@0@AAPAU10@@Z ; std::forward<std::_List_node<Goal<Raven_Bot> *,void *> * &>
PUBLIC	??$_Destroy_in_place@PAU?$_List_node@PAV?$Goal@VRaven_Bot@@@@PAX@std@@@std@@YAXAAPAU?$_List_node@PAV?$Goal@VRaven_Bot@@@@PAX@0@@Z ; std::_Destroy_in_place<std::_List_node<Goal<Raven_Bot> *,void *> *>
PUBLIC	??$destroy@PAV?$Goal@VRaven_Bot@@@@@?$_Default_allocator_traits@V?$allocator@U?$_List_node@PAV?$Goal@VRaven_Bot@@@@PAX@std@@@std@@@std@@SAXAAV?$allocator@U?$_List_node@PAV?$Goal@VRaven_Bot@@@@PAX@std@@@1@QAPAV?$Goal@VRaven_Bot@@@@@Z ; std::_Default_allocator_traits<std::allocator<std::_List_node<Goal<Raven_Bot> *,void *> > >::destroy<Goal<Raven_Bot> *>
PUBLIC	??$_Construct_in_place@PAU?$_List_node@PAV?$Goal@VRaven_Bot@@@@PAX@std@@ABQAU12@@std@@YAXAAPAU?$_List_node@PAV?$Goal@VRaven_Bot@@@@PAX@0@ABQAU10@@Z ; std::_Construct_in_place<std::_List_node<Goal<Raven_Bot> *,void *> *,std::_List_node<Goal<Raven_Bot> *,void *> * const &>
PUBLIC	??$exchange@PAU?$_List_node@VPathEdge@@PAX@std@@$$T@std@@YAPAU?$_List_node@VPathEdge@@PAX@0@AAPAU10@$$QA$$T@Z ; std::exchange<std::_List_node<PathEdge,void *> *,std::nullptr_t>
PUBLIC	??$_Get_size_of_n@$0M@@std@@YAII@Z		; std::_Get_size_of_n<12>
PUBLIC	??$forward@ABQAU?$_List_node@PAV?$Goal@VRaven_Bot@@@@PAX@std@@@std@@YAABQAU?$_List_node@PAV?$Goal@VRaven_Bot@@@@PAX@0@ABQAU10@@Z ; std::forward<std::_List_node<Goal<Raven_Bot> *,void *> * const &>
PUBLIC	??$_Get_size_of_n@$0DA@@std@@YAII@Z		; std::_Get_size_of_n<48>
PUBLIC	??_7exception@std@@6B@				; std::exception::`vftable'
PUBLIC	??_C@_0BC@EOODALEL@Unknown?5exception@		; `string'
PUBLIC	??_7bad_alloc@std@@6B@				; std::bad_alloc::`vftable'
PUBLIC	??_7bad_array_new_length@std@@6B@		; std::bad_array_new_length::`vftable'
PUBLIC	??_C@_0BF@KINCDENJ@bad?5array?5new?5length@	; `string'
PUBLIC	??_R0?AVexception@std@@@8			; std::exception `RTTI Type Descriptor'
PUBLIC	__CT??_R0?AVexception@std@@@8??0exception@std@@QAE@ABV01@@Z12
PUBLIC	__TI3?AVbad_array_new_length@std@@
PUBLIC	__CTA3?AVbad_array_new_length@std@@
PUBLIC	??_R0?AVbad_array_new_length@std@@@8		; std::bad_array_new_length `RTTI Type Descriptor'
PUBLIC	__CT??_R0?AVbad_array_new_length@std@@@8??0bad_array_new_length@std@@QAE@ABV01@@Z12
PUBLIC	??_R0?AVbad_alloc@std@@@8			; std::bad_alloc `RTTI Type Descriptor'
PUBLIC	__CT??_R0?AVbad_alloc@std@@@8??0bad_alloc@std@@QAE@ABV01@@Z12
PUBLIC	??_C@_0BB@FCMFBGOM@invalid?5argument@		; `string'
PUBLIC	??_C@_02DKCKIIND@?$CFs@				; `string'
PUBLIC	??_C@_0GC@KLECFGLI@C?3?2Program?5Files?2Microsoft?5Visu@ ; `string'
PUBLIC	??_C@_0BJ@LFDBABJJ@ITERATOR?5LIST?5CORRUPTED?$CB@ ; `string'
PUBLIC	??_7runtime_error@std@@6B@			; std::runtime_error::`vftable'
PUBLIC	??_R0?AVruntime_error@std@@@8			; std::runtime_error `RTTI Type Descriptor'
PUBLIC	__CT??_R0?AVruntime_error@std@@@8??0runtime_error@std@@QAE@ABV01@@Z12
PUBLIC	??_7?$Goal@VRaven_Bot@@@@6B@			; Goal<Raven_Bot>::`vftable'
PUBLIC	??_7?$Goal_Composite@VRaven_Bot@@@@6B@		; Goal_Composite<Raven_Bot>::`vftable'
PUBLIC	??_7Goal_FollowPath@@6B@			; Goal_FollowPath::`vftable'
PUBLIC	__TI2?AVruntime_error@std@@
PUBLIC	__CTA2?AVruntime_error@std@@
PUBLIC	??_C@_0CB@OHIHCHGJ@Cannot?5add?5goals?5to?5atomic?5goal@ ; `string'
PUBLIC	??_C@_0CB@GIIADCJH@pop_front?$CI?$CJ?5called?5on?5empty?5lis@ ; `string'
PUBLIC	??_C@_0FP@IHALIHCI@C?3?2Program?5Files?2Microsoft?5Visu@ ; `string'
PUBLIC	??_C@_0BN@GOIPFJJH@front?$CI?$CJ?5called?5on?5empty?5list@ ; `string'
PUBLIC	?id@?$codecvt@DDU_Mbstatet@@@std@@2V0locale@2@A	; std::codecvt<char,char,_Mbstatet>::id
PUBLIC	?id@?$num_put@DV?$ostreambuf_iterator@DU?$char_traits@D@std@@@std@@@std@@2V0locale@2@A ; std::num_put<char,std::ostreambuf_iterator<char,std::char_traits<char> > >::id
PUBLIC	?id@?$num_get@DV?$istreambuf_iterator@DU?$char_traits@D@std@@@std@@@std@@2V0locale@2@A ; std::num_get<char,std::istreambuf_iterator<char,std::char_traits<char> > >::id
PUBLIC	??_C@_0BM@BALDKKHE@list?5iterators?5incompatible@ ; `string'
PUBLIC	??_C@_0DB@ENBCPNKO@cannot?5increment?5value?9initiali@ ; `string'
PUBLIC	??_C@_0CD@PMFMCEG@cannot?5increment?5end?5list?5itera@ ; `string'
PUBLIC	?id@?$numpunct@D@std@@2V0locale@2@A		; std::numpunct<char>::id
PUBLIC	??_C@_0O@NKNMEGII@list?5too?5long@		; `string'
PUBLIC	??_C@_0DD@MBIHGLJE@cannot?5dereference?5value?9initia@ ; `string'
PUBLIC	??_C@_0CF@JCBFHMPL@cannot?5dereference?5end?5list?5ite@ ; `string'
PUBLIC	??_C@_0DB@MCPEHPCC@cannot?5decrement?5value?9initiali@ ; `string'
PUBLIC	??_C@_0CF@BAAFPBMN@cannot?5decrement?5begin?5list?5ite@ ; `string'
PUBLIC	??_C@_0DG@KGHKKGBC@null?5pointer?5cannot?5point?5to?5a?5@ ; `string'
PUBLIC	??_R4exception@std@@6B@				; std::exception::`RTTI Complete Object Locator'
PUBLIC	??_R3exception@std@@8				; std::exception::`RTTI Class Hierarchy Descriptor'
PUBLIC	??_R2exception@std@@8				; std::exception::`RTTI Base Class Array'
PUBLIC	??_R1A@?0A@EA@exception@std@@8			; std::exception::`RTTI Base Class Descriptor at (0,-1,0,64)'
PUBLIC	??_R4bad_array_new_length@std@@6B@		; std::bad_array_new_length::`RTTI Complete Object Locator'
PUBLIC	??_R3bad_array_new_length@std@@8		; std::bad_array_new_length::`RTTI Class Hierarchy Descriptor'
PUBLIC	??_R2bad_array_new_length@std@@8		; std::bad_array_new_length::`RTTI Base Class Array'
PUBLIC	??_R1A@?0A@EA@bad_array_new_length@std@@8	; std::bad_array_new_length::`RTTI Base Class Descriptor at (0,-1,0,64)'
PUBLIC	??_R1A@?0A@EA@bad_alloc@std@@8			; std::bad_alloc::`RTTI Base Class Descriptor at (0,-1,0,64)'
PUBLIC	??_R3bad_alloc@std@@8				; std::bad_alloc::`RTTI Class Hierarchy Descriptor'
PUBLIC	??_R2bad_alloc@std@@8				; std::bad_alloc::`RTTI Base Class Array'
PUBLIC	??_R4bad_alloc@std@@6B@				; std::bad_alloc::`RTTI Complete Object Locator'
PUBLIC	??_R4runtime_error@std@@6B@			; std::runtime_error::`RTTI Complete Object Locator'
PUBLIC	??_R3runtime_error@std@@8			; std::runtime_error::`RTTI Class Hierarchy Descriptor'
PUBLIC	??_R2runtime_error@std@@8			; std::runtime_error::`RTTI Base Class Array'
PUBLIC	??_R1A@?0A@EA@runtime_error@std@@8		; std::runtime_error::`RTTI Base Class Descriptor at (0,-1,0,64)'
PUBLIC	??_R4Goal_FollowPath@@6B@			; Goal_FollowPath::`RTTI Complete Object Locator'
PUBLIC	??_R0?AVGoal_FollowPath@@@8			; Goal_FollowPath `RTTI Type Descriptor'
PUBLIC	??_R3Goal_FollowPath@@8				; Goal_FollowPath::`RTTI Class Hierarchy Descriptor'
PUBLIC	??_R2Goal_FollowPath@@8				; Goal_FollowPath::`RTTI Base Class Array'
PUBLIC	??_R1A@?0A@EA@Goal_FollowPath@@8		; Goal_FollowPath::`RTTI Base Class Descriptor at (0,-1,0,64)'
PUBLIC	??_R1A@?0A@EA@?$Goal_Composite@VRaven_Bot@@@@8	; Goal_Composite<Raven_Bot>::`RTTI Base Class Descriptor at (0,-1,0,64)'
PUBLIC	??_R0?AV?$Goal_Composite@VRaven_Bot@@@@@8	; Goal_Composite<Raven_Bot> `RTTI Type Descriptor'
PUBLIC	??_R3?$Goal_Composite@VRaven_Bot@@@@8		; Goal_Composite<Raven_Bot>::`RTTI Class Hierarchy Descriptor'
PUBLIC	??_R2?$Goal_Composite@VRaven_Bot@@@@8		; Goal_Composite<Raven_Bot>::`RTTI Base Class Array'
PUBLIC	??_R1A@?0A@EA@?$Goal@VRaven_Bot@@@@8		; Goal<Raven_Bot>::`RTTI Base Class Descriptor at (0,-1,0,64)'
PUBLIC	??_R0?AV?$Goal@VRaven_Bot@@@@@8			; Goal<Raven_Bot> `RTTI Type Descriptor'
PUBLIC	??_R3?$Goal@VRaven_Bot@@@@8			; Goal<Raven_Bot>::`RTTI Class Hierarchy Descriptor'
PUBLIC	??_R2?$Goal@VRaven_Bot@@@@8			; Goal<Raven_Bot>::`RTTI Base Class Array'
PUBLIC	??_R4?$Goal_Composite@VRaven_Bot@@@@6B@		; Goal_Composite<Raven_Bot>::`RTTI Complete Object Locator'
PUBLIC	??_R4?$Goal@VRaven_Bot@@@@6B@			; Goal<Raven_Bot>::`RTTI Complete Object Locator'
PUBLIC	__real@3cb0000000000000
PUBLIC	__real@3fd99999a0000000
PUBLIC	__real@3ff0000000000000
PUBLIC	__real@4008000000000000
PUBLIC	__real@4014000000000000
PUBLIC	__real@4024000000000000
PUBLIC	__real@402e000000000000
PUBLIC	__xmm@80000000000000008000000000000000
EXTRN	__purecall:PROC
EXTRN	??2@YAPAXI@Z:PROC				; operator new
EXTRN	??3@YAXPAXI@Z:PROC				; operator delete
EXTRN	__invoke_watson:PROC
EXTRN	_sqrt:PROC
EXTRN	__CrtDbgReport:PROC
EXTRN	??0_Lockit@std@@QAE@H@Z:PROC			; std::_Lockit::_Lockit
EXTRN	??1_Lockit@std@@QAE@XZ:PROC			; std::_Lockit::~_Lockit
EXTRN	___std_exception_copy:PROC
EXTRN	___std_exception_destroy:PROC
EXTRN	??_Eexception@std@@UAEPAXI@Z:PROC		; std::exception::`vector deleting destructor'
EXTRN	??_Ebad_alloc@std@@UAEPAXI@Z:PROC		; std::bad_alloc::`vector deleting destructor'
EXTRN	??_Ebad_array_new_length@std@@UAEPAXI@Z:PROC	; std::bad_array_new_length::`vector deleting destructor'
EXTRN	?_Xlength_error@std@@YAXPBD@Z:PROC		; std::_Xlength_error
EXTRN	__imp__Ellipse@20:PROC
EXTRN	__imp__LineTo@12:PROC
EXTRN	__imp__SelectObject@8:PROC
EXTRN	__imp__SetBkMode@8:PROC
EXTRN	__imp__SetPolyFillMode@8:PROC
EXTRN	__imp__SetTextColor@8:PROC
EXTRN	__imp__MoveToEx@16:PROC
EXTRN	__imp__TextOutA@20:PROC
EXTRN	__imp__Polygon@12:PROC
EXTRN	??_Eruntime_error@std@@UAEPAXI@Z:PROC		; std::runtime_error::`vector deleting destructor'
EXTRN	?Instance@Cgdi@@SAPAV1@XZ:PROC			; Cgdi::Instance
EXTRN	??_E?$Goal@VRaven_Bot@@@@UAEPAXI@Z:PROC		; Goal<Raven_Bot>::`vector deleting destructor'
EXTRN	??_E?$Goal_Composite@VRaven_Bot@@@@UAEPAXI@Z:PROC ; Goal_Composite<Raven_Bot>::`vector deleting destructor'
EXTRN	??_EGoal_FollowPath@@UAEPAXI@Z:PROC		; Goal_FollowPath::`vector deleting destructor'
EXTRN	??0Goal_TraverseEdge@@QAE@PAVRaven_Bot@@VPathEdge@@_N@Z:PROC ; Goal_TraverseEdge::Goal_TraverseEdge
EXTRN	??0Goal_NegotiateDoor@@QAE@PAVRaven_Bot@@VPathEdge@@_N@Z:PROC ; Goal_NegotiateDoor::Goal_NegotiateDoor
EXTRN	@_RTC_CheckStackVars@8:PROC
EXTRN	@__security_check_cookie@4:PROC
EXTRN	__CxxThrowException@8:PROC
EXTRN	__RTC_CheckEsp:PROC
EXTRN	__RTC_InitBase:PROC
EXTRN	__RTC_Shutdown:PROC
EXTRN	___CxxFrameHandler3:PROC
EXTRN	??_7type_info@@6B@:QWORD			; type_info::`vftable'
EXTRN	___security_cookie:DWORD
EXTRN	__fltused:DWORD
;	COMDAT ?id@?$codecvt@DDU_Mbstatet@@@std@@2V0locale@2@A
_BSS	SEGMENT
?id@?$codecvt@DDU_Mbstatet@@@std@@2V0locale@2@A DD 01H DUP (?) ; std::codecvt<char,char,_Mbstatet>::id
_BSS	ENDS
;	COMDAT ?id@?$num_put@DV?$ostreambuf_iterator@DU?$char_traits@D@std@@@std@@@std@@2V0locale@2@A
_BSS	SEGMENT
?id@?$num_put@DV?$ostreambuf_iterator@DU?$char_traits@D@std@@@std@@@std@@2V0locale@2@A DD 01H DUP (?) ; std::num_put<char,std::ostreambuf_iterator<char,std::char_traits<char> > >::id
_BSS	ENDS
;	COMDAT ?id@?$num_get@DV?$istreambuf_iterator@DU?$char_traits@D@std@@@std@@@std@@2V0locale@2@A
_BSS	SEGMENT
?id@?$num_get@DV?$istreambuf_iterator@DU?$char_traits@D@std@@@std@@@std@@2V0locale@2@A DD 01H DUP (?) ; std::num_get<char,std::istreambuf_iterator<char,std::char_traits<char> > >::id
_BSS	ENDS
;	COMDAT ?id@?$numpunct@D@std@@2V0locale@2@A
_BSS	SEGMENT
?id@?$numpunct@D@std@@2V0locale@2@A DD 01H DUP (?)	; std::numpunct<char>::id
_BSS	ENDS
;	COMDAT CRT$XCU
CRT$XCU	SEGMENT
??id$initializer$@?$num_put@DV?$ostreambuf_iterator@DU?$char_traits@D@std@@@std@@@std@@2P6AXXZA@@3P6AXXZA DD FLAT:??__E?id@?$num_put@DV?$ostreambuf_iterator@DU?$char_traits@D@std@@@std@@@std@@2V0locale@2@A@@YAXXZ ; ??id$initializer$@?$num_put@DV?$ostreambuf_iterator@DU?$char_traits@D@std@@@std@@@std@@2P6AXXZA@@3P6AXXZA
CRT$XCU	ENDS
;	COMDAT __xmm@80000000000000008000000000000000
CONST	SEGMENT
__xmm@80000000000000008000000000000000 DB 00H, 00H, 00H, 00H, 00H, 00H, 00H
	DB	080H, 00H, 00H, 00H, 00H, 00H, 00H, 00H, 080H
CONST	ENDS
;	COMDAT __real@402e000000000000
CONST	SEGMENT
__real@402e000000000000 DQ 0402e000000000000r	; 15
CONST	ENDS
;	COMDAT __real@4024000000000000
CONST	SEGMENT
__real@4024000000000000 DQ 04024000000000000r	; 10
CONST	ENDS
;	COMDAT __real@4014000000000000
CONST	SEGMENT
__real@4014000000000000 DQ 04014000000000000r	; 5
CONST	ENDS
;	COMDAT __real@4008000000000000
CONST	SEGMENT
__real@4008000000000000 DQ 04008000000000000r	; 3
CONST	ENDS
;	COMDAT __real@3ff0000000000000
CONST	SEGMENT
__real@3ff0000000000000 DQ 03ff0000000000000r	; 1
CONST	ENDS
;	COMDAT __real@3fd99999a0000000
CONST	SEGMENT
__real@3fd99999a0000000 DQ 03fd99999a0000000r	; 0.4
CONST	ENDS
;	COMDAT __real@3cb0000000000000
CONST	SEGMENT
__real@3cb0000000000000 DQ 03cb0000000000000r	; 2.22045e-16
CONST	ENDS
;	COMDAT rtc$TMZ
rtc$TMZ	SEGMENT
__RTC_Shutdown.rtc$TMZ DD FLAT:__RTC_Shutdown
rtc$TMZ	ENDS
;	COMDAT rtc$IMZ
rtc$IMZ	SEGMENT
__RTC_InitBase.rtc$IMZ DD FLAT:__RTC_InitBase
rtc$IMZ	ENDS
;	COMDAT ??_R4?$Goal@VRaven_Bot@@@@6B@
rdata$r	SEGMENT
??_R4?$Goal@VRaven_Bot@@@@6B@ DD 00H			; Goal<Raven_Bot>::`RTTI Complete Object Locator'
	DD	00H
	DD	00H
	DD	FLAT:??_R0?AV?$Goal@VRaven_Bot@@@@@8
	DD	FLAT:??_R3?$Goal@VRaven_Bot@@@@8
rdata$r	ENDS
;	COMDAT ??_R4?$Goal_Composite@VRaven_Bot@@@@6B@
rdata$r	SEGMENT
??_R4?$Goal_Composite@VRaven_Bot@@@@6B@ DD 00H		; Goal_Composite<Raven_Bot>::`RTTI Complete Object Locator'
	DD	00H
	DD	00H
	DD	FLAT:??_R0?AV?$Goal_Composite@VRaven_Bot@@@@@8
	DD	FLAT:??_R3?$Goal_Composite@VRaven_Bot@@@@8
rdata$r	ENDS
;	COMDAT ??_R2?$Goal@VRaven_Bot@@@@8
rdata$r	SEGMENT
??_R2?$Goal@VRaven_Bot@@@@8 DD FLAT:??_R1A@?0A@EA@?$Goal@VRaven_Bot@@@@8 ; Goal<Raven_Bot>::`RTTI Base Class Array'
rdata$r	ENDS
;	COMDAT ??_R3?$Goal@VRaven_Bot@@@@8
rdata$r	SEGMENT
??_R3?$Goal@VRaven_Bot@@@@8 DD 00H			; Goal<Raven_Bot>::`RTTI Class Hierarchy Descriptor'
	DD	00H
	DD	01H
	DD	FLAT:??_R2?$Goal@VRaven_Bot@@@@8
rdata$r	ENDS
;	COMDAT ??_R0?AV?$Goal@VRaven_Bot@@@@@8
data$rs	SEGMENT
??_R0?AV?$Goal@VRaven_Bot@@@@@8 DD FLAT:??_7type_info@@6B@ ; Goal<Raven_Bot> `RTTI Type Descriptor'
	DD	00H
	DB	'.?AV?$Goal@VRaven_Bot@@@@', 00H
data$rs	ENDS
;	COMDAT ??_R1A@?0A@EA@?$Goal@VRaven_Bot@@@@8
rdata$r	SEGMENT
??_R1A@?0A@EA@?$Goal@VRaven_Bot@@@@8 DD FLAT:??_R0?AV?$Goal@VRaven_Bot@@@@@8 ; Goal<Raven_Bot>::`RTTI Base Class Descriptor at (0,-1,0,64)'
	DD	00H
	DD	00H
	DD	0ffffffffH
	DD	00H
	DD	040H
	DD	FLAT:??_R3?$Goal@VRaven_Bot@@@@8
rdata$r	ENDS
;	COMDAT ??_R2?$Goal_Composite@VRaven_Bot@@@@8
rdata$r	SEGMENT
??_R2?$Goal_Composite@VRaven_Bot@@@@8 DD FLAT:??_R1A@?0A@EA@?$Goal_Composite@VRaven_Bot@@@@8 ; Goal_Composite<Raven_Bot>::`RTTI Base Class Array'
	DD	FLAT:??_R1A@?0A@EA@?$Goal@VRaven_Bot@@@@8
rdata$r	ENDS
;	COMDAT ??_R3?$Goal_Composite@VRaven_Bot@@@@8
rdata$r	SEGMENT
??_R3?$Goal_Composite@VRaven_Bot@@@@8 DD 00H		; Goal_Composite<Raven_Bot>::`RTTI Class Hierarchy Descriptor'
	DD	00H
	DD	02H
	DD	FLAT:??_R2?$Goal_Composite@VRaven_Bot@@@@8
rdata$r	ENDS
;	COMDAT ??_R0?AV?$Goal_Composite@VRaven_Bot@@@@@8
data$rs	SEGMENT
??_R0?AV?$Goal_Composite@VRaven_Bot@@@@@8 DD FLAT:??_7type_info@@6B@ ; Goal_Composite<Raven_Bot> `RTTI Type Descriptor'
	DD	00H
	DB	'.?AV?$Goal_Composite@VRaven_Bot@@@@', 00H
data$rs	ENDS
;	COMDAT ??_R1A@?0A@EA@?$Goal_Composite@VRaven_Bot@@@@8
rdata$r	SEGMENT
??_R1A@?0A@EA@?$Goal_Composite@VRaven_Bot@@@@8 DD FLAT:??_R0?AV?$Goal_Composite@VRaven_Bot@@@@@8 ; Goal_Composite<Raven_Bot>::`RTTI Base Class Descriptor at (0,-1,0,64)'
	DD	01H
	DD	00H
	DD	0ffffffffH
	DD	00H
	DD	040H
	DD	FLAT:??_R3?$Goal_Composite@VRaven_Bot@@@@8
rdata$r	ENDS
;	COMDAT ??_R1A@?0A@EA@Goal_FollowPath@@8
rdata$r	SEGMENT
??_R1A@?0A@EA@Goal_FollowPath@@8 DD FLAT:??_R0?AVGoal_FollowPath@@@8 ; Goal_FollowPath::`RTTI Base Class Descriptor at (0,-1,0,64)'
	DD	02H
	DD	00H
	DD	0ffffffffH
	DD	00H
	DD	040H
	DD	FLAT:??_R3Goal_FollowPath@@8
rdata$r	ENDS
;	COMDAT ??_R2Goal_FollowPath@@8
rdata$r	SEGMENT
??_R2Goal_FollowPath@@8 DD FLAT:??_R1A@?0A@EA@Goal_FollowPath@@8 ; Goal_FollowPath::`RTTI Base Class Array'
	DD	FLAT:??_R1A@?0A@EA@?$Goal_Composite@VRaven_Bot@@@@8
	DD	FLAT:??_R1A@?0A@EA@?$Goal@VRaven_Bot@@@@8
rdata$r	ENDS
;	COMDAT ??_R3Goal_FollowPath@@8
rdata$r	SEGMENT
??_R3Goal_FollowPath@@8 DD 00H				; Goal_FollowPath::`RTTI Class Hierarchy Descriptor'
	DD	00H
	DD	03H
	DD	FLAT:??_R2Goal_FollowPath@@8
rdata$r	ENDS
;	COMDAT ??_R0?AVGoal_FollowPath@@@8
data$rs	SEGMENT
??_R0?AVGoal_FollowPath@@@8 DD FLAT:??_7type_info@@6B@	; Goal_FollowPath `RTTI Type Descriptor'
	DD	00H
	DB	'.?AVGoal_FollowPath@@', 00H
data$rs	ENDS
;	COMDAT ??_R4Goal_FollowPath@@6B@
rdata$r	SEGMENT
??_R4Goal_FollowPath@@6B@ DD 00H			; Goal_FollowPath::`RTTI Complete Object Locator'
	DD	00H
	DD	00H
	DD	FLAT:??_R0?AVGoal_FollowPath@@@8
	DD	FLAT:??_R3Goal_FollowPath@@8
rdata$r	ENDS
;	COMDAT ??_R1A@?0A@EA@runtime_error@std@@8
rdata$r	SEGMENT
??_R1A@?0A@EA@runtime_error@std@@8 DD FLAT:??_R0?AVruntime_error@std@@@8 ; std::runtime_error::`RTTI Base Class Descriptor at (0,-1,0,64)'
	DD	01H
	DD	00H
	DD	0ffffffffH
	DD	00H
	DD	040H
	DD	FLAT:??_R3runtime_error@std@@8
rdata$r	ENDS
;	COMDAT ??_R2runtime_error@std@@8
rdata$r	SEGMENT
??_R2runtime_error@std@@8 DD FLAT:??_R1A@?0A@EA@runtime_error@std@@8 ; std::runtime_error::`RTTI Base Class Array'
	DD	FLAT:??_R1A@?0A@EA@exception@std@@8
rdata$r	ENDS
;	COMDAT ??_R3runtime_error@std@@8
rdata$r	SEGMENT
??_R3runtime_error@std@@8 DD 00H			; std::runtime_error::`RTTI Class Hierarchy Descriptor'
	DD	00H
	DD	02H
	DD	FLAT:??_R2runtime_error@std@@8
rdata$r	ENDS
;	COMDAT ??_R4runtime_error@std@@6B@
rdata$r	SEGMENT
??_R4runtime_error@std@@6B@ DD 00H			; std::runtime_error::`RTTI Complete Object Locator'
	DD	00H
	DD	00H
	DD	FLAT:??_R0?AVruntime_error@std@@@8
	DD	FLAT:??_R3runtime_error@std@@8
rdata$r	ENDS
;	COMDAT ??_R4bad_alloc@std@@6B@
rdata$r	SEGMENT
??_R4bad_alloc@std@@6B@ DD 00H				; std::bad_alloc::`RTTI Complete Object Locator'
	DD	00H
	DD	00H
	DD	FLAT:??_R0?AVbad_alloc@std@@@8
	DD	FLAT:??_R3bad_alloc@std@@8
rdata$r	ENDS
;	COMDAT ??_R2bad_alloc@std@@8
rdata$r	SEGMENT
??_R2bad_alloc@std@@8 DD FLAT:??_R1A@?0A@EA@bad_alloc@std@@8 ; std::bad_alloc::`RTTI Base Class Array'
	DD	FLAT:??_R1A@?0A@EA@exception@std@@8
rdata$r	ENDS
;	COMDAT ??_R3bad_alloc@std@@8
rdata$r	SEGMENT
??_R3bad_alloc@std@@8 DD 00H				; std::bad_alloc::`RTTI Class Hierarchy Descriptor'
	DD	00H
	DD	02H
	DD	FLAT:??_R2bad_alloc@std@@8
rdata$r	ENDS
;	COMDAT ??_R1A@?0A@EA@bad_alloc@std@@8
rdata$r	SEGMENT
??_R1A@?0A@EA@bad_alloc@std@@8 DD FLAT:??_R0?AVbad_alloc@std@@@8 ; std::bad_alloc::`RTTI Base Class Descriptor at (0,-1,0,64)'
	DD	01H
	DD	00H
	DD	0ffffffffH
	DD	00H
	DD	040H
	DD	FLAT:??_R3bad_alloc@std@@8
rdata$r	ENDS
;	COMDAT ??_R1A@?0A@EA@bad_array_new_length@std@@8
rdata$r	SEGMENT
??_R1A@?0A@EA@bad_array_new_length@std@@8 DD FLAT:??_R0?AVbad_array_new_length@std@@@8 ; std::bad_array_new_length::`RTTI Base Class Descriptor at (0,-1,0,64)'
	DD	02H
	DD	00H
	DD	0ffffffffH
	DD	00H
	DD	040H
	DD	FLAT:??_R3bad_array_new_length@std@@8
rdata$r	ENDS
;	COMDAT ??_R2bad_array_new_length@std@@8
rdata$r	SEGMENT
??_R2bad_array_new_length@std@@8 DD FLAT:??_R1A@?0A@EA@bad_array_new_length@std@@8 ; std::bad_array_new_length::`RTTI Base Class Array'
	DD	FLAT:??_R1A@?0A@EA@bad_alloc@std@@8
	DD	FLAT:??_R1A@?0A@EA@exception@std@@8
rdata$r	ENDS
;	COMDAT ??_R3bad_array_new_length@std@@8
rdata$r	SEGMENT
??_R3bad_array_new_length@std@@8 DD 00H			; std::bad_array_new_length::`RTTI Class Hierarchy Descriptor'
	DD	00H
	DD	03H
	DD	FLAT:??_R2bad_array_new_length@std@@8
rdata$r	ENDS
;	COMDAT ??_R4bad_array_new_length@std@@6B@
rdata$r	SEGMENT
??_R4bad_array_new_length@std@@6B@ DD 00H		; std::bad_array_new_length::`RTTI Complete Object Locator'
	DD	00H
	DD	00H
	DD	FLAT:??_R0?AVbad_array_new_length@std@@@8
	DD	FLAT:??_R3bad_array_new_length@std@@8
rdata$r	ENDS
;	COMDAT ??_R1A@?0A@EA@exception@std@@8
rdata$r	SEGMENT
??_R1A@?0A@EA@exception@std@@8 DD FLAT:??_R0?AVexception@std@@@8 ; std::exception::`RTTI Base Class Descriptor at (0,-1,0,64)'
	DD	00H
	DD	00H
	DD	0ffffffffH
	DD	00H
	DD	040H
	DD	FLAT:??_R3exception@std@@8
rdata$r	ENDS
;	COMDAT ??_R2exception@std@@8
rdata$r	SEGMENT
??_R2exception@std@@8 DD FLAT:??_R1A@?0A@EA@exception@std@@8 ; std::exception::`RTTI Base Class Array'
rdata$r	ENDS
;	COMDAT ??_R3exception@std@@8
rdata$r	SEGMENT
??_R3exception@std@@8 DD 00H				; std::exception::`RTTI Class Hierarchy Descriptor'
	DD	00H
	DD	01H
	DD	FLAT:??_R2exception@std@@8
rdata$r	ENDS
;	COMDAT ??_R4exception@std@@6B@
rdata$r	SEGMENT
??_R4exception@std@@6B@ DD 00H				; std::exception::`RTTI Complete Object Locator'
	DD	00H
	DD	00H
	DD	FLAT:??_R0?AVexception@std@@@8
	DD	FLAT:??_R3exception@std@@8
rdata$r	ENDS
;	COMDAT ??_C@_0DG@KGHKKGBC@null?5pointer?5cannot?5point?5to?5a?5@
CONST	SEGMENT
??_C@_0DG@KGHKKGBC@null?5pointer?5cannot?5point?5to?5a?5@ DB 'null pointe'
	DB	'r cannot point to a block of non-zero size', 00H ; `string'
CONST	ENDS
;	COMDAT ??_C@_0CF@BAAFPBMN@cannot?5decrement?5begin?5list?5ite@
CONST	SEGMENT
??_C@_0CF@BAAFPBMN@cannot?5decrement?5begin?5list?5ite@ DB 'cannot decrem'
	DB	'ent begin list iterator', 00H		; `string'
CONST	ENDS
;	COMDAT ??_C@_0DB@MCPEHPCC@cannot?5decrement?5value?9initiali@
CONST	SEGMENT
??_C@_0DB@MCPEHPCC@cannot?5decrement?5value?9initiali@ DB 'cannot decreme'
	DB	'nt value-initialized list iterator', 00H	; `string'
CONST	ENDS
;	COMDAT ??_C@_0CF@JCBFHMPL@cannot?5dereference?5end?5list?5ite@
CONST	SEGMENT
??_C@_0CF@JCBFHMPL@cannot?5dereference?5end?5list?5ite@ DB 'cannot derefe'
	DB	'rence end list iterator', 00H		; `string'
CONST	ENDS
;	COMDAT ??_C@_0DD@MBIHGLJE@cannot?5dereference?5value?9initia@
CONST	SEGMENT
??_C@_0DD@MBIHGLJE@cannot?5dereference?5value?9initia@ DB 'cannot derefer'
	DB	'ence value-initialized list iterator', 00H	; `string'
CONST	ENDS
;	COMDAT ??_C@_0O@NKNMEGII@list?5too?5long@
CONST	SEGMENT
??_C@_0O@NKNMEGII@list?5too?5long@ DB 'list too long', 00H ; `string'
CONST	ENDS
;	COMDAT ??_C@_0CD@PMFMCEG@cannot?5increment?5end?5list?5itera@
CONST	SEGMENT
??_C@_0CD@PMFMCEG@cannot?5increment?5end?5list?5itera@ DB 'cannot increme'
	DB	'nt end list iterator', 00H			; `string'
CONST	ENDS
;	COMDAT ??_C@_0DB@ENBCPNKO@cannot?5increment?5value?9initiali@
CONST	SEGMENT
??_C@_0DB@ENBCPNKO@cannot?5increment?5value?9initiali@ DB 'cannot increme'
	DB	'nt value-initialized list iterator', 00H	; `string'
CONST	ENDS
;	COMDAT ??_C@_0BM@BALDKKHE@list?5iterators?5incompatible@
CONST	SEGMENT
??_C@_0BM@BALDKKHE@list?5iterators?5incompatible@ DB 'list iterators inco'
	DB	'mpatible', 00H				; `string'
CONST	ENDS
;	COMDAT ??_C@_0BN@GOIPFJJH@front?$CI?$CJ?5called?5on?5empty?5list@
CONST	SEGMENT
??_C@_0BN@GOIPFJJH@front?$CI?$CJ?5called?5on?5empty?5list@ DB 'front() ca'
	DB	'lled on empty list', 00H			; `string'
CONST	ENDS
;	COMDAT ??_C@_0FP@IHALIHCI@C?3?2Program?5Files?2Microsoft?5Visu@
CONST	SEGMENT
??_C@_0FP@IHALIHCI@C?3?2Program?5Files?2Microsoft?5Visu@ DB 'C:\Program F'
	DB	'iles\Microsoft Visual Studio\2022\Community\VC\Tools\MSVC\14.'
	DB	'44.35207\include\list', 00H			; `string'
CONST	ENDS
;	COMDAT ??_C@_0CB@GIIADCJH@pop_front?$CI?$CJ?5called?5on?5empty?5lis@
CONST	SEGMENT
??_C@_0CB@GIIADCJH@pop_front?$CI?$CJ?5called?5on?5empty?5lis@ DB 'pop_fro'
	DB	'nt() called on empty list', 00H		; `string'
CONST	ENDS
;	COMDAT ??_C@_0CB@OHIHCHGJ@Cannot?5add?5goals?5to?5atomic?5goal@
CONST	SEGMENT
??_C@_0CB@OHIHCHGJ@Cannot?5add?5goals?5to?5atomic?5goal@ DB 'Cannot add g'
	DB	'oals to atomic goals', 00H			; `string'
CONST	ENDS
;	COMDAT __CTA2?AVruntime_error@std@@
xdata$x	SEGMENT
__CTA2?AVruntime_error@std@@ DD 02H
	DD	FLAT:__CT??_R0?AVruntime_error@std@@@8??0runtime_error@std@@QAE@ABV01@@Z12
	DD	FLAT:__CT??_R0?AVexception@std@@@8??0exception@std@@QAE@ABV01@@Z12
xdata$x	ENDS
;	COMDAT __TI2?AVruntime_error@std@@
xdata$x	SEGMENT
__TI2?AVruntime_error@std@@ DD 00H
	DD	FLAT:??1runtime_error@std@@UAE@XZ
	DD	00H
	DD	FLAT:__CTA2?AVruntime_error@std@@
xdata$x	ENDS
;	COMDAT ??_7Goal_FollowPath@@6B@
CONST	SEGMENT
??_7Goal_FollowPath@@6B@ DD FLAT:??_R4Goal_FollowPath@@6B@ ; Goal_FollowPath::`vftable'
	DD	FLAT:??_EGoal_FollowPath@@UAEPAXI@Z
	DD	FLAT:?Activate@Goal_FollowPath@@UAEXXZ
	DD	FLAT:?Process@Goal_FollowPath@@UAEHXZ
	DD	FLAT:?Terminate@Goal_FollowPath@@UAEXXZ
	DD	FLAT:?HandleMessage@?$Goal_Composite@VRaven_Bot@@@@UAE_NABUTelegram@@@Z
	DD	FLAT:?AddSubgoal@?$Goal_Composite@VRaven_Bot@@@@UAEXPAV?$Goal@VRaven_Bot@@@@@Z
	DD	FLAT:?RenderAtPos@?$Goal_Composite@VRaven_Bot@@@@UBEXAAUVector2D@@PAVTypeToString@@@Z
	DD	FLAT:?Render@Goal_FollowPath@@UAEXXZ
CONST	ENDS
;	COMDAT ??_7?$Goal_Composite@VRaven_Bot@@@@6B@
CONST	SEGMENT
??_7?$Goal_Composite@VRaven_Bot@@@@6B@ DD FLAT:??_R4?$Goal_Composite@VRaven_Bot@@@@6B@ ; Goal_Composite<Raven_Bot>::`vftable'
	DD	FLAT:??_E?$Goal_Composite@VRaven_Bot@@@@UAEPAXI@Z
	DD	FLAT:__purecall
	DD	FLAT:__purecall
	DD	FLAT:__purecall
	DD	FLAT:?HandleMessage@?$Goal_Composite@VRaven_Bot@@@@UAE_NABUTelegram@@@Z
	DD	FLAT:?AddSubgoal@?$Goal_Composite@VRaven_Bot@@@@UAEXPAV?$Goal@VRaven_Bot@@@@@Z
	DD	FLAT:?RenderAtPos@?$Goal_Composite@VRaven_Bot@@@@UBEXAAUVector2D@@PAVTypeToString@@@Z
	DD	FLAT:?Render@?$Goal_Composite@VRaven_Bot@@@@UAEXXZ
CONST	ENDS
;	COMDAT ??_7?$Goal@VRaven_Bot@@@@6B@
CONST	SEGMENT
??_7?$Goal@VRaven_Bot@@@@6B@ DD FLAT:??_R4?$Goal@VRaven_Bot@@@@6B@ ; Goal<Raven_Bot>::`vftable'
	DD	FLAT:??_E?$Goal@VRaven_Bot@@@@UAEPAXI@Z
	DD	FLAT:__purecall
	DD	FLAT:__purecall
	DD	FLAT:__purecall
	DD	FLAT:?HandleMessage@?$Goal@VRaven_Bot@@@@UAE_NABUTelegram@@@Z
	DD	FLAT:?AddSubgoal@?$Goal@VRaven_Bot@@@@UAEXPAV1@@Z
	DD	FLAT:?RenderAtPos@?$Goal@VRaven_Bot@@@@UBEXAAUVector2D@@PAVTypeToString@@@Z
	DD	FLAT:?Render@?$Goal@VRaven_Bot@@@@UAEXXZ
CONST	ENDS
;	COMDAT __CT??_R0?AVruntime_error@std@@@8??0runtime_error@std@@QAE@ABV01@@Z12
xdata$x	SEGMENT
__CT??_R0?AVruntime_error@std@@@8??0runtime_error@std@@QAE@ABV01@@Z12 DD 00H
	DD	FLAT:??_R0?AVruntime_error@std@@@8
	DD	00H
	DD	0ffffffffH
	ORG $+4
	DD	0cH
	DD	FLAT:??0runtime_error@std@@QAE@ABV01@@Z
xdata$x	ENDS
;	COMDAT ??_R0?AVruntime_error@std@@@8
data$r	SEGMENT
??_R0?AVruntime_error@std@@@8 DD FLAT:??_7type_info@@6B@ ; std::runtime_error `RTTI Type Descriptor'
	DD	00H
	DB	'.?AVruntime_error@std@@', 00H
data$r	ENDS
;	COMDAT ??_7runtime_error@std@@6B@
CONST	SEGMENT
??_7runtime_error@std@@6B@ DD FLAT:??_R4runtime_error@std@@6B@ ; std::runtime_error::`vftable'
	DD	FLAT:??_Eruntime_error@std@@UAEPAXI@Z
	DD	FLAT:?what@exception@std@@UBEPBDXZ
CONST	ENDS
;	COMDAT ??_C@_0BJ@LFDBABJJ@ITERATOR?5LIST?5CORRUPTED?$CB@
CONST	SEGMENT
??_C@_0BJ@LFDBABJJ@ITERATOR?5LIST?5CORRUPTED?$CB@ DB 'ITERATOR LIST CORRU'
	DB	'PTED!', 00H					; `string'
CONST	ENDS
;	COMDAT ??_C@_0GC@KLECFGLI@C?3?2Program?5Files?2Microsoft?5Visu@
CONST	SEGMENT
??_C@_0GC@KLECFGLI@C?3?2Program?5Files?2Microsoft?5Visu@ DB 'C:\Program F'
	DB	'iles\Microsoft Visual Studio\2022\Community\VC\Tools\MSVC\14.'
	DB	'44.35207\include\xmemory', 00H		; `string'
CONST	ENDS
;	COMDAT ??_C@_02DKCKIIND@?$CFs@
CONST	SEGMENT
??_C@_02DKCKIIND@?$CFs@ DB '%s', 00H			; `string'
CONST	ENDS
;	COMDAT ??_C@_0BB@FCMFBGOM@invalid?5argument@
CONST	SEGMENT
??_C@_0BB@FCMFBGOM@invalid?5argument@ DB 'invalid argument', 00H ; `string'
CONST	ENDS
;	COMDAT __CT??_R0?AVbad_alloc@std@@@8??0bad_alloc@std@@QAE@ABV01@@Z12
xdata$x	SEGMENT
__CT??_R0?AVbad_alloc@std@@@8??0bad_alloc@std@@QAE@ABV01@@Z12 DD 010H
	DD	FLAT:??_R0?AVbad_alloc@std@@@8
	DD	00H
	DD	0ffffffffH
	ORG $+4
	DD	0cH
	DD	FLAT:??0bad_alloc@std@@QAE@ABV01@@Z
xdata$x	ENDS
;	COMDAT ??_R0?AVbad_alloc@std@@@8
data$r	SEGMENT
??_R0?AVbad_alloc@std@@@8 DD FLAT:??_7type_info@@6B@	; std::bad_alloc `RTTI Type Descriptor'
	DD	00H
	DB	'.?AVbad_alloc@std@@', 00H
data$r	ENDS
;	COMDAT __CT??_R0?AVbad_array_new_length@std@@@8??0bad_array_new_length@std@@QAE@ABV01@@Z12
xdata$x	SEGMENT
__CT??_R0?AVbad_array_new_length@std@@@8??0bad_array_new_length@std@@QAE@ABV01@@Z12 DD 00H
	DD	FLAT:??_R0?AVbad_array_new_length@std@@@8
	DD	00H
	DD	0ffffffffH
	ORG $+4
	DD	0cH
	DD	FLAT:??0bad_array_new_length@std@@QAE@ABV01@@Z
xdata$x	ENDS
;	COMDAT ??_R0?AVbad_array_new_length@std@@@8
data$r	SEGMENT
??_R0?AVbad_array_new_length@std@@@8 DD FLAT:??_7type_info@@6B@ ; std::bad_array_new_length `RTTI Type Descriptor'
	DD	00H
	DB	'.?AVbad_array_new_length@std@@', 00H
data$r	ENDS
;	COMDAT __CTA3?AVbad_array_new_length@std@@
xdata$x	SEGMENT
__CTA3?AVbad_array_new_length@std@@ DD 03H
	DD	FLAT:__CT??_R0?AVbad_array_new_length@std@@@8??0bad_array_new_length@std@@QAE@ABV01@@Z12
	DD	FLAT:__CT??_R0?AVbad_alloc@std@@@8??0bad_alloc@std@@QAE@ABV01@@Z12
	DD	FLAT:__CT??_R0?AVexception@std@@@8??0exception@std@@QAE@ABV01@@Z12
xdata$x	ENDS
;	COMDAT __TI3?AVbad_array_new_length@std@@
xdata$x	SEGMENT
__TI3?AVbad_array_new_length@std@@ DD 00H
	DD	FLAT:??1bad_array_new_length@std@@UAE@XZ
	DD	00H
	DD	FLAT:__CTA3?AVbad_array_new_length@std@@
xdata$x	ENDS
;	COMDAT __CT??_R0?AVexception@std@@@8??0exception@std@@QAE@ABV01@@Z12
xdata$x	SEGMENT
__CT??_R0?AVexception@std@@@8??0exception@std@@QAE@ABV01@@Z12 DD 00H
	DD	FLAT:??_R0?AVexception@std@@@8
	DD	00H
	DD	0ffffffffH
	ORG $+4
	DD	0cH
	DD	FLAT:??0exception@std@@QAE@ABV01@@Z
xdata$x	ENDS
;	COMDAT ??_R0?AVexception@std@@@8
data$r	SEGMENT
??_R0?AVexception@std@@@8 DD FLAT:??_7type_info@@6B@	; std::exception `RTTI Type Descriptor'
	DD	00H
	DB	'.?AVexception@std@@', 00H
data$r	ENDS
;	COMDAT ??_C@_0BF@KINCDENJ@bad?5array?5new?5length@
CONST	SEGMENT
??_C@_0BF@KINCDENJ@bad?5array?5new?5length@ DB 'bad array new length', 00H ; `string'
CONST	ENDS
;	COMDAT ??_7bad_array_new_length@std@@6B@
CONST	SEGMENT
??_7bad_array_new_length@std@@6B@ DD FLAT:??_R4bad_array_new_length@std@@6B@ ; std::bad_array_new_length::`vftable'
	DD	FLAT:??_Ebad_array_new_length@std@@UAEPAXI@Z
	DD	FLAT:?what@exception@std@@UBEPBDXZ
CONST	ENDS
;	COMDAT ??_7bad_alloc@std@@6B@
CONST	SEGMENT
??_7bad_alloc@std@@6B@ DD FLAT:??_R4bad_alloc@std@@6B@	; std::bad_alloc::`vftable'
	DD	FLAT:??_Ebad_alloc@std@@UAEPAXI@Z
	DD	FLAT:?what@exception@std@@UBEPBDXZ
CONST	ENDS
;	COMDAT ??_C@_0BC@EOODALEL@Unknown?5exception@
CONST	SEGMENT
??_C@_0BC@EOODALEL@Unknown?5exception@ DB 'Unknown exception', 00H ; `string'
CONST	ENDS
;	COMDAT ??_7exception@std@@6B@
CONST	SEGMENT
??_7exception@std@@6B@ DD FLAT:??_R4exception@std@@6B@	; std::exception::`vftable'
	DD	FLAT:??_Eexception@std@@UAEPAXI@Z
	DD	FLAT:?what@exception@std@@UBEPBDXZ
CONST	ENDS
;	COMDAT voltbl
voltbl	SEGMENT
_volmd	DB	09H
voltbl	ENDS
;	COMDAT xdata$x
xdata$x	SEGMENT
__ehfuncinfo$??$_Deallocate@$07@std@@YAXPAXI@Z DD 019930522H
	DD	00H
	DD	00H
	DD	2 DUP(00H)
	DD	2 DUP(00H)
	DD	00H
	DD	05H
xdata$x	ENDS
;	COMDAT voltbl
voltbl	SEGMENT
_volmd	DB	09H
voltbl	ENDS
;	COMDAT xdata$x
xdata$x	SEGMENT
__ehfuncinfo$??$_Freenode@V?$allocator@U?$_List_node@PAV?$Goal@VRaven_Bot@@@@PAX@std@@@std@@@?$_List_node@PAV?$Goal@VRaven_Bot@@@@PAX@std@@SAXAAV?$allocator@U?$_List_node@PAV?$Goal@VRaven_Bot@@@@PAX@std@@@1@PAU01@@Z DD 019930522H
	DD	00H
	DD	00H
	DD	2 DUP(00H)
	DD	2 DUP(00H)
	DD	00H
	DD	05H
xdata$x	ENDS
;	COMDAT voltbl
voltbl	SEGMENT
_volmd	DB	016H
voltbl	ENDS
;	COMDAT xdata$x
xdata$x	SEGMENT
__unwindtable$??$?0ABQAV?$Goal@VRaven_Bot@@@@@?$_List_node_emplace_op2@V?$allocator@U?$_List_node@PAV?$Goal@VRaven_Bot@@@@PAX@std@@@std@@@std@@QAE@AAV?$allocator@U?$_List_node@PAV?$Goal@VRaven_Bot@@@@PAX@std@@@1@ABQAV?$Goal@VRaven_Bot@@@@@Z DD 0ffffffffH
	DD	FLAT:__unwindfunclet$??$?0ABQAV?$Goal@VRaven_Bot@@@@@?$_List_node_emplace_op2@V?$allocator@U?$_List_node@PAV?$Goal@VRaven_Bot@@@@PAX@std@@@std@@@std@@QAE@AAV?$allocator@U?$_List_node@PAV?$Goal@VRaven_Bot@@@@PAX@std@@@1@ABQAV?$Goal@VRaven_Bot@@@@@Z$0
__ehfuncinfo$??$?0ABQAV?$Goal@VRaven_Bot@@@@@?$_List_node_emplace_op2@V?$allocator@U?$_List_node@PAV?$Goal@VRaven_Bot@@@@PAX@std@@@std@@@std@@QAE@AAV?$allocator@U?$_List_node@PAV?$Goal@VRaven_Bot@@@@PAX@std@@@1@ABQAV?$Goal@VRaven_Bot@@@@@Z DD 019930522H
	DD	01H
	DD	FLAT:__unwindtable$??$?0ABQAV?$Goal@VRaven_Bot@@@@@?$_List_node_emplace_op2@V?$allocator@U?$_List_node@PAV?$Goal@VRaven_Bot@@@@PAX@std@@@std@@@std@@QAE@AAV?$allocator@U?$_List_node@PAV?$Goal@VRaven_Bot@@@@PAX@std@@@1@ABQAV?$Goal@VRaven_Bot@@@@@Z
	DD	2 DUP(00H)
	DD	2 DUP(00H)
	DD	00H
	DD	01H
xdata$x	ENDS
;	COMDAT voltbl
voltbl	SEGMENT
_volmd	DB	09H
voltbl	ENDS
;	COMDAT xdata$x
xdata$x	SEGMENT
__ehfuncinfo$??1?$_List_node_emplace_op2@V?$allocator@U?$_List_node@PAV?$Goal@VRaven_Bot@@@@PAX@std@@@std@@@std@@QAE@XZ DD 019930522H
	DD	00H
	DD	00H
	DD	2 DUP(00H)
	DD	2 DUP(00H)
	DD	00H
	DD	05H
xdata$x	ENDS
;	COMDAT voltbl
voltbl	SEGMENT
_volmd	DB	09H
voltbl	ENDS
;	COMDAT xdata$x
xdata$x	SEGMENT
__ehfuncinfo$??$_Freenode@V?$allocator@U?$_List_node@VPathEdge@@PAX@std@@@std@@@?$_List_node@VPathEdge@@PAX@std@@SAXAAV?$allocator@U?$_List_node@VPathEdge@@PAX@std@@@1@PAU01@@Z DD 019930522H
	DD	00H
	DD	00H
	DD	2 DUP(00H)
	DD	2 DUP(00H)
	DD	00H
	DD	05H
xdata$x	ENDS
;	COMDAT voltbl
voltbl	SEGMENT
_volmd	DB	016H
voltbl	ENDS
;	COMDAT xdata$x
xdata$x	SEGMENT
__unwindtable$??$_Attach_head@U?$_List_simple_types@VPathEdge@@@std@@@?$_List_node_insert_op2@V?$allocator@U?$_List_node@VPathEdge@@PAX@std@@@std@@@std@@QAEXAAV?$_List_val@U?$_List_simple_types@VPathEdge@@@std@@@1@@Z DD 0ffffffffH
	DD	FLAT:__unwindfunclet$??$_Attach_head@U?$_List_simple_types@VPathEdge@@@std@@@?$_List_node_insert_op2@V?$allocator@U?$_List_node@VPathEdge@@PAX@std@@@std@@@std@@QAEXAAV?$_List_val@U?$_List_simple_types@VPathEdge@@@std@@@1@@Z$0
__ehfuncinfo$??$_Attach_head@U?$_List_simple_types@VPathEdge@@@std@@@?$_List_node_insert_op2@V?$allocator@U?$_List_node@VPathEdge@@PAX@std@@@std@@@std@@QAEXAAV?$_List_val@U?$_List_simple_types@VPathEdge@@@std@@@1@@Z DD 019930522H
	DD	01H
	DD	FLAT:__unwindtable$??$_Attach_head@U?$_List_simple_types@VPathEdge@@@std@@@?$_List_node_insert_op2@V?$allocator@U?$_List_node@VPathEdge@@PAX@std@@@std@@@std@@QAEXAAV?$_List_val@U?$_List_simple_types@VPathEdge@@@std@@@1@@Z
	DD	2 DUP(00H)
	DD	2 DUP(00H)
	DD	00H
	DD	01H
xdata$x	ENDS
;	COMDAT voltbl
voltbl	SEGMENT
_volmd	DB	016H
voltbl	ENDS
;	COMDAT xdata$x
xdata$x	SEGMENT
__unwindtable$??$_Append_range_unchecked@V?$_List_unchecked_const_iterator@V?$_List_val@U?$_List_simple_types@VPathEdge@@@std@@@std@@U_Iterator_base0@2@@std@@V12@@?$_List_node_insert_op2@V?$allocator@U?$_List_node@VPathEdge@@PAX@std@@@std@@@std@@QAEXV?$_List_unchecked_const_iterator@V?$_List_val@U?$_List_simple_types@VPathEdge@@@std@@@std@@U_Iterator_base0@2@@1@V21@@Z DD 0ffffffffH
	DD	FLAT:__unwindfunclet$??$_Append_range_unchecked@V?$_List_unchecked_const_iterator@V?$_List_val@U?$_List_simple_types@VPathEdge@@@std@@@std@@U_Iterator_base0@2@@std@@V12@@?$_List_node_insert_op2@V?$allocator@U?$_List_node@VPathEdge@@PAX@std@@@std@@@std@@QAEXV?$_List_unchecked_const_iterator@V?$_List_val@U?$_List_simple_types@VPathEdge@@@std@@@std@@U_Iterator_base0@2@@1@V21@@Z$0
__ehfuncinfo$??$_Append_range_unchecked@V?$_List_unchecked_const_iterator@V?$_List_val@U?$_List_simple_types@VPathEdge@@@std@@@std@@U_Iterator_base0@2@@std@@V12@@?$_List_node_insert_op2@V?$allocator@U?$_List_node@VPathEdge@@PAX@std@@@std@@@std@@QAEXV?$_List_unchecked_const_iterator@V?$_List_val@U?$_List_simple_types@VPathEdge@@@std@@@std@@U_Iterator_base0@2@@1@V21@@Z DD 019930522H
	DD	01H
	DD	FLAT:__unwindtable$??$_Append_range_unchecked@V?$_List_unchecked_const_iterator@V?$_List_val@U?$_List_simple_types@VPathEdge@@@std@@@std@@U_Iterator_base0@2@@std@@V12@@?$_List_node_insert_op2@V?$allocator@U?$_List_node@VPathEdge@@PAX@std@@@std@@@std@@QAEXV?$_List_unchecked_const_iterator@V?$_List_val@U?$_List_simple_types@VPathEdge@@@std@@@std@@U_Iterator_base0@2@@1@V21@@Z
	DD	2 DUP(00H)
	DD	2 DUP(00H)
	DD	00H
	DD	01H
xdata$x	ENDS
;	COMDAT voltbl
voltbl	SEGMENT
_volmd	DB	01eH
voltbl	ENDS
;	COMDAT xdata$x
xdata$x	SEGMENT
__unwindtable$??$_Construct_range_unchecked@V?$_List_unchecked_const_iterator@V?$_List_val@U?$_List_simple_types@VPathEdge@@@std@@@std@@U_Iterator_base0@2@@std@@V12@@?$list@VPathEdge@@V?$allocator@VPathEdge@@@std@@@std@@AAEXV?$_List_unchecked_const_iterator@V?$_List_val@U?$_List_simple_types@VPathEdge@@@std@@@std@@U_Iterator_base0@2@@1@V21@@Z DD 0ffffffffH
	DD	FLAT:__unwindfunclet$??$_Construct_range_unchecked@V?$_List_unchecked_const_iterator@V?$_List_val@U?$_List_simple_types@VPathEdge@@@std@@@std@@U_Iterator_base0@2@@std@@V12@@?$list@VPathEdge@@V?$allocator@VPathEdge@@@std@@@std@@AAEXV?$_List_unchecked_const_iterator@V?$_List_val@U?$_List_simple_types@VPathEdge@@@std@@@std@@U_Iterator_base0@2@@1@V21@@Z$0
	DD	00H
	DD	FLAT:__unwindfunclet$??$_Construct_range_unchecked@V?$_List_unchecked_const_iterator@V?$_List_val@U?$_List_simple_types@VPathEdge@@@std@@@std@@U_Iterator_base0@2@@std@@V12@@?$list@VPathEdge@@V?$allocator@VPathEdge@@@std@@@std@@AAEXV?$_List_unchecked_const_iterator@V?$_List_val@U?$_List_simple_types@VPathEdge@@@std@@@std@@U_Iterator_base0@2@@1@V21@@Z$1
__ehfuncinfo$??$_Construct_range_unchecked@V?$_List_unchecked_const_iterator@V?$_List_val@U?$_List_simple_types@VPathEdge@@@std@@@std@@U_Iterator_base0@2@@std@@V12@@?$list@VPathEdge@@V?$allocator@VPathEdge@@@std@@@std@@AAEXV?$_List_unchecked_const_iterator@V?$_List_val@U?$_List_simple_types@VPathEdge@@@std@@@std@@U_Iterator_base0@2@@1@V21@@Z DD 019930522H
	DD	02H
	DD	FLAT:__unwindtable$??$_Construct_range_unchecked@V?$_List_unchecked_const_iterator@V?$_List_val@U?$_List_simple_types@VPathEdge@@@std@@@std@@U_Iterator_base0@2@@std@@V12@@?$list@VPathEdge@@V?$allocator@VPathEdge@@@std@@@std@@AAEXV?$_List_unchecked_const_iterator@V?$_List_val@U?$_List_simple_types@VPathEdge@@@std@@@std@@U_Iterator_base0@2@@1@V21@@Z
	DD	2 DUP(00H)
	DD	2 DUP(00H)
	DD	00H
	DD	01H
xdata$x	ENDS
voltbl	SEGMENT
_volmd	DD	0ffffffffH
	DDSymXIndex: 	FLAT:__unwindfunclet$?Render@Goal_FollowPath@@UAEXXZ$0
	DD	016H
_volmd	DD	0ffffffffH
	DDSymXIndex: 	FLAT:__unwindfunclet$?Activate@Goal_FollowPath@@UAEXXZ$0
	DD	02cH
_volmd	DD	0ffffffffH
	DDSymXIndex: 	FLAT:__unwindfunclet$??0Goal_FollowPath@@QAE@PAVRaven_Bot@@V?$list@VPathEdge@@V?$allocator@VPathEdge@@@std@@@std@@@Z$0
	DD	01eH
voltbl	ENDS
xdata$x	SEGMENT
__unwindtable$?Render@Goal_FollowPath@@UAEXXZ DD 0ffffffffH
	DD	FLAT:__unwindfunclet$?Render@Goal_FollowPath@@UAEXXZ$0
__unwindtable$?Activate@Goal_FollowPath@@UAEXXZ DD 0ffffffffH
	DD	FLAT:__unwindfunclet$?Activate@Goal_FollowPath@@UAEXXZ$0
	DD	0ffffffffH
	DD	FLAT:__unwindfunclet$?Activate@Goal_FollowPath@@UAEXXZ$1
__unwindtable$??0Goal_FollowPath@@QAE@PAVRaven_Bot@@V?$list@VPathEdge@@V?$allocator@VPathEdge@@@std@@@std@@@Z DD 0ffffffffH
	DD	FLAT:__unwindfunclet$??0Goal_FollowPath@@QAE@PAVRaven_Bot@@V?$list@VPathEdge@@V?$allocator@VPathEdge@@@std@@@std@@@Z$0
	DD	00H
	DD	FLAT:__unwindfunclet$??0Goal_FollowPath@@QAE@PAVRaven_Bot@@V?$list@VPathEdge@@V?$allocator@VPathEdge@@@std@@@std@@@Z$1
__ehfuncinfo$?Render@Goal_FollowPath@@UAEXXZ DD 019930522H
	DD	01H
	DD	FLAT:__unwindtable$?Render@Goal_FollowPath@@UAEXXZ
	DD	2 DUP(00H)
	DD	2 DUP(00H)
	DD	00H
	DD	01H
__ehfuncinfo$?Activate@Goal_FollowPath@@UAEXXZ DD 019930522H
	DD	02H
	DD	FLAT:__unwindtable$?Activate@Goal_FollowPath@@UAEXXZ
	DD	2 DUP(00H)
	DD	2 DUP(00H)
	DD	00H
	DD	01H
__ehfuncinfo$??0Goal_FollowPath@@QAE@PAVRaven_Bot@@V?$list@VPathEdge@@V?$allocator@VPathEdge@@@std@@@std@@@Z DD 019930522H
	DD	02H
	DD	FLAT:__unwindtable$??0Goal_FollowPath@@QAE@PAVRaven_Bot@@V?$list@VPathEdge@@V?$allocator@VPathEdge@@@std@@@std@@@Z
	DD	2 DUP(00H)
	DD	2 DUP(00H)
	DD	00H
	DD	01H
xdata$x	ENDS
;	COMDAT voltbl
voltbl	SEGMENT
_volmd	DB	016H
voltbl	ENDS
;	COMDAT xdata$x
xdata$x	SEGMENT
__unwindtable$?RenderAtPos@?$Goal_Composite@VRaven_Bot@@@@UBEXAAUVector2D@@PAVTypeToString@@@Z DD 0ffffffffH
	DD	FLAT:__unwindfunclet$?RenderAtPos@?$Goal_Composite@VRaven_Bot@@@@UBEXAAUVector2D@@PAVTypeToString@@@Z$0
__ehfuncinfo$?RenderAtPos@?$Goal_Composite@VRaven_Bot@@@@UBEXAAUVector2D@@PAVTypeToString@@@Z DD 019930522H
	DD	01H
	DD	FLAT:__unwindtable$?RenderAtPos@?$Goal_Composite@VRaven_Bot@@@@UBEXAAUVector2D@@PAVTypeToString@@@Z
	DD	2 DUP(00H)
	DD	2 DUP(00H)
	DD	00H
	DD	01H
xdata$x	ENDS
;	COMDAT voltbl
voltbl	SEGMENT
_volmd	DB	016H
voltbl	ENDS
;	COMDAT xdata$x
xdata$x	SEGMENT
__unwindtable$?RemoveAllSubgoals@?$Goal_Composite@VRaven_Bot@@@@QAEXXZ DD 0ffffffffH
	DD	FLAT:__unwindfunclet$?RemoveAllSubgoals@?$Goal_Composite@VRaven_Bot@@@@QAEXXZ$0
__ehfuncinfo$?RemoveAllSubgoals@?$Goal_Composite@VRaven_Bot@@@@QAEXXZ DD 019930522H
	DD	01H
	DD	FLAT:__unwindtable$?RemoveAllSubgoals@?$Goal_Composite@VRaven_Bot@@@@QAEXXZ
	DD	2 DUP(00H)
	DD	2 DUP(00H)
	DD	00H
	DD	01H
xdata$x	ENDS
;	COMDAT voltbl
voltbl	SEGMENT
_volmd	DB	09H
voltbl	ENDS
;	COMDAT xdata$x
xdata$x	SEGMENT
__ehfuncinfo$??1?$Goal_Composite@VRaven_Bot@@@@UAE@XZ DD 019930522H
	DD	00H
	DD	00H
	DD	2 DUP(00H)
	DD	2 DUP(00H)
	DD	00H
	DD	05H
xdata$x	ENDS
;	COMDAT voltbl
voltbl	SEGMENT
_volmd	DB	016H
voltbl	ENDS
;	COMDAT xdata$x
xdata$x	SEGMENT
__unwindtable$??0?$Goal_Composite@VRaven_Bot@@@@QAE@PAVRaven_Bot@@H@Z DD 0ffffffffH
	DD	FLAT:__unwindfunclet$??0?$Goal_Composite@VRaven_Bot@@@@QAE@PAVRaven_Bot@@H@Z$0
__ehfuncinfo$??0?$Goal_Composite@VRaven_Bot@@@@QAE@PAVRaven_Bot@@H@Z DD 019930522H
	DD	01H
	DD	FLAT:__unwindtable$??0?$Goal_Composite@VRaven_Bot@@@@QAE@PAVRaven_Bot@@H@Z
	DD	2 DUP(00H)
	DD	2 DUP(00H)
	DD	00H
	DD	01H
xdata$x	ENDS
;	COMDAT voltbl
voltbl	SEGMENT
_volmd	DB	016H
voltbl	ENDS
;	COMDAT xdata$x
xdata$x	SEGMENT
__unwindtable$?_Alloc_sentinel_and_proxy@?$list@PAV?$Goal@VRaven_Bot@@@@V?$allocator@PAV?$Goal@VRaven_Bot@@@@@std@@@std@@AAEXXZ DD 0ffffffffH
	DD	FLAT:__unwindfunclet$?_Alloc_sentinel_and_proxy@?$list@PAV?$Goal@VRaven_Bot@@@@V?$allocator@PAV?$Goal@VRaven_Bot@@@@@std@@@std@@AAEXXZ$0
__ehfuncinfo$?_Alloc_sentinel_and_proxy@?$list@PAV?$Goal@VRaven_Bot@@@@V?$allocator@PAV?$Goal@VRaven_Bot@@@@@std@@@std@@AAEXXZ DD 019930522H
	DD	01H
	DD	FLAT:__unwindtable$?_Alloc_sentinel_and_proxy@?$list@PAV?$Goal@VRaven_Bot@@@@V?$allocator@PAV?$Goal@VRaven_Bot@@@@@std@@@std@@AAEXXZ
	DD	2 DUP(00H)
	DD	2 DUP(00H)
	DD	00H
	DD	01H
xdata$x	ENDS
;	COMDAT voltbl
voltbl	SEGMENT
_volmd	DB	016H
	DB	020H
voltbl	ENDS
;	COMDAT voltbl
voltbl	SEGMENT
_volmd	DW	02eH
	DW	0172H
voltbl	ENDS
;	COMDAT xdata$x
xdata$x	SEGMENT
__unwindtable$?RenderAtPos@?$Goal@VRaven_Bot@@@@UBEXAAUVector2D@@PAVTypeToString@@@Z DD 0ffffffffH
	DD	FLAT:__unwindfunclet$?RenderAtPos@?$Goal@VRaven_Bot@@@@UBEXAAUVector2D@@PAVTypeToString@@@Z$0
__ehfuncinfo$?RenderAtPos@?$Goal@VRaven_Bot@@@@UBEXAAUVector2D@@PAVTypeToString@@@Z DD 019930522H
	DD	01H
	DD	FLAT:__unwindtable$?RenderAtPos@?$Goal@VRaven_Bot@@@@UBEXAAUVector2D@@PAVTypeToString@@@Z
	DD	2 DUP(00H)
	DD	2 DUP(00H)
	DD	00H
	DD	01H
xdata$x	ENDS
;	COMDAT voltbl
voltbl	SEGMENT
_volmd	DW	026H
	DW	0271H
voltbl	ENDS
;	COMDAT CRT$XCU
CRT$XCU	SEGMENT
??id$initializer$@?$codecvt@DDU_Mbstatet@@@std@@2P6AXXZA@@3P6AXXZA DD FLAT:??__E?id@?$codecvt@DDU_Mbstatet@@@std@@2V0locale@2@A@@YAXXZ ; ??id$initializer$@?$codecvt@DDU_Mbstatet@@@std@@2P6AXXZA@@3P6AXXZA
CRT$XCU	ENDS
;	COMDAT CRT$XCU
CRT$XCU	SEGMENT
??id$initializer$@?$num_get@DV?$istreambuf_iterator@DU?$char_traits@D@std@@@std@@@std@@2P6AXXZA@@3P6AXXZA DD FLAT:??__E?id@?$num_get@DV?$istreambuf_iterator@DU?$char_traits@D@std@@@std@@@std@@2V0locale@2@A@@YAXXZ ; ??id$initializer$@?$num_get@DV?$istreambuf_iterator@DU?$char_traits@D@std@@@std@@@std@@2P6AXXZA@@3P6AXXZA
CRT$XCU	ENDS
;	COMDAT CRT$XCU
CRT$XCU	SEGMENT
??id$initializer$@?$numpunct@D@std@@2P6AXXZA@@3P6AXXZA DD FLAT:??__E?id@?$numpunct@D@std@@2V0locale@2@A@@YAXXZ ; ??id$initializer$@?$numpunct@D@std@@2P6AXXZA@@3P6AXXZA
CRT$XCU	ENDS
; Function compile flags: /Odtp /RTCsu
; File C:\Program Files\Microsoft Visual Studio\2022\Community\VC\Tools\MSVC\14.44.35207\include\xmemory
;	COMDAT ??$_Get_size_of_n@$0DA@@std@@YAII@Z
_TEXT	SEGMENT
__Max_possible$1 = -8					; size = 4
__Overflow_is_possible$ = -1				; size = 1
__Count$ = 8						; size = 4
??$_Get_size_of_n@$0DA@@std@@YAII@Z PROC		; std::_Get_size_of_n<48>, COMDAT

; 112  : _NODISCARD constexpr size_t _Get_size_of_n(const size_t _Count) {

	push	ebp
	mov	ebp, esp
	sub	esp, 8
	mov	DWORD PTR [ebp-8], -858993460		; ccccccccH
	mov	DWORD PTR [ebp-4], -858993460		; ccccccccH

; 113  :     constexpr bool _Overflow_is_possible = _Ty_size > 1;

	mov	BYTE PTR __Overflow_is_possible$[ebp], 1

; 114  : 
; 115  :     if constexpr (_Overflow_is_possible) {
; 116  :         constexpr size_t _Max_possible = static_cast<size_t>(-1) / _Ty_size;

	mov	DWORD PTR __Max_possible$1[ebp], 89478485 ; 05555555H

; 117  :         if (_Count > _Max_possible) {

	cmp	DWORD PTR __Count$[ebp], 89478485	; 05555555H
	jbe	SHORT $LN2@Get_size_o

; 118  :             _Throw_bad_array_new_length(); // multiply overflow

	call	?_Throw_bad_array_new_length@std@@YAXXZ	; std::_Throw_bad_array_new_length
	npad	1
$LN2@Get_size_o:

; 119  :         }
; 120  :     }
; 121  : 
; 122  :     return _Count * _Ty_size;

	imul	eax, DWORD PTR __Count$[ebp], 48
$LN1@Get_size_o:

; 123  : }

	add	esp, 8
	cmp	ebp, esp
	call	__RTC_CheckEsp
	mov	esp, ebp
	pop	ebp
	ret	0
??$_Get_size_of_n@$0DA@@std@@YAII@Z ENDP		; std::_Get_size_of_n<48>
_TEXT	ENDS
; Function compile flags: /Odtp /RTCsu
; File C:\Program Files\Microsoft Visual Studio\2022\Community\VC\Tools\MSVC\14.44.35207\include\type_traits
;	COMDAT ??$forward@ABQAU?$_List_node@PAV?$Goal@VRaven_Bot@@@@PAX@std@@@std@@YAABQAU?$_List_node@PAV?$Goal@VRaven_Bot@@@@PAX@0@ABQAU10@@Z
_TEXT	SEGMENT
__Arg$ = 8						; size = 4
??$forward@ABQAU?$_List_node@PAV?$Goal@VRaven_Bot@@@@PAX@std@@@std@@YAABQAU?$_List_node@PAV?$Goal@VRaven_Bot@@@@PAX@0@ABQAU10@@Z PROC ; std::forward<std::_List_node<Goal<Raven_Bot> *,void *> * const &>, COMDAT

; 1501 : _NODISCARD _MSVC_INTRINSIC constexpr _Ty&& forward(remove_reference_t<_Ty>& _Arg) noexcept {

	push	ebp
	mov	ebp, esp

; 1502 :     return static_cast<_Ty&&>(_Arg);

	mov	eax, DWORD PTR __Arg$[ebp]

; 1503 : }

	pop	ebp
	ret	0
??$forward@ABQAU?$_List_node@PAV?$Goal@VRaven_Bot@@@@PAX@std@@@std@@YAABQAU?$_List_node@PAV?$Goal@VRaven_Bot@@@@PAX@0@ABQAU10@@Z ENDP ; std::forward<std::_List_node<Goal<Raven_Bot> *,void *> * const &>
_TEXT	ENDS
; Function compile flags: /Odtp /RTCsu
; File C:\Program Files\Microsoft Visual Studio\2022\Community\VC\Tools\MSVC\14.44.35207\include\xmemory
;	COMDAT ??$_Get_size_of_n@$0M@@std@@YAII@Z
_TEXT	SEGMENT
__Max_possible$1 = -8					; size = 4
__Overflow_is_possible$ = -1				; size = 1
__Count$ = 8						; size = 4
??$_Get_size_of_n@$0M@@std@@YAII@Z PROC			; std::_Get_size_of_n<12>, COMDAT

; 112  : _NODISCARD constexpr size_t _Get_size_of_n(const size_t _Count) {

	push	ebp
	mov	ebp, esp
	sub	esp, 8
	mov	DWORD PTR [ebp-8], -858993460		; ccccccccH
	mov	DWORD PTR [ebp-4], -858993460		; ccccccccH

; 113  :     constexpr bool _Overflow_is_possible = _Ty_size > 1;

	mov	BYTE PTR __Overflow_is_possible$[ebp], 1

; 114  : 
; 115  :     if constexpr (_Overflow_is_possible) {
; 116  :         constexpr size_t _Max_possible = static_cast<size_t>(-1) / _Ty_size;

	mov	DWORD PTR __Max_possible$1[ebp], 357913941 ; 15555555H

; 117  :         if (_Count > _Max_possible) {

	cmp	DWORD PTR __Count$[ebp], 357913941	; 15555555H
	jbe	SHORT $LN2@Get_size_o

; 118  :             _Throw_bad_array_new_length(); // multiply overflow

	call	?_Throw_bad_array_new_length@std@@YAXXZ	; std::_Throw_bad_array_new_length
	npad	1
$LN2@Get_size_o:

; 119  :         }
; 120  :     }
; 121  : 
; 122  :     return _Count * _Ty_size;

	imul	eax, DWORD PTR __Count$[ebp], 12
$LN1@Get_size_o:

; 123  : }

	add	esp, 8
	cmp	ebp, esp
	call	__RTC_CheckEsp
	mov	esp, ebp
	pop	ebp
	ret	0
??$_Get_size_of_n@$0M@@std@@YAII@Z ENDP			; std::_Get_size_of_n<12>
_TEXT	ENDS
; Function compile flags: /Odtp /RTCsu
; File C:\Program Files\Microsoft Visual Studio\2022\Community\VC\Tools\MSVC\14.44.35207\include\utility
;	COMDAT ??$exchange@PAU?$_List_node@VPathEdge@@PAX@std@@$$T@std@@YAPAU?$_List_node@VPathEdge@@PAX@0@AAPAU10@$$QA$$T@Z
_TEXT	SEGMENT
__Old_val$ = -4						; size = 4
__Val$ = 8						; size = 4
__New_val$ = 12						; size = 4
??$exchange@PAU?$_List_node@VPathEdge@@PAX@std@@$$T@std@@YAPAU?$_List_node@VPathEdge@@PAX@0@AAPAU10@$$QA$$T@Z PROC ; std::exchange<std::_List_node<PathEdge,void *> *,std::nullptr_t>, COMDAT

; 771  :     noexcept(conjunction_v<is_nothrow_move_constructible<_Ty>, is_nothrow_assignable<_Ty&, _Other>>) {

	push	ebp
	mov	ebp, esp
	push	ecx

; 772  :     // assign _New_val to _Val, return previous _Val
; 773  :     _Ty _Old_val = static_cast<_Ty&&>(_Val);

	mov	eax, DWORD PTR __Val$[ebp]
	mov	ecx, DWORD PTR [eax]
	mov	DWORD PTR __Old_val$[ebp], ecx

; 774  :     _Val         = static_cast<_Other&&>(_New_val);

	mov	edx, DWORD PTR __Val$[ebp]
	mov	eax, DWORD PTR __New_val$[ebp]
	mov	ecx, DWORD PTR [eax]
	mov	DWORD PTR [edx], ecx

; 775  :     return _Old_val;

	mov	eax, DWORD PTR __Old_val$[ebp]

; 776  : }

	mov	esp, ebp
	pop	ebp
	ret	0
??$exchange@PAU?$_List_node@VPathEdge@@PAX@std@@$$T@std@@YAPAU?$_List_node@VPathEdge@@PAX@0@AAPAU10@$$QA$$T@Z ENDP ; std::exchange<std::_List_node<PathEdge,void *> *,std::nullptr_t>
_TEXT	ENDS
; Function compile flags: /Odtp /RTCsu
; File C:\Program Files\Microsoft Visual Studio\2022\Community\VC\Tools\MSVC\14.44.35207\include\xutility
;	COMDAT ??$_Construct_in_place@PAU?$_List_node@PAV?$Goal@VRaven_Bot@@@@PAX@std@@ABQAU12@@std@@YAXAAPAU?$_List_node@PAV?$Goal@VRaven_Bot@@@@PAX@0@ABQAU10@@Z
_TEXT	SEGMENT
$T1 = -4						; size = 4
__Obj$ = 8						; size = 4
_<_Args_0>$ = 12					; size = 4
??$_Construct_in_place@PAU?$_List_node@PAV?$Goal@VRaven_Bot@@@@PAX@std@@ABQAU12@@std@@YAXAAPAU?$_List_node@PAV?$Goal@VRaven_Bot@@@@PAX@0@ABQAU10@@Z PROC ; std::_Construct_in_place<std::_List_node<Goal<Raven_Bot> *,void *> *,std::_List_node<Goal<Raven_Bot> *,void *> * const &>, COMDAT

; 469  :     noexcept(is_nothrow_constructible_v<_Ty, _Types...>) {

	push	ebp
	mov	ebp, esp
	push	ecx
	mov	DWORD PTR [ebp-4], -858993460		; ccccccccH

; 470  : #if _HAS_CXX20
; 471  :     if (_STD is_constant_evaluated()) {
; 472  :         _STD construct_at(_STD addressof(_Obj), _STD forward<_Types>(_Args)...);
; 473  :     } else
; 474  : #endif // _HAS_CXX20
; 475  :     {
; 476  :         ::new (static_cast<void*>(_STD addressof(_Obj))) _Ty(_STD forward<_Types>(_Args)...);

	mov	eax, DWORD PTR __Obj$[ebp]
	push	eax
	call	??$addressof@PAU?$_List_node@PAV?$Goal@VRaven_Bot@@@@PAX@std@@@std@@YAPAPAU?$_List_node@PAV?$Goal@VRaven_Bot@@@@PAX@0@AAPAU10@@Z ; std::addressof<std::_List_node<Goal<Raven_Bot> *,void *> *>
	add	esp, 4
	push	eax
	push	4
	call	??2@YAPAXIPAX@Z				; operator new
	add	esp, 8
	mov	DWORD PTR $T1[ebp], eax
	mov	ecx, DWORD PTR _<_Args_0>$[ebp]
	push	ecx
	call	??$forward@ABQAU?$_List_node@PAV?$Goal@VRaven_Bot@@@@PAX@std@@@std@@YAABQAU?$_List_node@PAV?$Goal@VRaven_Bot@@@@PAX@0@ABQAU10@@Z ; std::forward<std::_List_node<Goal<Raven_Bot> *,void *> * const &>
	add	esp, 4
	mov	edx, DWORD PTR $T1[ebp]
	mov	eax, DWORD PTR [eax]
	mov	DWORD PTR [edx], eax

; 477  :     }
; 478  : }

	add	esp, 4
	cmp	ebp, esp
	call	__RTC_CheckEsp
	mov	esp, ebp
	pop	ebp
	ret	0
??$_Construct_in_place@PAU?$_List_node@PAV?$Goal@VRaven_Bot@@@@PAX@std@@ABQAU12@@std@@YAXAAPAU?$_List_node@PAV?$Goal@VRaven_Bot@@@@PAX@0@ABQAU10@@Z ENDP ; std::_Construct_in_place<std::_List_node<Goal<Raven_Bot> *,void *> *,std::_List_node<Goal<Raven_Bot> *,void *> * const &>
_TEXT	ENDS
; Function compile flags: /Odtp /RTCsu
; File C:\Program Files\Microsoft Visual Studio\2022\Community\VC\Tools\MSVC\14.44.35207\include\xlocnum
;	COMDAT ??__E?id@?$numpunct@D@std@@2V0locale@2@A@@YAXXZ
text$di	SEGMENT
??__E?id@?$numpunct@D@std@@2V0locale@2@A@@YAXXZ PROC	; `dynamic initializer for 'std::numpunct<char>::id'', COMDAT

; 236  : __PURE_APPDOMAIN_GLOBAL locale::id numpunct<_Elem>::id;

	push	ebp
	mov	ebp, esp
	mov	ecx, OFFSET ?id@?$numpunct@D@std@@2V0locale@2@A ; std::numpunct<char>::id
	call	??$?0$0A@@id@locale@std@@QAE@XZ		; std::locale::id::id<0>
	npad	1
	cmp	ebp, esp
	call	__RTC_CheckEsp
	pop	ebp
	ret	0
??__E?id@?$numpunct@D@std@@2V0locale@2@A@@YAXXZ ENDP	; `dynamic initializer for 'std::numpunct<char>::id''
text$di	ENDS
; Function compile flags: /Odtp /RTCsu
; File C:\Program Files\Microsoft Visual Studio\2022\Community\VC\Tools\MSVC\14.44.35207\include\xlocnum
;	COMDAT ??__E?id@?$num_get@DV?$istreambuf_iterator@DU?$char_traits@D@std@@@std@@@std@@2V0locale@2@A@@YAXXZ
text$di	SEGMENT
??__E?id@?$num_get@DV?$istreambuf_iterator@DU?$char_traits@D@std@@@std@@@std@@2V0locale@2@A@@YAXXZ PROC ; `dynamic initializer for 'std::num_get<char,std::istreambuf_iterator<char,std::char_traits<char> > >::id'', COMDAT

; 1171 : __PURE_APPDOMAIN_GLOBAL locale::id num_get<_Elem, _InIt>::id;

	push	ebp
	mov	ebp, esp
	mov	ecx, OFFSET ?id@?$num_get@DV?$istreambuf_iterator@DU?$char_traits@D@std@@@std@@@std@@2V0locale@2@A ; std::num_get<char,std::istreambuf_iterator<char,std::char_traits<char> > >::id
	call	??$?0$0A@@id@locale@std@@QAE@XZ		; std::locale::id::id<0>
	npad	1
	cmp	ebp, esp
	call	__RTC_CheckEsp
	pop	ebp
	ret	0
??__E?id@?$num_get@DV?$istreambuf_iterator@DU?$char_traits@D@std@@@std@@@std@@2V0locale@2@A@@YAXXZ ENDP ; `dynamic initializer for 'std::num_get<char,std::istreambuf_iterator<char,std::char_traits<char> > >::id''
text$di	ENDS
; Function compile flags: /Odtp /RTCsu
; File C:\Program Files\Microsoft Visual Studio\2022\Community\VC\Tools\MSVC\14.44.35207\include\xmemory
;	COMDAT ??$destroy@PAV?$Goal@VRaven_Bot@@@@@?$_Default_allocator_traits@V?$allocator@U?$_List_node@PAV?$Goal@VRaven_Bot@@@@PAX@std@@@std@@@std@@SAXAAV?$allocator@U?$_List_node@PAV?$Goal@VRaven_Bot@@@@PAX@std@@@1@QAPAV?$Goal@VRaven_Bot@@@@@Z
_TEXT	SEGMENT
___formal$ = 8						; size = 4
__Ptr$ = 12						; size = 4
??$destroy@PAV?$Goal@VRaven_Bot@@@@@?$_Default_allocator_traits@V?$allocator@U?$_List_node@PAV?$Goal@VRaven_Bot@@@@PAX@std@@@std@@@std@@SAXAAV?$allocator@U?$_List_node@PAV?$Goal@VRaven_Bot@@@@PAX@std@@@1@QAPAV?$Goal@VRaven_Bot@@@@@Z PROC ; std::_Default_allocator_traits<std::allocator<std::_List_node<Goal<Raven_Bot> *,void *> > >::destroy<Goal<Raven_Bot> *>, COMDAT

; 737  :     static _CONSTEXPR20 void destroy(_Alloc&, _Uty* const _Ptr) {

	push	ebp
	mov	ebp, esp

; 738  : #if _HAS_CXX20
; 739  :         _STD destroy_at(_Ptr);
; 740  : #else // ^^^ _HAS_CXX20 / !_HAS_CXX20 vvv
; 741  :         _Ptr->~_Uty();
; 742  : #endif // ^^^ !_HAS_CXX20 ^^^
; 743  :     }

	pop	ebp
	ret	0
??$destroy@PAV?$Goal@VRaven_Bot@@@@@?$_Default_allocator_traits@V?$allocator@U?$_List_node@PAV?$Goal@VRaven_Bot@@@@PAX@std@@@std@@@std@@SAXAAV?$allocator@U?$_List_node@PAV?$Goal@VRaven_Bot@@@@PAX@std@@@1@QAPAV?$Goal@VRaven_Bot@@@@@Z ENDP ; std::_Default_allocator_traits<std::allocator<std::_List_node<Goal<Raven_Bot> *,void *> > >::destroy<Goal<Raven_Bot> *>
_TEXT	ENDS
; Function compile flags: /Odtp /RTCsu
; File C:\Program Files\Microsoft Visual Studio\2022\Community\VC\Tools\MSVC\14.44.35207\include\xmemory
;	COMDAT ??$_Destroy_in_place@PAU?$_List_node@PAV?$Goal@VRaven_Bot@@@@PAX@std@@@std@@YAXAAPAU?$_List_node@PAV?$Goal@VRaven_Bot@@@@PAX@0@@Z
_TEXT	SEGMENT
__Obj$ = 8						; size = 4
??$_Destroy_in_place@PAU?$_List_node@PAV?$Goal@VRaven_Bot@@@@PAX@std@@@std@@YAXAAPAU?$_List_node@PAV?$Goal@VRaven_Bot@@@@PAX@0@@Z PROC ; std::_Destroy_in_place<std::_List_node<Goal<Raven_Bot> *,void *> *>, COMDAT

; 320  : _CONSTEXPR20 void _Destroy_in_place(_Ty& _Obj) noexcept {

	push	ebp
	mov	ebp, esp

; 321  :     if constexpr (is_array_v<_Ty>) {
; 322  :         _STD _Destroy_range(_Obj, _Obj + extent_v<_Ty>);
; 323  :     } else {
; 324  :         _Obj.~_Ty();
; 325  :     }
; 326  : }

	pop	ebp
	ret	0
??$_Destroy_in_place@PAU?$_List_node@PAV?$Goal@VRaven_Bot@@@@PAX@std@@@std@@YAXAAPAU?$_List_node@PAV?$Goal@VRaven_Bot@@@@PAX@0@@Z ENDP ; std::_Destroy_in_place<std::_List_node<Goal<Raven_Bot> *,void *> *>
_TEXT	ENDS
; Function compile flags: /Odtp /RTCsu
; File C:\Program Files\Microsoft Visual Studio\2022\Community\VC\Tools\MSVC\14.44.35207\include\type_traits
;	COMDAT ??$forward@AAPAU?$_List_node@PAV?$Goal@VRaven_Bot@@@@PAX@std@@@std@@YAAAPAU?$_List_node@PAV?$Goal@VRaven_Bot@@@@PAX@0@AAPAU10@@Z
_TEXT	SEGMENT
__Arg$ = 8						; size = 4
??$forward@AAPAU?$_List_node@PAV?$Goal@VRaven_Bot@@@@PAX@std@@@std@@YAAAPAU?$_List_node@PAV?$Goal@VRaven_Bot@@@@PAX@0@AAPAU10@@Z PROC ; std::forward<std::_List_node<Goal<Raven_Bot> *,void *> * &>, COMDAT

; 1501 : _NODISCARD _MSVC_INTRINSIC constexpr _Ty&& forward(remove_reference_t<_Ty>& _Arg) noexcept {

	push	ebp
	mov	ebp, esp

; 1502 :     return static_cast<_Ty&&>(_Arg);

	mov	eax, DWORD PTR __Arg$[ebp]

; 1503 : }

	pop	ebp
	ret	0
??$forward@AAPAU?$_List_node@PAV?$Goal@VRaven_Bot@@@@PAX@std@@@std@@YAAAPAU?$_List_node@PAV?$Goal@VRaven_Bot@@@@PAX@0@AAPAU10@@Z ENDP ; std::forward<std::_List_node<Goal<Raven_Bot> *,void *> * &>
_TEXT	ENDS
; Function compile flags: /Odtp /RTCsu
; File C:\Program Files\Microsoft Visual Studio\2022\Community\VC\Tools\MSVC\14.44.35207\include\type_traits
;	COMDAT ??$addressof@PAU?$_List_node@PAV?$Goal@VRaven_Bot@@@@PAX@std@@@std@@YAPAPAU?$_List_node@PAV?$Goal@VRaven_Bot@@@@PAX@0@AAPAU10@@Z
_TEXT	SEGMENT
__Val$ = 8						; size = 4
??$addressof@PAU?$_List_node@PAV?$Goal@VRaven_Bot@@@@PAX@std@@@std@@YAPAPAU?$_List_node@PAV?$Goal@VRaven_Bot@@@@PAX@0@AAPAU10@@Z PROC ; std::addressof<std::_List_node<Goal<Raven_Bot> *,void *> *>, COMDAT

; 1524 : _NODISCARD constexpr _Ty* addressof(_Ty& _Val) noexcept {

	push	ebp
	mov	ebp, esp

; 1525 :     return __builtin_addressof(_Val);

	mov	eax, DWORD PTR __Val$[ebp]

; 1526 : }

	pop	ebp
	ret	0
??$addressof@PAU?$_List_node@PAV?$Goal@VRaven_Bot@@@@PAX@std@@@std@@YAPAPAU?$_List_node@PAV?$Goal@VRaven_Bot@@@@PAX@0@AAPAU10@@Z ENDP ; std::addressof<std::_List_node<Goal<Raven_Bot> *,void *> *>
_TEXT	ENDS
; Function compile flags: /Odtp /RTCsu
; File C:\Program Files\Microsoft Visual Studio\2022\Community\VC\Tools\MSVC\14.44.35207\include\xmemory
;	COMDAT ??$_Allocate_manually_vector_aligned@U_Default_allocate_traits@std@@@std@@YAPAXI@Z
_TEXT	SEGMENT
__Ptr$ = -12						; size = 4
__Ptr_container$ = -8					; size = 4
__Block_size$ = -4					; size = 4
__Bytes$ = 8						; size = 4
??$_Allocate_manually_vector_aligned@U_Default_allocate_traits@std@@@std@@YAPAXI@Z PROC ; std::_Allocate_manually_vector_aligned<std::_Default_allocate_traits>, COMDAT

; 182  : __declspec(allocator) void* _Allocate_manually_vector_aligned(const size_t _Bytes) {

	push	ebp
	mov	ebp, esp
	sub	esp, 12					; 0000000cH
	mov	DWORD PTR [ebp-12], -858993460		; ccccccccH
	mov	DWORD PTR [ebp-8], -858993460		; ccccccccH
	mov	DWORD PTR [ebp-4], -858993460		; ccccccccH

; 183  :     // allocate _Bytes manually aligned to at least _Big_allocation_alignment
; 184  :     const size_t _Block_size = _Non_user_size + _Bytes;

	mov	eax, DWORD PTR __Bytes$[ebp]
	add	eax, 39					; 00000027H
	mov	DWORD PTR __Block_size$[ebp], eax

; 185  :     if (_Block_size <= _Bytes) {

	mov	ecx, DWORD PTR __Block_size$[ebp]
	cmp	ecx, DWORD PTR __Bytes$[ebp]
	ja	SHORT $LN2@Allocate_m

; 186  :         _Throw_bad_array_new_length(); // add overflow

	call	?_Throw_bad_array_new_length@std@@YAXXZ	; std::_Throw_bad_array_new_length
	npad	1
$LN2@Allocate_m:

; 187  :     }
; 188  : 
; 189  :     const uintptr_t _Ptr_container = reinterpret_cast<uintptr_t>(_Traits::_Allocate(_Block_size));

	mov	edx, DWORD PTR __Block_size$[ebp]
	push	edx
	call	?_Allocate@_Default_allocate_traits@std@@SAPAXI@Z ; std::_Default_allocate_traits::_Allocate
	add	esp, 4
	mov	DWORD PTR __Ptr_container$[ebp], eax

; 190  :     _STL_VERIFY(_Ptr_container != 0, "invalid argument"); // validate even in release since we're doing p[-1]

	cmp	DWORD PTR __Ptr_container$[ebp], 0
	jne	SHORT $LN3@Allocate_m
	push	OFFSET $SG220120
	push	OFFSET $SG220121
	push	0
	push	190					; 000000beH
	push	OFFSET $SG220122
	push	2
	call	__CrtDbgReport
	add	esp, 24					; 00000018H
	cmp	eax, 1
	jne	SHORT $LN5@Allocate_m
	int	3
$LN5@Allocate_m:
	push	0
	push	0
	push	0
	push	0
	push	0
	call	__invoke_watson
	npad	1
$LN3@Allocate_m:

; 191  :     void* const _Ptr = reinterpret_cast<void*>((_Ptr_container + _Non_user_size) & ~(_Big_allocation_alignment - 1));

	mov	ecx, DWORD PTR __Ptr_container$[ebp]
	add	ecx, 39					; 00000027H
	and	ecx, -32				; ffffffe0H
	mov	DWORD PTR __Ptr$[ebp], ecx

; 192  :     static_cast<uintptr_t*>(_Ptr)[-1] = _Ptr_container;

	mov	edx, 4
	imul	eax, edx, -1
	mov	ecx, DWORD PTR __Ptr$[ebp]
	mov	edx, DWORD PTR __Ptr_container$[ebp]
	mov	DWORD PTR [ecx+eax], edx

; 193  : 
; 194  : #ifdef _DEBUG
; 195  :     static_cast<uintptr_t*>(_Ptr)[-2] = _Big_allocation_sentinel;

	mov	eax, 4
	imul	ecx, eax, -2
	mov	edx, DWORD PTR __Ptr$[ebp]
	mov	DWORD PTR [edx+ecx], -84215046		; fafafafaH

; 196  : #endif // defined(_DEBUG)
; 197  :     return _Ptr;

	mov	eax, DWORD PTR __Ptr$[ebp]
$LN1@Allocate_m:

; 198  : }

	add	esp, 12					; 0000000cH
	cmp	ebp, esp
	call	__RTC_CheckEsp
	mov	esp, ebp
	pop	ebp
	ret	0
??$_Allocate_manually_vector_aligned@U_Default_allocate_traits@std@@@std@@YAPAXI@Z ENDP ; std::_Allocate_manually_vector_aligned<std::_Default_allocate_traits>
_TEXT	ENDS
; Function compile flags: /Odtp /RTCsu
; File C:\Program Files\Microsoft Visual Studio\2022\Community\VC\Tools\MSVC\14.44.35207\include\type_traits
;	COMDAT ??$forward@PAU?$_List_node@VPathEdge@@PAX@std@@@std@@YA$$QAPAU?$_List_node@VPathEdge@@PAX@0@AAPAU10@@Z
_TEXT	SEGMENT
__Arg$ = 8						; size = 4
??$forward@PAU?$_List_node@VPathEdge@@PAX@std@@@std@@YA$$QAPAU?$_List_node@VPathEdge@@PAX@0@AAPAU10@@Z PROC ; std::forward<std::_List_node<PathEdge,void *> *>, COMDAT

; 1501 : _NODISCARD _MSVC_INTRINSIC constexpr _Ty&& forward(remove_reference_t<_Ty>& _Arg) noexcept {

	push	ebp
	mov	ebp, esp

; 1502 :     return static_cast<_Ty&&>(_Arg);

	mov	eax, DWORD PTR __Arg$[ebp]

; 1503 : }

	pop	ebp
	ret	0
??$forward@PAU?$_List_node@VPathEdge@@PAX@std@@@std@@YA$$QAPAU?$_List_node@VPathEdge@@PAX@0@AAPAU10@@Z ENDP ; std::forward<std::_List_node<PathEdge,void *> *>
_TEXT	ENDS
; Function compile flags: /Odtp /RTCsu
; File C:\Program Files\Microsoft Visual Studio\2022\Community\VC\Tools\MSVC\14.44.35207\include\xmemory
;	COMDAT ??$construct@PAV?$Goal@VRaven_Bot@@@@ABQAV1@@?$_Default_allocator_traits@V?$allocator@U?$_List_node@PAV?$Goal@VRaven_Bot@@@@PAX@std@@@std@@@std@@SAXAAV?$allocator@U?$_List_node@PAV?$Goal@VRaven_Bot@@@@PAX@std@@@1@QAPAV?$Goal@VRaven_Bot@@@@ABQAV3@@Z
_TEXT	SEGMENT
$T1 = -4						; size = 4
___formal$ = 8						; size = 4
__Ptr$ = 12						; size = 4
_<_Args_0>$ = 16					; size = 4
??$construct@PAV?$Goal@VRaven_Bot@@@@ABQAV1@@?$_Default_allocator_traits@V?$allocator@U?$_List_node@PAV?$Goal@VRaven_Bot@@@@PAX@std@@@std@@@std@@SAXAAV?$allocator@U?$_List_node@PAV?$Goal@VRaven_Bot@@@@PAX@std@@@1@QAPAV?$Goal@VRaven_Bot@@@@ABQAV3@@Z PROC ; std::_Default_allocator_traits<std::allocator<std::_List_node<Goal<Raven_Bot> *,void *> > >::construct<Goal<Raven_Bot> *,Goal<Raven_Bot> * const &>, COMDAT

; 728  :     static _CONSTEXPR20 void construct(_Alloc&, _Objty* const _Ptr, _Types&&... _Args) {

	push	ebp
	mov	ebp, esp
	push	ecx
	mov	DWORD PTR [ebp-4], -858993460		; ccccccccH

; 729  : #if _HAS_CXX20
; 730  :         _STD construct_at(_Ptr, _STD forward<_Types>(_Args)...);
; 731  : #else // ^^^ _HAS_CXX20 / !_HAS_CXX20 vvv
; 732  :         ::new (const_cast<void*>(static_cast<const volatile void*>(_Ptr))) _Objty(_STD forward<_Types>(_Args)...);

	mov	eax, DWORD PTR __Ptr$[ebp]
	push	eax
	push	4
	call	??2@YAPAXIPAX@Z				; operator new
	add	esp, 8
	mov	DWORD PTR $T1[ebp], eax
	mov	ecx, DWORD PTR _<_Args_0>$[ebp]
	push	ecx
	call	??$forward@ABQAV?$Goal@VRaven_Bot@@@@@std@@YAABQAV?$Goal@VRaven_Bot@@@@ABQAV1@@Z ; std::forward<Goal<Raven_Bot> * const &>
	add	esp, 4
	mov	edx, DWORD PTR $T1[ebp]
	mov	eax, DWORD PTR [eax]
	mov	DWORD PTR [edx], eax

; 733  : #endif // ^^^ !_HAS_CXX20 ^^^
; 734  :     }

	add	esp, 4
	cmp	ebp, esp
	call	__RTC_CheckEsp
	mov	esp, ebp
	pop	ebp
	ret	0
??$construct@PAV?$Goal@VRaven_Bot@@@@ABQAV1@@?$_Default_allocator_traits@V?$allocator@U?$_List_node@PAV?$Goal@VRaven_Bot@@@@PAX@std@@@std@@@std@@SAXAAV?$allocator@U?$_List_node@PAV?$Goal@VRaven_Bot@@@@PAX@std@@@1@QAPAV?$Goal@VRaven_Bot@@@@ABQAV3@@Z ENDP ; std::_Default_allocator_traits<std::allocator<std::_List_node<Goal<Raven_Bot> *,void *> > >::construct<Goal<Raven_Bot> *,Goal<Raven_Bot> * const &>
_TEXT	ENDS
; Function compile flags: /Odtp /RTCsu
; File C:\Program Files\Microsoft Visual Studio\2022\Community\VC\Tools\MSVC\14.44.35207\include\type_traits
;	COMDAT ??$addressof@PAV?$Goal@VRaven_Bot@@@@@std@@YAPAPAV?$Goal@VRaven_Bot@@@@AAPAV1@@Z
_TEXT	SEGMENT
__Val$ = 8						; size = 4
??$addressof@PAV?$Goal@VRaven_Bot@@@@@std@@YAPAPAV?$Goal@VRaven_Bot@@@@AAPAV1@@Z PROC ; std::addressof<Goal<Raven_Bot> *>, COMDAT

; 1524 : _NODISCARD constexpr _Ty* addressof(_Ty& _Val) noexcept {

	push	ebp
	mov	ebp, esp

; 1525 :     return __builtin_addressof(_Val);

	mov	eax, DWORD PTR __Val$[ebp]

; 1526 : }

	pop	ebp
	ret	0
??$addressof@PAV?$Goal@VRaven_Bot@@@@@std@@YAPAPAV?$Goal@VRaven_Bot@@@@AAPAV1@@Z ENDP ; std::addressof<Goal<Raven_Bot> *>
_TEXT	ENDS
; Function compile flags: /Odtp /RTCsu
; File C:\Program Files\Microsoft Visual Studio\2022\Community\VC\Tools\MSVC\14.44.35207\include\type_traits
;	COMDAT ??$forward@ABQAU?$_List_node@VPathEdge@@PAX@std@@@std@@YAABQAU?$_List_node@VPathEdge@@PAX@0@ABQAU10@@Z
_TEXT	SEGMENT
__Arg$ = 8						; size = 4
??$forward@ABQAU?$_List_node@VPathEdge@@PAX@std@@@std@@YAABQAU?$_List_node@VPathEdge@@PAX@0@ABQAU10@@Z PROC ; std::forward<std::_List_node<PathEdge,void *> * const &>, COMDAT

; 1501 : _NODISCARD _MSVC_INTRINSIC constexpr _Ty&& forward(remove_reference_t<_Ty>& _Arg) noexcept {

	push	ebp
	mov	ebp, esp

; 1502 :     return static_cast<_Ty&&>(_Arg);

	mov	eax, DWORD PTR __Arg$[ebp]

; 1503 : }

	pop	ebp
	ret	0
??$forward@ABQAU?$_List_node@VPathEdge@@PAX@std@@@std@@YAABQAU?$_List_node@VPathEdge@@PAX@0@ABQAU10@@Z ENDP ; std::forward<std::_List_node<PathEdge,void *> * const &>
_TEXT	ENDS
; Function compile flags: /Odtp /RTCsu
; File C:\Program Files\Microsoft Visual Studio\2022\Community\VC\Tools\MSVC\14.44.35207\include\type_traits
;	COMDAT ??$forward@AAPAU?$_List_node@VPathEdge@@PAX@std@@@std@@YAAAPAU?$_List_node@VPathEdge@@PAX@0@AAPAU10@@Z
_TEXT	SEGMENT
__Arg$ = 8						; size = 4
??$forward@AAPAU?$_List_node@VPathEdge@@PAX@std@@@std@@YAAAPAU?$_List_node@VPathEdge@@PAX@0@AAPAU10@@Z PROC ; std::forward<std::_List_node<PathEdge,void *> * &>, COMDAT

; 1501 : _NODISCARD _MSVC_INTRINSIC constexpr _Ty&& forward(remove_reference_t<_Ty>& _Arg) noexcept {

	push	ebp
	mov	ebp, esp

; 1502 :     return static_cast<_Ty&&>(_Arg);

	mov	eax, DWORD PTR __Arg$[ebp]

; 1503 : }

	pop	ebp
	ret	0
??$forward@AAPAU?$_List_node@VPathEdge@@PAX@std@@@std@@YAAAPAU?$_List_node@VPathEdge@@PAX@0@AAPAU10@@Z ENDP ; std::forward<std::_List_node<PathEdge,void *> * &>
_TEXT	ENDS
; Function compile flags: /Odtp /RTCsu
; File C:\Program Files\Microsoft Visual Studio\2022\Community\VC\Tools\MSVC\14.44.35207\include\type_traits
;	COMDAT ??$addressof@PAU?$_List_node@VPathEdge@@PAX@std@@@std@@YAPAPAU?$_List_node@VPathEdge@@PAX@0@AAPAU10@@Z
_TEXT	SEGMENT
__Val$ = 8						; size = 4
??$addressof@PAU?$_List_node@VPathEdge@@PAX@std@@@std@@YAPAPAU?$_List_node@VPathEdge@@PAX@0@AAPAU10@@Z PROC ; std::addressof<std::_List_node<PathEdge,void *> *>, COMDAT

; 1524 : _NODISCARD constexpr _Ty* addressof(_Ty& _Val) noexcept {

	push	ebp
	mov	ebp, esp

; 1525 :     return __builtin_addressof(_Val);

	mov	eax, DWORD PTR __Val$[ebp]

; 1526 : }

	pop	ebp
	ret	0
??$addressof@PAU?$_List_node@VPathEdge@@PAX@std@@@std@@YAPAPAU?$_List_node@VPathEdge@@PAX@0@AAPAU10@@Z ENDP ; std::addressof<std::_List_node<PathEdge,void *> *>
_TEXT	ENDS
; Function compile flags: /Odtp /RTCsu
; File C:\Program Files\Microsoft Visual Studio\2022\Community\VC\Tools\MSVC\14.44.35207\include\type_traits
;	COMDAT ??$forward@ABVPathEdge@@@std@@YAABVPathEdge@@ABV1@@Z
_TEXT	SEGMENT
__Arg$ = 8						; size = 4
??$forward@ABVPathEdge@@@std@@YAABVPathEdge@@ABV1@@Z PROC ; std::forward<PathEdge const &>, COMDAT

; 1501 : _NODISCARD _MSVC_INTRINSIC constexpr _Ty&& forward(remove_reference_t<_Ty>& _Arg) noexcept {

	push	ebp
	mov	ebp, esp

; 1502 :     return static_cast<_Ty&&>(_Arg);

	mov	eax, DWORD PTR __Arg$[ebp]

; 1503 : }

	pop	ebp
	ret	0
??$forward@ABVPathEdge@@@std@@YAABVPathEdge@@ABV1@@Z ENDP ; std::forward<PathEdge const &>
_TEXT	ENDS
; Function compile flags: /Odtp /RTCsu
; File C:\Program Files\Microsoft Visual Studio\2022\Community\VC\Tools\MSVC\14.44.35207\include\utility
;	COMDAT ??$_Max_limit@H@std@@YAHXZ
_TEXT	SEGMENT
__Unsigned_max$1 = -4					; size = 4
??$_Max_limit@H@std@@YAHXZ PROC				; std::_Max_limit<int>, COMDAT

; 863  : _NODISCARD constexpr _Ty _Max_limit() noexcept { // same as (numeric_limits<_Ty>::max)(), less throughput cost

	push	ebp
	mov	ebp, esp
	push	ecx

; 864  :     _STL_INTERNAL_STATIC_ASSERT(is_integral_v<_Ty>); // doesn't attempt to handle all types
; 865  :     if constexpr (is_signed_v<_Ty>) {
; 866  :         constexpr auto _Unsigned_max = static_cast<make_unsigned_t<_Ty>>(-1);

	mov	DWORD PTR __Unsigned_max$1[ebp], -1

; 867  :         return static_cast<_Ty>(_Unsigned_max >> 1);

	mov	eax, 2147483647				; 7fffffffH

; 868  :     } else {
; 869  :         return static_cast<_Ty>(-1);
; 870  :     }
; 871  : }

	mov	esp, ebp
	pop	ebp
	ret	0
??$_Max_limit@H@std@@YAHXZ ENDP				; std::_Max_limit<int>
_TEXT	ENDS
; Function compile flags: /Odtp /RTCsu
; File C:\Program Files\Microsoft Visual Studio\2022\Community\VC\Tools\MSVC\14.44.35207\include\xmemory
;	COMDAT ??$_Destroy_in_place@PAD@std@@YAXAAPAD@Z
_TEXT	SEGMENT
__Obj$ = 8						; size = 4
??$_Destroy_in_place@PAD@std@@YAXAAPAD@Z PROC		; std::_Destroy_in_place<char *>, COMDAT

; 320  : _CONSTEXPR20 void _Destroy_in_place(_Ty& _Obj) noexcept {

	push	ebp
	mov	ebp, esp

; 321  :     if constexpr (is_array_v<_Ty>) {
; 322  :         _STD _Destroy_range(_Obj, _Obj + extent_v<_Ty>);
; 323  :     } else {
; 324  :         _Obj.~_Ty();
; 325  :     }
; 326  : }

	pop	ebp
	ret	0
??$_Destroy_in_place@PAD@std@@YAXAAPAD@Z ENDP		; std::_Destroy_in_place<char *>
_TEXT	ENDS
; Function compile flags: /Odtp /RTCsu
; File C:\Program Files\Microsoft Visual Studio\2022\Community\VC\Tools\MSVC\14.44.35207\include\xmemory
;	COMDAT ??$_Deallocate@$07@std@@YAXPAXI@Z
_TEXT	SEGMENT
__$EHRec$ = -12						; size = 12
__Ptr$ = 8						; size = 4
__Bytes$ = 12						; size = 4
??$_Deallocate@$07@std@@YAXPAXI@Z PROC			; std::_Deallocate<8>, COMDAT

; 261  : _CONSTEXPR20 void _Deallocate(void* _Ptr, size_t _Bytes) noexcept {

	push	ebp
	mov	ebp, esp
	push	-1
	push	__ehhandler$??$_Deallocate@$07@std@@YAXPAXI@Z
	mov	eax, DWORD PTR fs:0
	push	eax
	mov	eax, DWORD PTR ___security_cookie
	xor	eax, ebp
	push	eax
	lea	eax, DWORD PTR __$EHRec$[ebp]
	mov	DWORD PTR fs:0, eax

; 262  :     // deallocate storage allocated by _Allocate
; 263  : #if _HAS_CXX20 // TRANSITION, GH-1532
; 264  :     if (_STD is_constant_evaluated()) {
; 265  :         ::operator delete(_Ptr);
; 266  :         return;
; 267  :     }
; 268  : #endif // _HAS_CXX20
; 269  : 
; 270  : #ifdef __cpp_aligned_new
; 271  :     if constexpr (_Align > __STDCPP_DEFAULT_NEW_ALIGNMENT__) {
; 272  :         size_t _Passed_align = _Align;
; 273  : #if defined(_M_IX86) || defined(_M_X64)
; 274  :         if (_Bytes >= _Big_allocation_threshold) {
; 275  :             // boost the alignment of big allocations to help autovectorization
; 276  :             _Passed_align = (_STD max)(_Align, _Big_allocation_alignment);
; 277  :         }
; 278  : #endif // defined(_M_IX86) || defined(_M_X64)
; 279  :         ::operator delete(_Ptr, _Bytes, align_val_t{_Passed_align});
; 280  :     } else
; 281  : #endif // defined(__cpp_aligned_new)
; 282  :     {
; 283  : #if defined(_M_IX86) || defined(_M_X64)
; 284  :         if (_Bytes >= _Big_allocation_threshold) {

	cmp	DWORD PTR __Bytes$[ebp], 4096		; 00001000H
	jb	SHORT $LN2@Deallocate

; 285  :             // boost the alignment of big allocations to help autovectorization
; 286  :             _Adjust_manually_vector_aligned(_Ptr, _Bytes);

	lea	eax, DWORD PTR __Bytes$[ebp]
	push	eax
	lea	ecx, DWORD PTR __Ptr$[ebp]
	push	ecx
	call	?_Adjust_manually_vector_aligned@std@@YAXAAPAXAAI@Z ; std::_Adjust_manually_vector_aligned
	add	esp, 8
$LN2@Deallocate:

; 287  :         }
; 288  : #endif // defined(_M_IX86) || defined(_M_X64)
; 289  :         ::operator delete(_Ptr, _Bytes);

	mov	edx, DWORD PTR __Bytes$[ebp]
	push	edx
	mov	eax, DWORD PTR __Ptr$[ebp]
	push	eax
	call	??3@YAXPAXI@Z				; operator delete
	add	esp, 8

; 290  :     }
; 291  : }

	mov	ecx, DWORD PTR __$EHRec$[ebp]
	mov	DWORD PTR fs:0, ecx
	pop	ecx
	add	esp, 12					; 0000000cH
	cmp	ebp, esp
	call	__RTC_CheckEsp
	mov	esp, ebp
	pop	ebp
	ret	0
	int	3
	int	3
	int	3
	int	3
	int	3
_TEXT	ENDS
;	COMDAT text$x
text$x	SEGMENT
__ehhandler$??$_Deallocate@$07@std@@YAXPAXI@Z:
	npad	1
	npad	1
	mov	edx, DWORD PTR [esp+8]
	lea	eax, DWORD PTR [edx+12]
	mov	ecx, DWORD PTR [edx-4]
	xor	ecx, eax
	call	@__security_check_cookie@4
	mov	eax, OFFSET __ehfuncinfo$??$_Deallocate@$07@std@@YAXPAXI@Z
	jmp	___CxxFrameHandler3
text$x	ENDS
??$_Deallocate@$07@std@@YAXPAXI@Z ENDP			; std::_Deallocate<8>
; Function compile flags: /Odtp /RTCsu
; File C:\Program Files\Microsoft Visual Studio\2022\Community\VC\Tools\MSVC\14.44.35207\include\type_traits
;	COMDAT ??$addressof@V?$_List_val@U?$_List_simple_types@PAV?$Goal@VRaven_Bot@@@@@std@@@std@@@std@@YAPAV?$_List_val@U?$_List_simple_types@PAV?$Goal@VRaven_Bot@@@@@std@@@0@AAV10@@Z
_TEXT	SEGMENT
__Val$ = 8						; size = 4
??$addressof@V?$_List_val@U?$_List_simple_types@PAV?$Goal@VRaven_Bot@@@@@std@@@std@@@std@@YAPAV?$_List_val@U?$_List_simple_types@PAV?$Goal@VRaven_Bot@@@@@std@@@0@AAV10@@Z PROC ; std::addressof<std::_List_val<std::_List_simple_types<Goal<Raven_Bot> *> > >, COMDAT

; 1524 : _NODISCARD constexpr _Ty* addressof(_Ty& _Val) noexcept {

	push	ebp
	mov	ebp, esp

; 1525 :     return __builtin_addressof(_Val);

	mov	eax, DWORD PTR __Val$[ebp]

; 1526 : }

	pop	ebp
	ret	0
??$addressof@V?$_List_val@U?$_List_simple_types@PAV?$Goal@VRaven_Bot@@@@@std@@@std@@@std@@YAPAV?$_List_val@U?$_List_simple_types@PAV?$Goal@VRaven_Bot@@@@@std@@@0@AAV10@@Z ENDP ; std::addressof<std::_List_val<std::_List_simple_types<Goal<Raven_Bot> *> > >
_TEXT	ENDS
; Function compile flags: /Odtp /RTCsu
; File C:\Program Files\Microsoft Visual Studio\2022\Community\VC\Tools\MSVC\14.44.35207\include\type_traits
;	COMDAT ??$addressof@$$CBV?$_List_val@U?$_List_simple_types@PAV?$Goal@VRaven_Bot@@@@@std@@@std@@@std@@YAPBV?$_List_val@U?$_List_simple_types@PAV?$Goal@VRaven_Bot@@@@@std@@@0@ABV10@@Z
_TEXT	SEGMENT
__Val$ = 8						; size = 4
??$addressof@$$CBV?$_List_val@U?$_List_simple_types@PAV?$Goal@VRaven_Bot@@@@@std@@@std@@@std@@YAPBV?$_List_val@U?$_List_simple_types@PAV?$Goal@VRaven_Bot@@@@@std@@@0@ABV10@@Z PROC ; std::addressof<std::_List_val<std::_List_simple_types<Goal<Raven_Bot> *> > const >, COMDAT

; 1524 : _NODISCARD constexpr _Ty* addressof(_Ty& _Val) noexcept {

	push	ebp
	mov	ebp, esp

; 1525 :     return __builtin_addressof(_Val);

	mov	eax, DWORD PTR __Val$[ebp]

; 1526 : }

	pop	ebp
	ret	0
??$addressof@$$CBV?$_List_val@U?$_List_simple_types@PAV?$Goal@VRaven_Bot@@@@@std@@@std@@@std@@YAPBV?$_List_val@U?$_List_simple_types@PAV?$Goal@VRaven_Bot@@@@@std@@@0@ABV10@@Z ENDP ; std::addressof<std::_List_val<std::_List_simple_types<Goal<Raven_Bot> *> > const >
_TEXT	ENDS
; Function compile flags: /Odtp /RTCsu
; File C:\Program Files\Microsoft Visual Studio\2022\Community\VC\Tools\MSVC\14.44.35207\include\list
;	COMDAT ??$_Freenode@V?$allocator@U?$_List_node@PAV?$Goal@VRaven_Bot@@@@PAX@std@@@std@@@?$_List_node@PAV?$Goal@VRaven_Bot@@@@PAX@std@@SAXAAV?$allocator@U?$_List_node@PAV?$Goal@VRaven_Bot@@@@PAX@std@@@1@PAU01@@Z
_TEXT	SEGMENT
__$EHRec$ = -12						; size = 12
__Al$ = 8						; size = 4
__Ptr$ = 12						; size = 4
??$_Freenode@V?$allocator@U?$_List_node@PAV?$Goal@VRaven_Bot@@@@PAX@std@@@std@@@?$_List_node@PAV?$Goal@VRaven_Bot@@@@PAX@std@@SAXAAV?$allocator@U?$_List_node@PAV?$Goal@VRaven_Bot@@@@PAX@std@@@1@PAU01@@Z PROC ; std::_List_node<Goal<Raven_Bot> *,void *>::_Freenode<std::allocator<std::_List_node<Goal<Raven_Bot> *,void *> > >, COMDAT

; 316  :     static void _Freenode(_Alnode& _Al, _Nodeptr _Ptr) noexcept { // destroy all members in _Ptr and deallocate with _Al

	push	ebp
	mov	ebp, esp
	push	-1
	push	__ehhandler$??$_Freenode@V?$allocator@U?$_List_node@PAV?$Goal@VRaven_Bot@@@@PAX@std@@@std@@@?$_List_node@PAV?$Goal@VRaven_Bot@@@@PAX@std@@SAXAAV?$allocator@U?$_List_node@PAV?$Goal@VRaven_Bot@@@@PAX@std@@@1@PAU01@@Z
	mov	eax, DWORD PTR fs:0
	push	eax
	mov	eax, DWORD PTR ___security_cookie
	xor	eax, ebp
	push	eax
	lea	eax, DWORD PTR __$EHRec$[ebp]
	mov	DWORD PTR fs:0, eax

; 317  :         allocator_traits<_Alnode>::destroy(_Al, _STD addressof(_Ptr->_Myval));

	mov	eax, DWORD PTR __Ptr$[ebp]
	add	eax, 8
	push	eax
	call	??$addressof@PAV?$Goal@VRaven_Bot@@@@@std@@YAPAPAV?$Goal@VRaven_Bot@@@@AAPAV1@@Z ; std::addressof<Goal<Raven_Bot> *>
	add	esp, 4
	push	eax
	mov	ecx, DWORD PTR __Al$[ebp]
	push	ecx
	call	??$destroy@PAV?$Goal@VRaven_Bot@@@@@?$_Default_allocator_traits@V?$allocator@U?$_List_node@PAV?$Goal@VRaven_Bot@@@@PAX@std@@@std@@@std@@SAXAAV?$allocator@U?$_List_node@PAV?$Goal@VRaven_Bot@@@@PAX@std@@@1@QAPAV?$Goal@VRaven_Bot@@@@@Z ; std::_Default_allocator_traits<std::allocator<std::_List_node<Goal<Raven_Bot> *,void *> > >::destroy<Goal<Raven_Bot> *>
	add	esp, 8

; 318  :         _Freenode0(_Al, _Ptr);

	mov	edx, DWORD PTR __Ptr$[ebp]
	push	edx
	mov	eax, DWORD PTR __Al$[ebp]
	push	eax
	call	??$_Freenode0@V?$allocator@U?$_List_node@PAV?$Goal@VRaven_Bot@@@@PAX@std@@@std@@@?$_List_node@PAV?$Goal@VRaven_Bot@@@@PAX@std@@SAXAAV?$allocator@U?$_List_node@PAV?$Goal@VRaven_Bot@@@@PAX@std@@@1@PAU01@@Z ; std::_List_node<Goal<Raven_Bot> *,void *>::_Freenode0<std::allocator<std::_List_node<Goal<Raven_Bot> *,void *> > >
	add	esp, 8

; 319  :     }

	mov	ecx, DWORD PTR __$EHRec$[ebp]
	mov	DWORD PTR fs:0, ecx
	pop	ecx
	add	esp, 12					; 0000000cH
	cmp	ebp, esp
	call	__RTC_CheckEsp
	mov	esp, ebp
	pop	ebp
	ret	0
	int	3
	int	3
	int	3
	int	3
	int	3
_TEXT	ENDS
;	COMDAT text$x
text$x	SEGMENT
__ehhandler$??$_Freenode@V?$allocator@U?$_List_node@PAV?$Goal@VRaven_Bot@@@@PAX@std@@@std@@@?$_List_node@PAV?$Goal@VRaven_Bot@@@@PAX@std@@SAXAAV?$allocator@U?$_List_node@PAV?$Goal@VRaven_Bot@@@@PAX@std@@@1@PAU01@@Z:
	npad	1
	npad	1
	mov	edx, DWORD PTR [esp+8]
	lea	eax, DWORD PTR [edx+12]
	mov	ecx, DWORD PTR [edx-4]
	xor	ecx, eax
	call	@__security_check_cookie@4
	mov	eax, OFFSET __ehfuncinfo$??$_Freenode@V?$allocator@U?$_List_node@PAV?$Goal@VRaven_Bot@@@@PAX@std@@@std@@@?$_List_node@PAV?$Goal@VRaven_Bot@@@@PAX@std@@SAXAAV?$allocator@U?$_List_node@PAV?$Goal@VRaven_Bot@@@@PAX@std@@@1@PAU01@@Z
	jmp	___CxxFrameHandler3
text$x	ENDS
??$_Freenode@V?$allocator@U?$_List_node@PAV?$Goal@VRaven_Bot@@@@PAX@std@@@std@@@?$_List_node@PAV?$Goal@VRaven_Bot@@@@PAX@std@@SAXAAV?$allocator@U?$_List_node@PAV?$Goal@VRaven_Bot@@@@PAX@std@@@1@PAU01@@Z ENDP ; std::_List_node<Goal<Raven_Bot> *,void *>::_Freenode<std::allocator<std::_List_node<Goal<Raven_Bot> *,void *> > >
; Function compile flags: /Odtp /RTCsu
; File C:\Program Files\Microsoft Visual Studio\2022\Community\VC\Tools\MSVC\14.44.35207\include\list
;	COMDAT ??$_Freenode0@V?$allocator@U?$_List_node@PAV?$Goal@VRaven_Bot@@@@PAX@std@@@std@@@?$_List_node@PAV?$Goal@VRaven_Bot@@@@PAX@std@@SAXAAV?$allocator@U?$_List_node@PAV?$Goal@VRaven_Bot@@@@PAX@std@@@1@PAU01@@Z
_TEXT	SEGMENT
__Al$ = 8						; size = 4
__Ptr$ = 12						; size = 4
??$_Freenode0@V?$allocator@U?$_List_node@PAV?$Goal@VRaven_Bot@@@@PAX@std@@@std@@@?$_List_node@PAV?$Goal@VRaven_Bot@@@@PAX@std@@SAXAAV?$allocator@U?$_List_node@PAV?$Goal@VRaven_Bot@@@@PAX@std@@@1@PAU01@@Z PROC ; std::_List_node<Goal<Raven_Bot> *,void *>::_Freenode0<std::allocator<std::_List_node<Goal<Raven_Bot> *,void *> > >, COMDAT

; 307  :     static void _Freenode0(_Alnode& _Al, _Nodeptr _Ptr) noexcept {

	push	ebp
	mov	ebp, esp

; 308  :         // destroy pointer members in _Ptr and deallocate with _Al
; 309  :         static_assert(is_same_v<typename _Alnode::value_type, _List_node>, "Bad _Freenode0 call");
; 310  :         _Destroy_in_place(_Ptr->_Next);

	mov	eax, DWORD PTR __Ptr$[ebp]
	push	eax
	call	??$_Destroy_in_place@PAU?$_List_node@PAV?$Goal@VRaven_Bot@@@@PAX@std@@@std@@YAXAAPAU?$_List_node@PAV?$Goal@VRaven_Bot@@@@PAX@0@@Z ; std::_Destroy_in_place<std::_List_node<Goal<Raven_Bot> *,void *> *>
	add	esp, 4

; 311  :         _Destroy_in_place(_Ptr->_Prev);

	mov	ecx, DWORD PTR __Ptr$[ebp]
	add	ecx, 4
	push	ecx
	call	??$_Destroy_in_place@PAU?$_List_node@PAV?$Goal@VRaven_Bot@@@@PAX@std@@@std@@YAXAAPAU?$_List_node@PAV?$Goal@VRaven_Bot@@@@PAX@0@@Z ; std::_Destroy_in_place<std::_List_node<Goal<Raven_Bot> *,void *> *>
	add	esp, 4

; 312  :         allocator_traits<_Alnode>::deallocate(_Al, _Ptr, 1);

	push	1
	mov	edx, DWORD PTR __Ptr$[ebp]
	push	edx
	mov	eax, DWORD PTR __Al$[ebp]
	push	eax
	call	?deallocate@?$_Default_allocator_traits@V?$allocator@U?$_List_node@PAV?$Goal@VRaven_Bot@@@@PAX@std@@@std@@@std@@SAXAAV?$allocator@U?$_List_node@PAV?$Goal@VRaven_Bot@@@@PAX@std@@@2@QAU?$_List_node@PAV?$Goal@VRaven_Bot@@@@PAX@2@I@Z ; std::_Default_allocator_traits<std::allocator<std::_List_node<Goal<Raven_Bot> *,void *> > >::deallocate
	add	esp, 12					; 0000000cH

; 313  :     }

	cmp	ebp, esp
	call	__RTC_CheckEsp
	pop	ebp
	ret	0
??$_Freenode0@V?$allocator@U?$_List_node@PAV?$Goal@VRaven_Bot@@@@PAX@std@@@std@@@?$_List_node@PAV?$Goal@VRaven_Bot@@@@PAX@std@@SAXAAV?$allocator@U?$_List_node@PAV?$Goal@VRaven_Bot@@@@PAX@std@@@1@PAU01@@Z ENDP ; std::_List_node<Goal<Raven_Bot> *,void *>::_Freenode0<std::allocator<std::_List_node<Goal<Raven_Bot> *,void *> > >
_TEXT	ENDS
; Function compile flags: /Odtp /RTCsu
; File C:\Program Files\Microsoft Visual Studio\2022\Community\VC\Tools\MSVC\14.44.35207\include\list
;	COMDAT ??$_Free_non_head@V?$allocator@U?$_List_node@PAV?$Goal@VRaven_Bot@@@@PAX@std@@@std@@@?$_List_node@PAV?$Goal@VRaven_Bot@@@@PAX@std@@SAXAAV?$allocator@U?$_List_node@PAV?$Goal@VRaven_Bot@@@@PAX@std@@@1@PAU01@@Z
_TEXT	SEGMENT
__Pnext$1 = -8						; size = 4
__Pnode$ = -4						; size = 4
__Al$ = 8						; size = 4
__Head$ = 12						; size = 4
??$_Free_non_head@V?$allocator@U?$_List_node@PAV?$Goal@VRaven_Bot@@@@PAX@std@@@std@@@?$_List_node@PAV?$Goal@VRaven_Bot@@@@PAX@std@@SAXAAV?$allocator@U?$_List_node@PAV?$Goal@VRaven_Bot@@@@PAX@std@@@1@PAU01@@Z PROC ; std::_List_node<Goal<Raven_Bot> *,void *>::_Free_non_head<std::allocator<std::_List_node<Goal<Raven_Bot> *,void *> > >, COMDAT

; 323  :         _Alnode& _Al, _Nodeptr _Head) noexcept { // free a list starting at _First and terminated at nullptr

	push	ebp
	mov	ebp, esp
	sub	esp, 8
	mov	DWORD PTR [ebp-8], -858993460		; ccccccccH
	mov	DWORD PTR [ebp-4], -858993460		; ccccccccH

; 324  :         _Head->_Prev->_Next = nullptr;

	mov	eax, DWORD PTR __Head$[ebp]
	mov	ecx, DWORD PTR [eax+4]
	mov	DWORD PTR [ecx], 0

; 325  : 
; 326  :         auto _Pnode = _Head->_Next;

	mov	edx, DWORD PTR __Head$[ebp]
	mov	eax, DWORD PTR [edx]
	mov	DWORD PTR __Pnode$[ebp], eax

; 327  :         for (_Nodeptr _Pnext; _Pnode; _Pnode = _Pnext) {

	jmp	SHORT $LN4@Free_non_h
$LN2@Free_non_h:
	mov	ecx, DWORD PTR __Pnext$1[ebp]
	mov	DWORD PTR __Pnode$[ebp], ecx
$LN4@Free_non_h:
	cmp	DWORD PTR __Pnode$[ebp], 0
	je	SHORT $LN3@Free_non_h

; 328  :             _Pnext = _Pnode->_Next;

	mov	edx, DWORD PTR __Pnode$[ebp]
	mov	eax, DWORD PTR [edx]
	mov	DWORD PTR __Pnext$1[ebp], eax

; 329  :             _Freenode(_Al, _Pnode);

	mov	ecx, DWORD PTR __Pnode$[ebp]
	push	ecx
	mov	edx, DWORD PTR __Al$[ebp]
	push	edx
	call	??$_Freenode@V?$allocator@U?$_List_node@PAV?$Goal@VRaven_Bot@@@@PAX@std@@@std@@@?$_List_node@PAV?$Goal@VRaven_Bot@@@@PAX@std@@SAXAAV?$allocator@U?$_List_node@PAV?$Goal@VRaven_Bot@@@@PAX@std@@@1@PAU01@@Z ; std::_List_node<Goal<Raven_Bot> *,void *>::_Freenode<std::allocator<std::_List_node<Goal<Raven_Bot> *,void *> > >
	add	esp, 8

; 330  :         }

	jmp	SHORT $LN2@Free_non_h
$LN3@Free_non_h:

; 331  :     }

	add	esp, 8
	cmp	ebp, esp
	call	__RTC_CheckEsp
	mov	esp, ebp
	pop	ebp
	ret	0
??$_Free_non_head@V?$allocator@U?$_List_node@PAV?$Goal@VRaven_Bot@@@@PAX@std@@@std@@@?$_List_node@PAV?$Goal@VRaven_Bot@@@@PAX@std@@SAXAAV?$allocator@U?$_List_node@PAV?$Goal@VRaven_Bot@@@@PAX@std@@@1@PAU01@@Z ENDP ; std::_List_node<Goal<Raven_Bot> *,void *>::_Free_non_head<std::allocator<std::_List_node<Goal<Raven_Bot> *,void *> > >
_TEXT	ENDS
; Function compile flags: /Odtp /RTCsu
; File C:\Program Files\Microsoft Visual Studio\2022\Community\VC\Tools\MSVC\14.44.35207\include\xutility
;	COMDAT ??$_Construct_in_place@PAU?$_List_node@PAV?$Goal@VRaven_Bot@@@@PAX@std@@AAPAU12@@std@@YAXAAPAU?$_List_node@PAV?$Goal@VRaven_Bot@@@@PAX@0@0@Z
_TEXT	SEGMENT
$T1 = -4						; size = 4
__Obj$ = 8						; size = 4
_<_Args_0>$ = 12					; size = 4
??$_Construct_in_place@PAU?$_List_node@PAV?$Goal@VRaven_Bot@@@@PAX@std@@AAPAU12@@std@@YAXAAPAU?$_List_node@PAV?$Goal@VRaven_Bot@@@@PAX@0@0@Z PROC ; std::_Construct_in_place<std::_List_node<Goal<Raven_Bot> *,void *> *,std::_List_node<Goal<Raven_Bot> *,void *> * &>, COMDAT

; 469  :     noexcept(is_nothrow_constructible_v<_Ty, _Types...>) {

	push	ebp
	mov	ebp, esp
	push	ecx
	mov	DWORD PTR [ebp-4], -858993460		; ccccccccH

; 470  : #if _HAS_CXX20
; 471  :     if (_STD is_constant_evaluated()) {
; 472  :         _STD construct_at(_STD addressof(_Obj), _STD forward<_Types>(_Args)...);
; 473  :     } else
; 474  : #endif // _HAS_CXX20
; 475  :     {
; 476  :         ::new (static_cast<void*>(_STD addressof(_Obj))) _Ty(_STD forward<_Types>(_Args)...);

	mov	eax, DWORD PTR __Obj$[ebp]
	push	eax
	call	??$addressof@PAU?$_List_node@PAV?$Goal@VRaven_Bot@@@@PAX@std@@@std@@YAPAPAU?$_List_node@PAV?$Goal@VRaven_Bot@@@@PAX@0@AAPAU10@@Z ; std::addressof<std::_List_node<Goal<Raven_Bot> *,void *> *>
	add	esp, 4
	push	eax
	push	4
	call	??2@YAPAXIPAX@Z				; operator new
	add	esp, 8
	mov	DWORD PTR $T1[ebp], eax
	mov	ecx, DWORD PTR _<_Args_0>$[ebp]
	push	ecx
	call	??$forward@AAPAU?$_List_node@PAV?$Goal@VRaven_Bot@@@@PAX@std@@@std@@YAAAPAU?$_List_node@PAV?$Goal@VRaven_Bot@@@@PAX@0@AAPAU10@@Z ; std::forward<std::_List_node<Goal<Raven_Bot> *,void *> * &>
	add	esp, 4
	mov	edx, DWORD PTR $T1[ebp]
	mov	eax, DWORD PTR [eax]
	mov	DWORD PTR [edx], eax

; 477  :     }
; 478  : }

	add	esp, 4
	cmp	ebp, esp
	call	__RTC_CheckEsp
	mov	esp, ebp
	pop	ebp
	ret	0
??$_Construct_in_place@PAU?$_List_node@PAV?$Goal@VRaven_Bot@@@@PAX@std@@AAPAU12@@std@@YAXAAPAU?$_List_node@PAV?$Goal@VRaven_Bot@@@@PAX@0@0@Z ENDP ; std::_Construct_in_place<std::_List_node<Goal<Raven_Bot> *,void *> *,std::_List_node<Goal<Raven_Bot> *,void *> * &>
_TEXT	ENDS
; Function compile flags: /Odtp /RTCsu
; File C:\Program Files\Microsoft Visual Studio\2022\Community\VC\Tools\MSVC\14.44.35207\include\type_traits
;	COMDAT ??$move@AAV?$_List_const_iterator@V?$_List_val@U?$_List_simple_types@PAV?$Goal@VRaven_Bot@@@@@std@@@std@@@std@@@std@@YA$$QAV?$_List_const_iterator@V?$_List_val@U?$_List_simple_types@PAV?$Goal@VRaven_Bot@@@@@std@@@std@@@0@AAV10@@Z
_TEXT	SEGMENT
__Arg$ = 8						; size = 4
??$move@AAV?$_List_const_iterator@V?$_List_val@U?$_List_simple_types@PAV?$Goal@VRaven_Bot@@@@@std@@@std@@@std@@@std@@YA$$QAV?$_List_const_iterator@V?$_List_val@U?$_List_simple_types@PAV?$Goal@VRaven_Bot@@@@@std@@@std@@@0@AAV10@@Z PROC ; std::move<std::_List_const_iterator<std::_List_val<std::_List_simple_types<Goal<Raven_Bot> *> > > &>, COMDAT

; 1512 : _NODISCARD _MSVC_INTRINSIC constexpr remove_reference_t<_Ty>&& move(_Ty&& _Arg) noexcept {

	push	ebp
	mov	ebp, esp

; 1513 :     return static_cast<remove_reference_t<_Ty>&&>(_Arg);

	mov	eax, DWORD PTR __Arg$[ebp]

; 1514 : }

	pop	ebp
	ret	0
??$move@AAV?$_List_const_iterator@V?$_List_val@U?$_List_simple_types@PAV?$Goal@VRaven_Bot@@@@@std@@@std@@@std@@@std@@YA$$QAV?$_List_const_iterator@V?$_List_val@U?$_List_simple_types@PAV?$Goal@VRaven_Bot@@@@@std@@@std@@@0@AAV10@@Z ENDP ; std::move<std::_List_const_iterator<std::_List_val<std::_List_simple_types<Goal<Raven_Bot> *> > > &>
_TEXT	ENDS
; Function compile flags: /Odtp /RTCsu
; File C:\Program Files\Microsoft Visual Studio\2022\Community\VC\Tools\MSVC\14.44.35207\include\xmemory
;	COMDAT ??$_Allocate@$07U_Default_allocate_traits@std@@@std@@YAPAXI@Z
_TEXT	SEGMENT
__Bytes$ = 8						; size = 4
??$_Allocate@$07U_Default_allocate_traits@std@@@std@@YAPAXI@Z PROC ; std::_Allocate<8,std::_Default_allocate_traits>, COMDAT

; 225  : __declspec(allocator) _CONSTEXPR20 void* _Allocate(const size_t _Bytes) {

	push	ebp
	mov	ebp, esp

; 226  :     // allocate _Bytes
; 227  :     if (_Bytes == 0) {

	cmp	DWORD PTR __Bytes$[ebp], 0
	jne	SHORT $LN2@Allocate

; 228  :         return nullptr;

	xor	eax, eax
	jmp	SHORT $LN1@Allocate
$LN2@Allocate:

; 229  :     }
; 230  : 
; 231  : #if _HAS_CXX20 // TRANSITION, GH-1532
; 232  :     if (_STD is_constant_evaluated()) {
; 233  :         return _Traits::_Allocate(_Bytes);
; 234  :     }
; 235  : #endif // _HAS_CXX20
; 236  : 
; 237  : #ifdef __cpp_aligned_new
; 238  :     if constexpr (_Align > __STDCPP_DEFAULT_NEW_ALIGNMENT__) {
; 239  :         size_t _Passed_align = _Align;
; 240  : #if defined(_M_IX86) || defined(_M_X64)
; 241  :         if (_Bytes >= _Big_allocation_threshold) {
; 242  :             // boost the alignment of big allocations to help autovectorization
; 243  :             _Passed_align = (_STD max)(_Align, _Big_allocation_alignment);
; 244  :         }
; 245  : #endif // defined(_M_IX86) || defined(_M_X64)
; 246  :         return _Traits::_Allocate_aligned(_Bytes, _Passed_align);
; 247  :     } else
; 248  : #endif // defined(__cpp_aligned_new)
; 249  :     {
; 250  : #if defined(_M_IX86) || defined(_M_X64)
; 251  :         if (_Bytes >= _Big_allocation_threshold) {

	cmp	DWORD PTR __Bytes$[ebp], 4096		; 00001000H
	jb	SHORT $LN3@Allocate

; 252  :             // boost the alignment of big allocations to help autovectorization
; 253  :             return _Allocate_manually_vector_aligned<_Traits>(_Bytes);

	mov	eax, DWORD PTR __Bytes$[ebp]
	push	eax
	call	??$_Allocate_manually_vector_aligned@U_Default_allocate_traits@std@@@std@@YAPAXI@Z ; std::_Allocate_manually_vector_aligned<std::_Default_allocate_traits>
	add	esp, 4
	jmp	SHORT $LN1@Allocate
$LN3@Allocate:

; 254  :         }
; 255  : #endif // defined(_M_IX86) || defined(_M_X64)
; 256  :         return _Traits::_Allocate(_Bytes);

	mov	ecx, DWORD PTR __Bytes$[ebp]
	push	ecx
	call	?_Allocate@_Default_allocate_traits@std@@SAPAXI@Z ; std::_Default_allocate_traits::_Allocate
	add	esp, 4
$LN1@Allocate:

; 257  :     }
; 258  : }

	cmp	ebp, esp
	call	__RTC_CheckEsp
	pop	ebp
	ret	0
??$_Allocate@$07U_Default_allocate_traits@std@@@std@@YAPAXI@Z ENDP ; std::_Allocate<8,std::_Default_allocate_traits>
_TEXT	ENDS
; Function compile flags: /Odtp /RTCsu
; File C:\Program Files\Microsoft Visual Studio\2022\Community\VC\Tools\MSVC\14.44.35207\include\xmemory
;	COMDAT ??$_Get_size_of_n@$07@std@@YAII@Z
_TEXT	SEGMENT
__Max_possible$1 = -8					; size = 4
__Overflow_is_possible$ = -1				; size = 1
__Count$ = 8						; size = 4
??$_Get_size_of_n@$07@std@@YAII@Z PROC			; std::_Get_size_of_n<8>, COMDAT

; 112  : _NODISCARD constexpr size_t _Get_size_of_n(const size_t _Count) {

	push	ebp
	mov	ebp, esp
	sub	esp, 8
	mov	DWORD PTR [ebp-8], -858993460		; ccccccccH
	mov	DWORD PTR [ebp-4], -858993460		; ccccccccH

; 113  :     constexpr bool _Overflow_is_possible = _Ty_size > 1;

	mov	BYTE PTR __Overflow_is_possible$[ebp], 1

; 114  : 
; 115  :     if constexpr (_Overflow_is_possible) {
; 116  :         constexpr size_t _Max_possible = static_cast<size_t>(-1) / _Ty_size;

	mov	DWORD PTR __Max_possible$1[ebp], 536870911 ; 1fffffffH

; 117  :         if (_Count > _Max_possible) {

	cmp	DWORD PTR __Count$[ebp], 536870911	; 1fffffffH
	jbe	SHORT $LN2@Get_size_o

; 118  :             _Throw_bad_array_new_length(); // multiply overflow

	call	?_Throw_bad_array_new_length@std@@YAXXZ	; std::_Throw_bad_array_new_length
	npad	1
$LN2@Get_size_o:

; 119  :         }
; 120  :     }
; 121  : 
; 122  :     return _Count * _Ty_size;

	mov	eax, DWORD PTR __Count$[ebp]
	shl	eax, 3
$LN1@Get_size_o:

; 123  : }

	add	esp, 8
	cmp	ebp, esp
	call	__RTC_CheckEsp
	mov	esp, ebp
	pop	ebp
	ret	0
??$_Get_size_of_n@$07@std@@YAII@Z ENDP			; std::_Get_size_of_n<8>
_TEXT	ENDS
; Function compile flags: /Odtp /RTCsu
; File C:\Program Files\Microsoft Visual Studio\2022\Community\VC\Tools\MSVC\14.44.35207\include\type_traits
;	COMDAT ??$addressof@U_Container_base12@std@@@std@@YAPAU_Container_base12@0@AAU10@@Z
_TEXT	SEGMENT
__Val$ = 8						; size = 4
??$addressof@U_Container_base12@std@@@std@@YAPAU_Container_base12@0@AAU10@@Z PROC ; std::addressof<std::_Container_base12>, COMDAT

; 1524 : _NODISCARD constexpr _Ty* addressof(_Ty& _Val) noexcept {

	push	ebp
	mov	ebp, esp

; 1525 :     return __builtin_addressof(_Val);

	mov	eax, DWORD PTR __Val$[ebp]

; 1526 : }

	pop	ebp
	ret	0
??$addressof@U_Container_base12@std@@@std@@YAPAU_Container_base12@0@AAU10@@Z ENDP ; std::addressof<std::_Container_base12>
_TEXT	ENDS
; Function compile flags: /Odtp /RTCsu
; File C:\Program Files\Microsoft Visual Studio\2022\Community\VC\Tools\MSVC\14.44.35207\include\utility
;	COMDAT ??$exchange@PAU?$_List_node@VPathEdge@@PAX@std@@AAPAU12@@std@@YAPAU?$_List_node@VPathEdge@@PAX@0@AAPAU10@0@Z
_TEXT	SEGMENT
__Old_val$ = -4						; size = 4
__Val$ = 8						; size = 4
__New_val$ = 12						; size = 4
??$exchange@PAU?$_List_node@VPathEdge@@PAX@std@@AAPAU12@@std@@YAPAU?$_List_node@VPathEdge@@PAX@0@AAPAU10@0@Z PROC ; std::exchange<std::_List_node<PathEdge,void *> *,std::_List_node<PathEdge,void *> * &>, COMDAT

; 771  :     noexcept(conjunction_v<is_nothrow_move_constructible<_Ty>, is_nothrow_assignable<_Ty&, _Other>>) {

	push	ebp
	mov	ebp, esp
	push	ecx

; 772  :     // assign _New_val to _Val, return previous _Val
; 773  :     _Ty _Old_val = static_cast<_Ty&&>(_Val);

	mov	eax, DWORD PTR __Val$[ebp]
	mov	ecx, DWORD PTR [eax]
	mov	DWORD PTR __Old_val$[ebp], ecx

; 774  :     _Val         = static_cast<_Other&&>(_New_val);

	mov	edx, DWORD PTR __Val$[ebp]
	mov	eax, DWORD PTR __New_val$[ebp]
	mov	ecx, DWORD PTR [eax]
	mov	DWORD PTR [edx], ecx

; 775  :     return _Old_val;

	mov	eax, DWORD PTR __Old_val$[ebp]

; 776  : }

	mov	esp, ebp
	pop	ebp
	ret	0
??$exchange@PAU?$_List_node@VPathEdge@@PAX@std@@AAPAU12@@std@@YAPAU?$_List_node@VPathEdge@@PAX@0@AAPAU10@0@Z ENDP ; std::exchange<std::_List_node<PathEdge,void *> *,std::_List_node<PathEdge,void *> * &>
_TEXT	ENDS
; Function compile flags: /Odtp /RTCsu
; File C:\Program Files\Microsoft Visual Studio\2022\Community\VC\Tools\MSVC\14.44.35207\include\xutility
;	COMDAT ??$_Construct_in_place@PAU?$_List_node@VPathEdge@@PAX@std@@PAU12@@std@@YAXAAPAU?$_List_node@VPathEdge@@PAX@0@$$QAPAU10@@Z
_TEXT	SEGMENT
$T1 = -4						; size = 4
__Obj$ = 8						; size = 4
_<_Args_0>$ = 12					; size = 4
??$_Construct_in_place@PAU?$_List_node@VPathEdge@@PAX@std@@PAU12@@std@@YAXAAPAU?$_List_node@VPathEdge@@PAX@0@$$QAPAU10@@Z PROC ; std::_Construct_in_place<std::_List_node<PathEdge,void *> *,std::_List_node<PathEdge,void *> *>, COMDAT

; 469  :     noexcept(is_nothrow_constructible_v<_Ty, _Types...>) {

	push	ebp
	mov	ebp, esp
	push	ecx
	mov	DWORD PTR [ebp-4], -858993460		; ccccccccH

; 470  : #if _HAS_CXX20
; 471  :     if (_STD is_constant_evaluated()) {
; 472  :         _STD construct_at(_STD addressof(_Obj), _STD forward<_Types>(_Args)...);
; 473  :     } else
; 474  : #endif // _HAS_CXX20
; 475  :     {
; 476  :         ::new (static_cast<void*>(_STD addressof(_Obj))) _Ty(_STD forward<_Types>(_Args)...);

	mov	eax, DWORD PTR __Obj$[ebp]
	push	eax
	call	??$addressof@PAU?$_List_node@VPathEdge@@PAX@std@@@std@@YAPAPAU?$_List_node@VPathEdge@@PAX@0@AAPAU10@@Z ; std::addressof<std::_List_node<PathEdge,void *> *>
	add	esp, 4
	push	eax
	push	4
	call	??2@YAPAXIPAX@Z				; operator new
	add	esp, 8
	mov	DWORD PTR $T1[ebp], eax
	mov	ecx, DWORD PTR _<_Args_0>$[ebp]
	push	ecx
	call	??$forward@PAU?$_List_node@VPathEdge@@PAX@std@@@std@@YA$$QAPAU?$_List_node@VPathEdge@@PAX@0@AAPAU10@@Z ; std::forward<std::_List_node<PathEdge,void *> *>
	add	esp, 4
	mov	edx, DWORD PTR $T1[ebp]
	mov	eax, DWORD PTR [eax]
	mov	DWORD PTR [edx], eax

; 477  :     }
; 478  : }

	add	esp, 4
	cmp	ebp, esp
	call	__RTC_CheckEsp
	mov	esp, ebp
	pop	ebp
	ret	0
??$_Construct_in_place@PAU?$_List_node@VPathEdge@@PAX@std@@PAU12@@std@@YAXAAPAU?$_List_node@VPathEdge@@PAX@0@$$QAPAU10@@Z ENDP ; std::_Construct_in_place<std::_List_node<PathEdge,void *> *,std::_List_node<PathEdge,void *> *>
_TEXT	ENDS
; Function compile flags: /Odtp /RTCsu
; File C:\Program Files\Microsoft Visual Studio\2022\Community\VC\Tools\MSVC\14.44.35207\include\xlocale
;	COMDAT ??__E?id@?$codecvt@DDU_Mbstatet@@@std@@2V0locale@2@A@@YAXXZ
text$di	SEGMENT
??__E?id@?$codecvt@DDU_Mbstatet@@@std@@2V0locale@2@A@@YAXXZ PROC ; `dynamic initializer for 'std::codecvt<char,char,_Mbstatet>::id'', COMDAT

; 812  : __PURE_APPDOMAIN_GLOBAL locale::id codecvt<_Elem, _Byte, _Statype>::id;

	push	ebp
	mov	ebp, esp
	mov	ecx, OFFSET ?id@?$codecvt@DDU_Mbstatet@@@std@@2V0locale@2@A ; std::codecvt<char,char,_Mbstatet>::id
	call	??$?0$0A@@id@locale@std@@QAE@XZ		; std::locale::id::id<0>
	npad	1
	cmp	ebp, esp
	call	__RTC_CheckEsp
	pop	ebp
	ret	0
??__E?id@?$codecvt@DDU_Mbstatet@@@std@@2V0locale@2@A@@YAXXZ ENDP ; `dynamic initializer for 'std::codecvt<char,char,_Mbstatet>::id''
text$di	ENDS
; Function compile flags: /Odtp /RTCsu
; File C:\Program Files\Microsoft Visual Studio\2022\Community\VC\Tools\MSVC\14.44.35207\include\xlocnum
;	COMDAT ??__E?id@?$num_put@DV?$ostreambuf_iterator@DU?$char_traits@D@std@@@std@@@std@@2V0locale@2@A@@YAXXZ
text$di	SEGMENT
??__E?id@?$num_put@DV?$ostreambuf_iterator@DU?$char_traits@D@std@@@std@@@std@@2V0locale@2@A@@YAXXZ PROC ; `dynamic initializer for 'std::num_put<char,std::ostreambuf_iterator<char,std::char_traits<char> > >::id'', COMDAT

; 1646 : __PURE_APPDOMAIN_GLOBAL locale::id num_put<_Elem, _OutIt>::id;

	push	ebp
	mov	ebp, esp
	mov	ecx, OFFSET ?id@?$num_put@DV?$ostreambuf_iterator@DU?$char_traits@D@std@@@std@@@std@@2V0locale@2@A ; std::num_put<char,std::ostreambuf_iterator<char,std::char_traits<char> > >::id
	call	??$?0$0A@@id@locale@std@@QAE@XZ		; std::locale::id::id<0>
	npad	1
	cmp	ebp, esp
	call	__RTC_CheckEsp
	pop	ebp
	ret	0
??__E?id@?$num_put@DV?$ostreambuf_iterator@DU?$char_traits@D@std@@@std@@@std@@2V0locale@2@A@@YAXXZ ENDP ; `dynamic initializer for 'std::num_put<char,std::ostreambuf_iterator<char,std::char_traits<char> > >::id''
text$di	ENDS
; Function compile flags: /Odtp /RTCsu
; File C:\Program Files\Microsoft Visual Studio\2022\Community\VC\Tools\MSVC\14.44.35207\include\xlocale
;	COMDAT ??$?0$0A@@id@locale@std@@QAE@XZ
_TEXT	SEGMENT
_this$ = -4						; size = 4
??$?0$0A@@id@locale@std@@QAE@XZ PROC			; std::locale::id::id<0>, COMDAT
; _this$ = ecx

; 83   :         id() noexcept /* strengthened */ {}

	push	ebp
	mov	ebp, esp
	push	ecx
	mov	DWORD PTR _this$[ebp], ecx

; 84   : #endif // ^^^ !defined(_CRTBLD) ^^^
; 85   : 
; 86   :         id(const id&)            = delete;
; 87   :         id& operator=(const id&) = delete;
; 88   : 
; 89   :         template <int = 0> // TRANSITION, ABI
; 90   :         size_t _Get_index() { // get stamp, with lazy allocation
; 91   :             if (_Id == 0) { // still zero, allocate stamp
; 92   :                 _BEGIN_LOCK(_LOCK_LOCALE)
; 93   :                 if (_Id == 0) {
; 94   :                     _Id = static_cast<size_t>(++_Id_cnt);
; 95   :                 }
; 96   :                 _END_LOCK()
; 97   :             }
; 98   :             return _Id;
; 99   :         }
; 100  : 
; 101  : #ifdef _CRTBLD // TRANSITION, ABI: preserved for binary compatibility
; 102  :         __CLR_OR_THIS_CALL operator size_t() {
; 103  :             return _Get_index();
; 104  :         }
; 105  : #endif // defined(_CRTBLD)
; 106  : 
; 107  :     private:
; 108  :         size_t _Id = 0; // the identifier stamp

	mov	eax, DWORD PTR _this$[ebp]
	mov	DWORD PTR [eax], 0

; 83   :         id() noexcept /* strengthened */ {}

	mov	eax, DWORD PTR _this$[ebp]
	mov	esp, ebp
	pop	ebp
	ret	0
??$?0$0A@@id@locale@std@@QAE@XZ ENDP			; std::locale::id::id<0>
_TEXT	ENDS
; Function compile flags: /Odtp /RTCsu
; File C:\Program Files\Microsoft Visual Studio\2022\Community\VC\Tools\MSVC\14.44.35207\include\xmemory
;	COMDAT ??$destroy@VPathEdge@@@?$_Default_allocator_traits@V?$allocator@U?$_List_node@VPathEdge@@PAX@std@@@std@@@std@@SAXAAV?$allocator@U?$_List_node@VPathEdge@@PAX@std@@@1@QAVPathEdge@@@Z
_TEXT	SEGMENT
___formal$ = 8						; size = 4
__Ptr$ = 12						; size = 4
??$destroy@VPathEdge@@@?$_Default_allocator_traits@V?$allocator@U?$_List_node@VPathEdge@@PAX@std@@@std@@@std@@SAXAAV?$allocator@U?$_List_node@VPathEdge@@PAX@std@@@1@QAVPathEdge@@@Z PROC ; std::_Default_allocator_traits<std::allocator<std::_List_node<PathEdge,void *> > >::destroy<PathEdge>, COMDAT

; 737  :     static _CONSTEXPR20 void destroy(_Alloc&, _Uty* const _Ptr) {

	push	ebp
	mov	ebp, esp

; 738  : #if _HAS_CXX20
; 739  :         _STD destroy_at(_Ptr);
; 740  : #else // ^^^ _HAS_CXX20 / !_HAS_CXX20 vvv
; 741  :         _Ptr->~_Uty();
; 742  : #endif // ^^^ !_HAS_CXX20 ^^^
; 743  :     }

	pop	ebp
	ret	0
??$destroy@VPathEdge@@@?$_Default_allocator_traits@V?$allocator@U?$_List_node@VPathEdge@@PAX@std@@@std@@@std@@SAXAAV?$allocator@U?$_List_node@VPathEdge@@PAX@std@@@1@QAVPathEdge@@@Z ENDP ; std::_Default_allocator_traits<std::allocator<std::_List_node<PathEdge,void *> > >::destroy<PathEdge>
_TEXT	ENDS
; Function compile flags: /Odtp /RTCsu
; File C:\Program Files\Microsoft Visual Studio\2022\Community\VC\Tools\MSVC\14.44.35207\include\xmemory
;	COMDAT ??$_Destroy_in_place@PAU?$_List_node@VPathEdge@@PAX@std@@@std@@YAXAAPAU?$_List_node@VPathEdge@@PAX@0@@Z
_TEXT	SEGMENT
__Obj$ = 8						; size = 4
??$_Destroy_in_place@PAU?$_List_node@VPathEdge@@PAX@std@@@std@@YAXAAPAU?$_List_node@VPathEdge@@PAX@0@@Z PROC ; std::_Destroy_in_place<std::_List_node<PathEdge,void *> *>, COMDAT

; 320  : _CONSTEXPR20 void _Destroy_in_place(_Ty& _Obj) noexcept {

	push	ebp
	mov	ebp, esp

; 321  :     if constexpr (is_array_v<_Ty>) {
; 322  :         _STD _Destroy_range(_Obj, _Obj + extent_v<_Ty>);
; 323  :     } else {
; 324  :         _Obj.~_Ty();
; 325  :     }
; 326  : }

	pop	ebp
	ret	0
??$_Destroy_in_place@PAU?$_List_node@VPathEdge@@PAX@std@@@std@@YAXAAPAU?$_List_node@VPathEdge@@PAX@0@@Z ENDP ; std::_Destroy_in_place<std::_List_node<PathEdge,void *> *>
_TEXT	ENDS
; Function compile flags: /Odtp /RTCsu
; File C:\Program Files\Microsoft Visual Studio\2022\Community\VC\Tools\MSVC\14.44.35207\include\list
;	COMDAT ??$?0ABQAV?$Goal@VRaven_Bot@@@@@?$_List_node_emplace_op2@V?$allocator@U?$_List_node@PAV?$Goal@VRaven_Bot@@@@PAX@std@@@std@@@std@@QAE@AAV?$allocator@U?$_List_node@PAV?$Goal@VRaven_Bot@@@@PAX@std@@@1@ABQAV?$Goal@VRaven_Bot@@@@@Z
_TEXT	SEGMENT
_this$ = -16						; size = 4
__$EHRec$ = -12						; size = 12
__Al_$ = 8						; size = 4
_<_Vals_0>$ = 12					; size = 4
??$?0ABQAV?$Goal@VRaven_Bot@@@@@?$_List_node_emplace_op2@V?$allocator@U?$_List_node@PAV?$Goal@VRaven_Bot@@@@PAX@std@@@std@@@std@@QAE@AAV?$allocator@U?$_List_node@PAV?$Goal@VRaven_Bot@@@@PAX@std@@@1@ABQAV?$Goal@VRaven_Bot@@@@@Z PROC ; std::_List_node_emplace_op2<std::allocator<std::_List_node<Goal<Raven_Bot> *,void *> > >::_List_node_emplace_op2<std::allocator<std::_List_node<Goal<Raven_Bot> *,void *> > ><Goal<Raven_Bot> * const &>, COMDAT
; _this$ = ecx

; 593  :     explicit _List_node_emplace_op2(_Alnode& _Al_, _Valtys&&... _Vals) : _Alloc_construct_ptr<_Alnode>(_Al_) {

	push	ebp
	mov	ebp, esp
	push	-1
	push	__ehhandler$??$?0ABQAV?$Goal@VRaven_Bot@@@@@?$_List_node_emplace_op2@V?$allocator@U?$_List_node@PAV?$Goal@VRaven_Bot@@@@PAX@std@@@std@@@std@@QAE@AAV?$allocator@U?$_List_node@PAV?$Goal@VRaven_Bot@@@@PAX@std@@@1@ABQAV?$Goal@VRaven_Bot@@@@@Z
	mov	eax, DWORD PTR fs:0
	push	eax
	push	ecx
	mov	DWORD PTR [ebp-16], -858993460		; ccccccccH
	mov	eax, DWORD PTR ___security_cookie
	xor	eax, ebp
	push	eax
	lea	eax, DWORD PTR __$EHRec$[ebp]
	mov	DWORD PTR fs:0, eax
	mov	DWORD PTR _this$[ebp], ecx
	mov	eax, DWORD PTR __Al_$[ebp]
	push	eax
	mov	ecx, DWORD PTR _this$[ebp]
	call	??0?$_Alloc_construct_ptr@V?$allocator@U?$_List_node@PAV?$Goal@VRaven_Bot@@@@PAX@std@@@std@@@std@@QAE@AAV?$allocator@U?$_List_node@PAV?$Goal@VRaven_Bot@@@@PAX@std@@@1@@Z ; std::_Alloc_construct_ptr<std::allocator<std::_List_node<Goal<Raven_Bot> *,void *> > >::_Alloc_construct_ptr<std::allocator<std::_List_node<Goal<Raven_Bot> *,void *> > >
	mov	DWORD PTR __$EHRec$[ebp+8], 0

; 594  :         this->_Allocate();

	mov	ecx, DWORD PTR _this$[ebp]
	call	?_Allocate@?$_Alloc_construct_ptr@V?$allocator@U?$_List_node@PAV?$Goal@VRaven_Bot@@@@PAX@std@@@std@@@std@@QAEXXZ ; std::_Alloc_construct_ptr<std::allocator<std::_List_node<Goal<Raven_Bot> *,void *> > >::_Allocate

; 595  :         _Alnode_traits::construct(this->_Al, _STD addressof(this->_Ptr->_Myval), _STD forward<_Valtys>(_Vals)...);

	mov	ecx, DWORD PTR _<_Vals_0>$[ebp]
	push	ecx
	call	??$forward@ABQAV?$Goal@VRaven_Bot@@@@@std@@YAABQAV?$Goal@VRaven_Bot@@@@ABQAV1@@Z ; std::forward<Goal<Raven_Bot> * const &>
	add	esp, 4
	push	eax
	mov	edx, DWORD PTR _this$[ebp]
	mov	eax, DWORD PTR [edx+4]
	add	eax, 8
	push	eax
	call	??$addressof@PAV?$Goal@VRaven_Bot@@@@@std@@YAPAPAV?$Goal@VRaven_Bot@@@@AAPAV1@@Z ; std::addressof<Goal<Raven_Bot> *>
	add	esp, 4
	push	eax
	mov	ecx, DWORD PTR _this$[ebp]
	mov	edx, DWORD PTR [ecx]
	push	edx
	call	??$construct@PAV?$Goal@VRaven_Bot@@@@ABQAV1@@?$_Default_allocator_traits@V?$allocator@U?$_List_node@PAV?$Goal@VRaven_Bot@@@@PAX@std@@@std@@@std@@SAXAAV?$allocator@U?$_List_node@PAV?$Goal@VRaven_Bot@@@@PAX@std@@@1@QAPAV?$Goal@VRaven_Bot@@@@ABQAV3@@Z ; std::_Default_allocator_traits<std::allocator<std::_List_node<Goal<Raven_Bot> *,void *> > >::construct<Goal<Raven_Bot> *,Goal<Raven_Bot> * const &>
	add	esp, 12					; 0000000cH

; 596  :     }

	mov	DWORD PTR __$EHRec$[ebp+8], -1
	mov	eax, DWORD PTR _this$[ebp]
	mov	ecx, DWORD PTR __$EHRec$[ebp]
	mov	DWORD PTR fs:0, ecx
	pop	ecx
	add	esp, 16					; 00000010H
	cmp	ebp, esp
	call	__RTC_CheckEsp
	mov	esp, ebp
	pop	ebp
	ret	8
_TEXT	ENDS
;	COMDAT text$x
text$x	SEGMENT
__unwindfunclet$??$?0ABQAV?$Goal@VRaven_Bot@@@@@?$_List_node_emplace_op2@V?$allocator@U?$_List_node@PAV?$Goal@VRaven_Bot@@@@PAX@std@@@std@@@std@@QAE@AAV?$allocator@U?$_List_node@PAV?$Goal@VRaven_Bot@@@@PAX@std@@@1@ABQAV?$Goal@VRaven_Bot@@@@@Z$0:
	mov	ecx, DWORD PTR _this$[ebp]
	jmp	??1?$_Alloc_construct_ptr@V?$allocator@U?$_List_node@PAV?$Goal@VRaven_Bot@@@@PAX@std@@@std@@@std@@QAE@XZ ; std::_Alloc_construct_ptr<std::allocator<std::_List_node<Goal<Raven_Bot> *,void *> > >::~_Alloc_construct_ptr<std::allocator<std::_List_node<Goal<Raven_Bot> *,void *> > >
	int	3
	int	3
	int	3
	int	3
	int	3
__ehhandler$??$?0ABQAV?$Goal@VRaven_Bot@@@@@?$_List_node_emplace_op2@V?$allocator@U?$_List_node@PAV?$Goal@VRaven_Bot@@@@PAX@std@@@std@@@std@@QAE@AAV?$allocator@U?$_List_node@PAV?$Goal@VRaven_Bot@@@@PAX@std@@@1@ABQAV?$Goal@VRaven_Bot@@@@@Z:
	npad	1
	npad	1
	mov	edx, DWORD PTR [esp+8]
	lea	eax, DWORD PTR [edx+12]
	mov	ecx, DWORD PTR [edx-8]
	xor	ecx, eax
	call	@__security_check_cookie@4
	mov	eax, OFFSET __ehfuncinfo$??$?0ABQAV?$Goal@VRaven_Bot@@@@@?$_List_node_emplace_op2@V?$allocator@U?$_List_node@PAV?$Goal@VRaven_Bot@@@@PAX@std@@@std@@@std@@QAE@AAV?$allocator@U?$_List_node@PAV?$Goal@VRaven_Bot@@@@PAX@std@@@1@ABQAV?$Goal@VRaven_Bot@@@@@Z
	jmp	___CxxFrameHandler3
text$x	ENDS
??$?0ABQAV?$Goal@VRaven_Bot@@@@@?$_List_node_emplace_op2@V?$allocator@U?$_List_node@PAV?$Goal@VRaven_Bot@@@@PAX@std@@@std@@@std@@QAE@AAV?$allocator@U?$_List_node@PAV?$Goal@VRaven_Bot@@@@PAX@std@@@1@ABQAV?$Goal@VRaven_Bot@@@@@Z ENDP ; std::_List_node_emplace_op2<std::allocator<std::_List_node<Goal<Raven_Bot> *,void *> > >::_List_node_emplace_op2<std::allocator<std::_List_node<Goal<Raven_Bot> *,void *> > ><Goal<Raven_Bot> * const &>
; Function compile flags: /Odtp /RTCsu
; File C:\Program Files\Microsoft Visual Studio\2022\Community\VC\Tools\MSVC\14.44.35207\include\type_traits
;	COMDAT ??$forward@ABQAV?$Goal@VRaven_Bot@@@@@std@@YAABQAV?$Goal@VRaven_Bot@@@@ABQAV1@@Z
_TEXT	SEGMENT
__Arg$ = 8						; size = 4
??$forward@ABQAV?$Goal@VRaven_Bot@@@@@std@@YAABQAV?$Goal@VRaven_Bot@@@@ABQAV1@@Z PROC ; std::forward<Goal<Raven_Bot> * const &>, COMDAT

; 1501 : _NODISCARD _MSVC_INTRINSIC constexpr _Ty&& forward(remove_reference_t<_Ty>& _Arg) noexcept {

	push	ebp
	mov	ebp, esp

; 1502 :     return static_cast<_Ty&&>(_Arg);

	mov	eax, DWORD PTR __Arg$[ebp]

; 1503 : }

	pop	ebp
	ret	0
??$forward@ABQAV?$Goal@VRaven_Bot@@@@@std@@YAABQAV?$Goal@VRaven_Bot@@@@ABQAV1@@Z ENDP ; std::forward<Goal<Raven_Bot> * const &>
_TEXT	ENDS
; Function compile flags: /Odtp /RTCsu
; File C:\Program Files\Microsoft Visual Studio\2022\Community\VC\Tools\MSVC\14.44.35207\include\list
;	COMDAT ?_Transfer_before@?$_List_node_emplace_op2@V?$allocator@U?$_List_node@PAV?$Goal@VRaven_Bot@@@@PAX@std@@@std@@@std@@QAEPAU?$_List_node@PAV?$Goal@VRaven_Bot@@@@PAX@2@QAU32@@Z
_TEXT	SEGMENT
__Result$ = -20						; size = 4
__Insert_after$ = -12					; size = 4
_this$ = -4						; size = 4
__Insert_before$ = 8					; size = 4
?_Transfer_before@?$_List_node_emplace_op2@V?$allocator@U?$_List_node@PAV?$Goal@VRaven_Bot@@@@PAX@std@@@std@@@std@@QAEPAU?$_List_node@PAV?$Goal@VRaven_Bot@@@@PAX@2@QAU32@@Z PROC ; std::_List_node_emplace_op2<std::allocator<std::_List_node<Goal<Raven_Bot> *,void *> > >::_Transfer_before, COMDAT
; _this$ = ecx

; 607  :     pointer _Transfer_before(const pointer _Insert_before) noexcept {

	push	ebp
	mov	ebp, esp
	sub	esp, 20					; 00000014H
	mov	eax, -858993460				; ccccccccH
	mov	DWORD PTR [ebp-20], eax
	mov	DWORD PTR [ebp-16], eax
	mov	DWORD PTR [ebp-12], eax
	mov	DWORD PTR [ebp-8], eax
	mov	DWORD PTR [ebp-4], eax
	mov	DWORD PTR _this$[ebp], ecx

; 608  :         const pointer _Insert_after = _Insert_before->_Prev;

	mov	eax, DWORD PTR __Insert_before$[ebp]
	mov	ecx, DWORD PTR [eax+4]
	mov	DWORD PTR __Insert_after$[ebp], ecx

; 609  :         _Construct_in_place(this->_Ptr->_Next, _Insert_before);

	lea	edx, DWORD PTR __Insert_before$[ebp]
	push	edx
	mov	eax, DWORD PTR _this$[ebp]
	mov	ecx, DWORD PTR [eax+4]
	push	ecx
	call	??$_Construct_in_place@PAU?$_List_node@PAV?$Goal@VRaven_Bot@@@@PAX@std@@ABQAU12@@std@@YAXAAPAU?$_List_node@PAV?$Goal@VRaven_Bot@@@@PAX@0@ABQAU10@@Z ; std::_Construct_in_place<std::_List_node<Goal<Raven_Bot> *,void *> *,std::_List_node<Goal<Raven_Bot> *,void *> * const &>
	add	esp, 8

; 610  :         _Construct_in_place(this->_Ptr->_Prev, _Insert_after);

	lea	edx, DWORD PTR __Insert_after$[ebp]
	push	edx
	mov	eax, DWORD PTR _this$[ebp]
	mov	ecx, DWORD PTR [eax+4]
	add	ecx, 4
	push	ecx
	call	??$_Construct_in_place@PAU?$_List_node@PAV?$Goal@VRaven_Bot@@@@PAX@std@@ABQAU12@@std@@YAXAAPAU?$_List_node@PAV?$Goal@VRaven_Bot@@@@PAX@0@ABQAU10@@Z ; std::_Construct_in_place<std::_List_node<Goal<Raven_Bot> *,void *> *,std::_List_node<Goal<Raven_Bot> *,void *> * const &>
	add	esp, 8

; 611  :         const auto _Result    = this->_Ptr;

	mov	edx, DWORD PTR _this$[ebp]
	mov	eax, DWORD PTR [edx+4]
	mov	DWORD PTR __Result$[ebp], eax

; 612  :         this->_Ptr            = pointer{};

	mov	ecx, DWORD PTR _this$[ebp]
	mov	DWORD PTR [ecx+4], 0

; 613  :         _Insert_before->_Prev = _Result;

	mov	edx, DWORD PTR __Insert_before$[ebp]
	mov	eax, DWORD PTR __Result$[ebp]
	mov	DWORD PTR [edx+4], eax

; 614  :         _Insert_after->_Next  = _Result;

	mov	ecx, DWORD PTR __Insert_after$[ebp]
	mov	edx, DWORD PTR __Result$[ebp]
	mov	DWORD PTR [ecx], edx

; 615  :         return _Result;

	mov	eax, DWORD PTR __Result$[ebp]

; 616  :     }

	push	edx
	mov	ecx, ebp
	push	eax
	lea	edx, DWORD PTR $LN6@Transfer_b
	call	@_RTC_CheckStackVars@8
	pop	eax
	pop	edx
	add	esp, 20					; 00000014H
	cmp	ebp, esp
	call	__RTC_CheckEsp
	mov	esp, ebp
	pop	ebp
	ret	4
	npad	1
$LN6@Transfer_b:
	DD	1
	DD	$LN5@Transfer_b
$LN5@Transfer_b:
	DD	-12					; fffffff4H
	DD	4
	DD	$LN4@Transfer_b
$LN4@Transfer_b:
	DB	95					; 0000005fH
	DB	73					; 00000049H
	DB	110					; 0000006eH
	DB	115					; 00000073H
	DB	101					; 00000065H
	DB	114					; 00000072H
	DB	116					; 00000074H
	DB	95					; 0000005fH
	DB	97					; 00000061H
	DB	102					; 00000066H
	DB	116					; 00000074H
	DB	101					; 00000065H
	DB	114					; 00000072H
	DB	0
?_Transfer_before@?$_List_node_emplace_op2@V?$allocator@U?$_List_node@PAV?$Goal@VRaven_Bot@@@@PAX@std@@@std@@@std@@QAEPAU?$_List_node@PAV?$Goal@VRaven_Bot@@@@PAX@2@QAU32@@Z ENDP ; std::_List_node_emplace_op2<std::allocator<std::_List_node<Goal<Raven_Bot> *,void *> > >::_Transfer_before
_TEXT	ENDS
; Function compile flags: /Odtp /RTCsu
; File C:\Program Files\Microsoft Visual Studio\2022\Community\VC\Tools\MSVC\14.44.35207\include\list
;	COMDAT ??1?$_List_node_emplace_op2@V?$allocator@U?$_List_node@PAV?$Goal@VRaven_Bot@@@@PAX@std@@@std@@@std@@QAE@XZ
_TEXT	SEGMENT
_this$ = -16						; size = 4
__$EHRec$ = -12						; size = 12
??1?$_List_node_emplace_op2@V?$allocator@U?$_List_node@PAV?$Goal@VRaven_Bot@@@@PAX@std@@@std@@@std@@QAE@XZ PROC ; std::_List_node_emplace_op2<std::allocator<std::_List_node<Goal<Raven_Bot> *,void *> > >::~_List_node_emplace_op2<std::allocator<std::_List_node<Goal<Raven_Bot> *,void *> > >, COMDAT
; _this$ = ecx

; 598  :     ~_List_node_emplace_op2() {

	push	ebp
	mov	ebp, esp
	push	-1
	push	__ehhandler$??1?$_List_node_emplace_op2@V?$allocator@U?$_List_node@PAV?$Goal@VRaven_Bot@@@@PAX@std@@@std@@@std@@QAE@XZ
	mov	eax, DWORD PTR fs:0
	push	eax
	push	ecx
	mov	DWORD PTR [ebp-16], -858993460		; ccccccccH
	mov	eax, DWORD PTR ___security_cookie
	xor	eax, ebp
	push	eax
	lea	eax, DWORD PTR __$EHRec$[ebp]
	mov	DWORD PTR fs:0, eax
	mov	DWORD PTR _this$[ebp], ecx

; 599  :         if (this->_Ptr != pointer{}) {

	mov	eax, DWORD PTR _this$[ebp]
	cmp	DWORD PTR [eax+4], 0
	je	SHORT $LN2@List_node_

; 600  :             _Alnode_traits::destroy(this->_Al, _STD addressof(this->_Ptr->_Myval));

	mov	ecx, DWORD PTR _this$[ebp]
	mov	edx, DWORD PTR [ecx+4]
	add	edx, 8
	push	edx
	call	??$addressof@PAV?$Goal@VRaven_Bot@@@@@std@@YAPAPAV?$Goal@VRaven_Bot@@@@AAPAV1@@Z ; std::addressof<Goal<Raven_Bot> *>
	add	esp, 4
	push	eax
	mov	eax, DWORD PTR _this$[ebp]
	mov	ecx, DWORD PTR [eax]
	push	ecx
	call	??$destroy@PAV?$Goal@VRaven_Bot@@@@@?$_Default_allocator_traits@V?$allocator@U?$_List_node@PAV?$Goal@VRaven_Bot@@@@PAX@std@@@std@@@std@@SAXAAV?$allocator@U?$_List_node@PAV?$Goal@VRaven_Bot@@@@PAX@std@@@1@QAPAV?$Goal@VRaven_Bot@@@@@Z ; std::_Default_allocator_traits<std::allocator<std::_List_node<Goal<Raven_Bot> *,void *> > >::destroy<Goal<Raven_Bot> *>
	add	esp, 8
$LN2@List_node_:

; 601  :         }
; 602  :     }

	mov	ecx, DWORD PTR _this$[ebp]
	call	??1?$_Alloc_construct_ptr@V?$allocator@U?$_List_node@PAV?$Goal@VRaven_Bot@@@@PAX@std@@@std@@@std@@QAE@XZ ; std::_Alloc_construct_ptr<std::allocator<std::_List_node<Goal<Raven_Bot> *,void *> > >::~_Alloc_construct_ptr<std::allocator<std::_List_node<Goal<Raven_Bot> *,void *> > >
	npad	1
	mov	ecx, DWORD PTR __$EHRec$[ebp]
	mov	DWORD PTR fs:0, ecx
	pop	ecx
	add	esp, 16					; 00000010H
	cmp	ebp, esp
	call	__RTC_CheckEsp
	mov	esp, ebp
	pop	ebp
	ret	0
	int	3
	int	3
	int	3
	int	3
	int	3
_TEXT	ENDS
;	COMDAT text$x
text$x	SEGMENT
__ehhandler$??1?$_List_node_emplace_op2@V?$allocator@U?$_List_node@PAV?$Goal@VRaven_Bot@@@@PAX@std@@@std@@@std@@QAE@XZ:
	npad	1
	npad	1
	mov	edx, DWORD PTR [esp+8]
	lea	eax, DWORD PTR [edx+12]
	mov	ecx, DWORD PTR [edx-8]
	xor	ecx, eax
	call	@__security_check_cookie@4
	mov	eax, OFFSET __ehfuncinfo$??1?$_List_node_emplace_op2@V?$allocator@U?$_List_node@PAV?$Goal@VRaven_Bot@@@@PAX@std@@@std@@@std@@QAE@XZ
	jmp	___CxxFrameHandler3
text$x	ENDS
??1?$_List_node_emplace_op2@V?$allocator@U?$_List_node@PAV?$Goal@VRaven_Bot@@@@PAX@std@@@std@@@std@@QAE@XZ ENDP ; std::_List_node_emplace_op2<std::allocator<std::_List_node<Goal<Raven_Bot> *,void *> > >::~_List_node_emplace_op2<std::allocator<std::_List_node<Goal<Raven_Bot> *,void *> > >
; Function compile flags: /Odtp /RTCsu
; File C:\Program Files\Microsoft Visual Studio\2022\Community\VC\Tools\MSVC\14.44.35207\include\xmemory
;	COMDAT ??1?$_Alloc_construct_ptr@V?$allocator@U?$_List_node@PAV?$Goal@VRaven_Bot@@@@PAX@std@@@std@@@std@@QAE@XZ
_TEXT	SEGMENT
_this$ = -4						; size = 4
??1?$_Alloc_construct_ptr@V?$allocator@U?$_List_node@PAV?$Goal@VRaven_Bot@@@@PAX@std@@@std@@@std@@QAE@XZ PROC ; std::_Alloc_construct_ptr<std::allocator<std::_List_node<Goal<Raven_Bot> *,void *> > >::~_Alloc_construct_ptr<std::allocator<std::_List_node<Goal<Raven_Bot> *,void *> > >, COMDAT
; _this$ = ecx

; 1171 :     _CONSTEXPR20 ~_Alloc_construct_ptr() { // if this instance is engaged, deallocate storage

	push	ebp
	mov	ebp, esp
	push	ecx
	mov	DWORD PTR [ebp-4], -858993460		; ccccccccH
	mov	DWORD PTR _this$[ebp], ecx

; 1172 :         if (_Ptr) {

	mov	eax, DWORD PTR _this$[ebp]
	cmp	DWORD PTR [eax+4], 0
	je	SHORT $LN2@Alloc_cons

; 1173 :             _Al.deallocate(_Ptr, 1);

	push	1
	mov	ecx, DWORD PTR _this$[ebp]
	mov	edx, DWORD PTR [ecx+4]
	push	edx
	mov	eax, DWORD PTR _this$[ebp]
	mov	ecx, DWORD PTR [eax]
	call	?deallocate@?$allocator@U?$_List_node@PAV?$Goal@VRaven_Bot@@@@PAX@std@@@std@@QAEXQAU?$_List_node@PAV?$Goal@VRaven_Bot@@@@PAX@2@I@Z ; std::allocator<std::_List_node<Goal<Raven_Bot> *,void *> >::deallocate
	npad	1
$LN2@Alloc_cons:

; 1174 :         }
; 1175 :     }

	add	esp, 4
	cmp	ebp, esp
	call	__RTC_CheckEsp
	mov	esp, ebp
	pop	ebp
	ret	0
??1?$_Alloc_construct_ptr@V?$allocator@U?$_List_node@PAV?$Goal@VRaven_Bot@@@@PAX@std@@@std@@@std@@QAE@XZ ENDP ; std::_Alloc_construct_ptr<std::allocator<std::_List_node<Goal<Raven_Bot> *,void *> > >::~_Alloc_construct_ptr<std::allocator<std::_List_node<Goal<Raven_Bot> *,void *> > >
_TEXT	ENDS
; Function compile flags: /Odtp /RTCsu
; File C:\Program Files\Microsoft Visual Studio\2022\Community\VC\Tools\MSVC\14.44.35207\include\xmemory
;	COMDAT ?_Allocate@?$_Alloc_construct_ptr@V?$allocator@U?$_List_node@PAV?$Goal@VRaven_Bot@@@@PAX@std@@@std@@@std@@QAEXXZ
_TEXT	SEGMENT
_this$ = -4						; size = 4
?_Allocate@?$_Alloc_construct_ptr@V?$allocator@U?$_List_node@PAV?$Goal@VRaven_Bot@@@@PAX@std@@@std@@@std@@QAEXXZ PROC ; std::_Alloc_construct_ptr<std::allocator<std::_List_node<Goal<Raven_Bot> *,void *> > >::_Allocate, COMDAT
; _this$ = ecx

; 1166 :     _CONSTEXPR20 void _Allocate() { // disengage *this, then allocate a new memory block

	push	ebp
	mov	ebp, esp
	push	ecx
	mov	DWORD PTR [ebp-4], -858993460		; ccccccccH
	mov	DWORD PTR _this$[ebp], ecx

; 1167 :         _Ptr = nullptr; // if allocate throws, prevents double-free

	mov	eax, DWORD PTR _this$[ebp]
	mov	DWORD PTR [eax+4], 0

; 1168 :         _Ptr = _Al.allocate(1);

	push	1
	mov	ecx, DWORD PTR _this$[ebp]
	mov	ecx, DWORD PTR [ecx]
	call	?allocate@?$allocator@U?$_List_node@PAV?$Goal@VRaven_Bot@@@@PAX@std@@@std@@QAEPAU?$_List_node@PAV?$Goal@VRaven_Bot@@@@PAX@2@I@Z ; std::allocator<std::_List_node<Goal<Raven_Bot> *,void *> >::allocate
	mov	edx, DWORD PTR _this$[ebp]
	mov	DWORD PTR [edx+4], eax

; 1169 :     }

	add	esp, 4
	cmp	ebp, esp
	call	__RTC_CheckEsp
	mov	esp, ebp
	pop	ebp
	ret	0
?_Allocate@?$_Alloc_construct_ptr@V?$allocator@U?$_List_node@PAV?$Goal@VRaven_Bot@@@@PAX@std@@@std@@@std@@QAEXXZ ENDP ; std::_Alloc_construct_ptr<std::allocator<std::_List_node<Goal<Raven_Bot> *,void *> > >::_Allocate
_TEXT	ENDS
; Function compile flags: /Odtp /RTCsu
; File C:\Program Files\Microsoft Visual Studio\2022\Community\VC\Tools\MSVC\14.44.35207\include\xmemory
;	COMDAT ??0?$_Alloc_construct_ptr@V?$allocator@U?$_List_node@PAV?$Goal@VRaven_Bot@@@@PAX@std@@@std@@@std@@QAE@AAV?$allocator@U?$_List_node@PAV?$Goal@VRaven_Bot@@@@PAX@std@@@1@@Z
_TEXT	SEGMENT
_this$ = -4						; size = 4
__Al_$ = 8						; size = 4
??0?$_Alloc_construct_ptr@V?$allocator@U?$_List_node@PAV?$Goal@VRaven_Bot@@@@PAX@std@@@std@@@std@@QAE@AAV?$allocator@U?$_List_node@PAV?$Goal@VRaven_Bot@@@@PAX@std@@@1@@Z PROC ; std::_Alloc_construct_ptr<std::allocator<std::_List_node<Goal<Raven_Bot> *,void *> > >::_Alloc_construct_ptr<std::allocator<std::_List_node<Goal<Raven_Bot> *,void *> > >, COMDAT
; _this$ = ecx

; 1160 :     _CONSTEXPR20 explicit _Alloc_construct_ptr(_Alloc& _Al_) : _Al(_Al_), _Ptr(nullptr) {}

	push	ebp
	mov	ebp, esp
	push	ecx
	mov	DWORD PTR _this$[ebp], ecx
	mov	eax, DWORD PTR _this$[ebp]
	mov	ecx, DWORD PTR __Al_$[ebp]
	mov	DWORD PTR [eax], ecx
	mov	edx, DWORD PTR _this$[ebp]
	mov	DWORD PTR [edx+4], 0
	mov	eax, DWORD PTR _this$[ebp]
	mov	esp, ebp
	pop	ebp
	ret	4
??0?$_Alloc_construct_ptr@V?$allocator@U?$_List_node@PAV?$Goal@VRaven_Bot@@@@PAX@std@@@std@@@std@@QAE@AAV?$allocator@U?$_List_node@PAV?$Goal@VRaven_Bot@@@@PAX@std@@@1@@Z ENDP ; std::_Alloc_construct_ptr<std::allocator<std::_List_node<Goal<Raven_Bot> *,void *> > >::_Alloc_construct_ptr<std::allocator<std::_List_node<Goal<Raven_Bot> *,void *> > >
_TEXT	ENDS
; Function compile flags: /Odtp /RTCsu
; File C:\Program Files\Microsoft Visual Studio\2022\Community\VC\Tools\MSVC\14.44.35207\include\type_traits
;	COMDAT ??$forward@PAU_Container_base12@std@@@std@@YA$$QAPAU_Container_base12@0@AAPAU10@@Z
_TEXT	SEGMENT
__Arg$ = 8						; size = 4
??$forward@PAU_Container_base12@std@@@std@@YA$$QAPAU_Container_base12@0@AAPAU10@@Z PROC ; std::forward<std::_Container_base12 *>, COMDAT

; 1501 : _NODISCARD _MSVC_INTRINSIC constexpr _Ty&& forward(remove_reference_t<_Ty>& _Arg) noexcept {

	push	ebp
	mov	ebp, esp

; 1502 :     return static_cast<_Ty&&>(_Arg);

	mov	eax, DWORD PTR __Arg$[ebp]

; 1503 : }

	pop	ebp
	ret	0
??$forward@PAU_Container_base12@std@@@std@@YA$$QAPAU_Container_base12@0@AAPAU10@@Z ENDP ; std::forward<std::_Container_base12 *>
_TEXT	ENDS
; Function compile flags: /Odtp /RTCsu
; File C:\Program Files\Microsoft Visual Studio\2022\Community\VC\Tools\MSVC\14.44.35207\include\type_traits
;	COMDAT ??$addressof@U_Container_proxy@std@@@std@@YAPAU_Container_proxy@0@AAU10@@Z
_TEXT	SEGMENT
__Val$ = 8						; size = 4
??$addressof@U_Container_proxy@std@@@std@@YAPAU_Container_proxy@0@AAU10@@Z PROC ; std::addressof<std::_Container_proxy>, COMDAT

; 1524 : _NODISCARD constexpr _Ty* addressof(_Ty& _Val) noexcept {

	push	ebp
	mov	ebp, esp

; 1525 :     return __builtin_addressof(_Val);

	mov	eax, DWORD PTR __Val$[ebp]

; 1526 : }

	pop	ebp
	ret	0
??$addressof@U_Container_proxy@std@@@std@@YAPAU_Container_proxy@0@AAU10@@Z ENDP ; std::addressof<std::_Container_proxy>
_TEXT	ENDS
; Function compile flags: /Odtp /RTCsu
; File C:\Program Files\Microsoft Visual Studio\2022\Community\VC\Tools\MSVC\14.44.35207\include\xutility
;	COMDAT ??$_Construct_in_place@PAU?$_List_node@VPathEdge@@PAX@std@@ABQAU12@@std@@YAXAAPAU?$_List_node@VPathEdge@@PAX@0@ABQAU10@@Z
_TEXT	SEGMENT
$T1 = -4						; size = 4
__Obj$ = 8						; size = 4
_<_Args_0>$ = 12					; size = 4
??$_Construct_in_place@PAU?$_List_node@VPathEdge@@PAX@std@@ABQAU12@@std@@YAXAAPAU?$_List_node@VPathEdge@@PAX@0@ABQAU10@@Z PROC ; std::_Construct_in_place<std::_List_node<PathEdge,void *> *,std::_List_node<PathEdge,void *> * const &>, COMDAT

; 469  :     noexcept(is_nothrow_constructible_v<_Ty, _Types...>) {

	push	ebp
	mov	ebp, esp
	push	ecx
	mov	DWORD PTR [ebp-4], -858993460		; ccccccccH

; 470  : #if _HAS_CXX20
; 471  :     if (_STD is_constant_evaluated()) {
; 472  :         _STD construct_at(_STD addressof(_Obj), _STD forward<_Types>(_Args)...);
; 473  :     } else
; 474  : #endif // _HAS_CXX20
; 475  :     {
; 476  :         ::new (static_cast<void*>(_STD addressof(_Obj))) _Ty(_STD forward<_Types>(_Args)...);

	mov	eax, DWORD PTR __Obj$[ebp]
	push	eax
	call	??$addressof@PAU?$_List_node@VPathEdge@@PAX@std@@@std@@YAPAPAU?$_List_node@VPathEdge@@PAX@0@AAPAU10@@Z ; std::addressof<std::_List_node<PathEdge,void *> *>
	add	esp, 4
	push	eax
	push	4
	call	??2@YAPAXIPAX@Z				; operator new
	add	esp, 8
	mov	DWORD PTR $T1[ebp], eax
	mov	ecx, DWORD PTR _<_Args_0>$[ebp]
	push	ecx
	call	??$forward@ABQAU?$_List_node@VPathEdge@@PAX@std@@@std@@YAABQAU?$_List_node@VPathEdge@@PAX@0@ABQAU10@@Z ; std::forward<std::_List_node<PathEdge,void *> * const &>
	add	esp, 4
	mov	edx, DWORD PTR $T1[ebp]
	mov	eax, DWORD PTR [eax]
	mov	DWORD PTR [edx], eax

; 477  :     }
; 478  : }

	add	esp, 4
	cmp	ebp, esp
	call	__RTC_CheckEsp
	mov	esp, ebp
	pop	ebp
	ret	0
??$_Construct_in_place@PAU?$_List_node@VPathEdge@@PAX@std@@ABQAU12@@std@@YAXAAPAU?$_List_node@VPathEdge@@PAX@0@ABQAU10@@Z ENDP ; std::_Construct_in_place<std::_List_node<PathEdge,void *> *,std::_List_node<PathEdge,void *> * const &>
_TEXT	ENDS
; Function compile flags: /Odtp /RTCsu
; File C:\Program Files\Microsoft Visual Studio\2022\Community\VC\Tools\MSVC\14.44.35207\include\utility
;	COMDAT ??$exchange@II@std@@YAIAAI$$QAI@Z
_TEXT	SEGMENT
__Old_val$ = -4						; size = 4
__Val$ = 8						; size = 4
__New_val$ = 12						; size = 4
??$exchange@II@std@@YAIAAI$$QAI@Z PROC			; std::exchange<unsigned int,unsigned int>, COMDAT

; 771  :     noexcept(conjunction_v<is_nothrow_move_constructible<_Ty>, is_nothrow_assignable<_Ty&, _Other>>) {

	push	ebp
	mov	ebp, esp
	push	ecx

; 772  :     // assign _New_val to _Val, return previous _Val
; 773  :     _Ty _Old_val = static_cast<_Ty&&>(_Val);

	mov	eax, DWORD PTR __Val$[ebp]
	mov	ecx, DWORD PTR [eax]
	mov	DWORD PTR __Old_val$[ebp], ecx

; 774  :     _Val         = static_cast<_Other&&>(_New_val);

	mov	edx, DWORD PTR __Val$[ebp]
	mov	eax, DWORD PTR __New_val$[ebp]
	mov	ecx, DWORD PTR [eax]
	mov	DWORD PTR [edx], ecx

; 775  :     return _Old_val;

	mov	eax, DWORD PTR __Old_val$[ebp]

; 776  : }

	mov	esp, ebp
	pop	ebp
	ret	0
??$exchange@II@std@@YAIAAI$$QAI@Z ENDP			; std::exchange<unsigned int,unsigned int>
_TEXT	ENDS
; Function compile flags: /Odtp /RTCsu
; File C:\Program Files\Microsoft Visual Studio\2022\Community\VC\Tools\MSVC\14.44.35207\include\xutility
;	COMDAT ??$_Construct_in_place@PAU?$_List_node@VPathEdge@@PAX@std@@AAPAU12@@std@@YAXAAPAU?$_List_node@VPathEdge@@PAX@0@0@Z
_TEXT	SEGMENT
$T1 = -4						; size = 4
__Obj$ = 8						; size = 4
_<_Args_0>$ = 12					; size = 4
??$_Construct_in_place@PAU?$_List_node@VPathEdge@@PAX@std@@AAPAU12@@std@@YAXAAPAU?$_List_node@VPathEdge@@PAX@0@0@Z PROC ; std::_Construct_in_place<std::_List_node<PathEdge,void *> *,std::_List_node<PathEdge,void *> * &>, COMDAT

; 469  :     noexcept(is_nothrow_constructible_v<_Ty, _Types...>) {

	push	ebp
	mov	ebp, esp
	push	ecx
	mov	DWORD PTR [ebp-4], -858993460		; ccccccccH

; 470  : #if _HAS_CXX20
; 471  :     if (_STD is_constant_evaluated()) {
; 472  :         _STD construct_at(_STD addressof(_Obj), _STD forward<_Types>(_Args)...);
; 473  :     } else
; 474  : #endif // _HAS_CXX20
; 475  :     {
; 476  :         ::new (static_cast<void*>(_STD addressof(_Obj))) _Ty(_STD forward<_Types>(_Args)...);

	mov	eax, DWORD PTR __Obj$[ebp]
	push	eax
	call	??$addressof@PAU?$_List_node@VPathEdge@@PAX@std@@@std@@YAPAPAU?$_List_node@VPathEdge@@PAX@0@AAPAU10@@Z ; std::addressof<std::_List_node<PathEdge,void *> *>
	add	esp, 4
	push	eax
	push	4
	call	??2@YAPAXIPAX@Z				; operator new
	add	esp, 8
	mov	DWORD PTR $T1[ebp], eax
	mov	ecx, DWORD PTR _<_Args_0>$[ebp]
	push	ecx
	call	??$forward@AAPAU?$_List_node@VPathEdge@@PAX@std@@@std@@YAAAPAU?$_List_node@VPathEdge@@PAX@0@AAPAU10@@Z ; std::forward<std::_List_node<PathEdge,void *> * &>
	add	esp, 4
	mov	edx, DWORD PTR $T1[ebp]
	mov	eax, DWORD PTR [eax]
	mov	DWORD PTR [edx], eax

; 477  :     }
; 478  : }

	add	esp, 4
	cmp	ebp, esp
	call	__RTC_CheckEsp
	mov	esp, ebp
	pop	ebp
	ret	0
??$_Construct_in_place@PAU?$_List_node@VPathEdge@@PAX@std@@AAPAU12@@std@@YAXAAPAU?$_List_node@VPathEdge@@PAX@0@0@Z ENDP ; std::_Construct_in_place<std::_List_node<PathEdge,void *> *,std::_List_node<PathEdge,void *> * &>
_TEXT	ENDS
; Function compile flags: /Odtp /RTCsu
; File C:\Program Files\Microsoft Visual Studio\2022\Community\VC\Tools\MSVC\14.44.35207\include\utility
;	COMDAT ??$exchange@PAU?$_List_node@VPathEdge@@PAX@std@@PAU12@@std@@YAPAU?$_List_node@VPathEdge@@PAX@0@AAPAU10@$$QAPAU10@@Z
_TEXT	SEGMENT
__Old_val$ = -4						; size = 4
__Val$ = 8						; size = 4
__New_val$ = 12						; size = 4
??$exchange@PAU?$_List_node@VPathEdge@@PAX@std@@PAU12@@std@@YAPAU?$_List_node@VPathEdge@@PAX@0@AAPAU10@$$QAPAU10@@Z PROC ; std::exchange<std::_List_node<PathEdge,void *> *,std::_List_node<PathEdge,void *> *>, COMDAT

; 771  :     noexcept(conjunction_v<is_nothrow_move_constructible<_Ty>, is_nothrow_assignable<_Ty&, _Other>>) {

	push	ebp
	mov	ebp, esp
	push	ecx

; 772  :     // assign _New_val to _Val, return previous _Val
; 773  :     _Ty _Old_val = static_cast<_Ty&&>(_Val);

	mov	eax, DWORD PTR __Val$[ebp]
	mov	ecx, DWORD PTR [eax]
	mov	DWORD PTR __Old_val$[ebp], ecx

; 774  :     _Val         = static_cast<_Other&&>(_New_val);

	mov	edx, DWORD PTR __Val$[ebp]
	mov	eax, DWORD PTR __New_val$[ebp]
	mov	ecx, DWORD PTR [eax]
	mov	DWORD PTR [edx], ecx

; 775  :     return _Old_val;

	mov	eax, DWORD PTR __Old_val$[ebp]

; 776  : }

	mov	esp, ebp
	pop	ebp
	ret	0
??$exchange@PAU?$_List_node@VPathEdge@@PAX@std@@PAU12@@std@@YAPAU?$_List_node@VPathEdge@@PAX@0@AAPAU10@$$QAPAU10@@Z ENDP ; std::exchange<std::_List_node<PathEdge,void *> *,std::_List_node<PathEdge,void *> *>
_TEXT	ENDS
; Function compile flags: /Odtp /RTCsu
; File C:\Program Files\Microsoft Visual Studio\2022\Community\VC\Tools\MSVC\14.44.35207\include\xmemory
;	COMDAT ??$construct@VPathEdge@@ABV1@@?$_Default_allocator_traits@V?$allocator@U?$_List_node@VPathEdge@@PAX@std@@@std@@@std@@SAXAAV?$allocator@U?$_List_node@VPathEdge@@PAX@std@@@1@QAVPathEdge@@ABV3@@Z
_TEXT	SEGMENT
$T1 = -4						; size = 4
___formal$ = 8						; size = 4
__Ptr$ = 12						; size = 4
_<_Args_0>$ = 16					; size = 4
??$construct@VPathEdge@@ABV1@@?$_Default_allocator_traits@V?$allocator@U?$_List_node@VPathEdge@@PAX@std@@@std@@@std@@SAXAAV?$allocator@U?$_List_node@VPathEdge@@PAX@std@@@1@QAVPathEdge@@ABV3@@Z PROC ; std::_Default_allocator_traits<std::allocator<std::_List_node<PathEdge,void *> > >::construct<PathEdge,PathEdge const &>, COMDAT

; 728  :     static _CONSTEXPR20 void construct(_Alloc&, _Objty* const _Ptr, _Types&&... _Args) {

	push	ebp
	mov	ebp, esp
	push	ecx
	push	esi
	push	edi
	mov	DWORD PTR [ebp-4], -858993460		; ccccccccH

; 729  : #if _HAS_CXX20
; 730  :         _STD construct_at(_Ptr, _STD forward<_Types>(_Args)...);
; 731  : #else // ^^^ _HAS_CXX20 / !_HAS_CXX20 vvv
; 732  :         ::new (const_cast<void*>(static_cast<const volatile void*>(_Ptr))) _Objty(_STD forward<_Types>(_Args)...);

	mov	eax, DWORD PTR __Ptr$[ebp]
	push	eax
	push	40					; 00000028H
	call	??2@YAPAXIPAX@Z				; operator new
	add	esp, 8
	mov	DWORD PTR $T1[ebp], eax
	mov	ecx, DWORD PTR _<_Args_0>$[ebp]
	push	ecx
	call	??$forward@ABVPathEdge@@@std@@YAABVPathEdge@@ABV1@@Z ; std::forward<PathEdge const &>
	add	esp, 4
	mov	ecx, 10					; 0000000aH
	mov	esi, eax
	mov	edi, DWORD PTR $T1[ebp]
	rep movsd

; 733  : #endif // ^^^ !_HAS_CXX20 ^^^
; 734  :     }

	pop	edi
	pop	esi
	add	esp, 4
	cmp	ebp, esp
	call	__RTC_CheckEsp
	mov	esp, ebp
	pop	ebp
	ret	0
??$construct@VPathEdge@@ABV1@@?$_Default_allocator_traits@V?$allocator@U?$_List_node@VPathEdge@@PAX@std@@@std@@@std@@SAXAAV?$allocator@U?$_List_node@VPathEdge@@PAX@std@@@1@QAVPathEdge@@ABV3@@Z ENDP ; std::_Default_allocator_traits<std::allocator<std::_List_node<PathEdge,void *> > >::construct<PathEdge,PathEdge const &>
_TEXT	ENDS
; Function compile flags: /Odtp /RTCsu
; File C:\Program Files\Microsoft Visual Studio\2022\Community\VC\Tools\MSVC\14.44.35207\include\xmemory
;	COMDAT ??1?$_Alloc_construct_ptr@V?$allocator@U?$_List_node@VPathEdge@@PAX@std@@@std@@@std@@QAE@XZ
_TEXT	SEGMENT
_this$ = -4						; size = 4
??1?$_Alloc_construct_ptr@V?$allocator@U?$_List_node@VPathEdge@@PAX@std@@@std@@@std@@QAE@XZ PROC ; std::_Alloc_construct_ptr<std::allocator<std::_List_node<PathEdge,void *> > >::~_Alloc_construct_ptr<std::allocator<std::_List_node<PathEdge,void *> > >, COMDAT
; _this$ = ecx

; 1171 :     _CONSTEXPR20 ~_Alloc_construct_ptr() { // if this instance is engaged, deallocate storage

	push	ebp
	mov	ebp, esp
	push	ecx
	mov	DWORD PTR [ebp-4], -858993460		; ccccccccH
	mov	DWORD PTR _this$[ebp], ecx

; 1172 :         if (_Ptr) {

	mov	eax, DWORD PTR _this$[ebp]
	cmp	DWORD PTR [eax+4], 0
	je	SHORT $LN2@Alloc_cons

; 1173 :             _Al.deallocate(_Ptr, 1);

	push	1
	mov	ecx, DWORD PTR _this$[ebp]
	mov	edx, DWORD PTR [ecx+4]
	push	edx
	mov	eax, DWORD PTR _this$[ebp]
	mov	ecx, DWORD PTR [eax]
	call	?deallocate@?$allocator@U?$_List_node@VPathEdge@@PAX@std@@@std@@QAEXQAU?$_List_node@VPathEdge@@PAX@2@I@Z ; std::allocator<std::_List_node<PathEdge,void *> >::deallocate
	npad	1
$LN2@Alloc_cons:

; 1174 :         }
; 1175 :     }

	add	esp, 4
	cmp	ebp, esp
	call	__RTC_CheckEsp
	mov	esp, ebp
	pop	ebp
	ret	0
??1?$_Alloc_construct_ptr@V?$allocator@U?$_List_node@VPathEdge@@PAX@std@@@std@@@std@@QAE@XZ ENDP ; std::_Alloc_construct_ptr<std::allocator<std::_List_node<PathEdge,void *> > >::~_Alloc_construct_ptr<std::allocator<std::_List_node<PathEdge,void *> > >
_TEXT	ENDS
; Function compile flags: /Odtp /RTCsu
; File C:\Program Files\Microsoft Visual Studio\2022\Community\VC\Tools\MSVC\14.44.35207\include\xmemory
;	COMDAT ?_Allocate@?$_Alloc_construct_ptr@V?$allocator@U?$_List_node@VPathEdge@@PAX@std@@@std@@@std@@QAEXXZ
_TEXT	SEGMENT
_this$ = -4						; size = 4
?_Allocate@?$_Alloc_construct_ptr@V?$allocator@U?$_List_node@VPathEdge@@PAX@std@@@std@@@std@@QAEXXZ PROC ; std::_Alloc_construct_ptr<std::allocator<std::_List_node<PathEdge,void *> > >::_Allocate, COMDAT
; _this$ = ecx

; 1166 :     _CONSTEXPR20 void _Allocate() { // disengage *this, then allocate a new memory block

	push	ebp
	mov	ebp, esp
	push	ecx
	mov	DWORD PTR [ebp-4], -858993460		; ccccccccH
	mov	DWORD PTR _this$[ebp], ecx

; 1167 :         _Ptr = nullptr; // if allocate throws, prevents double-free

	mov	eax, DWORD PTR _this$[ebp]
	mov	DWORD PTR [eax+4], 0

; 1168 :         _Ptr = _Al.allocate(1);

	push	1
	mov	ecx, DWORD PTR _this$[ebp]
	mov	ecx, DWORD PTR [ecx]
	call	?allocate@?$allocator@U?$_List_node@VPathEdge@@PAX@std@@@std@@QAEPAU?$_List_node@VPathEdge@@PAX@2@I@Z ; std::allocator<std::_List_node<PathEdge,void *> >::allocate
	mov	edx, DWORD PTR _this$[ebp]
	mov	DWORD PTR [edx+4], eax

; 1169 :     }

	add	esp, 4
	cmp	ebp, esp
	call	__RTC_CheckEsp
	mov	esp, ebp
	pop	ebp
	ret	0
?_Allocate@?$_Alloc_construct_ptr@V?$allocator@U?$_List_node@VPathEdge@@PAX@std@@@std@@@std@@QAEXXZ ENDP ; std::_Alloc_construct_ptr<std::allocator<std::_List_node<PathEdge,void *> > >::_Allocate
_TEXT	ENDS
; Function compile flags: /Odtp /RTCsu
; File C:\Program Files\Microsoft Visual Studio\2022\Community\VC\Tools\MSVC\14.44.35207\include\xmemory
;	COMDAT ?_Release@?$_Alloc_construct_ptr@V?$allocator@U?$_List_node@VPathEdge@@PAX@std@@@std@@@std@@QAEPAU?$_List_node@VPathEdge@@PAX@2@XZ
_TEXT	SEGMENT
$T1 = -8						; size = 4
_this$ = -4						; size = 4
?_Release@?$_Alloc_construct_ptr@V?$allocator@U?$_List_node@VPathEdge@@PAX@std@@@std@@@std@@QAEPAU?$_List_node@VPathEdge@@PAX@2@XZ PROC ; std::_Alloc_construct_ptr<std::allocator<std::_List_node<PathEdge,void *> > >::_Release, COMDAT
; _this$ = ecx

; 1162 :     _NODISCARD _CONSTEXPR20 pointer _Release() noexcept { // disengage *this and return contained pointer

	push	ebp
	mov	ebp, esp
	sub	esp, 8
	mov	DWORD PTR [ebp-8], -858993460		; ccccccccH
	mov	DWORD PTR [ebp-4], -858993460		; ccccccccH
	mov	DWORD PTR _this$[ebp], ecx

; 1163 :         return _STD exchange(_Ptr, nullptr);

	mov	DWORD PTR $T1[ebp], 0
	lea	eax, DWORD PTR $T1[ebp]
	push	eax
	mov	ecx, DWORD PTR _this$[ebp]
	add	ecx, 4
	push	ecx
	call	??$exchange@PAU?$_List_node@VPathEdge@@PAX@std@@$$T@std@@YAPAU?$_List_node@VPathEdge@@PAX@0@AAPAU10@$$QA$$T@Z ; std::exchange<std::_List_node<PathEdge,void *> *,std::nullptr_t>
	add	esp, 8

; 1164 :     }

	add	esp, 8
	cmp	ebp, esp
	call	__RTC_CheckEsp
	mov	esp, ebp
	pop	ebp
	ret	0
?_Release@?$_Alloc_construct_ptr@V?$allocator@U?$_List_node@VPathEdge@@PAX@std@@@std@@@std@@QAEPAU?$_List_node@VPathEdge@@PAX@2@XZ ENDP ; std::_Alloc_construct_ptr<std::allocator<std::_List_node<PathEdge,void *> > >::_Release
_TEXT	ENDS
; Function compile flags: /Odtp /RTCsu
; File C:\Program Files\Microsoft Visual Studio\2022\Community\VC\Tools\MSVC\14.44.35207\include\xmemory
;	COMDAT ??0?$_Alloc_construct_ptr@V?$allocator@U?$_List_node@VPathEdge@@PAX@std@@@std@@@std@@QAE@AAV?$allocator@U?$_List_node@VPathEdge@@PAX@std@@@1@@Z
_TEXT	SEGMENT
_this$ = -4						; size = 4
__Al_$ = 8						; size = 4
??0?$_Alloc_construct_ptr@V?$allocator@U?$_List_node@VPathEdge@@PAX@std@@@std@@@std@@QAE@AAV?$allocator@U?$_List_node@VPathEdge@@PAX@std@@@1@@Z PROC ; std::_Alloc_construct_ptr<std::allocator<std::_List_node<PathEdge,void *> > >::_Alloc_construct_ptr<std::allocator<std::_List_node<PathEdge,void *> > >, COMDAT
; _this$ = ecx

; 1160 :     _CONSTEXPR20 explicit _Alloc_construct_ptr(_Alloc& _Al_) : _Al(_Al_), _Ptr(nullptr) {}

	push	ebp
	mov	ebp, esp
	push	ecx
	mov	DWORD PTR _this$[ebp], ecx
	mov	eax, DWORD PTR _this$[ebp]
	mov	ecx, DWORD PTR __Al_$[ebp]
	mov	DWORD PTR [eax], ecx
	mov	edx, DWORD PTR _this$[ebp]
	mov	DWORD PTR [edx+4], 0
	mov	eax, DWORD PTR _this$[ebp]
	mov	esp, ebp
	pop	ebp
	ret	4
??0?$_Alloc_construct_ptr@V?$allocator@U?$_List_node@VPathEdge@@PAX@std@@@std@@@std@@QAE@AAV?$allocator@U?$_List_node@VPathEdge@@PAX@std@@@1@@Z ENDP ; std::_Alloc_construct_ptr<std::allocator<std::_List_node<PathEdge,void *> > >::_Alloc_construct_ptr<std::allocator<std::_List_node<PathEdge,void *> > >
_TEXT	ENDS
; Function compile flags: /Odtp /RTCsu
; File C:\Program Files\Microsoft Visual Studio\2022\Community\VC\Tools\MSVC\14.44.35207\include\xmemory
;	COMDAT ?deallocate@?$_Default_allocator_traits@V?$allocator@U_Container_proxy@std@@@std@@@std@@SAXAAV?$allocator@U_Container_proxy@std@@@2@QAU_Container_proxy@2@I@Z
_TEXT	SEGMENT
__Al$ = 8						; size = 4
__Ptr$ = 12						; size = 4
__Count$ = 16						; size = 4
?deallocate@?$_Default_allocator_traits@V?$allocator@U_Container_proxy@std@@@std@@@std@@SAXAAV?$allocator@U_Container_proxy@std@@@2@QAU_Container_proxy@2@I@Z PROC ; std::_Default_allocator_traits<std::allocator<std::_Container_proxy> >::deallocate, COMDAT

; 714  :     /* strengthened */ {

	push	ebp
	mov	ebp, esp

; 715  :         // no overflow check on the following multiply; we assume _Allocate did that check
; 716  : #if _HAS_CXX20 // TRANSITION, GH-1532
; 717  :         if (_STD is_constant_evaluated()) {
; 718  :             _Al.deallocate(_Ptr, _Count);
; 719  :         } else
; 720  : #endif // _HAS_CXX20
; 721  :         {
; 722  :             (void) _Al;
; 723  :             _STD _Deallocate<_New_alignof<value_type>>(_Ptr, sizeof(value_type) * _Count);

	mov	eax, DWORD PTR __Count$[ebp]
	shl	eax, 3
	push	eax
	mov	ecx, DWORD PTR __Ptr$[ebp]
	push	ecx
	call	??$_Deallocate@$07@std@@YAXPAXI@Z	; std::_Deallocate<8>
	add	esp, 8

; 724  :         }
; 725  :     }

	cmp	ebp, esp
	call	__RTC_CheckEsp
	pop	ebp
	ret	0
?deallocate@?$_Default_allocator_traits@V?$allocator@U_Container_proxy@std@@@std@@@std@@SAXAAV?$allocator@U_Container_proxy@std@@@2@QAU_Container_proxy@2@I@Z ENDP ; std::_Default_allocator_traits<std::allocator<std::_Container_proxy> >::deallocate
_TEXT	ENDS
; Function compile flags: /Odtp /RTCsu
; File C:\Program Files\Microsoft Visual Studio\2022\Community\VC\Tools\MSVC\14.44.35207\include\list
;	COMDAT ??$_Freenode@V?$allocator@U?$_List_node@VPathEdge@@PAX@std@@@std@@@?$_List_node@VPathEdge@@PAX@std@@SAXAAV?$allocator@U?$_List_node@VPathEdge@@PAX@std@@@1@PAU01@@Z
_TEXT	SEGMENT
__$EHRec$ = -12						; size = 12
__Al$ = 8						; size = 4
__Ptr$ = 12						; size = 4
??$_Freenode@V?$allocator@U?$_List_node@VPathEdge@@PAX@std@@@std@@@?$_List_node@VPathEdge@@PAX@std@@SAXAAV?$allocator@U?$_List_node@VPathEdge@@PAX@std@@@1@PAU01@@Z PROC ; std::_List_node<PathEdge,void *>::_Freenode<std::allocator<std::_List_node<PathEdge,void *> > >, COMDAT

; 316  :     static void _Freenode(_Alnode& _Al, _Nodeptr _Ptr) noexcept { // destroy all members in _Ptr and deallocate with _Al

	push	ebp
	mov	ebp, esp
	push	-1
	push	__ehhandler$??$_Freenode@V?$allocator@U?$_List_node@VPathEdge@@PAX@std@@@std@@@?$_List_node@VPathEdge@@PAX@std@@SAXAAV?$allocator@U?$_List_node@VPathEdge@@PAX@std@@@1@PAU01@@Z
	mov	eax, DWORD PTR fs:0
	push	eax
	mov	eax, DWORD PTR ___security_cookie
	xor	eax, ebp
	push	eax
	lea	eax, DWORD PTR __$EHRec$[ebp]
	mov	DWORD PTR fs:0, eax

; 317  :         allocator_traits<_Alnode>::destroy(_Al, _STD addressof(_Ptr->_Myval));

	mov	eax, DWORD PTR __Ptr$[ebp]
	add	eax, 8
	push	eax
	call	??$addressof@VPathEdge@@@std@@YAPAVPathEdge@@AAV1@@Z ; std::addressof<PathEdge>
	add	esp, 4
	push	eax
	mov	ecx, DWORD PTR __Al$[ebp]
	push	ecx
	call	??$destroy@VPathEdge@@@?$_Default_allocator_traits@V?$allocator@U?$_List_node@VPathEdge@@PAX@std@@@std@@@std@@SAXAAV?$allocator@U?$_List_node@VPathEdge@@PAX@std@@@1@QAVPathEdge@@@Z ; std::_Default_allocator_traits<std::allocator<std::_List_node<PathEdge,void *> > >::destroy<PathEdge>
	add	esp, 8

; 318  :         _Freenode0(_Al, _Ptr);

	mov	edx, DWORD PTR __Ptr$[ebp]
	push	edx
	mov	eax, DWORD PTR __Al$[ebp]
	push	eax
	call	??$_Freenode0@V?$allocator@U?$_List_node@VPathEdge@@PAX@std@@@std@@@?$_List_node@VPathEdge@@PAX@std@@SAXAAV?$allocator@U?$_List_node@VPathEdge@@PAX@std@@@1@PAU01@@Z ; std::_List_node<PathEdge,void *>::_Freenode0<std::allocator<std::_List_node<PathEdge,void *> > >
	add	esp, 8

; 319  :     }

	mov	ecx, DWORD PTR __$EHRec$[ebp]
	mov	DWORD PTR fs:0, ecx
	pop	ecx
	add	esp, 12					; 0000000cH
	cmp	ebp, esp
	call	__RTC_CheckEsp
	mov	esp, ebp
	pop	ebp
	ret	0
	int	3
	int	3
	int	3
	int	3
	int	3
_TEXT	ENDS
;	COMDAT text$x
text$x	SEGMENT
__ehhandler$??$_Freenode@V?$allocator@U?$_List_node@VPathEdge@@PAX@std@@@std@@@?$_List_node@VPathEdge@@PAX@std@@SAXAAV?$allocator@U?$_List_node@VPathEdge@@PAX@std@@@1@PAU01@@Z:
	npad	1
	npad	1
	mov	edx, DWORD PTR [esp+8]
	lea	eax, DWORD PTR [edx+12]
	mov	ecx, DWORD PTR [edx-4]
	xor	ecx, eax
	call	@__security_check_cookie@4
	mov	eax, OFFSET __ehfuncinfo$??$_Freenode@V?$allocator@U?$_List_node@VPathEdge@@PAX@std@@@std@@@?$_List_node@VPathEdge@@PAX@std@@SAXAAV?$allocator@U?$_List_node@VPathEdge@@PAX@std@@@1@PAU01@@Z
	jmp	___CxxFrameHandler3
text$x	ENDS
??$_Freenode@V?$allocator@U?$_List_node@VPathEdge@@PAX@std@@@std@@@?$_List_node@VPathEdge@@PAX@std@@SAXAAV?$allocator@U?$_List_node@VPathEdge@@PAX@std@@@1@PAU01@@Z ENDP ; std::_List_node<PathEdge,void *>::_Freenode<std::allocator<std::_List_node<PathEdge,void *> > >
; Function compile flags: /Odtp /RTCsu
; File C:\Program Files\Microsoft Visual Studio\2022\Community\VC\Tools\MSVC\14.44.35207\include\list
;	COMDAT ??$_Freenode0@V?$allocator@U?$_List_node@VPathEdge@@PAX@std@@@std@@@?$_List_node@VPathEdge@@PAX@std@@SAXAAV?$allocator@U?$_List_node@VPathEdge@@PAX@std@@@1@PAU01@@Z
_TEXT	SEGMENT
__Al$ = 8						; size = 4
__Ptr$ = 12						; size = 4
??$_Freenode0@V?$allocator@U?$_List_node@VPathEdge@@PAX@std@@@std@@@?$_List_node@VPathEdge@@PAX@std@@SAXAAV?$allocator@U?$_List_node@VPathEdge@@PAX@std@@@1@PAU01@@Z PROC ; std::_List_node<PathEdge,void *>::_Freenode0<std::allocator<std::_List_node<PathEdge,void *> > >, COMDAT

; 307  :     static void _Freenode0(_Alnode& _Al, _Nodeptr _Ptr) noexcept {

	push	ebp
	mov	ebp, esp

; 308  :         // destroy pointer members in _Ptr and deallocate with _Al
; 309  :         static_assert(is_same_v<typename _Alnode::value_type, _List_node>, "Bad _Freenode0 call");
; 310  :         _Destroy_in_place(_Ptr->_Next);

	mov	eax, DWORD PTR __Ptr$[ebp]
	push	eax
	call	??$_Destroy_in_place@PAU?$_List_node@VPathEdge@@PAX@std@@@std@@YAXAAPAU?$_List_node@VPathEdge@@PAX@0@@Z ; std::_Destroy_in_place<std::_List_node<PathEdge,void *> *>
	add	esp, 4

; 311  :         _Destroy_in_place(_Ptr->_Prev);

	mov	ecx, DWORD PTR __Ptr$[ebp]
	add	ecx, 4
	push	ecx
	call	??$_Destroy_in_place@PAU?$_List_node@VPathEdge@@PAX@std@@@std@@YAXAAPAU?$_List_node@VPathEdge@@PAX@0@@Z ; std::_Destroy_in_place<std::_List_node<PathEdge,void *> *>
	add	esp, 4

; 312  :         allocator_traits<_Alnode>::deallocate(_Al, _Ptr, 1);

	push	1
	mov	edx, DWORD PTR __Ptr$[ebp]
	push	edx
	mov	eax, DWORD PTR __Al$[ebp]
	push	eax
	call	?deallocate@?$_Default_allocator_traits@V?$allocator@U?$_List_node@VPathEdge@@PAX@std@@@std@@@std@@SAXAAV?$allocator@U?$_List_node@VPathEdge@@PAX@std@@@2@QAU?$_List_node@VPathEdge@@PAX@2@I@Z ; std::_Default_allocator_traits<std::allocator<std::_List_node<PathEdge,void *> > >::deallocate
	add	esp, 12					; 0000000cH

; 313  :     }

	cmp	ebp, esp
	call	__RTC_CheckEsp
	pop	ebp
	ret	0
??$_Freenode0@V?$allocator@U?$_List_node@VPathEdge@@PAX@std@@@std@@@?$_List_node@VPathEdge@@PAX@std@@SAXAAV?$allocator@U?$_List_node@VPathEdge@@PAX@std@@@1@PAU01@@Z ENDP ; std::_List_node<PathEdge,void *>::_Freenode0<std::allocator<std::_List_node<PathEdge,void *> > >
_TEXT	ENDS
; Function compile flags: /Odtp /RTCsu
; File C:\Program Files\Microsoft Visual Studio\2022\Community\VC\Tools\MSVC\14.44.35207\include\list
;	COMDAT ??$_Free_non_head@V?$allocator@U?$_List_node@VPathEdge@@PAX@std@@@std@@@?$_List_node@VPathEdge@@PAX@std@@SAXAAV?$allocator@U?$_List_node@VPathEdge@@PAX@std@@@1@PAU01@@Z
_TEXT	SEGMENT
__Pnext$1 = -8						; size = 4
__Pnode$ = -4						; size = 4
__Al$ = 8						; size = 4
__Head$ = 12						; size = 4
??$_Free_non_head@V?$allocator@U?$_List_node@VPathEdge@@PAX@std@@@std@@@?$_List_node@VPathEdge@@PAX@std@@SAXAAV?$allocator@U?$_List_node@VPathEdge@@PAX@std@@@1@PAU01@@Z PROC ; std::_List_node<PathEdge,void *>::_Free_non_head<std::allocator<std::_List_node<PathEdge,void *> > >, COMDAT

; 323  :         _Alnode& _Al, _Nodeptr _Head) noexcept { // free a list starting at _First and terminated at nullptr

	push	ebp
	mov	ebp, esp
	sub	esp, 8
	mov	DWORD PTR [ebp-8], -858993460		; ccccccccH
	mov	DWORD PTR [ebp-4], -858993460		; ccccccccH

; 324  :         _Head->_Prev->_Next = nullptr;

	mov	eax, DWORD PTR __Head$[ebp]
	mov	ecx, DWORD PTR [eax+4]
	mov	DWORD PTR [ecx], 0

; 325  : 
; 326  :         auto _Pnode = _Head->_Next;

	mov	edx, DWORD PTR __Head$[ebp]
	mov	eax, DWORD PTR [edx]
	mov	DWORD PTR __Pnode$[ebp], eax

; 327  :         for (_Nodeptr _Pnext; _Pnode; _Pnode = _Pnext) {

	jmp	SHORT $LN4@Free_non_h
$LN2@Free_non_h:
	mov	ecx, DWORD PTR __Pnext$1[ebp]
	mov	DWORD PTR __Pnode$[ebp], ecx
$LN4@Free_non_h:
	cmp	DWORD PTR __Pnode$[ebp], 0
	je	SHORT $LN3@Free_non_h

; 328  :             _Pnext = _Pnode->_Next;

	mov	edx, DWORD PTR __Pnode$[ebp]
	mov	eax, DWORD PTR [edx]
	mov	DWORD PTR __Pnext$1[ebp], eax

; 329  :             _Freenode(_Al, _Pnode);

	mov	ecx, DWORD PTR __Pnode$[ebp]
	push	ecx
	mov	edx, DWORD PTR __Al$[ebp]
	push	edx
	call	??$_Freenode@V?$allocator@U?$_List_node@VPathEdge@@PAX@std@@@std@@@?$_List_node@VPathEdge@@PAX@std@@SAXAAV?$allocator@U?$_List_node@VPathEdge@@PAX@std@@@1@PAU01@@Z ; std::_List_node<PathEdge,void *>::_Freenode<std::allocator<std::_List_node<PathEdge,void *> > >
	add	esp, 8

; 330  :         }

	jmp	SHORT $LN2@Free_non_h
$LN3@Free_non_h:

; 331  :     }

	add	esp, 8
	cmp	ebp, esp
	call	__RTC_CheckEsp
	mov	esp, ebp
	pop	ebp
	ret	0
??$_Free_non_head@V?$allocator@U?$_List_node@VPathEdge@@PAX@std@@@std@@@?$_List_node@VPathEdge@@PAX@std@@SAXAAV?$allocator@U?$_List_node@VPathEdge@@PAX@std@@@1@PAU01@@Z ENDP ; std::_List_node<PathEdge,void *>::_Free_non_head<std::allocator<std::_List_node<PathEdge,void *> > >
_TEXT	ENDS
; Function compile flags: /Odtp /RTCsu
; File C:\Program Files\Microsoft Visual Studio\2022\Community\VC\Tools\MSVC\14.44.35207\include\xmemory
;	COMDAT ??$?0$$V@?$_Compressed_pair@V?$allocator@U?$_List_node@PAV?$Goal@VRaven_Bot@@@@PAX@std@@@std@@V?$_List_val@U?$_List_simple_types@PAV?$Goal@VRaven_Bot@@@@@std@@@2@$00@std@@QAE@U_Zero_then_variadic_args_t@1@@Z
_TEXT	SEGMENT
_this$ = -4						; size = 4
___formal$ = 8						; size = 1
??$?0$$V@?$_Compressed_pair@V?$allocator@U?$_List_node@PAV?$Goal@VRaven_Bot@@@@PAX@std@@@std@@V?$_List_val@U?$_List_simple_types@PAV?$Goal@VRaven_Bot@@@@@std@@@2@$00@std@@QAE@U_Zero_then_variadic_args_t@1@@Z PROC ; std::_Compressed_pair<std::allocator<std::_List_node<Goal<Raven_Bot> *,void *> >,std::_List_val<std::_List_simple_types<Goal<Raven_Bot> *> >,1>::_Compressed_pair<std::allocator<std::_List_node<Goal<Raven_Bot> *,void *> >,std::_List_val<std::_List_simple_types<Goal<Raven_Bot> *> >,1><>, COMDAT
; _this$ = ecx

; 1531 :         : _Ty1(), _Myval2(_STD forward<_Other2>(_Val2)...) {}

	push	ebp
	mov	ebp, esp
	push	ecx
	mov	DWORD PTR [ebp-4], -858993460		; ccccccccH
	mov	DWORD PTR _this$[ebp], ecx
	mov	ecx, DWORD PTR _this$[ebp]
	call	??0?$allocator@U?$_List_node@PAV?$Goal@VRaven_Bot@@@@PAX@std@@@std@@QAE@XZ ; std::allocator<std::_List_node<Goal<Raven_Bot> *,void *> >::allocator<std::_List_node<Goal<Raven_Bot> *,void *> >
	mov	ecx, DWORD PTR _this$[ebp]
	call	??0?$_List_val@U?$_List_simple_types@PAV?$Goal@VRaven_Bot@@@@@std@@@std@@QAE@XZ ; std::_List_val<std::_List_simple_types<Goal<Raven_Bot> *> >::_List_val<std::_List_simple_types<Goal<Raven_Bot> *> >
	npad	1
	mov	eax, DWORD PTR _this$[ebp]
	add	esp, 4
	cmp	ebp, esp
	call	__RTC_CheckEsp
	mov	esp, ebp
	pop	ebp
	ret	4
??$?0$$V@?$_Compressed_pair@V?$allocator@U?$_List_node@PAV?$Goal@VRaven_Bot@@@@PAX@std@@@std@@V?$_List_val@U?$_List_simple_types@PAV?$Goal@VRaven_Bot@@@@@std@@@2@$00@std@@QAE@U_Zero_then_variadic_args_t@1@@Z ENDP ; std::_Compressed_pair<std::allocator<std::_List_node<Goal<Raven_Bot> *,void *> >,std::_List_val<std::_List_simple_types<Goal<Raven_Bot> *> >,1>::_Compressed_pair<std::allocator<std::_List_node<Goal<Raven_Bot> *,void *> >,std::_List_val<std::_List_simple_types<Goal<Raven_Bot> *> >,1><>
_TEXT	ENDS
; Function compile flags: /Odtp /RTCsu
; File C:\Program Files\Microsoft Visual Studio\2022\Community\VC\Tools\MSVC\14.44.35207\include\xmemory
;	COMDAT ??$?0U?$_List_node@PAV?$Goal@VRaven_Bot@@@@PAX@std@@@?$allocator@U_Container_proxy@std@@@std@@QAE@ABV?$allocator@U?$_List_node@PAV?$Goal@VRaven_Bot@@@@PAX@std@@@1@@Z
_TEXT	SEGMENT
_this$ = -4						; size = 4
___formal$ = 8						; size = 4
??$?0U?$_List_node@PAV?$Goal@VRaven_Bot@@@@PAX@std@@@?$allocator@U_Container_proxy@std@@@std@@QAE@ABV?$allocator@U?$_List_node@PAV?$Goal@VRaven_Bot@@@@PAX@std@@@1@@Z PROC ; std::allocator<std::_Container_proxy>::allocator<std::_Container_proxy><std::_List_node<Goal<Raven_Bot> *,void *> >, COMDAT
; _this$ = ecx

; 978  :     constexpr allocator(const allocator<_Other>&) noexcept {}

	push	ebp
	mov	ebp, esp
	push	ecx
	mov	DWORD PTR _this$[ebp], ecx
	mov	eax, DWORD PTR _this$[ebp]
	mov	esp, ebp
	pop	ebp
	ret	4
??$?0U?$_List_node@PAV?$Goal@VRaven_Bot@@@@PAX@std@@@?$allocator@U_Container_proxy@std@@@std@@QAE@ABV?$allocator@U?$_List_node@PAV?$Goal@VRaven_Bot@@@@PAX@std@@@1@@Z ENDP ; std::allocator<std::_Container_proxy>::allocator<std::_Container_proxy><std::_List_node<Goal<Raven_Bot> *,void *> >
_TEXT	ENDS
; Function compile flags: /Odtp /RTCsu
; File C:\Program Files\Microsoft Visual Studio\2022\Community\VC\Tools\MSVC\14.44.35207\include\list
;	COMDAT ??$_Emplace@ABQAV?$Goal@VRaven_Bot@@@@@?$list@PAV?$Goal@VRaven_Bot@@@@V?$allocator@PAV?$Goal@VRaven_Bot@@@@@std@@@std@@QAEPAU?$_List_node@PAV?$Goal@VRaven_Bot@@@@PAX@1@QAU21@ABQAV?$Goal@VRaven_Bot@@@@@Z
_TEXT	SEGMENT
tv82 = -36						; size = 4
tv80 = -32						; size = 4
$T1 = -28						; size = 4
__Op$ = -20						; size = 8
__Mysize$ = -8						; size = 4
_this$ = -4						; size = 4
__Where$ = 8						; size = 4
_<_Val_0>$ = 12						; size = 4
??$_Emplace@ABQAV?$Goal@VRaven_Bot@@@@@?$list@PAV?$Goal@VRaven_Bot@@@@V?$allocator@PAV?$Goal@VRaven_Bot@@@@@std@@@std@@QAEPAU?$_List_node@PAV?$Goal@VRaven_Bot@@@@PAX@1@QAU21@ABQAV?$Goal@VRaven_Bot@@@@@Z PROC ; std::list<Goal<Raven_Bot> *,std::allocator<Goal<Raven_Bot> *> >::_Emplace<Goal<Raven_Bot> * const &>, COMDAT
; _this$ = ecx

; 1028 :     _Nodeptr _Emplace(const _Nodeptr _Where, _Valty&&... _Val) { // insert element at _Where

	push	ebp
	mov	ebp, esp
	sub	esp, 36					; 00000024H
	mov	eax, -858993460				; ccccccccH
	mov	DWORD PTR [ebp-36], eax
	mov	DWORD PTR [ebp-32], eax
	mov	DWORD PTR [ebp-28], eax
	mov	DWORD PTR [ebp-24], eax
	mov	DWORD PTR [ebp-20], eax
	mov	DWORD PTR [ebp-16], eax
	mov	DWORD PTR [ebp-12], eax
	mov	DWORD PTR [ebp-8], eax
	mov	DWORD PTR [ebp-4], eax
	mov	DWORD PTR _this$[ebp], ecx

; 1029 :         size_type& _Mysize = _Mypair._Myval2._Mysize;

	mov	eax, DWORD PTR _this$[ebp]
	add	eax, 8
	mov	DWORD PTR __Mysize$[ebp], eax

; 1030 :         if (_Mysize == max_size()) {

	mov	ecx, DWORD PTR _this$[ebp]
	call	?max_size@?$list@PAV?$Goal@VRaven_Bot@@@@V?$allocator@PAV?$Goal@VRaven_Bot@@@@@std@@@std@@QBEIXZ ; std::list<Goal<Raven_Bot> *,std::allocator<Goal<Raven_Bot> *> >::max_size
	mov	ecx, DWORD PTR __Mysize$[ebp]
	cmp	DWORD PTR [ecx], eax
	jne	SHORT $LN2@Emplace

; 1031 :             _Xlength_error("list too long");

	push	OFFSET ??_C@_0O@NKNMEGII@list?5too?5long@
	call	?_Xlength_error@std@@YAXPBD@Z		; std::_Xlength_error
	npad	1
$LN2@Emplace:

; 1032 :         }
; 1033 : 
; 1034 :         _List_node_emplace_op2<_Alnode> _Op{_Getal(), _STD forward<_Valty>(_Val)...};

	mov	ecx, DWORD PTR _this$[ebp]
	call	?_Getal@?$list@PAV?$Goal@VRaven_Bot@@@@V?$allocator@PAV?$Goal@VRaven_Bot@@@@@std@@@std@@AAEAAV?$allocator@U?$_List_node@PAV?$Goal@VRaven_Bot@@@@PAX@std@@@2@XZ ; std::list<Goal<Raven_Bot> *,std::allocator<Goal<Raven_Bot> *> >::_Getal
	mov	DWORD PTR tv80[ebp], eax
	mov	edx, DWORD PTR _<_Val_0>$[ebp]
	push	edx
	call	??$forward@ABQAV?$Goal@VRaven_Bot@@@@@std@@YAABQAV?$Goal@VRaven_Bot@@@@ABQAV1@@Z ; std::forward<Goal<Raven_Bot> * const &>
	add	esp, 4
	mov	DWORD PTR tv82[ebp], eax
	mov	eax, DWORD PTR tv82[ebp]
	push	eax
	mov	ecx, DWORD PTR tv80[ebp]
	push	ecx
	lea	ecx, DWORD PTR __Op$[ebp]
	call	??$?0ABQAV?$Goal@VRaven_Bot@@@@@?$_List_node_emplace_op2@V?$allocator@U?$_List_node@PAV?$Goal@VRaven_Bot@@@@PAX@std@@@std@@@std@@QAE@AAV?$allocator@U?$_List_node@PAV?$Goal@VRaven_Bot@@@@PAX@std@@@1@ABQAV?$Goal@VRaven_Bot@@@@@Z ; std::_List_node_emplace_op2<std::allocator<std::_List_node<Goal<Raven_Bot> *,void *> > >::_List_node_emplace_op2<std::allocator<std::_List_node<Goal<Raven_Bot> *,void *> > ><Goal<Raven_Bot> * const &>

; 1035 :         ++_Mysize;

	mov	edx, DWORD PTR __Mysize$[ebp]
	mov	eax, DWORD PTR [edx]
	add	eax, 1
	mov	ecx, DWORD PTR __Mysize$[ebp]
	mov	DWORD PTR [ecx], eax

; 1036 :         return _Op._Transfer_before(_Where);

	mov	edx, DWORD PTR __Where$[ebp]
	push	edx
	lea	ecx, DWORD PTR __Op$[ebp]
	call	?_Transfer_before@?$_List_node_emplace_op2@V?$allocator@U?$_List_node@PAV?$Goal@VRaven_Bot@@@@PAX@std@@@std@@@std@@QAEPAU?$_List_node@PAV?$Goal@VRaven_Bot@@@@PAX@2@QAU32@@Z ; std::_List_node_emplace_op2<std::allocator<std::_List_node<Goal<Raven_Bot> *,void *> > >::_Transfer_before
	mov	DWORD PTR $T1[ebp], eax
	lea	ecx, DWORD PTR __Op$[ebp]
	call	??1?$_List_node_emplace_op2@V?$allocator@U?$_List_node@PAV?$Goal@VRaven_Bot@@@@PAX@std@@@std@@@std@@QAE@XZ ; std::_List_node_emplace_op2<std::allocator<std::_List_node<Goal<Raven_Bot> *,void *> > >::~_List_node_emplace_op2<std::allocator<std::_List_node<Goal<Raven_Bot> *,void *> > >
	mov	eax, DWORD PTR $T1[ebp]
$LN1@Emplace:

; 1037 :     }

	push	edx
	mov	ecx, ebp
	push	eax
	lea	edx, DWORD PTR $LN7@Emplace
	call	@_RTC_CheckStackVars@8
	pop	eax
	pop	edx
	add	esp, 36					; 00000024H
	cmp	ebp, esp
	call	__RTC_CheckEsp
	mov	esp, ebp
	pop	ebp
	ret	8
	npad	2
$LN7@Emplace:
	DD	1
	DD	$LN6@Emplace
$LN6@Emplace:
	DD	-20					; ffffffecH
	DD	8
	DD	$LN5@Emplace
$LN5@Emplace:
	DB	95					; 0000005fH
	DB	79					; 0000004fH
	DB	112					; 00000070H
	DB	0
??$_Emplace@ABQAV?$Goal@VRaven_Bot@@@@@?$list@PAV?$Goal@VRaven_Bot@@@@V?$allocator@PAV?$Goal@VRaven_Bot@@@@@std@@@std@@QAEPAU?$_List_node@PAV?$Goal@VRaven_Bot@@@@PAX@1@QAU21@ABQAV?$Goal@VRaven_Bot@@@@@Z ENDP ; std::list<Goal<Raven_Bot> *,std::allocator<Goal<Raven_Bot> *> >::_Emplace<Goal<Raven_Bot> * const &>
_TEXT	ENDS
; Function compile flags: /Odtp /RTCsu
; File C:\Program Files\Microsoft Visual Studio\2022\Community\VC\Tools\MSVC\14.44.35207\include\type_traits
;	COMDAT ??$addressof@VPathEdge@@@std@@YAPAVPathEdge@@AAV1@@Z
_TEXT	SEGMENT
__Val$ = 8						; size = 4
??$addressof@VPathEdge@@@std@@YAPAVPathEdge@@AAV1@@Z PROC ; std::addressof<PathEdge>, COMDAT

; 1524 : _NODISCARD constexpr _Ty* addressof(_Ty& _Val) noexcept {

	push	ebp
	mov	ebp, esp

; 1525 :     return __builtin_addressof(_Val);

	mov	eax, DWORD PTR __Val$[ebp]

; 1526 : }

	pop	ebp
	ret	0
??$addressof@VPathEdge@@@std@@YAPAVPathEdge@@AAV1@@Z ENDP ; std::addressof<PathEdge>
_TEXT	ENDS
; Function compile flags: /Odtp /RTCsu
;	COMDAT ??0?$_List_iterator@V?$_List_val@U?$_List_simple_types@PAV?$Goal@VRaven_Bot@@@@@std@@@std@@@std@@QAE@PAU?$_List_node@PAV?$Goal@VRaven_Bot@@@@PAX@1@PBV?$_List_val@U?$_List_simple_types@PAV?$Goal@VRaven_Bot@@@@@std@@@1@@Z
_TEXT	SEGMENT
_this$ = -4						; size = 4
___param0$ = 8						; size = 4
___param1$ = 12						; size = 4
??0?$_List_iterator@V?$_List_val@U?$_List_simple_types@PAV?$Goal@VRaven_Bot@@@@@std@@@std@@@std@@QAE@PAU?$_List_node@PAV?$Goal@VRaven_Bot@@@@PAX@1@PBV?$_List_val@U?$_List_simple_types@PAV?$Goal@VRaven_Bot@@@@@std@@@1@@Z PROC ; std::_List_iterator<std::_List_val<std::_List_simple_types<Goal<Raven_Bot> *> > >::_List_iterator<std::_List_val<std::_List_simple_types<Goal<Raven_Bot> *> > >, COMDAT
; _this$ = ecx
	push	ebp
	mov	ebp, esp
	push	ecx
	mov	DWORD PTR [ebp-4], -858993460		; ccccccccH
	mov	DWORD PTR _this$[ebp], ecx
	mov	eax, DWORD PTR ___param1$[ebp]
	push	eax
	mov	ecx, DWORD PTR ___param0$[ebp]
	push	ecx
	mov	ecx, DWORD PTR _this$[ebp]
	call	??0?$_List_const_iterator@V?$_List_val@U?$_List_simple_types@PAV?$Goal@VRaven_Bot@@@@@std@@@std@@@std@@QAE@PAU?$_List_node@PAV?$Goal@VRaven_Bot@@@@PAX@1@PBV?$_List_val@U?$_List_simple_types@PAV?$Goal@VRaven_Bot@@@@@std@@@1@@Z
	npad	1
	mov	eax, DWORD PTR _this$[ebp]
	add	esp, 4
	cmp	ebp, esp
	call	__RTC_CheckEsp
	mov	esp, ebp
	pop	ebp
	ret	8
??0?$_List_iterator@V?$_List_val@U?$_List_simple_types@PAV?$Goal@VRaven_Bot@@@@@std@@@std@@@std@@QAE@PAU?$_List_node@PAV?$Goal@VRaven_Bot@@@@PAX@1@PBV?$_List_val@U?$_List_simple_types@PAV?$Goal@VRaven_Bot@@@@@std@@@1@@Z ENDP ; std::_List_iterator<std::_List_val<std::_List_simple_types<Goal<Raven_Bot> *> > >::_List_iterator<std::_List_val<std::_List_simple_types<Goal<Raven_Bot> *> > >
_TEXT	ENDS
; Function compile flags: /Odtp /RTCsu
;	COMDAT ??1?$_List_iterator@V?$_List_val@U?$_List_simple_types@PAV?$Goal@VRaven_Bot@@@@@std@@@std@@@std@@QAE@XZ
_TEXT	SEGMENT
_this$ = -4						; size = 4
??1?$_List_iterator@V?$_List_val@U?$_List_simple_types@PAV?$Goal@VRaven_Bot@@@@@std@@@std@@@std@@QAE@XZ PROC ; std::_List_iterator<std::_List_val<std::_List_simple_types<Goal<Raven_Bot> *> > >::~_List_iterator<std::_List_val<std::_List_simple_types<Goal<Raven_Bot> *> > >, COMDAT
; _this$ = ecx
	push	ebp
	mov	ebp, esp
	push	ecx
	mov	DWORD PTR [ebp-4], -858993460		; ccccccccH
	mov	DWORD PTR _this$[ebp], ecx
	mov	ecx, DWORD PTR _this$[ebp]
	call	??1?$_List_const_iterator@V?$_List_val@U?$_List_simple_types@PAV?$Goal@VRaven_Bot@@@@@std@@@std@@@std@@QAE@XZ
	npad	1
	add	esp, 4
	cmp	ebp, esp
	call	__RTC_CheckEsp
	mov	esp, ebp
	pop	ebp
	ret	0
??1?$_List_iterator@V?$_List_val@U?$_List_simple_types@PAV?$Goal@VRaven_Bot@@@@@std@@@std@@@std@@QAE@XZ ENDP ; std::_List_iterator<std::_List_val<std::_List_simple_types<Goal<Raven_Bot> *> > >::~_List_iterator<std::_List_val<std::_List_simple_types<Goal<Raven_Bot> *> > >
_TEXT	ENDS
; Function compile flags: /Odtp /RTCsu
; File C:\Program Files\Microsoft Visual Studio\2022\Community\VC\Tools\MSVC\14.44.35207\include\list
;	COMDAT ??E?$_List_iterator@V?$_List_val@U?$_List_simple_types@PAV?$Goal@VRaven_Bot@@@@@std@@@std@@@std@@QAEAAV01@XZ
_TEXT	SEGMENT
_this$ = -4						; size = 4
??E?$_List_iterator@V?$_List_val@U?$_List_simple_types@PAV?$Goal@VRaven_Bot@@@@@std@@@std@@@std@@QAEAAV01@XZ PROC ; std::_List_iterator<std::_List_val<std::_List_simple_types<Goal<Raven_Bot> *> > >::operator++, COMDAT
; _this$ = ecx

; 245  :     _List_iterator& operator++() noexcept {

	push	ebp
	mov	ebp, esp
	push	ecx
	mov	DWORD PTR [ebp-4], -858993460		; ccccccccH
	mov	DWORD PTR _this$[ebp], ecx

; 246  :         _Mybase::operator++();

	mov	ecx, DWORD PTR _this$[ebp]
	call	??E?$_List_const_iterator@V?$_List_val@U?$_List_simple_types@PAV?$Goal@VRaven_Bot@@@@@std@@@std@@@std@@QAEAAV01@XZ ; std::_List_const_iterator<std::_List_val<std::_List_simple_types<Goal<Raven_Bot> *> > >::operator++

; 247  :         return *this;

	mov	eax, DWORD PTR _this$[ebp]

; 248  :     }

	add	esp, 4
	cmp	ebp, esp
	call	__RTC_CheckEsp
	mov	esp, ebp
	pop	ebp
	ret	0
??E?$_List_iterator@V?$_List_val@U?$_List_simple_types@PAV?$Goal@VRaven_Bot@@@@@std@@@std@@@std@@QAEAAV01@XZ ENDP ; std::_List_iterator<std::_List_val<std::_List_simple_types<Goal<Raven_Bot> *> > >::operator++
_TEXT	ENDS
; Function compile flags: /Odtp /RTCsu
; File C:\Program Files\Microsoft Visual Studio\2022\Community\VC\Tools\MSVC\14.44.35207\include\list
;	COMDAT ??D?$_List_iterator@V?$_List_val@U?$_List_simple_types@PAV?$Goal@VRaven_Bot@@@@@std@@@std@@@std@@QBEAAPAV?$Goal@VRaven_Bot@@@@XZ
_TEXT	SEGMENT
_this$ = -4						; size = 4
??D?$_List_iterator@V?$_List_val@U?$_List_simple_types@PAV?$Goal@VRaven_Bot@@@@@std@@@std@@@std@@QBEAAPAV?$Goal@VRaven_Bot@@@@XZ PROC ; std::_List_iterator<std::_List_val<std::_List_simple_types<Goal<Raven_Bot> *> > >::operator*, COMDAT
; _this$ = ecx

; 237  :     _NODISCARD reference operator*() const noexcept {

	push	ebp
	mov	ebp, esp
	push	ecx
	mov	DWORD PTR [ebp-4], -858993460		; ccccccccH
	mov	DWORD PTR _this$[ebp], ecx

; 238  :         return const_cast<reference>(_Mybase::operator*());

	mov	ecx, DWORD PTR _this$[ebp]
	call	??D?$_List_const_iterator@V?$_List_val@U?$_List_simple_types@PAV?$Goal@VRaven_Bot@@@@@std@@@std@@@std@@QBEABQAV?$Goal@VRaven_Bot@@@@XZ ; std::_List_const_iterator<std::_List_val<std::_List_simple_types<Goal<Raven_Bot> *> > >::operator*

; 239  :     }

	add	esp, 4
	cmp	ebp, esp
	call	__RTC_CheckEsp
	mov	esp, ebp
	pop	ebp
	ret	0
??D?$_List_iterator@V?$_List_val@U?$_List_simple_types@PAV?$Goal@VRaven_Bot@@@@@std@@@std@@@std@@QBEAAPAV?$Goal@VRaven_Bot@@@@XZ ENDP ; std::_List_iterator<std::_List_val<std::_List_simple_types<Goal<Raven_Bot> *> > >::operator*
_TEXT	ENDS
; Function compile flags: /Odtp /RTCsu
; File C:\Program Files\Microsoft Visual Studio\2022\Community\VC\Tools\MSVC\14.44.35207\include\xmemory
;	COMDAT ??$_Unfancy@D@std@@YAPADPAD@Z
_TEXT	SEGMENT
__Ptr$ = 8						; size = 4
??$_Unfancy@D@std@@YAPADPAD@Z PROC			; std::_Unfancy<char>, COMDAT

; 68   : _NODISCARD constexpr _Ty* _Unfancy(_Ty* _Ptr) noexcept { // do nothing for plain pointers

	push	ebp
	mov	ebp, esp

; 69   :     return _Ptr;

	mov	eax, DWORD PTR __Ptr$[ebp]

; 70   : }

	pop	ebp
	ret	0
??$_Unfancy@D@std@@YAPADPAD@Z ENDP			; std::_Unfancy<char>
_TEXT	ENDS
; Function compile flags: /Odtp /RTCsu
; File C:\Program Files\Microsoft Visual Studio\2022\Community\VC\Tools\MSVC\14.44.35207\include\xutility
;	COMDAT ??$_Construct_in_place@U_Container_proxy@std@@PAU_Container_base12@2@@std@@YAXAAU_Container_proxy@0@$$QAPAU_Container_base12@0@@Z
_TEXT	SEGMENT
$T1 = -4						; size = 4
__Obj$ = 8						; size = 4
_<_Args_0>$ = 12					; size = 4
??$_Construct_in_place@U_Container_proxy@std@@PAU_Container_base12@2@@std@@YAXAAU_Container_proxy@0@$$QAPAU_Container_base12@0@@Z PROC ; std::_Construct_in_place<std::_Container_proxy,std::_Container_base12 *>, COMDAT

; 469  :     noexcept(is_nothrow_constructible_v<_Ty, _Types...>) {

	push	ebp
	mov	ebp, esp
	push	ecx
	mov	DWORD PTR [ebp-4], -858993460		; ccccccccH

; 470  : #if _HAS_CXX20
; 471  :     if (_STD is_constant_evaluated()) {
; 472  :         _STD construct_at(_STD addressof(_Obj), _STD forward<_Types>(_Args)...);
; 473  :     } else
; 474  : #endif // _HAS_CXX20
; 475  :     {
; 476  :         ::new (static_cast<void*>(_STD addressof(_Obj))) _Ty(_STD forward<_Types>(_Args)...);

	mov	eax, DWORD PTR __Obj$[ebp]
	push	eax
	call	??$addressof@U_Container_proxy@std@@@std@@YAPAU_Container_proxy@0@AAU10@@Z ; std::addressof<std::_Container_proxy>
	add	esp, 4
	push	eax
	push	8
	call	??2@YAPAXIPAX@Z				; operator new
	add	esp, 8
	mov	DWORD PTR $T1[ebp], eax
	mov	ecx, DWORD PTR _<_Args_0>$[ebp]
	push	ecx
	call	??$forward@PAU_Container_base12@std@@@std@@YA$$QAPAU_Container_base12@0@AAPAU10@@Z ; std::forward<std::_Container_base12 *>
	add	esp, 4
	mov	edx, DWORD PTR [eax]
	push	edx
	mov	ecx, DWORD PTR $T1[ebp]
	call	??0_Container_proxy@std@@QAE@PAU_Container_base12@1@@Z ; std::_Container_proxy::_Container_proxy
	npad	1

; 477  :     }
; 478  : }

	add	esp, 4
	cmp	ebp, esp
	call	__RTC_CheckEsp
	mov	esp, ebp
	pop	ebp
	ret	0
??$_Construct_in_place@U_Container_proxy@std@@PAU_Container_base12@2@@std@@YAXAAU_Container_proxy@0@$$QAPAU_Container_base12@0@@Z ENDP ; std::_Construct_in_place<std::_Container_proxy,std::_Container_base12 *>
_TEXT	ENDS
; Function compile flags: /Odtp /RTCsu
; File C:\Program Files\Microsoft Visual Studio\2022\Community\VC\Tools\MSVC\14.44.35207\include\xmemory
;	COMDAT ??$_Unfancy@U_Container_proxy@std@@@std@@YAPAU_Container_proxy@0@PAU10@@Z
_TEXT	SEGMENT
__Ptr$ = 8						; size = 4
??$_Unfancy@U_Container_proxy@std@@@std@@YAPAU_Container_proxy@0@PAU10@@Z PROC ; std::_Unfancy<std::_Container_proxy>, COMDAT

; 68   : _NODISCARD constexpr _Ty* _Unfancy(_Ty* _Ptr) noexcept { // do nothing for plain pointers

	push	ebp
	mov	ebp, esp

; 69   :     return _Ptr;

	mov	eax, DWORD PTR __Ptr$[ebp]

; 70   : }

	pop	ebp
	ret	0
??$_Unfancy@U_Container_proxy@std@@@std@@YAPAU_Container_proxy@0@PAU10@@Z ENDP ; std::_Unfancy<std::_Container_proxy>
_TEXT	ENDS
; Function compile flags: /Odtp /RTCsu
; File C:\Program Files\Microsoft Visual Studio\2022\Community\VC\Tools\MSVC\14.44.35207\include\list
;	COMDAT ??$_Attach_head@U?$_List_simple_types@VPathEdge@@@std@@@?$_List_node_insert_op2@V?$allocator@U?$_List_node@VPathEdge@@PAX@std@@@std@@@std@@QAEXAAV?$_List_val@U?$_List_simple_types@VPathEdge@@@std@@@1@@Z
_TEXT	SEGMENT
$T2 = -64						; size = 4
__Local_tail$3 = -56					; size = 4
__Local_head$4 = -44					; size = 4
__Local_added$ = -36					; size = 4
__Newnode$ = -28					; size = 8
_this$ = -16						; size = 4
__$EHRec$ = -12						; size = 12
__List_data$ = 8					; size = 4
??$_Attach_head@U?$_List_simple_types@VPathEdge@@@std@@@?$_List_node_insert_op2@V?$allocator@U?$_List_node@VPathEdge@@PAX@std@@@std@@@std@@QAEXAAV?$_List_val@U?$_List_simple_types@VPathEdge@@@std@@@1@@Z PROC ; std::_List_node_insert_op2<std::allocator<std::_List_node<PathEdge,void *> > >::_Attach_head<std::_List_simple_types<PathEdge> >, COMDAT
; _this$ = ecx

; 721  :     void _Attach_head(_List_val<_Val_types>& _List_data) {

	push	ebp
	mov	ebp, esp
	push	-1
	push	__ehhandler$??$_Attach_head@U?$_List_simple_types@VPathEdge@@@std@@@?$_List_node_insert_op2@V?$allocator@U?$_List_node@VPathEdge@@PAX@std@@@std@@@std@@QAEXAAV?$_List_val@U?$_List_simple_types@VPathEdge@@@std@@@1@@Z
	mov	eax, DWORD PTR fs:0
	push	eax
	sub	esp, 52					; 00000034H
	push	edi
	push	ecx
	lea	edi, DWORD PTR [ebp-64]
	mov	ecx, 13					; 0000000dH
	mov	eax, -858993460				; ccccccccH
	rep stosd
	pop	ecx
	mov	eax, DWORD PTR ___security_cookie
	xor	eax, ebp
	push	eax
	lea	eax, DWORD PTR __$EHRec$[ebp]
	mov	DWORD PTR fs:0, eax
	mov	DWORD PTR _this$[ebp], ecx

; 722  :         _Alloc_construct_ptr<_Alnode> _Newnode(_Al);

	mov	eax, DWORD PTR _this$[ebp]
	mov	ecx, DWORD PTR [eax]
	push	ecx
	lea	ecx, DWORD PTR __Newnode$[ebp]
	call	??0?$_Alloc_construct_ptr@V?$allocator@U?$_List_node@VPathEdge@@PAX@std@@@std@@@std@@QAE@AAV?$allocator@U?$_List_node@VPathEdge@@PAX@std@@@1@@Z ; std::_Alloc_construct_ptr<std::allocator<std::_List_node<PathEdge,void *> > >::_Alloc_construct_ptr<std::allocator<std::_List_node<PathEdge,void *> > >
	mov	DWORD PTR __$EHRec$[ebp+8], 0

; 723  :         _Newnode._Allocate(); // throws

	lea	ecx, DWORD PTR __Newnode$[ebp]
	call	?_Allocate@?$_Alloc_construct_ptr@V?$allocator@U?$_List_node@VPathEdge@@PAX@std@@@std@@@std@@QAEXXZ ; std::_Alloc_construct_ptr<std::allocator<std::_List_node<PathEdge,void *> > >::_Allocate
	npad	1

; 724  :         const auto _Local_added = _STD exchange(_Added, size_type{0});

	mov	DWORD PTR $T2[ebp], 0
	lea	edx, DWORD PTR $T2[ebp]
	push	edx
	mov	eax, DWORD PTR _this$[ebp]
	add	eax, 4
	push	eax
	call	??$exchange@II@std@@YAIAAI$$QAI@Z	; std::exchange<unsigned int,unsigned int>
	add	esp, 8
	mov	DWORD PTR __Local_added$[ebp], eax

; 725  :         if (_Local_added == 0) {

	cmp	DWORD PTR __Local_added$[ebp], 0
	jne	SHORT $LN2@Attach_hea

; 726  :             _Construct_in_place(_Newnode._Ptr->_Next, _Newnode._Ptr);

	lea	ecx, DWORD PTR __Newnode$[ebp+4]
	push	ecx
	mov	edx, DWORD PTR __Newnode$[ebp+4]
	push	edx
	call	??$_Construct_in_place@PAU?$_List_node@VPathEdge@@PAX@std@@AAPAU12@@std@@YAXAAPAU?$_List_node@VPathEdge@@PAX@0@0@Z ; std::_Construct_in_place<std::_List_node<PathEdge,void *> *,std::_List_node<PathEdge,void *> * &>
	add	esp, 8

; 727  :             _Construct_in_place(_Newnode._Ptr->_Prev, _Newnode._Ptr);

	lea	eax, DWORD PTR __Newnode$[ebp+4]
	push	eax
	mov	ecx, DWORD PTR __Newnode$[ebp+4]
	add	ecx, 4
	push	ecx
	call	??$_Construct_in_place@PAU?$_List_node@VPathEdge@@PAX@std@@AAPAU12@@std@@YAXAAPAU?$_List_node@VPathEdge@@PAX@0@0@Z ; std::_Construct_in_place<std::_List_node<PathEdge,void *> *,std::_List_node<PathEdge,void *> * &>
	add	esp, 8

; 728  :         } else {

	jmp	SHORT $LN3@Attach_hea
$LN2@Attach_hea:

; 729  :             const auto _Local_head = _Head;

	mov	edx, DWORD PTR _this$[ebp]
	mov	eax, DWORD PTR [edx+12]
	mov	DWORD PTR __Local_head$4[ebp], eax

; 730  :             const auto _Local_tail = _Tail;

	mov	ecx, DWORD PTR _this$[ebp]
	mov	edx, DWORD PTR [ecx+8]
	mov	DWORD PTR __Local_tail$3[ebp], edx

; 731  :             _Construct_in_place(_Newnode._Ptr->_Next, _Local_head);

	lea	eax, DWORD PTR __Local_head$4[ebp]
	push	eax
	mov	ecx, DWORD PTR __Newnode$[ebp+4]
	push	ecx
	call	??$_Construct_in_place@PAU?$_List_node@VPathEdge@@PAX@std@@ABQAU12@@std@@YAXAAPAU?$_List_node@VPathEdge@@PAX@0@ABQAU10@@Z ; std::_Construct_in_place<std::_List_node<PathEdge,void *> *,std::_List_node<PathEdge,void *> * const &>
	add	esp, 8

; 732  :             _Construct_in_place(_Newnode._Ptr->_Prev, _Local_tail);

	lea	edx, DWORD PTR __Local_tail$3[ebp]
	push	edx
	mov	eax, DWORD PTR __Newnode$[ebp+4]
	add	eax, 4
	push	eax
	call	??$_Construct_in_place@PAU?$_List_node@VPathEdge@@PAX@std@@ABQAU12@@std@@YAXAAPAU?$_List_node@VPathEdge@@PAX@0@ABQAU10@@Z ; std::_Construct_in_place<std::_List_node<PathEdge,void *> *,std::_List_node<PathEdge,void *> * const &>
	add	esp, 8

; 733  :             _Construct_in_place(_Local_head->_Prev, _Newnode._Ptr);

	lea	ecx, DWORD PTR __Newnode$[ebp+4]
	push	ecx
	mov	edx, DWORD PTR __Local_head$4[ebp]
	add	edx, 4
	push	edx
	call	??$_Construct_in_place@PAU?$_List_node@VPathEdge@@PAX@std@@AAPAU12@@std@@YAXAAPAU?$_List_node@VPathEdge@@PAX@0@0@Z ; std::_Construct_in_place<std::_List_node<PathEdge,void *> *,std::_List_node<PathEdge,void *> * &>
	add	esp, 8

; 734  :             _Construct_in_place(_Local_tail->_Next, _Newnode._Ptr);

	lea	eax, DWORD PTR __Newnode$[ebp+4]
	push	eax
	mov	ecx, DWORD PTR __Local_tail$3[ebp]
	push	ecx
	call	??$_Construct_in_place@PAU?$_List_node@VPathEdge@@PAX@std@@AAPAU12@@std@@YAXAAPAU?$_List_node@VPathEdge@@PAX@0@0@Z ; std::_Construct_in_place<std::_List_node<PathEdge,void *> *,std::_List_node<PathEdge,void *> * &>
	add	esp, 8
$LN3@Attach_hea:

; 735  :         }
; 736  : 
; 737  :         _List_data._Mysize = _Local_added;

	mov	edx, DWORD PTR __List_data$[ebp]
	mov	eax, DWORD PTR __Local_added$[ebp]
	mov	DWORD PTR [edx+8], eax

; 738  :         _List_data._Myhead = _Newnode._Release();

	lea	ecx, DWORD PTR __Newnode$[ebp]
	call	?_Release@?$_Alloc_construct_ptr@V?$allocator@U?$_List_node@VPathEdge@@PAX@std@@@std@@@std@@QAEPAU?$_List_node@VPathEdge@@PAX@2@XZ ; std::_Alloc_construct_ptr<std::allocator<std::_List_node<PathEdge,void *> > >::_Release
	mov	ecx, DWORD PTR __List_data$[ebp]
	mov	DWORD PTR [ecx+4], eax

; 739  :     }

	mov	DWORD PTR __$EHRec$[ebp+8], -1
	lea	ecx, DWORD PTR __Newnode$[ebp]
	call	??1?$_Alloc_construct_ptr@V?$allocator@U?$_List_node@VPathEdge@@PAX@std@@@std@@@std@@QAE@XZ ; std::_Alloc_construct_ptr<std::allocator<std::_List_node<PathEdge,void *> > >::~_Alloc_construct_ptr<std::allocator<std::_List_node<PathEdge,void *> > >
	npad	1
	push	edx
	mov	ecx, ebp
	push	eax
	lea	edx, DWORD PTR $LN11@Attach_hea
	call	@_RTC_CheckStackVars@8
	pop	eax
	pop	edx
	mov	ecx, DWORD PTR __$EHRec$[ebp]
	mov	DWORD PTR fs:0, ecx
	pop	ecx
	pop	edi
	add	esp, 64					; 00000040H
	cmp	ebp, esp
	call	__RTC_CheckEsp
	mov	esp, ebp
	pop	ebp
	ret	4
$LN11@Attach_hea:
	DD	3
	DD	$LN10@Attach_hea
$LN10@Attach_hea:
	DD	-28					; ffffffe4H
	DD	8
	DD	$LN6@Attach_hea
	DD	-44					; ffffffd4H
	DD	4
	DD	$LN7@Attach_hea
	DD	-56					; ffffffc8H
	DD	4
	DD	$LN8@Attach_hea
$LN8@Attach_hea:
	DB	95					; 0000005fH
	DB	76					; 0000004cH
	DB	111					; 0000006fH
	DB	99					; 00000063H
	DB	97					; 00000061H
	DB	108					; 0000006cH
	DB	95					; 0000005fH
	DB	116					; 00000074H
	DB	97					; 00000061H
	DB	105					; 00000069H
	DB	108					; 0000006cH
	DB	0
$LN7@Attach_hea:
	DB	95					; 0000005fH
	DB	76					; 0000004cH
	DB	111					; 0000006fH
	DB	99					; 00000063H
	DB	97					; 00000061H
	DB	108					; 0000006cH
	DB	95					; 0000005fH
	DB	104					; 00000068H
	DB	101					; 00000065H
	DB	97					; 00000061H
	DB	100					; 00000064H
	DB	0
$LN6@Attach_hea:
	DB	95					; 0000005fH
	DB	78					; 0000004eH
	DB	101					; 00000065H
	DB	119					; 00000077H
	DB	110					; 0000006eH
	DB	111					; 0000006fH
	DB	100					; 00000064H
	DB	101					; 00000065H
	DB	0
_TEXT	ENDS
;	COMDAT text$x
text$x	SEGMENT
__unwindfunclet$??$_Attach_head@U?$_List_simple_types@VPathEdge@@@std@@@?$_List_node_insert_op2@V?$allocator@U?$_List_node@VPathEdge@@PAX@std@@@std@@@std@@QAEXAAV?$_List_val@U?$_List_simple_types@VPathEdge@@@std@@@1@@Z$0:
	lea	ecx, DWORD PTR __Newnode$[ebp]
	jmp	??1?$_Alloc_construct_ptr@V?$allocator@U?$_List_node@VPathEdge@@PAX@std@@@std@@@std@@QAE@XZ ; std::_Alloc_construct_ptr<std::allocator<std::_List_node<PathEdge,void *> > >::~_Alloc_construct_ptr<std::allocator<std::_List_node<PathEdge,void *> > >
	int	3
	int	3
	int	3
	int	3
	int	3
__ehhandler$??$_Attach_head@U?$_List_simple_types@VPathEdge@@@std@@@?$_List_node_insert_op2@V?$allocator@U?$_List_node@VPathEdge@@PAX@std@@@std@@@std@@QAEXAAV?$_List_val@U?$_List_simple_types@VPathEdge@@@std@@@1@@Z:
	npad	1
	npad	1
	mov	edx, DWORD PTR [esp+8]
	lea	eax, DWORD PTR [edx+12]
	mov	ecx, DWORD PTR [edx-60]
	xor	ecx, eax
	call	@__security_check_cookie@4
	mov	eax, OFFSET __ehfuncinfo$??$_Attach_head@U?$_List_simple_types@VPathEdge@@@std@@@?$_List_node_insert_op2@V?$allocator@U?$_List_node@VPathEdge@@PAX@std@@@std@@@std@@QAEXAAV?$_List_val@U?$_List_simple_types@VPathEdge@@@std@@@1@@Z
	jmp	___CxxFrameHandler3
text$x	ENDS
??$_Attach_head@U?$_List_simple_types@VPathEdge@@@std@@@?$_List_node_insert_op2@V?$allocator@U?$_List_node@VPathEdge@@PAX@std@@@std@@@std@@QAEXAAV?$_List_val@U?$_List_simple_types@VPathEdge@@@std@@@1@@Z ENDP ; std::_List_node_insert_op2<std::allocator<std::_List_node<PathEdge,void *> > >::_Attach_head<std::_List_simple_types<PathEdge> >
; Function compile flags: /Odtp /RTCsu
; File C:\Program Files\Microsoft Visual Studio\2022\Community\VC\Tools\MSVC\14.44.35207\include\list
;	COMDAT ??$_Append_range_unchecked@V?$_List_unchecked_const_iterator@V?$_List_val@U?$_List_simple_types@VPathEdge@@@std@@@std@@U_Iterator_base0@2@@std@@V12@@?$_List_node_insert_op2@V?$allocator@U?$_List_node@VPathEdge@@PAX@std@@@std@@@std@@QAEXV?$_List_unchecked_const_iterator@V?$_List_val@U?$_List_simple_types@VPathEdge@@@std@@@std@@U_Iterator_base0@2@@1@V21@@Z
_TEXT	SEGMENT
$T2 = -44						; size = 4
$T3 = -40						; size = 4
__Newhead$4 = -36					; size = 4
__Newnode$ = -28					; size = 8
_this$ = -16						; size = 4
__$EHRec$ = -12						; size = 12
__First$ = 8						; size = 4
__Last$ = 12						; size = 4
??$_Append_range_unchecked@V?$_List_unchecked_const_iterator@V?$_List_val@U?$_List_simple_types@VPathEdge@@@std@@@std@@U_Iterator_base0@2@@std@@V12@@?$_List_node_insert_op2@V?$allocator@U?$_List_node@VPathEdge@@PAX@std@@@std@@@std@@QAEXV?$_List_unchecked_const_iterator@V?$_List_val@U?$_List_simple_types@VPathEdge@@@std@@@std@@U_Iterator_base0@2@@1@V21@@Z PROC ; std::_List_node_insert_op2<std::allocator<std::_List_node<PathEdge,void *> > >::_Append_range_unchecked<std::_List_unchecked_const_iterator<std::_List_val<std::_List_simple_types<PathEdge> >,std::_Iterator_base0>,std::_List_unchecked_const_iterator<std::_List_val<std::_List_simple_types<PathEdge> >,std::_Iterator_base0> >, COMDAT
; _this$ = ecx

; 662  :     void _Append_range_unchecked(_InIt _First, const _Sentinel _Last) {

	push	ebp
	mov	ebp, esp
	push	-1
	push	__ehhandler$??$_Append_range_unchecked@V?$_List_unchecked_const_iterator@V?$_List_val@U?$_List_simple_types@VPathEdge@@@std@@@std@@U_Iterator_base0@2@@std@@V12@@?$_List_node_insert_op2@V?$allocator@U?$_List_node@VPathEdge@@PAX@std@@@std@@@std@@QAEXV?$_List_unchecked_const_iterator@V?$_List_val@U?$_List_simple_types@VPathEdge@@@std@@@std@@U_Iterator_base0@2@@1@V21@@Z
	mov	eax, DWORD PTR fs:0
	push	eax
	sub	esp, 32					; 00000020H
	mov	eax, -858993460				; ccccccccH
	mov	DWORD PTR [ebp-44], eax
	mov	DWORD PTR [ebp-40], eax
	mov	DWORD PTR [ebp-36], eax
	mov	DWORD PTR [ebp-32], eax
	mov	DWORD PTR [ebp-28], eax
	mov	DWORD PTR [ebp-24], eax
	mov	DWORD PTR [ebp-20], eax
	mov	DWORD PTR [ebp-16], eax
	mov	eax, DWORD PTR ___security_cookie
	xor	eax, ebp
	push	eax
	lea	eax, DWORD PTR __$EHRec$[ebp]
	mov	DWORD PTR fs:0, eax
	mov	DWORD PTR _this$[ebp], ecx

; 663  :         // Append the values in [_First, _Last)
; 664  :         if (_First == _Last) { // throws

	lea	eax, DWORD PTR __Last$[ebp]
	push	eax
	lea	ecx, DWORD PTR __First$[ebp]
	call	??8?$_List_unchecked_const_iterator@V?$_List_val@U?$_List_simple_types@VPathEdge@@@std@@@std@@U_Iterator_base0@2@@std@@QBE_NABV01@@Z ; std::_List_unchecked_const_iterator<std::_List_val<std::_List_simple_types<PathEdge> >,std::_Iterator_base0>::operator==
	movzx	ecx, al
	test	ecx, ecx
	je	SHORT $LN4@Append_ran

; 665  :             return;

	jmp	$LN1@Append_ran
$LN4@Append_ran:

; 666  :         }
; 667  : 
; 668  :         _Alloc_construct_ptr<_Alnode> _Newnode(_Al);

	mov	edx, DWORD PTR _this$[ebp]
	mov	eax, DWORD PTR [edx]
	push	eax
	lea	ecx, DWORD PTR __Newnode$[ebp]
	call	??0?$_Alloc_construct_ptr@V?$allocator@U?$_List_node@VPathEdge@@PAX@std@@@std@@@std@@QAE@AAV?$allocator@U?$_List_node@VPathEdge@@PAX@std@@@1@@Z ; std::_Alloc_construct_ptr<std::allocator<std::_List_node<PathEdge,void *> > >::_Alloc_construct_ptr<std::allocator<std::_List_node<PathEdge,void *> > >
	mov	DWORD PTR __$EHRec$[ebp+8], 0

; 669  :         if (_Added == 0) {

	mov	ecx, DWORD PTR _this$[ebp]
	cmp	DWORD PTR [ecx+4], 0
	jne	SHORT $LN5@Append_ran

; 670  :             _Newnode._Allocate(); // throws

	lea	ecx, DWORD PTR __Newnode$[ebp]
	call	?_Allocate@?$_Alloc_construct_ptr@V?$allocator@U?$_List_node@VPathEdge@@PAX@std@@@std@@@std@@QAEXXZ ; std::_Alloc_construct_ptr<std::allocator<std::_List_node<PathEdge,void *> > >::_Allocate

; 671  :             _Alnode_traits::construct(_Al, _STD addressof(_Newnode._Ptr->_Myval), *_First); // throws

	lea	ecx, DWORD PTR __First$[ebp]
	call	??D?$_List_unchecked_const_iterator@V?$_List_val@U?$_List_simple_types@VPathEdge@@@std@@@std@@U_Iterator_base0@2@@std@@QBEABVPathEdge@@XZ ; std::_List_unchecked_const_iterator<std::_List_val<std::_List_simple_types<PathEdge> >,std::_Iterator_base0>::operator*
	push	eax
	mov	edx, DWORD PTR __Newnode$[ebp+4]
	add	edx, 8
	push	edx
	call	??$addressof@VPathEdge@@@std@@YAPAVPathEdge@@AAV1@@Z ; std::addressof<PathEdge>
	add	esp, 4
	push	eax
	mov	eax, DWORD PTR _this$[ebp]
	mov	ecx, DWORD PTR [eax]
	push	ecx
	call	??$construct@VPathEdge@@ABV1@@?$_Default_allocator_traits@V?$allocator@U?$_List_node@VPathEdge@@PAX@std@@@std@@@std@@SAXAAV?$allocator@U?$_List_node@VPathEdge@@PAX@std@@@1@QAVPathEdge@@ABV3@@Z ; std::_Default_allocator_traits<std::allocator<std::_List_node<PathEdge,void *> > >::construct<PathEdge,PathEdge const &>
	add	esp, 12					; 0000000cH

; 672  :             const auto _Newhead = _STD exchange(_Newnode._Ptr, pointer{});

	mov	DWORD PTR $T3[ebp], 0
	lea	edx, DWORD PTR $T3[ebp]
	push	edx
	lea	eax, DWORD PTR __Newnode$[ebp+4]
	push	eax
	call	??$exchange@PAU?$_List_node@VPathEdge@@PAX@std@@PAU12@@std@@YAPAU?$_List_node@VPathEdge@@PAX@0@AAPAU10@$$QAPAU10@@Z ; std::exchange<std::_List_node<PathEdge,void *> *,std::_List_node<PathEdge,void *> *>
	add	esp, 8
	mov	DWORD PTR __Newhead$4[ebp], eax

; 673  :             _Head               = _Newhead;

	mov	ecx, DWORD PTR _this$[ebp]
	mov	edx, DWORD PTR __Newhead$4[ebp]
	mov	DWORD PTR [ecx+12], edx

; 674  :             _Tail               = _Newhead;

	mov	eax, DWORD PTR _this$[ebp]
	mov	ecx, DWORD PTR __Newhead$4[ebp]
	mov	DWORD PTR [eax+8], ecx

; 675  :             ++_Added;

	mov	edx, DWORD PTR _this$[ebp]
	mov	eax, DWORD PTR [edx+4]
	add	eax, 1
	mov	ecx, DWORD PTR _this$[ebp]
	mov	DWORD PTR [ecx+4], eax

; 676  :             ++_First; // throws

	lea	ecx, DWORD PTR __First$[ebp]
	call	??E?$_List_unchecked_const_iterator@V?$_List_val@U?$_List_simple_types@VPathEdge@@@std@@@std@@U_Iterator_base0@2@@std@@QAEAAV01@XZ ; std::_List_unchecked_const_iterator<std::_List_val<std::_List_simple_types<PathEdge> >,std::_Iterator_base0>::operator++
	npad	1
$LN5@Append_ran:

; 677  :         }
; 678  : 
; 679  :         while (_First != _Last) { // throws

	lea	edx, DWORD PTR __Last$[ebp]
	push	edx
	lea	ecx, DWORD PTR __First$[ebp]
	call	??9?$_List_unchecked_const_iterator@V?$_List_val@U?$_List_simple_types@VPathEdge@@@std@@@std@@U_Iterator_base0@2@@std@@QBE_NABV01@@Z ; std::_List_unchecked_const_iterator<std::_List_val<std::_List_simple_types<PathEdge> >,std::_Iterator_base0>::operator!=
	movzx	eax, al
	test	eax, eax
	je	$LN3@Append_ran

; 680  :             _Newnode._Allocate(); // throws

	lea	ecx, DWORD PTR __Newnode$[ebp]
	call	?_Allocate@?$_Alloc_construct_ptr@V?$allocator@U?$_List_node@VPathEdge@@PAX@std@@@std@@@std@@QAEXXZ ; std::_Alloc_construct_ptr<std::allocator<std::_List_node<PathEdge,void *> > >::_Allocate

; 681  :             _Alnode_traits::construct(_Al, _STD addressof(_Newnode._Ptr->_Myval), *_First); // throws

	lea	ecx, DWORD PTR __First$[ebp]
	call	??D?$_List_unchecked_const_iterator@V?$_List_val@U?$_List_simple_types@VPathEdge@@@std@@@std@@U_Iterator_base0@2@@std@@QBEABVPathEdge@@XZ ; std::_List_unchecked_const_iterator<std::_List_val<std::_List_simple_types<PathEdge> >,std::_Iterator_base0>::operator*
	push	eax
	mov	ecx, DWORD PTR __Newnode$[ebp+4]
	add	ecx, 8
	push	ecx
	call	??$addressof@VPathEdge@@@std@@YAPAVPathEdge@@AAV1@@Z ; std::addressof<PathEdge>
	add	esp, 4
	push	eax
	mov	edx, DWORD PTR _this$[ebp]
	mov	eax, DWORD PTR [edx]
	push	eax
	call	??$construct@VPathEdge@@ABV1@@?$_Default_allocator_traits@V?$allocator@U?$_List_node@VPathEdge@@PAX@std@@@std@@@std@@SAXAAV?$allocator@U?$_List_node@VPathEdge@@PAX@std@@@1@QAVPathEdge@@ABV3@@Z ; std::_Default_allocator_traits<std::allocator<std::_List_node<PathEdge,void *> > >::construct<PathEdge,PathEdge const &>
	add	esp, 12					; 0000000cH

; 682  :             _Construct_in_place(_Tail->_Next, _Newnode._Ptr);

	lea	ecx, DWORD PTR __Newnode$[ebp+4]
	push	ecx
	mov	edx, DWORD PTR _this$[ebp]
	mov	eax, DWORD PTR [edx+8]
	push	eax
	call	??$_Construct_in_place@PAU?$_List_node@VPathEdge@@PAX@std@@AAPAU12@@std@@YAXAAPAU?$_List_node@VPathEdge@@PAX@0@0@Z ; std::_Construct_in_place<std::_List_node<PathEdge,void *> *,std::_List_node<PathEdge,void *> * &>
	add	esp, 8

; 683  :             _Construct_in_place(_Newnode._Ptr->_Prev, _Tail);

	mov	ecx, DWORD PTR _this$[ebp]
	add	ecx, 8
	push	ecx
	mov	edx, DWORD PTR __Newnode$[ebp+4]
	add	edx, 4
	push	edx
	call	??$_Construct_in_place@PAU?$_List_node@VPathEdge@@PAX@std@@AAPAU12@@std@@YAXAAPAU?$_List_node@VPathEdge@@PAX@0@0@Z ; std::_Construct_in_place<std::_List_node<PathEdge,void *> *,std::_List_node<PathEdge,void *> * &>
	add	esp, 8

; 684  :             _Tail = _STD exchange(_Newnode._Ptr, pointer{});

	mov	DWORD PTR $T2[ebp], 0
	lea	eax, DWORD PTR $T2[ebp]
	push	eax
	lea	ecx, DWORD PTR __Newnode$[ebp+4]
	push	ecx
	call	??$exchange@PAU?$_List_node@VPathEdge@@PAX@std@@PAU12@@std@@YAPAU?$_List_node@VPathEdge@@PAX@0@AAPAU10@$$QAPAU10@@Z ; std::exchange<std::_List_node<PathEdge,void *> *,std::_List_node<PathEdge,void *> *>
	add	esp, 8
	mov	edx, DWORD PTR _this$[ebp]
	mov	DWORD PTR [edx+8], eax

; 685  :             ++_Added;

	mov	eax, DWORD PTR _this$[ebp]
	mov	ecx, DWORD PTR [eax+4]
	add	ecx, 1
	mov	edx, DWORD PTR _this$[ebp]
	mov	DWORD PTR [edx+4], ecx

; 686  :             ++_First; // throws

	lea	ecx, DWORD PTR __First$[ebp]
	call	??E?$_List_unchecked_const_iterator@V?$_List_val@U?$_List_simple_types@VPathEdge@@@std@@@std@@U_Iterator_base0@2@@std@@QAEAAV01@XZ ; std::_List_unchecked_const_iterator<std::_List_val<std::_List_simple_types<PathEdge> >,std::_Iterator_base0>::operator++
	npad	1

; 687  :         }

	jmp	$LN5@Append_ran
$LN3@Append_ran:

; 688  :     }

	mov	DWORD PTR __$EHRec$[ebp+8], -1
	lea	ecx, DWORD PTR __Newnode$[ebp]
	call	??1?$_Alloc_construct_ptr@V?$allocator@U?$_List_node@VPathEdge@@PAX@std@@@std@@@std@@QAE@XZ ; std::_Alloc_construct_ptr<std::allocator<std::_List_node<PathEdge,void *> > >::~_Alloc_construct_ptr<std::allocator<std::_List_node<PathEdge,void *> > >
	npad	1
$LN1@Append_ran:
	push	edx
	mov	ecx, ebp
	push	eax
	lea	edx, DWORD PTR $LN11@Append_ran
	call	@_RTC_CheckStackVars@8
	pop	eax
	pop	edx
	mov	ecx, DWORD PTR __$EHRec$[ebp]
	mov	DWORD PTR fs:0, ecx
	pop	ecx
	add	esp, 44					; 0000002cH
	cmp	ebp, esp
	call	__RTC_CheckEsp
	mov	esp, ebp
	pop	ebp
	ret	8
	npad	1
$LN11@Append_ran:
	DD	1
	DD	$LN10@Append_ran
$LN10@Append_ran:
	DD	-28					; ffffffe4H
	DD	8
	DD	$LN8@Append_ran
$LN8@Append_ran:
	DB	95					; 0000005fH
	DB	78					; 0000004eH
	DB	101					; 00000065H
	DB	119					; 00000077H
	DB	110					; 0000006eH
	DB	111					; 0000006fH
	DB	100					; 00000064H
	DB	101					; 00000065H
	DB	0
_TEXT	ENDS
;	COMDAT text$x
text$x	SEGMENT
__unwindfunclet$??$_Append_range_unchecked@V?$_List_unchecked_const_iterator@V?$_List_val@U?$_List_simple_types@VPathEdge@@@std@@@std@@U_Iterator_base0@2@@std@@V12@@?$_List_node_insert_op2@V?$allocator@U?$_List_node@VPathEdge@@PAX@std@@@std@@@std@@QAEXV?$_List_unchecked_const_iterator@V?$_List_val@U?$_List_simple_types@VPathEdge@@@std@@@std@@U_Iterator_base0@2@@1@V21@@Z$0:
	lea	ecx, DWORD PTR __Newnode$[ebp]
	jmp	??1?$_Alloc_construct_ptr@V?$allocator@U?$_List_node@VPathEdge@@PAX@std@@@std@@@std@@QAE@XZ ; std::_Alloc_construct_ptr<std::allocator<std::_List_node<PathEdge,void *> > >::~_Alloc_construct_ptr<std::allocator<std::_List_node<PathEdge,void *> > >
	int	3
	int	3
	int	3
	int	3
	int	3
__ehhandler$??$_Append_range_unchecked@V?$_List_unchecked_const_iterator@V?$_List_val@U?$_List_simple_types@VPathEdge@@@std@@@std@@U_Iterator_base0@2@@std@@V12@@?$_List_node_insert_op2@V?$allocator@U?$_List_node@VPathEdge@@PAX@std@@@std@@@std@@QAEXV?$_List_unchecked_const_iterator@V?$_List_val@U?$_List_simple_types@VPathEdge@@@std@@@std@@U_Iterator_base0@2@@1@V21@@Z:
	npad	1
	npad	1
	mov	edx, DWORD PTR [esp+8]
	lea	eax, DWORD PTR [edx+12]
	mov	ecx, DWORD PTR [edx-36]
	xor	ecx, eax
	call	@__security_check_cookie@4
	mov	eax, OFFSET __ehfuncinfo$??$_Append_range_unchecked@V?$_List_unchecked_const_iterator@V?$_List_val@U?$_List_simple_types@VPathEdge@@@std@@@std@@U_Iterator_base0@2@@std@@V12@@?$_List_node_insert_op2@V?$allocator@U?$_List_node@VPathEdge@@PAX@std@@@std@@@std@@QAEXV?$_List_unchecked_const_iterator@V?$_List_val@U?$_List_simple_types@VPathEdge@@@std@@@std@@U_Iterator_base0@2@@1@V21@@Z
	jmp	___CxxFrameHandler3
text$x	ENDS
??$_Append_range_unchecked@V?$_List_unchecked_const_iterator@V?$_List_val@U?$_List_simple_types@VPathEdge@@@std@@@std@@U_Iterator_base0@2@@std@@V12@@?$_List_node_insert_op2@V?$allocator@U?$_List_node@VPathEdge@@PAX@std@@@std@@@std@@QAEXV?$_List_unchecked_const_iterator@V?$_List_val@U?$_List_simple_types@VPathEdge@@@std@@@std@@U_Iterator_base0@2@@1@V21@@Z ENDP ; std::_List_node_insert_op2<std::allocator<std::_List_node<PathEdge,void *> > >::_Append_range_unchecked<std::_List_unchecked_const_iterator<std::_List_val<std::_List_simple_types<PathEdge> >,std::_Iterator_base0>,std::_List_unchecked_const_iterator<std::_List_val<std::_List_simple_types<PathEdge> >,std::_Iterator_base0> >
; Function compile flags: /Odtp /RTCsu
; File C:\Program Files\Microsoft Visual Studio\2022\Community\VC\Tools\MSVC\14.44.35207\include\type_traits
;	COMDAT ??$move@AAV?$_List_unchecked_const_iterator@V?$_List_val@U?$_List_simple_types@VPathEdge@@@std@@@std@@U_Iterator_base0@2@@std@@@std@@YA$$QAV?$_List_unchecked_const_iterator@V?$_List_val@U?$_List_simple_types@VPathEdge@@@std@@@std@@U_Iterator_base0@2@@0@AAV10@@Z
_TEXT	SEGMENT
__Arg$ = 8						; size = 4
??$move@AAV?$_List_unchecked_const_iterator@V?$_List_val@U?$_List_simple_types@VPathEdge@@@std@@@std@@U_Iterator_base0@2@@std@@@std@@YA$$QAV?$_List_unchecked_const_iterator@V?$_List_val@U?$_List_simple_types@VPathEdge@@@std@@@std@@U_Iterator_base0@2@@0@AAV10@@Z PROC ; std::move<std::_List_unchecked_const_iterator<std::_List_val<std::_List_simple_types<PathEdge> >,std::_Iterator_base0> &>, COMDAT

; 1512 : _NODISCARD _MSVC_INTRINSIC constexpr remove_reference_t<_Ty>&& move(_Ty&& _Arg) noexcept {

	push	ebp
	mov	ebp, esp

; 1513 :     return static_cast<remove_reference_t<_Ty>&&>(_Arg);

	mov	eax, DWORD PTR __Arg$[ebp]

; 1514 : }

	pop	ebp
	ret	0
??$move@AAV?$_List_unchecked_const_iterator@V?$_List_val@U?$_List_simple_types@VPathEdge@@@std@@@std@@U_Iterator_base0@2@@std@@@std@@YA$$QAV?$_List_unchecked_const_iterator@V?$_List_val@U?$_List_simple_types@VPathEdge@@@std@@@std@@U_Iterator_base0@2@@0@AAV10@@Z ENDP ; std::move<std::_List_unchecked_const_iterator<std::_List_val<std::_List_simple_types<PathEdge> >,std::_Iterator_base0> &>
_TEXT	ENDS
; Function compile flags: /Odtp /RTCsu
; File C:\Program Files\Microsoft Visual Studio\2022\Community\VC\Tools\MSVC\14.44.35207\include\list
;	COMDAT ??1?$_List_node_insert_op2@V?$allocator@U?$_List_node@VPathEdge@@PAX@std@@@std@@@std@@QAE@XZ
_TEXT	SEGMENT
$T1 = -24						; size = 4
$T2 = -20						; size = 4
__Subject$ = -12					; size = 4
_this$ = -4						; size = 4
??1?$_List_node_insert_op2@V?$allocator@U?$_List_node@VPathEdge@@PAX@std@@@std@@@std@@QAE@XZ PROC ; std::_List_node_insert_op2<std::allocator<std::_List_node<PathEdge,void *> > >::~_List_node_insert_op2<std::allocator<std::_List_node<PathEdge,void *> > >, COMDAT
; _this$ = ecx

; 741  :     ~_List_node_insert_op2() {

	push	ebp
	mov	ebp, esp
	sub	esp, 24					; 00000018H
	mov	eax, -858993460				; ccccccccH
	mov	DWORD PTR [ebp-24], eax
	mov	DWORD PTR [ebp-20], eax
	mov	DWORD PTR [ebp-16], eax
	mov	DWORD PTR [ebp-12], eax
	mov	DWORD PTR [ebp-8], eax
	mov	DWORD PTR [ebp-4], eax
	mov	DWORD PTR _this$[ebp], ecx

; 742  :         if (_Added == 0) {

	mov	eax, DWORD PTR _this$[ebp]
	cmp	DWORD PTR [eax+4], 0
	jne	SHORT $LN4@List_node_

; 743  :             return;

	jmp	SHORT $LN1@List_node_
$LN4@List_node_:

; 744  :         }
; 745  : 
; 746  :         _Construct_in_place(_Head->_Prev, pointer{});

	mov	DWORD PTR $T2[ebp], 0
	lea	ecx, DWORD PTR $T2[ebp]
	push	ecx
	mov	edx, DWORD PTR _this$[ebp]
	mov	eax, DWORD PTR [edx+12]
	add	eax, 4
	push	eax
	call	??$_Construct_in_place@PAU?$_List_node@VPathEdge@@PAX@std@@PAU12@@std@@YAXAAPAU?$_List_node@VPathEdge@@PAX@0@$$QAPAU10@@Z ; std::_Construct_in_place<std::_List_node<PathEdge,void *> *,std::_List_node<PathEdge,void *> *>
	add	esp, 8

; 747  :         _Construct_in_place(_Tail->_Next, pointer{});

	mov	DWORD PTR $T1[ebp], 0
	lea	ecx, DWORD PTR $T1[ebp]
	push	ecx
	mov	edx, DWORD PTR _this$[ebp]
	mov	eax, DWORD PTR [edx+8]
	push	eax
	call	??$_Construct_in_place@PAU?$_List_node@VPathEdge@@PAX@std@@PAU12@@std@@YAXAAPAU?$_List_node@VPathEdge@@PAX@0@$$QAPAU10@@Z ; std::_Construct_in_place<std::_List_node<PathEdge,void *> *,std::_List_node<PathEdge,void *> *>
	add	esp, 8

; 748  :         pointer _Subject = _Head;

	mov	ecx, DWORD PTR _this$[ebp]
	mov	edx, DWORD PTR [ecx+12]
	mov	DWORD PTR __Subject$[ebp], edx
$LN2@List_node_:

; 749  :         while (_Subject) {

	cmp	DWORD PTR __Subject$[ebp], 0
	je	SHORT $LN3@List_node_

; 750  :             value_type::_Freenode(_Al, _STD exchange(_Subject, _Subject->_Next));

	mov	eax, DWORD PTR __Subject$[ebp]
	push	eax
	lea	ecx, DWORD PTR __Subject$[ebp]
	push	ecx
	call	??$exchange@PAU?$_List_node@VPathEdge@@PAX@std@@AAPAU12@@std@@YAPAU?$_List_node@VPathEdge@@PAX@0@AAPAU10@0@Z ; std::exchange<std::_List_node<PathEdge,void *> *,std::_List_node<PathEdge,void *> * &>
	add	esp, 8
	push	eax
	mov	edx, DWORD PTR _this$[ebp]
	mov	eax, DWORD PTR [edx]
	push	eax
	call	??$_Freenode@V?$allocator@U?$_List_node@VPathEdge@@PAX@std@@@std@@@?$_List_node@VPathEdge@@PAX@std@@SAXAAV?$allocator@U?$_List_node@VPathEdge@@PAX@std@@@1@PAU01@@Z ; std::_List_node<PathEdge,void *>::_Freenode<std::allocator<std::_List_node<PathEdge,void *> > >
	add	esp, 8

; 751  :         }

	jmp	SHORT $LN2@List_node_
$LN3@List_node_:
$LN1@List_node_:

; 752  :     }

	push	edx
	mov	ecx, ebp
	push	eax
	lea	edx, DWORD PTR $LN9@List_node_
	call	@_RTC_CheckStackVars@8
	pop	eax
	pop	edx
	add	esp, 24					; 00000018H
	cmp	ebp, esp
	call	__RTC_CheckEsp
	mov	esp, ebp
	pop	ebp
	ret	0
	npad	3
$LN9@List_node_:
	DD	1
	DD	$LN8@List_node_
$LN8@List_node_:
	DD	-12					; fffffff4H
	DD	4
	DD	$LN7@List_node_
$LN7@List_node_:
	DB	95					; 0000005fH
	DB	83					; 00000053H
	DB	117					; 00000075H
	DB	98					; 00000062H
	DB	106					; 0000006aH
	DB	101					; 00000065H
	DB	99					; 00000063H
	DB	116					; 00000074H
	DB	0
??1?$_List_node_insert_op2@V?$allocator@U?$_List_node@VPathEdge@@PAX@std@@@std@@@std@@QAE@XZ ENDP ; std::_List_node_insert_op2<std::allocator<std::_List_node<PathEdge,void *> > >::~_List_node_insert_op2<std::allocator<std::_List_node<PathEdge,void *> > >
_TEXT	ENDS
; Function compile flags: /Odtp /RTCsu
; File C:\Program Files\Microsoft Visual Studio\2022\Community\VC\Tools\MSVC\14.44.35207\include\list
;	COMDAT ??0?$_List_node_insert_op2@V?$allocator@U?$_List_node@VPathEdge@@PAX@std@@@std@@@std@@QAE@AAV?$allocator@U?$_List_node@VPathEdge@@PAX@std@@@1@@Z
_TEXT	SEGMENT
_this$ = -4						; size = 4
__Al_$ = 8						; size = 4
??0?$_List_node_insert_op2@V?$allocator@U?$_List_node@VPathEdge@@PAX@std@@@std@@@std@@QAE@AAV?$allocator@U?$_List_node@VPathEdge@@PAX@std@@@1@@Z PROC ; std::_List_node_insert_op2<std::allocator<std::_List_node<PathEdge,void *> > >::_List_node_insert_op2<std::allocator<std::_List_node<PathEdge,void *> > >, COMDAT
