; Listing generated by Microsoft (R) Optimizing Compiler Version 19.44.35217.0 

	TITLE	C:\Users\Hamzzi\Desktop\AI_Practice\Source\VS2010\Buckland_Chapter7 to 10_Raven\Debug\Goal_HuntTarget.obj
	.686P
	.XMM
	include listing.inc
	.model	flat

INCLUDELIB LIBCMTD
INCLUDELIB OLDNAMES

PUBLIC	__Avx2WmemEnabledWeakValue
;	COMDAT __Avx2WmemEnabledWeakValue
_BSS	SEGMENT
__Avx2WmemEnabledWeakValue DD 01H DUP (?)
_BSS	ENDS
CONST	SEGMENT
$SG206517 DB	'invalid argument', 00H
	ORG $+3
$SG206518 DB	'%s', 00H
	ORG $+1
$SG206519 DB	'C:\Program Files\Microsoft Visual Studio\2022\Community\'
	DB	'VC\Tools\MSVC\14.44.35207\include\xmemory', 00H
	ORG $+2
?_Valid_strftime_specifiers@std@@3QBDB DB 061H		; std::_Valid_strftime_specifiers
	DB	041H
	DB	062H
	DB	042H
	DB	063H
	DB	043H
	DB	064H
	DB	044H
	DB	065H
	DB	046H
	DB	067H
	DB	047H
	DB	068H
	DB	048H
	DB	049H
	DB	06aH
	DB	06dH
	DB	04dH
	DB	06eH
	DB	070H
	DB	072H
	DB	052H
	DB	053H
	DB	074H
	DB	054H
	DB	075H
	DB	055H
	DB	056H
	DB	077H
	DB	057H
	DB	078H
	DB	058H
	DB	079H
	DB	059H
	DB	07aH
	DB	05aH
?colors@@3QBKB DD 0ffH					; colors
	DD	0ff0000H
	DD	0ff00H
	DD	00H
	DD	0c8c8ffH
	DD	0c8c8c8H
	DD	0ffffH
	DD	0aaffH
	DD	0aa00ffH
	DD	05a85H
	DD	0ffffffH
	DD	06400H
	DD	0ffff00H
	DD	0c8c8c8H
	DD	0e6e6ffH
CONST	ENDS
PUBLIC	?__empty_global_delete@@YAXPAX@Z		; __empty_global_delete
PUBLIC	?__empty_global_delete@@YAXPAXI@Z		; __empty_global_delete
PUBLIC	??2@YAPAXIPAX@Z					; operator new
PUBLIC	??0exception@std@@QAE@QBD@Z			; std::exception::exception
PUBLIC	??0exception@std@@QAE@QBDH@Z			; std::exception::exception
PUBLIC	??0exception@std@@QAE@ABV01@@Z			; std::exception::exception
PUBLIC	??1exception@std@@UAE@XZ			; std::exception::~exception
PUBLIC	?what@exception@std@@UBEPBDXZ			; std::exception::what
PUBLIC	??_Gexception@std@@UAEPAXI@Z			; std::exception::`scalar deleting destructor'
PUBLIC	??0bad_alloc@std@@AAE@QBD@Z			; std::bad_alloc::bad_alloc
PUBLIC	??1bad_alloc@std@@UAE@XZ			; std::bad_alloc::~bad_alloc
PUBLIC	??0bad_alloc@std@@QAE@ABV01@@Z			; std::bad_alloc::bad_alloc
PUBLIC	??_Gbad_alloc@std@@UAEPAXI@Z			; std::bad_alloc::`scalar deleting destructor'
PUBLIC	??0bad_array_new_length@std@@QAE@XZ		; std::bad_array_new_length::bad_array_new_length
PUBLIC	??1bad_array_new_length@std@@UAE@XZ		; std::bad_array_new_length::~bad_array_new_length
PUBLIC	??0bad_array_new_length@std@@QAE@ABV01@@Z	; std::bad_array_new_length::bad_array_new_length
PUBLIC	??_Gbad_array_new_length@std@@UAEPAXI@Z		; std::bad_array_new_length::`scalar deleting destructor'
PUBLIC	?_Throw_bad_array_new_length@std@@YAXXZ		; std::_Throw_bad_array_new_length
PUBLIC	?_Allocate@_Default_allocate_traits@std@@SAPAXI@Z ; std::_Default_allocate_traits::_Allocate
PUBLIC	?_Adjust_manually_vector_aligned@std@@YAXAAPAXAAI@Z ; std::_Adjust_manually_vector_aligned
PUBLIC	??0_Container_proxy@std@@QAE@PAU_Container_base12@1@@Z ; std::_Container_proxy::_Container_proxy
PUBLIC	??0_Container_base12@std@@QAE@XZ		; std::_Container_base12::_Container_base12
PUBLIC	?_Orphan_all@_Container_base12@std@@QAEXXZ	; std::_Container_base12::_Orphan_all
PUBLIC	?_Orphan_all_unlocked_v3@_Container_base12@std@@AAEXXZ ; std::_Container_base12::_Orphan_all_unlocked_v3
PUBLIC	?_Orphan_all_locked_v3@_Container_base12@std@@AAEXXZ ; std::_Container_base12::_Orphan_all_locked_v3
PUBLIC	??0_Iterator_base12@std@@QAE@XZ			; std::_Iterator_base12::_Iterator_base12
PUBLIC	??0_Iterator_base12@std@@QAE@ABU01@@Z		; std::_Iterator_base12::_Iterator_base12
PUBLIC	??4_Iterator_base12@std@@QAEAAU01@ABU01@@Z	; std::_Iterator_base12::operator=
PUBLIC	??1_Iterator_base12@std@@QAE@XZ			; std::_Iterator_base12::~_Iterator_base12
PUBLIC	?_Adopt@_Iterator_base12@std@@QAEXPBU_Container_base12@2@@Z ; std::_Iterator_base12::_Adopt
PUBLIC	?_Getcont@_Iterator_base12@std@@QBEPBU_Container_base12@2@XZ ; std::_Iterator_base12::_Getcont
PUBLIC	?_Assign_unlocked@_Iterator_base12@std@@AAEXABU12@@Z ; std::_Iterator_base12::_Assign_unlocked
PUBLIC	?_Assign_locked@_Iterator_base12@std@@AAEXABU12@@Z ; std::_Iterator_base12::_Assign_locked
PUBLIC	?_Adopt_unlocked@_Iterator_base12@std@@AAEXPBU_Container_base12@2@@Z ; std::_Iterator_base12::_Adopt_unlocked
PUBLIC	?_Adopt_locked@_Iterator_base12@std@@AAEXPBU_Container_base12@2@@Z ; std::_Iterator_base12::_Adopt_locked
PUBLIC	?_Orphan_me_unlocked_v3@_Iterator_base12@std@@AAEXXZ ; std::_Iterator_base12::_Orphan_me_unlocked_v3
PUBLIC	?_Orphan_me_locked_v3@_Iterator_base12@std@@AAEXXZ ; std::_Iterator_base12::_Orphan_me_locked_v3
PUBLIC	??$exchange@PAU_Iterator_base12@std@@$$T@std@@YAPAU_Iterator_base12@0@AAPAU10@$$QA$$T@Z ; std::exchange<std::_Iterator_base12 *,std::nullptr_t>
PUBLIC	?_Release@_Basic_container_proxy_ptr12@std@@QAEXXZ ; std::_Basic_container_proxy_ptr12::_Release
PUBLIC	??0_Basic_container_proxy_ptr12@std@@IAE@XZ	; std::_Basic_container_proxy_ptr12::_Basic_container_proxy_ptr12
PUBLIC	?assign@?$_Narrow_char_traits@DH@std@@SAXAADABD@Z ; std::_Narrow_char_traits<char,int>::assign
PUBLIC	?deallocate@?$allocator@D@std@@QAEXQADI@Z	; std::allocator<char>::deallocate
PUBLIC	?_Myptr@?$_String_val@U?$_Simple_types@D@std@@@std@@QBEPBDXZ ; std::_String_val<std::_Simple_types<char> >::_Myptr
PUBLIC	?_Large_mode_engaged@?$_String_val@U?$_Simple_types@D@std@@@std@@QBE_NXZ ; std::_String_val<std::_Simple_types<char> >::_Large_mode_engaged
PUBLIC	??1_Bxty@?$_String_val@U?$_Simple_types@D@std@@@std@@QAE@XZ ; std::_String_val<std::_Simple_types<char> >::_Bxty::~_Bxty
PUBLIC	?_Switch_to_buf@_Bxty@?$_String_val@U?$_Simple_types@D@std@@@std@@QAEXXZ ; std::_String_val<std::_Simple_types<char> >::_Bxty::_Switch_to_buf
PUBLIC	??1?$_String_val@U?$_Simple_types@D@std@@@std@@QAE@XZ ; std::_String_val<std::_Simple_types<char> >::~_String_val<std::_Simple_types<char> >
PUBLIC	?_Deallocate_for_capacity@?$basic_string@DU?$char_traits@D@std@@V?$allocator@D@2@@std@@CAXAAV?$allocator@D@2@QADI@Z ; std::basic_string<char,std::char_traits<char>,std::allocator<char> >::_Deallocate_for_capacity
PUBLIC	??1?$basic_string@DU?$char_traits@D@std@@V?$allocator@D@2@@std@@QAE@XZ ; std::basic_string<char,std::char_traits<char>,std::allocator<char> >::~basic_string<char,std::char_traits<char>,std::allocator<char> >
PUBLIC	?c_str@?$basic_string@DU?$char_traits@D@std@@V?$allocator@D@2@@std@@QBEPBDXZ ; std::basic_string<char,std::char_traits<char>,std::allocator<char> >::c_str
PUBLIC	?size@?$basic_string@DU?$char_traits@D@std@@V?$allocator@D@2@@std@@QBEIXZ ; std::basic_string<char,std::char_traits<char>,std::allocator<char> >::size
PUBLIC	?_Tidy_deallocate@?$basic_string@DU?$char_traits@D@std@@V?$allocator@D@2@@std@@AAEXXZ ; std::basic_string<char,std::char_traits<char>,std::allocator<char> >::_Tidy_deallocate
PUBLIC	?_Getal@?$basic_string@DU?$char_traits@D@std@@V?$allocator@D@2@@std@@AAEAAV?$allocator@D@2@XZ ; std::basic_string<char,std::char_traits<char>,std::allocator<char> >::_Getal
PUBLIC	?_Get_first@?$_Compressed_pair@V?$allocator@D@std@@V?$_String_val@U?$_Simple_types@D@std@@@2@$00@std@@QAEAAV?$allocator@D@2@XZ ; std::_Compressed_pair<std::allocator<char>,std::_String_val<std::_Simple_types<char> >,1>::_Get_first
PUBLIC	??1?$_Compressed_pair@V?$allocator@D@std@@V?$_String_val@U?$_Simple_types@D@std@@@2@$00@std@@QAE@XZ ; std::_Compressed_pair<std::allocator<char>,std::_String_val<std::_Simple_types<char> >,1>::~_Compressed_pair<std::allocator<char>,std::_String_val<std::_Simple_types<char> >,1>
PUBLIC	??0runtime_error@std@@QAE@PBD@Z			; std::runtime_error::runtime_error
PUBLIC	??1runtime_error@std@@UAE@XZ			; std::runtime_error::~runtime_error
PUBLIC	??0runtime_error@std@@QAE@ABV01@@Z		; std::runtime_error::runtime_error
PUBLIC	??_Gruntime_error@std@@UAEPAXI@Z		; std::runtime_error::`scalar deleting destructor'
PUBLIC	??0Vector2D@@QAE@XZ				; Vector2D::Vector2D
PUBLIC	?isZero@Vector2D@@QBE_NXZ			; Vector2D::isZero
PUBLIC	?TextAtPos@Cgdi@@QAEXNNABV?$basic_string@DU?$char_traits@D@std@@V?$allocator@D@2@@std@@@Z ; Cgdi::TextAtPos
PUBLIC	?TransparentText@Cgdi@@QAEXXZ			; Cgdi::TransparentText
PUBLIC	?TextColor@Cgdi@@QAEXHHH@Z			; Cgdi::TextColor
PUBLIC	?isTargetPresent@Raven_TargetingSystem@@QBE_NXZ	; Raven_TargetingSystem::isTargetPresent
PUBLIC	?GetTargetSys@Raven_Bot@@QAEQAVRaven_TargetingSystem@@XZ ; Raven_Bot::GetTargetSys
PUBLIC	?ActivateIfInactive@?$Goal@VRaven_Bot@@@@IAEXXZ	; Goal<Raven_Bot>::ActivateIfInactive
PUBLIC	??0?$Goal@VRaven_Bot@@@@QAE@PAVRaven_Bot@@H@Z	; Goal<Raven_Bot>::Goal<Raven_Bot>
PUBLIC	??1?$Goal@VRaven_Bot@@@@UAE@XZ			; Goal<Raven_Bot>::~Goal<Raven_Bot>
PUBLIC	?HandleMessage@?$Goal@VRaven_Bot@@@@UAE_NABUTelegram@@@Z ; Goal<Raven_Bot>::HandleMessage
PUBLIC	?AddSubgoal@?$Goal@VRaven_Bot@@@@UAEXPAV1@@Z	; Goal<Raven_Bot>::AddSubgoal
PUBLIC	?isComplete@?$Goal@VRaven_Bot@@@@QBE_NXZ	; Goal<Raven_Bot>::isComplete
PUBLIC	?isActive@?$Goal@VRaven_Bot@@@@QBE_NXZ		; Goal<Raven_Bot>::isActive
PUBLIC	?isInactive@?$Goal@VRaven_Bot@@@@QBE_NXZ	; Goal<Raven_Bot>::isInactive
PUBLIC	?hasFailed@?$Goal@VRaven_Bot@@@@QBE_NXZ		; Goal<Raven_Bot>::hasFailed
PUBLIC	?GetType@?$Goal@VRaven_Bot@@@@QBEHXZ		; Goal<Raven_Bot>::GetType
PUBLIC	?RenderAtPos@?$Goal@VRaven_Bot@@@@UBEXAAUVector2D@@PAVTypeToString@@@Z ; Goal<Raven_Bot>::RenderAtPos
PUBLIC	?Render@?$Goal@VRaven_Bot@@@@UAEXXZ		; Goal<Raven_Bot>::Render
PUBLIC	??_G?$Goal@VRaven_Bot@@@@UAEPAXI@Z		; Goal<Raven_Bot>::`scalar deleting destructor'
PUBLIC	??0?$allocator@U?$_List_node@PAV?$Goal@VRaven_Bot@@@@PAX@std@@@std@@QAE@XZ ; std::allocator<std::_List_node<Goal<Raven_Bot> *,void *> >::allocator<std::_List_node<Goal<Raven_Bot> *,void *> >
PUBLIC	?deallocate@?$allocator@U?$_List_node@PAV?$Goal@VRaven_Bot@@@@PAX@std@@@std@@QAEXQAU?$_List_node@PAV?$Goal@VRaven_Bot@@@@PAX@2@I@Z ; std::allocator<std::_List_node<Goal<Raven_Bot> *,void *> >::deallocate
PUBLIC	?allocate@?$allocator@U?$_List_node@PAV?$Goal@VRaven_Bot@@@@PAX@std@@@std@@QAEPAU?$_List_node@PAV?$Goal@VRaven_Bot@@@@PAX@2@I@Z ; std::allocator<std::_List_node<Goal<Raven_Bot> *,void *> >::allocate
PUBLIC	?deallocate@?$_Default_allocator_traits@V?$allocator@U?$_List_node@PAV?$Goal@VRaven_Bot@@@@PAX@std@@@std@@@std@@SAXAAV?$allocator@U?$_List_node@PAV?$Goal@VRaven_Bot@@@@PAX@std@@@2@QAU?$_List_node@PAV?$Goal@VRaven_Bot@@@@PAX@2@I@Z ; std::_Default_allocator_traits<std::allocator<std::_List_node<Goal<Raven_Bot> *,void *> > >::deallocate
PUBLIC	?max_size@?$_Default_allocator_traits@V?$allocator@U?$_List_node@PAV?$Goal@VRaven_Bot@@@@PAX@std@@@std@@@std@@SAIABV?$allocator@U?$_List_node@PAV?$Goal@VRaven_Bot@@@@PAX@std@@@2@@Z ; std::_Default_allocator_traits<std::allocator<std::_List_node<Goal<Raven_Bot> *,void *> > >::max_size
PUBLIC	??0?$list@PAV?$Goal@VRaven_Bot@@@@V?$allocator@PAV?$Goal@VRaven_Bot@@@@@std@@@std@@QAE@XZ ; std::list<Goal<Raven_Bot> *,std::allocator<Goal<Raven_Bot> *> >::list<Goal<Raven_Bot> *,std::allocator<Goal<Raven_Bot> *> >
PUBLIC	??1?$list@PAV?$Goal@VRaven_Bot@@@@V?$allocator@PAV?$Goal@VRaven_Bot@@@@@std@@@std@@QAE@XZ ; std::list<Goal<Raven_Bot> *,std::allocator<Goal<Raven_Bot> *> >::~list<Goal<Raven_Bot> *,std::allocator<Goal<Raven_Bot> *> >
PUBLIC	?begin@?$list@PAV?$Goal@VRaven_Bot@@@@V?$allocator@PAV?$Goal@VRaven_Bot@@@@@std@@@std@@QAE?AV?$_List_iterator@V?$_List_val@U?$_List_simple_types@PAV?$Goal@VRaven_Bot@@@@@std@@@std@@@2@XZ ; std::list<Goal<Raven_Bot> *,std::allocator<Goal<Raven_Bot> *> >::begin
PUBLIC	?begin@?$list@PAV?$Goal@VRaven_Bot@@@@V?$allocator@PAV?$Goal@VRaven_Bot@@@@@std@@@std@@QBE?AV?$_List_const_iterator@V?$_List_val@U?$_List_simple_types@PAV?$Goal@VRaven_Bot@@@@@std@@@std@@@2@XZ ; std::list<Goal<Raven_Bot> *,std::allocator<Goal<Raven_Bot> *> >::begin
PUBLIC	?end@?$list@PAV?$Goal@VRaven_Bot@@@@V?$allocator@PAV?$Goal@VRaven_Bot@@@@@std@@@std@@QAE?AV?$_List_iterator@V?$_List_val@U?$_List_simple_types@PAV?$Goal@VRaven_Bot@@@@@std@@@std@@@2@XZ ; std::list<Goal<Raven_Bot> *,std::allocator<Goal<Raven_Bot> *> >::end
PUBLIC	?end@?$list@PAV?$Goal@VRaven_Bot@@@@V?$allocator@PAV?$Goal@VRaven_Bot@@@@@std@@@std@@QBE?AV?$_List_const_iterator@V?$_List_val@U?$_List_simple_types@PAV?$Goal@VRaven_Bot@@@@@std@@@std@@@2@XZ ; std::list<Goal<Raven_Bot> *,std::allocator<Goal<Raven_Bot> *> >::end
PUBLIC	?rbegin@?$list@PAV?$Goal@VRaven_Bot@@@@V?$allocator@PAV?$Goal@VRaven_Bot@@@@@std@@@std@@QBE?AV?$reverse_iterator@V?$_List_const_iterator@V?$_List_val@U?$_List_simple_types@PAV?$Goal@VRaven_Bot@@@@@std@@@std@@@std@@@2@XZ ; std::list<Goal<Raven_Bot> *,std::allocator<Goal<Raven_Bot> *> >::rbegin
PUBLIC	?rend@?$list@PAV?$Goal@VRaven_Bot@@@@V?$allocator@PAV?$Goal@VRaven_Bot@@@@@std@@@std@@QBE?AV?$reverse_iterator@V?$_List_const_iterator@V?$_List_val@U?$_List_simple_types@PAV?$Goal@VRaven_Bot@@@@@std@@@std@@@std@@@2@XZ ; std::list<Goal<Raven_Bot> *,std::allocator<Goal<Raven_Bot> *> >::rend
PUBLIC	?size@?$list@PAV?$Goal@VRaven_Bot@@@@V?$allocator@PAV?$Goal@VRaven_Bot@@@@@std@@@std@@QBEIXZ ; std::list<Goal<Raven_Bot> *,std::allocator<Goal<Raven_Bot> *> >::size
PUBLIC	?max_size@?$list@PAV?$Goal@VRaven_Bot@@@@V?$allocator@PAV?$Goal@VRaven_Bot@@@@@std@@@std@@QBEIXZ ; std::list<Goal<Raven_Bot> *,std::allocator<Goal<Raven_Bot> *> >::max_size
PUBLIC	?empty@?$list@PAV?$Goal@VRaven_Bot@@@@V?$allocator@PAV?$Goal@VRaven_Bot@@@@@std@@@std@@QBE_NXZ ; std::list<Goal<Raven_Bot> *,std::allocator<Goal<Raven_Bot> *> >::empty
PUBLIC	?front@?$list@PAV?$Goal@VRaven_Bot@@@@V?$allocator@PAV?$Goal@VRaven_Bot@@@@@std@@@std@@QAEAAPAV?$Goal@VRaven_Bot@@@@XZ ; std::list<Goal<Raven_Bot> *,std::allocator<Goal<Raven_Bot> *> >::front
PUBLIC	?push_front@?$list@PAV?$Goal@VRaven_Bot@@@@V?$allocator@PAV?$Goal@VRaven_Bot@@@@@std@@@std@@QAEXABQAV?$Goal@VRaven_Bot@@@@@Z ; std::list<Goal<Raven_Bot> *,std::allocator<Goal<Raven_Bot> *> >::push_front
PUBLIC	?pop_front@?$list@PAV?$Goal@VRaven_Bot@@@@V?$allocator@PAV?$Goal@VRaven_Bot@@@@@std@@@std@@QAEXXZ ; std::list<Goal<Raven_Bot> *,std::allocator<Goal<Raven_Bot> *> >::pop_front
PUBLIC	?_Unchecked_erase@?$list@PAV?$Goal@VRaven_Bot@@@@V?$allocator@PAV?$Goal@VRaven_Bot@@@@@std@@@std@@AAEPAU?$_List_node@PAV?$Goal@VRaven_Bot@@@@PAX@2@QAU32@@Z ; std::list<Goal<Raven_Bot> *,std::allocator<Goal<Raven_Bot> *> >::_Unchecked_erase
PUBLIC	?clear@?$list@PAV?$Goal@VRaven_Bot@@@@V?$allocator@PAV?$Goal@VRaven_Bot@@@@@std@@@std@@QAEXXZ ; std::list<Goal<Raven_Bot> *,std::allocator<Goal<Raven_Bot> *> >::clear
PUBLIC	?_Tidy@?$list@PAV?$Goal@VRaven_Bot@@@@V?$allocator@PAV?$Goal@VRaven_Bot@@@@@std@@@std@@AAEXXZ ; std::list<Goal<Raven_Bot> *,std::allocator<Goal<Raven_Bot> *> >::_Tidy
PUBLIC	?_Alloc_sentinel_and_proxy@?$list@PAV?$Goal@VRaven_Bot@@@@V?$allocator@PAV?$Goal@VRaven_Bot@@@@@std@@@std@@AAEXXZ ; std::list<Goal<Raven_Bot> *,std::allocator<Goal<Raven_Bot> *> >::_Alloc_sentinel_and_proxy
PUBLIC	?_Getal@?$list@PAV?$Goal@VRaven_Bot@@@@V?$allocator@PAV?$Goal@VRaven_Bot@@@@@std@@@std@@AAEAAV?$allocator@U?$_List_node@PAV?$Goal@VRaven_Bot@@@@PAX@std@@@2@XZ ; std::list<Goal<Raven_Bot> *,std::allocator<Goal<Raven_Bot> *> >::_Getal
PUBLIC	?_Getal@?$list@PAV?$Goal@VRaven_Bot@@@@V?$allocator@PAV?$Goal@VRaven_Bot@@@@@std@@@std@@ABEABV?$allocator@U?$_List_node@PAV?$Goal@VRaven_Bot@@@@PAX@std@@@2@XZ ; std::list<Goal<Raven_Bot> *,std::allocator<Goal<Raven_Bot> *> >::_Getal
PUBLIC	??0?$_List_val@U?$_List_simple_types@PAV?$Goal@VRaven_Bot@@@@@std@@@std@@QAE@XZ ; std::_List_val<std::_List_simple_types<Goal<Raven_Bot> *> >::_List_val<std::_List_simple_types<Goal<Raven_Bot> *> >
PUBLIC	?_Orphan_ptr2@?$_List_val@U?$_List_simple_types@PAV?$Goal@VRaven_Bot@@@@@std@@@std@@QAEXPAU?$_List_node@PAV?$Goal@VRaven_Bot@@@@PAX@2@@Z ; std::_List_val<std::_List_simple_types<Goal<Raven_Bot> *> >::_Orphan_ptr2
PUBLIC	?_Orphan_non_end@?$_List_val@U?$_List_simple_types@PAV?$Goal@VRaven_Bot@@@@@std@@@std@@QAEXXZ ; std::_List_val<std::_List_simple_types<Goal<Raven_Bot> *> >::_Orphan_non_end
PUBLIC	?_Get_first@?$_Compressed_pair@V?$allocator@U?$_List_node@PAV?$Goal@VRaven_Bot@@@@PAX@std@@@std@@V?$_List_val@U?$_List_simple_types@PAV?$Goal@VRaven_Bot@@@@@std@@@2@$00@std@@QAEAAV?$allocator@U?$_List_node@PAV?$Goal@VRaven_Bot@@@@PAX@std@@@2@XZ ; std::_Compressed_pair<std::allocator<std::_List_node<Goal<Raven_Bot> *,void *> >,std::_List_val<std::_List_simple_types<Goal<Raven_Bot> *> >,1>::_Get_first
PUBLIC	?_Get_first@?$_Compressed_pair@V?$allocator@U?$_List_node@PAV?$Goal@VRaven_Bot@@@@PAX@std@@@std@@V?$_List_val@U?$_List_simple_types@PAV?$Goal@VRaven_Bot@@@@@std@@@2@$00@std@@QBEABV?$allocator@U?$_List_node@PAV?$Goal@VRaven_Bot@@@@PAX@std@@@2@XZ ; std::_Compressed_pair<std::allocator<std::_List_node<Goal<Raven_Bot> *,void *> >,std::_List_val<std::_List_simple_types<Goal<Raven_Bot> *> >,1>::_Get_first
PUBLIC	?ProcessSubgoals@?$Goal_Composite@VRaven_Bot@@@@IAEHXZ ; Goal_Composite<Raven_Bot>::ProcessSubgoals
PUBLIC	?ForwardMessageToFrontMostSubgoal@?$Goal_Composite@VRaven_Bot@@@@IAE_NABUTelegram@@@Z ; Goal_Composite<Raven_Bot>::ForwardMessageToFrontMostSubgoal
PUBLIC	??0?$Goal_Composite@VRaven_Bot@@@@QAE@PAVRaven_Bot@@H@Z ; Goal_Composite<Raven_Bot>::Goal_Composite<Raven_Bot>
PUBLIC	??1?$Goal_Composite@VRaven_Bot@@@@UAE@XZ	; Goal_Composite<Raven_Bot>::~Goal_Composite<Raven_Bot>
PUBLIC	?HandleMessage@?$Goal_Composite@VRaven_Bot@@@@UAE_NABUTelegram@@@Z ; Goal_Composite<Raven_Bot>::HandleMessage
PUBLIC	?AddSubgoal@?$Goal_Composite@VRaven_Bot@@@@UAEXPAV?$Goal@VRaven_Bot@@@@@Z ; Goal_Composite<Raven_Bot>::AddSubgoal
PUBLIC	?RemoveAllSubgoals@?$Goal_Composite@VRaven_Bot@@@@QAEXXZ ; Goal_Composite<Raven_Bot>::RemoveAllSubgoals
PUBLIC	?RenderAtPos@?$Goal_Composite@VRaven_Bot@@@@UBEXAAUVector2D@@PAVTypeToString@@@Z ; Goal_Composite<Raven_Bot>::RenderAtPos
PUBLIC	?Render@?$Goal_Composite@VRaven_Bot@@@@UAEXXZ	; Goal_Composite<Raven_Bot>::Render
PUBLIC	??_G?$Goal_Composite@VRaven_Bot@@@@UAEPAXI@Z	; Goal_Composite<Raven_Bot>::`scalar deleting destructor'
PUBLIC	?Activate@Goal_HuntTarget@@UAEXXZ		; Goal_HuntTarget::Activate
PUBLIC	?Process@Goal_HuntTarget@@UAEHXZ		; Goal_HuntTarget::Process
PUBLIC	?Render@Goal_HuntTarget@@UAEXXZ			; Goal_HuntTarget::Render
PUBLIC	??0Goal_Explore@@QAE@PAVRaven_Bot@@@Z		; Goal_Explore::Goal_Explore
PUBLIC	?Terminate@Goal_Explore@@UAEXXZ			; Goal_Explore::Terminate
PUBLIC	??1Goal_Explore@@UAE@XZ				; Goal_Explore::~Goal_Explore
PUBLIC	??_GGoal_Explore@@UAEPAXI@Z			; Goal_Explore::`scalar deleting destructor'
PUBLIC	??0Goal_MoveToPosition@@QAE@PAVRaven_Bot@@UVector2D@@@Z ; Goal_MoveToPosition::Goal_MoveToPosition
PUBLIC	?Terminate@Goal_MoveToPosition@@UAEXXZ		; Goal_MoveToPosition::Terminate
PUBLIC	??1Goal_MoveToPosition@@UAE@XZ			; Goal_MoveToPosition::~Goal_MoveToPosition
PUBLIC	??_GGoal_MoveToPosition@@UAEPAXI@Z		; Goal_MoveToPosition::`scalar deleting destructor'
PUBLIC	??$min@I@std@@YAABIABI0@Z			; std::min<unsigned int>
PUBLIC	??0?$_List_unchecked_const_iterator@V?$_List_val@U?$_List_simple_types@PAV?$Goal@VRaven_Bot@@@@@std@@@std@@U_Iterator_base12@2@@std@@QAE@XZ ; std::_List_unchecked_const_iterator<std::_List_val<std::_List_simple_types<Goal<Raven_Bot> *> >,std::_Iterator_base12>::_List_unchecked_const_iterator<std::_List_val<std::_List_simple_types<Goal<Raven_Bot> *> >,std::_Iterator_base12>
PUBLIC	??0?$_List_unchecked_const_iterator@V?$_List_val@U?$_List_simple_types@PAV?$Goal@VRaven_Bot@@@@@std@@@std@@U_Iterator_base12@2@@std@@QAE@PAU?$_List_node@PAV?$Goal@VRaven_Bot@@@@PAX@1@PBV?$_List_val@U?$_List_simple_types@PAV?$Goal@VRaven_Bot@@@@@std@@@1@@Z ; std::_List_unchecked_const_iterator<std::_List_val<std::_List_simple_types<Goal<Raven_Bot> *> >,std::_Iterator_base12>::_List_unchecked_const_iterator<std::_List_val<std::_List_simple_types<Goal<Raven_Bot> *> >,std::_Iterator_base12>
PUBLIC	??1?$_List_unchecked_const_iterator@V?$_List_val@U?$_List_simple_types@PAV?$Goal@VRaven_Bot@@@@@std@@@std@@U_Iterator_base12@2@@std@@QAE@XZ ; std::_List_unchecked_const_iterator<std::_List_val<std::_List_simple_types<Goal<Raven_Bot> *> >,std::_Iterator_base12>::~_List_unchecked_const_iterator<std::_List_val<std::_List_simple_types<Goal<Raven_Bot> *> >,std::_Iterator_base12>
PUBLIC	??0?$_List_unchecked_const_iterator@V?$_List_val@U?$_List_simple_types@PAV?$Goal@VRaven_Bot@@@@@std@@@std@@U_Iterator_base12@2@@std@@QAE@ABV01@@Z ; std::_List_unchecked_const_iterator<std::_List_val<std::_List_simple_types<Goal<Raven_Bot> *> >,std::_Iterator_base12>::_List_unchecked_const_iterator<std::_List_val<std::_List_simple_types<Goal<Raven_Bot> *> >,std::_Iterator_base12>
PUBLIC	??0?$_List_unchecked_const_iterator@V?$_List_val@U?$_List_simple_types@PAV?$Goal@VRaven_Bot@@@@@std@@@std@@U_Iterator_base12@2@@std@@QAE@$$QAV01@@Z ; std::_List_unchecked_const_iterator<std::_List_val<std::_List_simple_types<Goal<Raven_Bot> *> >,std::_Iterator_base12>::_List_unchecked_const_iterator<std::_List_val<std::_List_simple_types<Goal<Raven_Bot> *> >,std::_Iterator_base12>
PUBLIC	??4?$_List_unchecked_const_iterator@V?$_List_val@U?$_List_simple_types@PAV?$Goal@VRaven_Bot@@@@@std@@@std@@U_Iterator_base12@2@@std@@QAEAAV01@$$QAV01@@Z ; std::_List_unchecked_const_iterator<std::_List_val<std::_List_simple_types<Goal<Raven_Bot> *> >,std::_Iterator_base12>::operator=
PUBLIC	??D?$_List_const_iterator@V?$_List_val@U?$_List_simple_types@PAV?$Goal@VRaven_Bot@@@@@std@@@std@@@std@@QBEABQAV?$Goal@VRaven_Bot@@@@XZ ; std::_List_const_iterator<std::_List_val<std::_List_simple_types<Goal<Raven_Bot> *> > >::operator*
PUBLIC	??E?$_List_const_iterator@V?$_List_val@U?$_List_simple_types@PAV?$Goal@VRaven_Bot@@@@@std@@@std@@@std@@QAEAAV01@XZ ; std::_List_const_iterator<std::_List_val<std::_List_simple_types<Goal<Raven_Bot> *> > >::operator++
PUBLIC	??F?$_List_const_iterator@V?$_List_val@U?$_List_simple_types@PAV?$Goal@VRaven_Bot@@@@@std@@@std@@@std@@QAEAAV01@XZ ; std::_List_const_iterator<std::_List_val<std::_List_simple_types<Goal<Raven_Bot> *> > >::operator--
PUBLIC	??8?$_List_const_iterator@V?$_List_val@U?$_List_simple_types@PAV?$Goal@VRaven_Bot@@@@@std@@@std@@@std@@QBE_NABV01@@Z ; std::_List_const_iterator<std::_List_val<std::_List_simple_types<Goal<Raven_Bot> *> > >::operator==
PUBLIC	??9?$_List_const_iterator@V?$_List_val@U?$_List_simple_types@PAV?$Goal@VRaven_Bot@@@@@std@@@std@@@std@@QBE_NABV01@@Z ; std::_List_const_iterator<std::_List_val<std::_List_simple_types<Goal<Raven_Bot> *> > >::operator!=
PUBLIC	??0?$_List_const_iterator@V?$_List_val@U?$_List_simple_types@PAV?$Goal@VRaven_Bot@@@@@std@@@std@@@std@@QAE@XZ ; std::_List_const_iterator<std::_List_val<std::_List_simple_types<Goal<Raven_Bot> *> > >::_List_const_iterator<std::_List_val<std::_List_simple_types<Goal<Raven_Bot> *> > >
PUBLIC	??1?$_List_const_iterator@V?$_List_val@U?$_List_simple_types@PAV?$Goal@VRaven_Bot@@@@@std@@@std@@@std@@QAE@XZ ; std::_List_const_iterator<std::_List_val<std::_List_simple_types<Goal<Raven_Bot> *> > >::~_List_const_iterator<std::_List_val<std::_List_simple_types<Goal<Raven_Bot> *> > >
PUBLIC	??0?$_List_const_iterator@V?$_List_val@U?$_List_simple_types@PAV?$Goal@VRaven_Bot@@@@@std@@@std@@@std@@QAE@ABV01@@Z ; std::_List_const_iterator<std::_List_val<std::_List_simple_types<Goal<Raven_Bot> *> > >::_List_const_iterator<std::_List_val<std::_List_simple_types<Goal<Raven_Bot> *> > >
PUBLIC	??0?$_List_const_iterator@V?$_List_val@U?$_List_simple_types@PAV?$Goal@VRaven_Bot@@@@@std@@@std@@@std@@QAE@$$QAV01@@Z ; std::_List_const_iterator<std::_List_val<std::_List_simple_types<Goal<Raven_Bot> *> > >::_List_const_iterator<std::_List_val<std::_List_simple_types<Goal<Raven_Bot> *> > >
PUBLIC	??4?$_List_const_iterator@V?$_List_val@U?$_List_simple_types@PAV?$Goal@VRaven_Bot@@@@@std@@@std@@@std@@QAEAAV01@$$QAV01@@Z ; std::_List_const_iterator<std::_List_val<std::_List_simple_types<Goal<Raven_Bot> *> > >::operator=
PUBLIC	??0?$_List_const_iterator@V?$_List_val@U?$_List_simple_types@PAV?$Goal@VRaven_Bot@@@@@std@@@std@@@std@@QAE@PAU?$_List_node@PAV?$Goal@VRaven_Bot@@@@PAX@1@PBV?$_List_val@U?$_List_simple_types@PAV?$Goal@VRaven_Bot@@@@@std@@@1@@Z ; std::_List_const_iterator<std::_List_val<std::_List_simple_types<Goal<Raven_Bot> *> > >::_List_const_iterator<std::_List_val<std::_List_simple_types<Goal<Raven_Bot> *> > >
PUBLIC	??D?$_List_iterator@V?$_List_val@U?$_List_simple_types@PAV?$Goal@VRaven_Bot@@@@@std@@@std@@@std@@QBEAAPAV?$Goal@VRaven_Bot@@@@XZ ; std::_List_iterator<std::_List_val<std::_List_simple_types<Goal<Raven_Bot> *> > >::operator*
PUBLIC	??E?$_List_iterator@V?$_List_val@U?$_List_simple_types@PAV?$Goal@VRaven_Bot@@@@@std@@@std@@@std@@QAEAAV01@XZ ; std::_List_iterator<std::_List_val<std::_List_simple_types<Goal<Raven_Bot> *> > >::operator++
PUBLIC	??1?$_List_iterator@V?$_List_val@U?$_List_simple_types@PAV?$Goal@VRaven_Bot@@@@@std@@@std@@@std@@QAE@XZ ; std::_List_iterator<std::_List_val<std::_List_simple_types<Goal<Raven_Bot> *> > >::~_List_iterator<std::_List_val<std::_List_simple_types<Goal<Raven_Bot> *> > >
PUBLIC	??0?$_List_iterator@V?$_List_val@U?$_List_simple_types@PAV?$Goal@VRaven_Bot@@@@@std@@@std@@@std@@QAE@PAU?$_List_node@PAV?$Goal@VRaven_Bot@@@@PAX@1@PBV?$_List_val@U?$_List_simple_types@PAV?$Goal@VRaven_Bot@@@@@std@@@1@@Z ; std::_List_iterator<std::_List_val<std::_List_simple_types<Goal<Raven_Bot> *> > >::_List_iterator<std::_List_val<std::_List_simple_types<Goal<Raven_Bot> *> > >
PUBLIC	??0?$reverse_iterator@V?$_List_const_iterator@V?$_List_val@U?$_List_simple_types@PAV?$Goal@VRaven_Bot@@@@@std@@@std@@@std@@@std@@QAE@XZ ; std::reverse_iterator<std::_List_const_iterator<std::_List_val<std::_List_simple_types<Goal<Raven_Bot> *> > > >::reverse_iterator<std::_List_const_iterator<std::_List_val<std::_List_simple_types<Goal<Raven_Bot> *> > > >
PUBLIC	??0?$reverse_iterator@V?$_List_const_iterator@V?$_List_val@U?$_List_simple_types@PAV?$Goal@VRaven_Bot@@@@@std@@@std@@@std@@@std@@QAE@V?$_List_const_iterator@V?$_List_val@U?$_List_simple_types@PAV?$Goal@VRaven_Bot@@@@@std@@@std@@@1@@Z ; std::reverse_iterator<std::_List_const_iterator<std::_List_val<std::_List_simple_types<Goal<Raven_Bot> *> > > >::reverse_iterator<std::_List_const_iterator<std::_List_val<std::_List_simple_types<Goal<Raven_Bot> *> > > >
PUBLIC	??D?$reverse_iterator@V?$_List_const_iterator@V?$_List_val@U?$_List_simple_types@PAV?$Goal@VRaven_Bot@@@@@std@@@std@@@std@@@std@@QBEABQAV?$Goal@VRaven_Bot@@@@XZ ; std::reverse_iterator<std::_List_const_iterator<std::_List_val<std::_List_simple_types<Goal<Raven_Bot> *> > > >::operator*
PUBLIC	??E?$reverse_iterator@V?$_List_const_iterator@V?$_List_val@U?$_List_simple_types@PAV?$Goal@VRaven_Bot@@@@@std@@@std@@@std@@@std@@QAEAAV01@XZ ; std::reverse_iterator<std::_List_const_iterator<std::_List_val<std::_List_simple_types<Goal<Raven_Bot> *> > > >::operator++
PUBLIC	?_Get_current@?$reverse_iterator@V?$_List_const_iterator@V?$_List_val@U?$_List_simple_types@PAV?$Goal@VRaven_Bot@@@@@std@@@std@@@std@@@std@@QBEABV?$_List_const_iterator@V?$_List_val@U?$_List_simple_types@PAV?$Goal@VRaven_Bot@@@@@std@@@std@@@2@XZ ; std::reverse_iterator<std::_List_const_iterator<std::_List_val<std::_List_simple_types<Goal<Raven_Bot> *> > > >::_Get_current
PUBLIC	??1?$reverse_iterator@V?$_List_const_iterator@V?$_List_val@U?$_List_simple_types@PAV?$Goal@VRaven_Bot@@@@@std@@@std@@@std@@@std@@QAE@XZ ; std::reverse_iterator<std::_List_const_iterator<std::_List_val<std::_List_simple_types<Goal<Raven_Bot> *> > > >::~reverse_iterator<std::_List_const_iterator<std::_List_val<std::_List_simple_types<Goal<Raven_Bot> *> > > >
PUBLIC	??4?$reverse_iterator@V?$_List_const_iterator@V?$_List_val@U?$_List_simple_types@PAV?$Goal@VRaven_Bot@@@@@std@@@std@@@std@@@std@@QAEAAV01@$$QAV01@@Z ; std::reverse_iterator<std::_List_const_iterator<std::_List_val<std::_List_simple_types<Goal<Raven_Bot> *> > > >::operator=
PUBLIC	??$?9V?$_List_const_iterator@V?$_List_val@U?$_List_simple_types@PAV?$Goal@VRaven_Bot@@@@@std@@@std@@@std@@V01@@std@@YA_NABV?$reverse_iterator@V?$_List_const_iterator@V?$_List_val@U?$_List_simple_types@PAV?$Goal@VRaven_Bot@@@@@std@@@std@@@std@@@0@0@Z ; std::operator!=<std::_List_const_iterator<std::_List_val<std::_List_simple_types<Goal<Raven_Bot> *> > >,std::_List_const_iterator<std::_List_val<std::_List_simple_types<Goal<Raven_Bot> *> > > >
PUBLIC	?allocate@?$allocator@U_Container_proxy@std@@@std@@QAEPAU_Container_proxy@2@I@Z ; std::allocator<std::_Container_proxy>::allocate
PUBLIC	??$_Delete_plain_internal@V?$allocator@U_Container_proxy@std@@@std@@@std@@YAXAAV?$allocator@U_Container_proxy@std@@@0@QAU_Container_proxy@0@@Z ; std::_Delete_plain_internal<std::allocator<std::_Container_proxy> >
PUBLIC	??$?0D@?$allocator@U_Container_proxy@std@@@std@@QAE@ABV?$allocator@D@1@@Z ; std::allocator<std::_Container_proxy>::allocator<std::_Container_proxy><char>
PUBLIC	??$_Deallocate_plain@V?$allocator@U_Container_proxy@std@@@std@@@std@@YAXAAV?$allocator@U_Container_proxy@std@@@0@QAU_Container_proxy@0@@Z ; std::_Deallocate_plain<std::allocator<std::_Container_proxy> >
PUBLIC	??$_Unfancy@U_Container_proxy@std@@@std@@YAPAU_Container_proxy@0@PAU10@@Z ; std::_Unfancy<std::_Container_proxy>
PUBLIC	??$_Construct_in_place@U_Container_proxy@std@@PAU_Container_base12@2@@std@@YAXAAU_Container_proxy@0@$$QAPAU_Container_base12@0@@Z ; std::_Construct_in_place<std::_Container_proxy,std::_Container_base12 *>
PUBLIC	??0?$_Container_proxy_ptr12@V?$allocator@U_Container_proxy@std@@@std@@@std@@QAE@AAV?$allocator@U_Container_proxy@std@@@1@AAU_Container_base12@1@@Z ; std::_Container_proxy_ptr12<std::allocator<std::_Container_proxy> >::_Container_proxy_ptr12<std::allocator<std::_Container_proxy> >
PUBLIC	??1?$_Container_proxy_ptr12@V?$allocator@U_Container_proxy@std@@@std@@@std@@QAE@XZ ; std::_Container_proxy_ptr12<std::allocator<std::_Container_proxy> >::~_Container_proxy_ptr12<std::allocator<std::_Container_proxy> >
PUBLIC	??$_Unfancy@D@std@@YAPADPAD@Z			; std::_Unfancy<char>
PUBLIC	??$_Free_non_head@V?$allocator@U?$_List_node@PAV?$Goal@VRaven_Bot@@@@PAX@std@@@std@@@?$_List_node@PAV?$Goal@VRaven_Bot@@@@PAX@std@@SAXAAV?$allocator@U?$_List_node@PAV?$Goal@VRaven_Bot@@@@PAX@std@@@1@PAU01@@Z ; std::_List_node<Goal<Raven_Bot> *,void *>::_Free_non_head<std::allocator<std::_List_node<Goal<Raven_Bot> *,void *> > >
PUBLIC	??$_Emplace@ABQAV?$Goal@VRaven_Bot@@@@@?$list@PAV?$Goal@VRaven_Bot@@@@V?$allocator@PAV?$Goal@VRaven_Bot@@@@@std@@@std@@QAEPAU?$_List_node@PAV?$Goal@VRaven_Bot@@@@PAX@1@QAU21@ABQAV?$Goal@VRaven_Bot@@@@@Z ; std::list<Goal<Raven_Bot> *,std::allocator<Goal<Raven_Bot> *> >::_Emplace<Goal<Raven_Bot> * const &>
PUBLIC	??$addressof@V?$_List_val@U?$_List_simple_types@PAV?$Goal@VRaven_Bot@@@@@std@@@std@@@std@@YAPAV?$_List_val@U?$_List_simple_types@PAV?$Goal@VRaven_Bot@@@@@std@@@0@AAV10@@Z ; std::addressof<std::_List_val<std::_List_simple_types<Goal<Raven_Bot> *> > >
PUBLIC	??$?0U?$_List_node@PAV?$Goal@VRaven_Bot@@@@PAX@std@@@?$allocator@U_Container_proxy@std@@@std@@QAE@ABV?$allocator@U?$_List_node@PAV?$Goal@VRaven_Bot@@@@PAX@std@@@1@@Z ; std::allocator<std::_Container_proxy>::allocator<std::_Container_proxy><std::_List_node<Goal<Raven_Bot> *,void *> >
PUBLIC	??$?0$$V@?$_Compressed_pair@V?$allocator@U?$_List_node@PAV?$Goal@VRaven_Bot@@@@PAX@std@@@std@@V?$_List_val@U?$_List_simple_types@PAV?$Goal@VRaven_Bot@@@@@std@@@2@$00@std@@QAE@U_Zero_then_variadic_args_t@1@@Z ; std::_Compressed_pair<std::allocator<std::_List_node<Goal<Raven_Bot> *,void *> >,std::_List_val<std::_List_simple_types<Goal<Raven_Bot> *> >,1>::_Compressed_pair<std::allocator<std::_List_node<Goal<Raven_Bot> *,void *> >,std::_List_val<std::_List_simple_types<Goal<Raven_Bot> *> >,1><>
PUBLIC	?deallocate@?$_Default_allocator_traits@V?$allocator@U_Container_proxy@std@@@std@@@std@@SAXAAV?$allocator@U_Container_proxy@std@@@2@QAU_Container_proxy@2@I@Z ; std::_Default_allocator_traits<std::allocator<std::_Container_proxy> >::deallocate
PUBLIC	??$addressof@U_Container_proxy@std@@@std@@YAPAU_Container_proxy@0@AAU10@@Z ; std::addressof<std::_Container_proxy>
PUBLIC	??$forward@PAU_Container_base12@std@@@std@@YA$$QAPAU_Container_base12@0@AAPAU10@@Z ; std::forward<std::_Container_base12 *>
PUBLIC	??$_Freenode@V?$allocator@U?$_List_node@PAV?$Goal@VRaven_Bot@@@@PAX@std@@@std@@@?$_List_node@PAV?$Goal@VRaven_Bot@@@@PAX@std@@SAXAAV?$allocator@U?$_List_node@PAV?$Goal@VRaven_Bot@@@@PAX@std@@@1@PAU01@@Z ; std::_List_node<Goal<Raven_Bot> *,void *>::_Freenode<std::allocator<std::_List_node<Goal<Raven_Bot> *,void *> > >
PUBLIC	??0?$_Alloc_construct_ptr@V?$allocator@U?$_List_node@PAV?$Goal@VRaven_Bot@@@@PAX@std@@@std@@@std@@QAE@AAV?$allocator@U?$_List_node@PAV?$Goal@VRaven_Bot@@@@PAX@std@@@1@@Z ; std::_Alloc_construct_ptr<std::allocator<std::_List_node<Goal<Raven_Bot> *,void *> > >::_Alloc_construct_ptr<std::allocator<std::_List_node<Goal<Raven_Bot> *,void *> > >
PUBLIC	?_Allocate@?$_Alloc_construct_ptr@V?$allocator@U?$_List_node@PAV?$Goal@VRaven_Bot@@@@PAX@std@@@std@@@std@@QAEXXZ ; std::_Alloc_construct_ptr<std::allocator<std::_List_node<Goal<Raven_Bot> *,void *> > >::_Allocate
PUBLIC	??1?$_Alloc_construct_ptr@V?$allocator@U?$_List_node@PAV?$Goal@VRaven_Bot@@@@PAX@std@@@std@@@std@@QAE@XZ ; std::_Alloc_construct_ptr<std::allocator<std::_List_node<Goal<Raven_Bot> *,void *> > >::~_Alloc_construct_ptr<std::allocator<std::_List_node<Goal<Raven_Bot> *,void *> > >
PUBLIC	??1?$_List_node_emplace_op2@V?$allocator@U?$_List_node@PAV?$Goal@VRaven_Bot@@@@PAX@std@@@std@@@std@@QAE@XZ ; std::_List_node_emplace_op2<std::allocator<std::_List_node<Goal<Raven_Bot> *,void *> > >::~_List_node_emplace_op2<std::allocator<std::_List_node<Goal<Raven_Bot> *,void *> > >
PUBLIC	?_Transfer_before@?$_List_node_emplace_op2@V?$allocator@U?$_List_node@PAV?$Goal@VRaven_Bot@@@@PAX@std@@@std@@@std@@QAEPAU?$_List_node@PAV?$Goal@VRaven_Bot@@@@PAX@2@QAU32@@Z ; std::_List_node_emplace_op2<std::allocator<std::_List_node<Goal<Raven_Bot> *,void *> > >::_Transfer_before
PUBLIC	??$forward@ABQAV?$Goal@VRaven_Bot@@@@@std@@YAABQAV?$Goal@VRaven_Bot@@@@ABQAV1@@Z ; std::forward<Goal<Raven_Bot> * const &>
PUBLIC	??$?0ABQAV?$Goal@VRaven_Bot@@@@@?$_List_node_emplace_op2@V?$allocator@U?$_List_node@PAV?$Goal@VRaven_Bot@@@@PAX@std@@@std@@@std@@QAE@AAV?$allocator@U?$_List_node@PAV?$Goal@VRaven_Bot@@@@PAX@std@@@1@ABQAV?$Goal@VRaven_Bot@@@@@Z ; std::_List_node_emplace_op2<std::allocator<std::_List_node<Goal<Raven_Bot> *,void *> > >::_List_node_emplace_op2<std::allocator<std::_List_node<Goal<Raven_Bot> *,void *> > ><Goal<Raven_Bot> * const &>
PUBLIC	??$addressof@U_Container_base12@std@@@std@@YAPAU_Container_base12@0@AAU10@@Z ; std::addressof<std::_Container_base12>
PUBLIC	??$_Get_size_of_n@$07@std@@YAII@Z		; std::_Get_size_of_n<8>
PUBLIC	??$_Allocate@$07U_Default_allocate_traits@std@@@std@@YAPAXI@Z ; std::_Allocate<8,std::_Default_allocate_traits>
PUBLIC	??$move@AAV?$_List_const_iterator@V?$_List_val@U?$_List_simple_types@PAV?$Goal@VRaven_Bot@@@@@std@@@std@@@std@@@std@@YA$$QAV?$_List_const_iterator@V?$_List_val@U?$_List_simple_types@PAV?$Goal@VRaven_Bot@@@@@std@@@std@@@0@AAV10@@Z ; std::move<std::_List_const_iterator<std::_List_val<std::_List_simple_types<Goal<Raven_Bot> *> > > &>
PUBLIC	??$_Construct_in_place@PAU?$_List_node@PAV?$Goal@VRaven_Bot@@@@PAX@std@@AAPAU12@@std@@YAXAAPAU?$_List_node@PAV?$Goal@VRaven_Bot@@@@PAX@0@0@Z ; std::_Construct_in_place<std::_List_node<Goal<Raven_Bot> *,void *> *,std::_List_node<Goal<Raven_Bot> *,void *> * &>
PUBLIC	??$_Freenode0@V?$allocator@U?$_List_node@PAV?$Goal@VRaven_Bot@@@@PAX@std@@@std@@@?$_List_node@PAV?$Goal@VRaven_Bot@@@@PAX@std@@SAXAAV?$allocator@U?$_List_node@PAV?$Goal@VRaven_Bot@@@@PAX@std@@@1@PAU01@@Z ; std::_List_node<Goal<Raven_Bot> *,void *>::_Freenode0<std::allocator<std::_List_node<Goal<Raven_Bot> *,void *> > >
PUBLIC	??$addressof@$$CBV?$_List_val@U?$_List_simple_types@PAV?$Goal@VRaven_Bot@@@@@std@@@std@@@std@@YAPBV?$_List_val@U?$_List_simple_types@PAV?$Goal@VRaven_Bot@@@@@std@@@0@ABV10@@Z ; std::addressof<std::_List_val<std::_List_simple_types<Goal<Raven_Bot> *> > const >
PUBLIC	??$_Deallocate@$07@std@@YAXPAXI@Z		; std::_Deallocate<8>
PUBLIC	??$_Destroy_in_place@PAD@std@@YAXAAPAD@Z	; std::_Destroy_in_place<char *>
PUBLIC	??$_Max_limit@H@std@@YAHXZ			; std::_Max_limit<int>
PUBLIC	??$addressof@PAV?$Goal@VRaven_Bot@@@@@std@@YAPAPAV?$Goal@VRaven_Bot@@@@AAPAV1@@Z ; std::addressof<Goal<Raven_Bot> *>
PUBLIC	??$destroy@PAV?$Goal@VRaven_Bot@@@@@?$_Default_allocator_traits@V?$allocator@U?$_List_node@PAV?$Goal@VRaven_Bot@@@@PAX@std@@@std@@@std@@SAXAAV?$allocator@U?$_List_node@PAV?$Goal@VRaven_Bot@@@@PAX@std@@@1@QAPAV?$Goal@VRaven_Bot@@@@@Z ; std::_Default_allocator_traits<std::allocator<std::_List_node<Goal<Raven_Bot> *,void *> > >::destroy<Goal<Raven_Bot> *>
PUBLIC	??$construct@PAV?$Goal@VRaven_Bot@@@@ABQAV1@@?$_Default_allocator_traits@V?$allocator@U?$_List_node@PAV?$Goal@VRaven_Bot@@@@PAX@std@@@std@@@std@@SAXAAV?$allocator@U?$_List_node@PAV?$Goal@VRaven_Bot@@@@PAX@std@@@1@QAPAV?$Goal@VRaven_Bot@@@@ABQAV3@@Z ; std::_Default_allocator_traits<std::allocator<std::_List_node<Goal<Raven_Bot> *,void *> > >::construct<Goal<Raven_Bot> *,Goal<Raven_Bot> * const &>
PUBLIC	??$_Allocate_manually_vector_aligned@U_Default_allocate_traits@std@@@std@@YAPAXI@Z ; std::_Allocate_manually_vector_aligned<std::_Default_allocate_traits>
PUBLIC	??$addressof@PAU?$_List_node@PAV?$Goal@VRaven_Bot@@@@PAX@std@@@std@@YAPAPAU?$_List_node@PAV?$Goal@VRaven_Bot@@@@PAX@0@AAPAU10@@Z ; std::addressof<std::_List_node<Goal<Raven_Bot> *,void *> *>
PUBLIC	??$forward@AAPAU?$_List_node@PAV?$Goal@VRaven_Bot@@@@PAX@std@@@std@@YAAAPAU?$_List_node@PAV?$Goal@VRaven_Bot@@@@PAX@0@AAPAU10@@Z ; std::forward<std::_List_node<Goal<Raven_Bot> *,void *> * &>
PUBLIC	??$_Destroy_in_place@PAU?$_List_node@PAV?$Goal@VRaven_Bot@@@@PAX@std@@@std@@YAXAAPAU?$_List_node@PAV?$Goal@VRaven_Bot@@@@PAX@0@@Z ; std::_Destroy_in_place<std::_List_node<Goal<Raven_Bot> *,void *> *>
PUBLIC	??$_Construct_in_place@PAU?$_List_node@PAV?$Goal@VRaven_Bot@@@@PAX@std@@ABQAU12@@std@@YAXAAPAU?$_List_node@PAV?$Goal@VRaven_Bot@@@@PAX@0@ABQAU10@@Z ; std::_Construct_in_place<std::_List_node<Goal<Raven_Bot> *,void *> *,std::_List_node<Goal<Raven_Bot> *,void *> * const &>
PUBLIC	??$_Get_size_of_n@$0M@@std@@YAII@Z		; std::_Get_size_of_n<12>
PUBLIC	??$forward@ABQAU?$_List_node@PAV?$Goal@VRaven_Bot@@@@PAX@std@@@std@@YAABQAU?$_List_node@PAV?$Goal@VRaven_Bot@@@@PAX@0@ABQAU10@@Z ; std::forward<std::_List_node<Goal<Raven_Bot> *,void *> * const &>
PUBLIC	??_7exception@std@@6B@				; std::exception::`vftable'
PUBLIC	??_C@_0BC@EOODALEL@Unknown?5exception@		; `string'
PUBLIC	??_7bad_alloc@std@@6B@				; std::bad_alloc::`vftable'
PUBLIC	??_7bad_array_new_length@std@@6B@		; std::bad_array_new_length::`vftable'
PUBLIC	??_C@_0BF@KINCDENJ@bad?5array?5new?5length@	; `string'
PUBLIC	??_R0?AVexception@std@@@8			; std::exception `RTTI Type Descriptor'
PUBLIC	__CT??_R0?AVexception@std@@@8??0exception@std@@QAE@ABV01@@Z12
PUBLIC	__TI3?AVbad_array_new_length@std@@
PUBLIC	__CTA3?AVbad_array_new_length@std@@
PUBLIC	??_R0?AVbad_array_new_length@std@@@8		; std::bad_array_new_length `RTTI Type Descriptor'
PUBLIC	__CT??_R0?AVbad_array_new_length@std@@@8??0bad_array_new_length@std@@QAE@ABV01@@Z12
PUBLIC	??_R0?AVbad_alloc@std@@@8			; std::bad_alloc `RTTI Type Descriptor'
PUBLIC	__CT??_R0?AVbad_alloc@std@@@8??0bad_alloc@std@@QAE@ABV01@@Z12
PUBLIC	??_C@_0BB@FCMFBGOM@invalid?5argument@		; `string'
PUBLIC	??_C@_02DKCKIIND@?$CFs@				; `string'
PUBLIC	??_C@_0GC@KLECFGLI@C?3?2Program?5Files?2Microsoft?5Visu@ ; `string'
PUBLIC	??_C@_0BJ@LFDBABJJ@ITERATOR?5LIST?5CORRUPTED?$CB@ ; `string'
PUBLIC	??_7runtime_error@std@@6B@			; std::runtime_error::`vftable'
PUBLIC	??_R0?AVruntime_error@std@@@8			; std::runtime_error `RTTI Type Descriptor'
PUBLIC	__CT??_R0?AVruntime_error@std@@@8??0runtime_error@std@@QAE@ABV01@@Z12
PUBLIC	??_7?$Goal@VRaven_Bot@@@@6B@			; Goal<Raven_Bot>::`vftable'
PUBLIC	??_7?$Goal_Composite@VRaven_Bot@@@@6B@		; Goal_Composite<Raven_Bot>::`vftable'
PUBLIC	??_7Goal_Explore@@6B@				; Goal_Explore::`vftable'
PUBLIC	??_7Goal_MoveToPosition@@6B@			; Goal_MoveToPosition::`vftable'
PUBLIC	__TI2?AVruntime_error@std@@
PUBLIC	__CTA2?AVruntime_error@std@@
PUBLIC	??_C@_0CB@OHIHCHGJ@Cannot?5add?5goals?5to?5atomic?5goal@ ; `string'
PUBLIC	??_C@_0CB@GIIADCJH@pop_front?$CI?$CJ?5called?5on?5empty?5lis@ ; `string'
PUBLIC	??_C@_0FP@IHALIHCI@C?3?2Program?5Files?2Microsoft?5Visu@ ; `string'
PUBLIC	??_C@_0BN@GOIPFJJH@front?$CI?$CJ?5called?5on?5empty?5list@ ; `string'
PUBLIC	??_C@_0O@NKNMEGII@list?5too?5long@		; `string'
PUBLIC	??_C@_0BM@BALDKKHE@list?5iterators?5incompatible@ ; `string'
PUBLIC	??_C@_0DB@MCPEHPCC@cannot?5decrement?5value?9initiali@ ; `string'
PUBLIC	??_C@_0CF@BAAFPBMN@cannot?5decrement?5begin?5list?5ite@ ; `string'
PUBLIC	??_C@_0DB@ENBCPNKO@cannot?5increment?5value?9initiali@ ; `string'
PUBLIC	??_C@_0CD@PMFMCEG@cannot?5increment?5end?5list?5itera@ ; `string'
PUBLIC	??_C@_0DD@MBIHGLJE@cannot?5dereference?5value?9initia@ ; `string'
PUBLIC	??_C@_0CF@JCBFHMPL@cannot?5dereference?5end?5list?5ite@ ; `string'
PUBLIC	??_C@_0DG@KGHKKGBC@null?5pointer?5cannot?5point?5to?5a?5@ ; `string'
PUBLIC	??_R4exception@std@@6B@				; std::exception::`RTTI Complete Object Locator'
PUBLIC	??_R3exception@std@@8				; std::exception::`RTTI Class Hierarchy Descriptor'
PUBLIC	??_R2exception@std@@8				; std::exception::`RTTI Base Class Array'
PUBLIC	??_R1A@?0A@EA@exception@std@@8			; std::exception::`RTTI Base Class Descriptor at (0,-1,0,64)'
PUBLIC	??_R4bad_array_new_length@std@@6B@		; std::bad_array_new_length::`RTTI Complete Object Locator'
PUBLIC	??_R3bad_array_new_length@std@@8		; std::bad_array_new_length::`RTTI Class Hierarchy Descriptor'
PUBLIC	??_R2bad_array_new_length@std@@8		; std::bad_array_new_length::`RTTI Base Class Array'
PUBLIC	??_R1A@?0A@EA@bad_array_new_length@std@@8	; std::bad_array_new_length::`RTTI Base Class Descriptor at (0,-1,0,64)'
PUBLIC	??_R1A@?0A@EA@bad_alloc@std@@8			; std::bad_alloc::`RTTI Base Class Descriptor at (0,-1,0,64)'
PUBLIC	??_R3bad_alloc@std@@8				; std::bad_alloc::`RTTI Class Hierarchy Descriptor'
PUBLIC	??_R2bad_alloc@std@@8				; std::bad_alloc::`RTTI Base Class Array'
PUBLIC	??_R4bad_alloc@std@@6B@				; std::bad_alloc::`RTTI Complete Object Locator'
PUBLIC	??_R4runtime_error@std@@6B@			; std::runtime_error::`RTTI Complete Object Locator'
PUBLIC	??_R3runtime_error@std@@8			; std::runtime_error::`RTTI Class Hierarchy Descriptor'
PUBLIC	??_R2runtime_error@std@@8			; std::runtime_error::`RTTI Base Class Array'
PUBLIC	??_R1A@?0A@EA@runtime_error@std@@8		; std::runtime_error::`RTTI Base Class Descriptor at (0,-1,0,64)'
PUBLIC	??_R1A@?0A@EA@?$Goal_Composite@VRaven_Bot@@@@8	; Goal_Composite<Raven_Bot>::`RTTI Base Class Descriptor at (0,-1,0,64)'
PUBLIC	??_R0?AV?$Goal_Composite@VRaven_Bot@@@@@8	; Goal_Composite<Raven_Bot> `RTTI Type Descriptor'
PUBLIC	??_R3?$Goal_Composite@VRaven_Bot@@@@8		; Goal_Composite<Raven_Bot>::`RTTI Class Hierarchy Descriptor'
PUBLIC	??_R2?$Goal_Composite@VRaven_Bot@@@@8		; Goal_Composite<Raven_Bot>::`RTTI Base Class Array'
PUBLIC	??_R1A@?0A@EA@?$Goal@VRaven_Bot@@@@8		; Goal<Raven_Bot>::`RTTI Base Class Descriptor at (0,-1,0,64)'
PUBLIC	??_R0?AV?$Goal@VRaven_Bot@@@@@8			; Goal<Raven_Bot> `RTTI Type Descriptor'
PUBLIC	??_R3?$Goal@VRaven_Bot@@@@8			; Goal<Raven_Bot>::`RTTI Class Hierarchy Descriptor'
PUBLIC	??_R2?$Goal@VRaven_Bot@@@@8			; Goal<Raven_Bot>::`RTTI Base Class Array'
PUBLIC	??_R4?$Goal_Composite@VRaven_Bot@@@@6B@		; Goal_Composite<Raven_Bot>::`RTTI Complete Object Locator'
PUBLIC	??_R4?$Goal@VRaven_Bot@@@@6B@			; Goal<Raven_Bot>::`RTTI Complete Object Locator'
PUBLIC	??_R4Goal_Explore@@6B@				; Goal_Explore::`RTTI Complete Object Locator'
PUBLIC	??_R0?AVGoal_Explore@@@8			; Goal_Explore `RTTI Type Descriptor'
PUBLIC	??_R3Goal_Explore@@8				; Goal_Explore::`RTTI Class Hierarchy Descriptor'
PUBLIC	??_R2Goal_Explore@@8				; Goal_Explore::`RTTI Base Class Array'
PUBLIC	??_R1A@?0A@EA@Goal_Explore@@8			; Goal_Explore::`RTTI Base Class Descriptor at (0,-1,0,64)'
PUBLIC	??_R4Goal_MoveToPosition@@6B@			; Goal_MoveToPosition::`RTTI Complete Object Locator'
PUBLIC	??_R0?AVGoal_MoveToPosition@@@8			; Goal_MoveToPosition `RTTI Type Descriptor'
PUBLIC	??_R3Goal_MoveToPosition@@8			; Goal_MoveToPosition::`RTTI Class Hierarchy Descriptor'
PUBLIC	??_R2Goal_MoveToPosition@@8			; Goal_MoveToPosition::`RTTI Base Class Array'
PUBLIC	??_R1A@?0A@EA@Goal_MoveToPosition@@8		; Goal_MoveToPosition::`RTTI Base Class Descriptor at (0,-1,0,64)'
PUBLIC	__real@0010000000000000
PUBLIC	__real@4024000000000000
PUBLIC	__real@402e000000000000
EXTRN	__purecall:PROC
EXTRN	??2@YAPAXI@Z:PROC				; operator new
EXTRN	??3@YAXPAXI@Z:PROC				; operator delete
EXTRN	__invoke_watson:PROC
EXTRN	__CrtDbgReport:PROC
EXTRN	??0_Lockit@std@@QAE@H@Z:PROC			; std::_Lockit::_Lockit
EXTRN	??1_Lockit@std@@QAE@XZ:PROC			; std::_Lockit::~_Lockit
EXTRN	___std_exception_copy:PROC
EXTRN	___std_exception_destroy:PROC
EXTRN	??_Eexception@std@@UAEPAXI@Z:PROC		; std::exception::`vector deleting destructor'
EXTRN	??_Ebad_alloc@std@@UAEPAXI@Z:PROC		; std::bad_alloc::`vector deleting destructor'
EXTRN	??_Ebad_array_new_length@std@@UAEPAXI@Z:PROC	; std::bad_array_new_length::`vector deleting destructor'
EXTRN	?_Xlength_error@std@@YAXPBD@Z:PROC		; std::_Xlength_error
EXTRN	__imp__SetBkMode@8:PROC
EXTRN	__imp__SetTextColor@8:PROC
EXTRN	__imp__TextOutA@20:PROC
EXTRN	??_Eruntime_error@std@@UAEPAXI@Z:PROC		; std::runtime_error::`vector deleting destructor'
EXTRN	?Instance@Cgdi@@SAPAV1@XZ:PROC			; Cgdi::Instance
EXTRN	?isTargetWithinFOV@Raven_TargetingSystem@@QBE_NXZ:PROC ; Raven_TargetingSystem::isTargetWithinFOV
EXTRN	?GetLastRecordedPosition@Raven_TargetingSystem@@QBE?AUVector2D@@XZ:PROC ; Raven_TargetingSystem::GetLastRecordedPosition
EXTRN	?isAtPosition@Raven_Bot@@QBE_NUVector2D@@@Z:PROC ; Raven_Bot::isAtPosition
EXTRN	??_E?$Goal@VRaven_Bot@@@@UAEPAXI@Z:PROC		; Goal<Raven_Bot>::`vector deleting destructor'
EXTRN	??_E?$Goal_Composite@VRaven_Bot@@@@UAEPAXI@Z:PROC ; Goal_Composite<Raven_Bot>::`vector deleting destructor'
EXTRN	?Activate@Goal_Explore@@UAEXXZ:PROC		; Goal_Explore::Activate
EXTRN	?Process@Goal_Explore@@UAEHXZ:PROC		; Goal_Explore::Process
EXTRN	?HandleMessage@Goal_Explore@@UAE_NABUTelegram@@@Z:PROC ; Goal_Explore::HandleMessage
EXTRN	??_EGoal_Explore@@UAEPAXI@Z:PROC		; Goal_Explore::`vector deleting destructor'
EXTRN	?Activate@Goal_MoveToPosition@@UAEXXZ:PROC	; Goal_MoveToPosition::Activate
EXTRN	?Process@Goal_MoveToPosition@@UAEHXZ:PROC	; Goal_MoveToPosition::Process
EXTRN	?HandleMessage@Goal_MoveToPosition@@UAE_NABUTelegram@@@Z:PROC ; Goal_MoveToPosition::HandleMessage
EXTRN	?Render@Goal_MoveToPosition@@UAEXXZ:PROC	; Goal_MoveToPosition::Render
EXTRN	??_EGoal_MoveToPosition@@UAEPAXI@Z:PROC		; Goal_MoveToPosition::`vector deleting destructor'
EXTRN	@_RTC_CheckStackVars@8:PROC
EXTRN	@__security_check_cookie@4:PROC
EXTRN	__CxxThrowException@8:PROC
EXTRN	__RTC_CheckEsp:PROC
EXTRN	__RTC_InitBase:PROC
EXTRN	__RTC_Shutdown:PROC
EXTRN	___CxxFrameHandler3:PROC
EXTRN	??_7type_info@@6B@:QWORD			; type_info::`vftable'
EXTRN	___security_cookie:DWORD
EXTRN	__fltused:DWORD
;	COMDAT __real@402e000000000000
CONST	SEGMENT
__real@402e000000000000 DQ 0402e000000000000r	; 15
CONST	ENDS
;	COMDAT __real@4024000000000000
CONST	SEGMENT
__real@4024000000000000 DQ 04024000000000000r	; 10
CONST	ENDS
;	COMDAT __real@0010000000000000
CONST	SEGMENT
__real@0010000000000000 DQ 00010000000000000r	; 2.22507e-308
CONST	ENDS
;	COMDAT rtc$TMZ
rtc$TMZ	SEGMENT
__RTC_Shutdown.rtc$TMZ DD FLAT:__RTC_Shutdown
rtc$TMZ	ENDS
;	COMDAT rtc$IMZ
rtc$IMZ	SEGMENT
__RTC_InitBase.rtc$IMZ DD FLAT:__RTC_InitBase
rtc$IMZ	ENDS
;	COMDAT ??_R1A@?0A@EA@Goal_MoveToPosition@@8
rdata$r	SEGMENT
??_R1A@?0A@EA@Goal_MoveToPosition@@8 DD FLAT:??_R0?AVGoal_MoveToPosition@@@8 ; Goal_MoveToPosition::`RTTI Base Class Descriptor at (0,-1,0,64)'
	DD	02H
	DD	00H
	DD	0ffffffffH
	DD	00H
	DD	040H
	DD	FLAT:??_R3Goal_MoveToPosition@@8
rdata$r	ENDS
;	COMDAT ??_R2Goal_MoveToPosition@@8
rdata$r	SEGMENT
??_R2Goal_MoveToPosition@@8 DD FLAT:??_R1A@?0A@EA@Goal_MoveToPosition@@8 ; Goal_MoveToPosition::`RTTI Base Class Array'
	DD	FLAT:??_R1A@?0A@EA@?$Goal_Composite@VRaven_Bot@@@@8
	DD	FLAT:??_R1A@?0A@EA@?$Goal@VRaven_Bot@@@@8
rdata$r	ENDS
;	COMDAT ??_R3Goal_MoveToPosition@@8
rdata$r	SEGMENT
??_R3Goal_MoveToPosition@@8 DD 00H			; Goal_MoveToPosition::`RTTI Class Hierarchy Descriptor'
	DD	00H
	DD	03H
	DD	FLAT:??_R2Goal_MoveToPosition@@8
rdata$r	ENDS
;	COMDAT ??_R0?AVGoal_MoveToPosition@@@8
data$rs	SEGMENT
??_R0?AVGoal_MoveToPosition@@@8 DD FLAT:??_7type_info@@6B@ ; Goal_MoveToPosition `RTTI Type Descriptor'
	DD	00H
	DB	'.?AVGoal_MoveToPosition@@', 00H
data$rs	ENDS
;	COMDAT ??_R4Goal_MoveToPosition@@6B@
rdata$r	SEGMENT
??_R4Goal_MoveToPosition@@6B@ DD 00H			; Goal_MoveToPosition::`RTTI Complete Object Locator'
	DD	00H
	DD	00H
	DD	FLAT:??_R0?AVGoal_MoveToPosition@@@8
	DD	FLAT:??_R3Goal_MoveToPosition@@8
rdata$r	ENDS
;	COMDAT ??_R1A@?0A@EA@Goal_Explore@@8
rdata$r	SEGMENT
??_R1A@?0A@EA@Goal_Explore@@8 DD FLAT:??_R0?AVGoal_Explore@@@8 ; Goal_Explore::`RTTI Base Class Descriptor at (0,-1,0,64)'
	DD	02H
	DD	00H
	DD	0ffffffffH
	DD	00H
	DD	040H
	DD	FLAT:??_R3Goal_Explore@@8
rdata$r	ENDS
;	COMDAT ??_R2Goal_Explore@@8
rdata$r	SEGMENT
??_R2Goal_Explore@@8 DD FLAT:??_R1A@?0A@EA@Goal_Explore@@8 ; Goal_Explore::`RTTI Base Class Array'
	DD	FLAT:??_R1A@?0A@EA@?$Goal_Composite@VRaven_Bot@@@@8
	DD	FLAT:??_R1A@?0A@EA@?$Goal@VRaven_Bot@@@@8
rdata$r	ENDS
;	COMDAT ??_R3Goal_Explore@@8
rdata$r	SEGMENT
??_R3Goal_Explore@@8 DD 00H				; Goal_Explore::`RTTI Class Hierarchy Descriptor'
	DD	00H
	DD	03H
	DD	FLAT:??_R2Goal_Explore@@8
rdata$r	ENDS
;	COMDAT ??_R0?AVGoal_Explore@@@8
data$rs	SEGMENT
??_R0?AVGoal_Explore@@@8 DD FLAT:??_7type_info@@6B@	; Goal_Explore `RTTI Type Descriptor'
	DD	00H
	DB	'.?AVGoal_Explore@@', 00H
data$rs	ENDS
;	COMDAT ??_R4Goal_Explore@@6B@
rdata$r	SEGMENT
??_R4Goal_Explore@@6B@ DD 00H				; Goal_Explore::`RTTI Complete Object Locator'
	DD	00H
	DD	00H
	DD	FLAT:??_R0?AVGoal_Explore@@@8
	DD	FLAT:??_R3Goal_Explore@@8
rdata$r	ENDS
;	COMDAT ??_R4?$Goal@VRaven_Bot@@@@6B@
rdata$r	SEGMENT
??_R4?$Goal@VRaven_Bot@@@@6B@ DD 00H			; Goal<Raven_Bot>::`RTTI Complete Object Locator'
	DD	00H
	DD	00H
	DD	FLAT:??_R0?AV?$Goal@VRaven_Bot@@@@@8
	DD	FLAT:??_R3?$Goal@VRaven_Bot@@@@8
rdata$r	ENDS
;	COMDAT ??_R4?$Goal_Composite@VRaven_Bot@@@@6B@
rdata$r	SEGMENT
??_R4?$Goal_Composite@VRaven_Bot@@@@6B@ DD 00H		; Goal_Composite<Raven_Bot>::`RTTI Complete Object Locator'
	DD	00H
	DD	00H
	DD	FLAT:??_R0?AV?$Goal_Composite@VRaven_Bot@@@@@8
	DD	FLAT:??_R3?$Goal_Composite@VRaven_Bot@@@@8
rdata$r	ENDS
;	COMDAT ??_R2?$Goal@VRaven_Bot@@@@8
rdata$r	SEGMENT
??_R2?$Goal@VRaven_Bot@@@@8 DD FLAT:??_R1A@?0A@EA@?$Goal@VRaven_Bot@@@@8 ; Goal<Raven_Bot>::`RTTI Base Class Array'
rdata$r	ENDS
;	COMDAT ??_R3?$Goal@VRaven_Bot@@@@8
rdata$r	SEGMENT
??_R3?$Goal@VRaven_Bot@@@@8 DD 00H			; Goal<Raven_Bot>::`RTTI Class Hierarchy Descriptor'
	DD	00H
	DD	01H
	DD	FLAT:??_R2?$Goal@VRaven_Bot@@@@8
rdata$r	ENDS
;	COMDAT ??_R0?AV?$Goal@VRaven_Bot@@@@@8
data$rs	SEGMENT
??_R0?AV?$Goal@VRaven_Bot@@@@@8 DD FLAT:??_7type_info@@6B@ ; Goal<Raven_Bot> `RTTI Type Descriptor'
	DD	00H
	DB	'.?AV?$Goal@VRaven_Bot@@@@', 00H
data$rs	ENDS
;	COMDAT ??_R1A@?0A@EA@?$Goal@VRaven_Bot@@@@8
rdata$r	SEGMENT
??_R1A@?0A@EA@?$Goal@VRaven_Bot@@@@8 DD FLAT:??_R0?AV?$Goal@VRaven_Bot@@@@@8 ; Goal<Raven_Bot>::`RTTI Base Class Descriptor at (0,-1,0,64)'
	DD	00H
	DD	00H
	DD	0ffffffffH
	DD	00H
	DD	040H
	DD	FLAT:??_R3?$Goal@VRaven_Bot@@@@8
rdata$r	ENDS
;	COMDAT ??_R2?$Goal_Composite@VRaven_Bot@@@@8
rdata$r	SEGMENT
??_R2?$Goal_Composite@VRaven_Bot@@@@8 DD FLAT:??_R1A@?0A@EA@?$Goal_Composite@VRaven_Bot@@@@8 ; Goal_Composite<Raven_Bot>::`RTTI Base Class Array'
	DD	FLAT:??_R1A@?0A@EA@?$Goal@VRaven_Bot@@@@8
rdata$r	ENDS
;	COMDAT ??_R3?$Goal_Composite@VRaven_Bot@@@@8
rdata$r	SEGMENT
??_R3?$Goal_Composite@VRaven_Bot@@@@8 DD 00H		; Goal_Composite<Raven_Bot>::`RTTI Class Hierarchy Descriptor'
	DD	00H
	DD	02H
	DD	FLAT:??_R2?$Goal_Composite@VRaven_Bot@@@@8
rdata$r	ENDS
;	COMDAT ??_R0?AV?$Goal_Composite@VRaven_Bot@@@@@8
data$rs	SEGMENT
??_R0?AV?$Goal_Composite@VRaven_Bot@@@@@8 DD FLAT:??_7type_info@@6B@ ; Goal_Composite<Raven_Bot> `RTTI Type Descriptor'
	DD	00H
	DB	'.?AV?$Goal_Composite@VRaven_Bot@@@@', 00H
data$rs	ENDS
;	COMDAT ??_R1A@?0A@EA@?$Goal_Composite@VRaven_Bot@@@@8
rdata$r	SEGMENT
??_R1A@?0A@EA@?$Goal_Composite@VRaven_Bot@@@@8 DD FLAT:??_R0?AV?$Goal_Composite@VRaven_Bot@@@@@8 ; Goal_Composite<Raven_Bot>::`RTTI Base Class Descriptor at (0,-1,0,64)'
	DD	01H
	DD	00H
	DD	0ffffffffH
	DD	00H
	DD	040H
	DD	FLAT:??_R3?$Goal_Composite@VRaven_Bot@@@@8
rdata$r	ENDS
;	COMDAT ??_R1A@?0A@EA@runtime_error@std@@8
rdata$r	SEGMENT
??_R1A@?0A@EA@runtime_error@std@@8 DD FLAT:??_R0?AVruntime_error@std@@@8 ; std::runtime_error::`RTTI Base Class Descriptor at (0,-1,0,64)'
	DD	01H
	DD	00H
	DD	0ffffffffH
	DD	00H
	DD	040H
	DD	FLAT:??_R3runtime_error@std@@8
rdata$r	ENDS
;	COMDAT ??_R2runtime_error@std@@8
rdata$r	SEGMENT
??_R2runtime_error@std@@8 DD FLAT:??_R1A@?0A@EA@runtime_error@std@@8 ; std::runtime_error::`RTTI Base Class Array'
	DD	FLAT:??_R1A@?0A@EA@exception@std@@8
rdata$r	ENDS
;	COMDAT ??_R3runtime_error@std@@8
rdata$r	SEGMENT
??_R3runtime_error@std@@8 DD 00H			; std::runtime_error::`RTTI Class Hierarchy Descriptor'
	DD	00H
	DD	02H
	DD	FLAT:??_R2runtime_error@std@@8
rdata$r	ENDS
;	COMDAT ??_R4runtime_error@std@@6B@
rdata$r	SEGMENT
??_R4runtime_error@std@@6B@ DD 00H			; std::runtime_error::`RTTI Complete Object Locator'
	DD	00H
	DD	00H
	DD	FLAT:??_R0?AVruntime_error@std@@@8
	DD	FLAT:??_R3runtime_error@std@@8
rdata$r	ENDS
;	COMDAT ??_R4bad_alloc@std@@6B@
rdata$r	SEGMENT
??_R4bad_alloc@std@@6B@ DD 00H				; std::bad_alloc::`RTTI Complete Object Locator'
	DD	00H
	DD	00H
	DD	FLAT:??_R0?AVbad_alloc@std@@@8
	DD	FLAT:??_R3bad_alloc@std@@8
rdata$r	ENDS
;	COMDAT ??_R2bad_alloc@std@@8
rdata$r	SEGMENT
??_R2bad_alloc@std@@8 DD FLAT:??_R1A@?0A@EA@bad_alloc@std@@8 ; std::bad_alloc::`RTTI Base Class Array'
	DD	FLAT:??_R1A@?0A@EA@exception@std@@8
rdata$r	ENDS
;	COMDAT ??_R3bad_alloc@std@@8
rdata$r	SEGMENT
??_R3bad_alloc@std@@8 DD 00H				; std::bad_alloc::`RTTI Class Hierarchy Descriptor'
	DD	00H
	DD	02H
	DD	FLAT:??_R2bad_alloc@std@@8
rdata$r	ENDS
;	COMDAT ??_R1A@?0A@EA@bad_alloc@std@@8
rdata$r	SEGMENT
??_R1A@?0A@EA@bad_alloc@std@@8 DD FLAT:??_R0?AVbad_alloc@std@@@8 ; std::bad_alloc::`RTTI Base Class Descriptor at (0,-1,0,64)'
	DD	01H
	DD	00H
	DD	0ffffffffH
	DD	00H
	DD	040H
	DD	FLAT:??_R3bad_alloc@std@@8
rdata$r	ENDS
;	COMDAT ??_R1A@?0A@EA@bad_array_new_length@std@@8
rdata$r	SEGMENT
??_R1A@?0A@EA@bad_array_new_length@std@@8 DD FLAT:??_R0?AVbad_array_new_length@std@@@8 ; std::bad_array_new_length::`RTTI Base Class Descriptor at (0,-1,0,64)'
	DD	02H
	DD	00H
	DD	0ffffffffH
	DD	00H
	DD	040H
	DD	FLAT:??_R3bad_array_new_length@std@@8
rdata$r	ENDS
;	COMDAT ??_R2bad_array_new_length@std@@8
rdata$r	SEGMENT
??_R2bad_array_new_length@std@@8 DD FLAT:??_R1A@?0A@EA@bad_array_new_length@std@@8 ; std::bad_array_new_length::`RTTI Base Class Array'
	DD	FLAT:??_R1A@?0A@EA@bad_alloc@std@@8
	DD	FLAT:??_R1A@?0A@EA@exception@std@@8
rdata$r	ENDS
;	COMDAT ??_R3bad_array_new_length@std@@8
rdata$r	SEGMENT
??_R3bad_array_new_length@std@@8 DD 00H			; std::bad_array_new_length::`RTTI Class Hierarchy Descriptor'
	DD	00H
	DD	03H
	DD	FLAT:??_R2bad_array_new_length@std@@8
rdata$r	ENDS
;	COMDAT ??_R4bad_array_new_length@std@@6B@
rdata$r	SEGMENT
??_R4bad_array_new_length@std@@6B@ DD 00H		; std::bad_array_new_length::`RTTI Complete Object Locator'
	DD	00H
	DD	00H
	DD	FLAT:??_R0?AVbad_array_new_length@std@@@8
	DD	FLAT:??_R3bad_array_new_length@std@@8
rdata$r	ENDS
;	COMDAT ??_R1A@?0A@EA@exception@std@@8
rdata$r	SEGMENT
??_R1A@?0A@EA@exception@std@@8 DD FLAT:??_R0?AVexception@std@@@8 ; std::exception::`RTTI Base Class Descriptor at (0,-1,0,64)'
	DD	00H
	DD	00H
	DD	0ffffffffH
	DD	00H
	DD	040H
	DD	FLAT:??_R3exception@std@@8
rdata$r	ENDS
;	COMDAT ??_R2exception@std@@8
rdata$r	SEGMENT
??_R2exception@std@@8 DD FLAT:??_R1A@?0A@EA@exception@std@@8 ; std::exception::`RTTI Base Class Array'
rdata$r	ENDS
;	COMDAT ??_R3exception@std@@8
rdata$r	SEGMENT
??_R3exception@std@@8 DD 00H				; std::exception::`RTTI Class Hierarchy Descriptor'
	DD	00H
	DD	01H
	DD	FLAT:??_R2exception@std@@8
rdata$r	ENDS
;	COMDAT ??_R4exception@std@@6B@
rdata$r	SEGMENT
??_R4exception@std@@6B@ DD 00H				; std::exception::`RTTI Complete Object Locator'
	DD	00H
	DD	00H
	DD	FLAT:??_R0?AVexception@std@@@8
	DD	FLAT:??_R3exception@std@@8
rdata$r	ENDS
;	COMDAT ??_C@_0DG@KGHKKGBC@null?5pointer?5cannot?5point?5to?5a?5@
CONST	SEGMENT
??_C@_0DG@KGHKKGBC@null?5pointer?5cannot?5point?5to?5a?5@ DB 'null pointe'
	DB	'r cannot point to a block of non-zero size', 00H ; `string'
CONST	ENDS
;	COMDAT ??_C@_0CF@JCBFHMPL@cannot?5dereference?5end?5list?5ite@
CONST	SEGMENT
??_C@_0CF@JCBFHMPL@cannot?5dereference?5end?5list?5ite@ DB 'cannot derefe'
	DB	'rence end list iterator', 00H		; `string'
CONST	ENDS
;	COMDAT ??_C@_0DD@MBIHGLJE@cannot?5dereference?5value?9initia@
CONST	SEGMENT
??_C@_0DD@MBIHGLJE@cannot?5dereference?5value?9initia@ DB 'cannot derefer'
	DB	'ence value-initialized list iterator', 00H	; `string'
CONST	ENDS
;	COMDAT ??_C@_0CD@PMFMCEG@cannot?5increment?5end?5list?5itera@
CONST	SEGMENT
??_C@_0CD@PMFMCEG@cannot?5increment?5end?5list?5itera@ DB 'cannot increme'
	DB	'nt end list iterator', 00H			; `string'
CONST	ENDS
;	COMDAT ??_C@_0DB@ENBCPNKO@cannot?5increment?5value?9initiali@
CONST	SEGMENT
??_C@_0DB@ENBCPNKO@cannot?5increment?5value?9initiali@ DB 'cannot increme'
	DB	'nt value-initialized list iterator', 00H	; `string'
CONST	ENDS
;	COMDAT ??_C@_0CF@BAAFPBMN@cannot?5decrement?5begin?5list?5ite@
CONST	SEGMENT
??_C@_0CF@BAAFPBMN@cannot?5decrement?5begin?5list?5ite@ DB 'cannot decrem'
	DB	'ent begin list iterator', 00H		; `string'
CONST	ENDS
;	COMDAT ??_C@_0DB@MCPEHPCC@cannot?5decrement?5value?9initiali@
CONST	SEGMENT
??_C@_0DB@MCPEHPCC@cannot?5decrement?5value?9initiali@ DB 'cannot decreme'
	DB	'nt value-initialized list iterator', 00H	; `string'
CONST	ENDS
;	COMDAT ??_C@_0BM@BALDKKHE@list?5iterators?5incompatible@
CONST	SEGMENT
??_C@_0BM@BALDKKHE@list?5iterators?5incompatible@ DB 'list iterators inco'
	DB	'mpatible', 00H				; `string'
CONST	ENDS
;	COMDAT ??_C@_0O@NKNMEGII@list?5too?5long@
CONST	SEGMENT
??_C@_0O@NKNMEGII@list?5too?5long@ DB 'list too long', 00H ; `string'
CONST	ENDS
;	COMDAT ??_C@_0BN@GOIPFJJH@front?$CI?$CJ?5called?5on?5empty?5list@
CONST	SEGMENT
??_C@_0BN@GOIPFJJH@front?$CI?$CJ?5called?5on?5empty?5list@ DB 'front() ca'
	DB	'lled on empty list', 00H			; `string'
CONST	ENDS
;	COMDAT ??_C@_0FP@IHALIHCI@C?3?2Program?5Files?2Microsoft?5Visu@
CONST	SEGMENT
??_C@_0FP@IHALIHCI@C?3?2Program?5Files?2Microsoft?5Visu@ DB 'C:\Program F'
	DB	'iles\Microsoft Visual Studio\2022\Community\VC\Tools\MSVC\14.'
	DB	'44.35207\include\list', 00H			; `string'
CONST	ENDS
;	COMDAT ??_C@_0CB@GIIADCJH@pop_front?$CI?$CJ?5called?5on?5empty?5lis@
CONST	SEGMENT
??_C@_0CB@GIIADCJH@pop_front?$CI?$CJ?5called?5on?5empty?5lis@ DB 'pop_fro'
	DB	'nt() called on empty list', 00H		; `string'
CONST	ENDS
;	COMDAT ??_C@_0CB@OHIHCHGJ@Cannot?5add?5goals?5to?5atomic?5goal@
CONST	SEGMENT
??_C@_0CB@OHIHCHGJ@Cannot?5add?5goals?5to?5atomic?5goal@ DB 'Cannot add g'
	DB	'oals to atomic goals', 00H			; `string'
CONST	ENDS
;	COMDAT __CTA2?AVruntime_error@std@@
xdata$x	SEGMENT
__CTA2?AVruntime_error@std@@ DD 02H
	DD	FLAT:__CT??_R0?AVruntime_error@std@@@8??0runtime_error@std@@QAE@ABV01@@Z12
	DD	FLAT:__CT??_R0?AVexception@std@@@8??0exception@std@@QAE@ABV01@@Z12
xdata$x	ENDS
;	COMDAT __TI2?AVruntime_error@std@@
xdata$x	SEGMENT
__TI2?AVruntime_error@std@@ DD 00H
	DD	FLAT:??1runtime_error@std@@UAE@XZ
	DD	00H
	DD	FLAT:__CTA2?AVruntime_error@std@@
xdata$x	ENDS
;	COMDAT ??_7Goal_MoveToPosition@@6B@
CONST	SEGMENT
??_7Goal_MoveToPosition@@6B@ DD FLAT:??_R4Goal_MoveToPosition@@6B@ ; Goal_MoveToPosition::`vftable'
	DD	FLAT:??_EGoal_MoveToPosition@@UAEPAXI@Z
	DD	FLAT:?Activate@Goal_MoveToPosition@@UAEXXZ
	DD	FLAT:?Process@Goal_MoveToPosition@@UAEHXZ
	DD	FLAT:?Terminate@Goal_MoveToPosition@@UAEXXZ
	DD	FLAT:?HandleMessage@Goal_MoveToPosition@@UAE_NABUTelegram@@@Z
	DD	FLAT:?AddSubgoal@?$Goal_Composite@VRaven_Bot@@@@UAEXPAV?$Goal@VRaven_Bot@@@@@Z
	DD	FLAT:?RenderAtPos@?$Goal_Composite@VRaven_Bot@@@@UBEXAAUVector2D@@PAVTypeToString@@@Z
	DD	FLAT:?Render@Goal_MoveToPosition@@UAEXXZ
CONST	ENDS
;	COMDAT ??_7Goal_Explore@@6B@
CONST	SEGMENT
??_7Goal_Explore@@6B@ DD FLAT:??_R4Goal_Explore@@6B@	; Goal_Explore::`vftable'
	DD	FLAT:??_EGoal_Explore@@UAEPAXI@Z
	DD	FLAT:?Activate@Goal_Explore@@UAEXXZ
	DD	FLAT:?Process@Goal_Explore@@UAEHXZ
	DD	FLAT:?Terminate@Goal_Explore@@UAEXXZ
	DD	FLAT:?HandleMessage@Goal_Explore@@UAE_NABUTelegram@@@Z
	DD	FLAT:?AddSubgoal@?$Goal_Composite@VRaven_Bot@@@@UAEXPAV?$Goal@VRaven_Bot@@@@@Z
	DD	FLAT:?RenderAtPos@?$Goal_Composite@VRaven_Bot@@@@UBEXAAUVector2D@@PAVTypeToString@@@Z
	DD	FLAT:?Render@?$Goal_Composite@VRaven_Bot@@@@UAEXXZ
CONST	ENDS
;	COMDAT ??_7?$Goal_Composite@VRaven_Bot@@@@6B@
CONST	SEGMENT
??_7?$Goal_Composite@VRaven_Bot@@@@6B@ DD FLAT:??_R4?$Goal_Composite@VRaven_Bot@@@@6B@ ; Goal_Composite<Raven_Bot>::`vftable'
	DD	FLAT:??_E?$Goal_Composite@VRaven_Bot@@@@UAEPAXI@Z
	DD	FLAT:__purecall
	DD	FLAT:__purecall
	DD	FLAT:__purecall
	DD	FLAT:?HandleMessage@?$Goal_Composite@VRaven_Bot@@@@UAE_NABUTelegram@@@Z
	DD	FLAT:?AddSubgoal@?$Goal_Composite@VRaven_Bot@@@@UAEXPAV?$Goal@VRaven_Bot@@@@@Z
	DD	FLAT:?RenderAtPos@?$Goal_Composite@VRaven_Bot@@@@UBEXAAUVector2D@@PAVTypeToString@@@Z
	DD	FLAT:?Render@?$Goal_Composite@VRaven_Bot@@@@UAEXXZ
CONST	ENDS
;	COMDAT ??_7?$Goal@VRaven_Bot@@@@6B@
CONST	SEGMENT
??_7?$Goal@VRaven_Bot@@@@6B@ DD FLAT:??_R4?$Goal@VRaven_Bot@@@@6B@ ; Goal<Raven_Bot>::`vftable'
	DD	FLAT:??_E?$Goal@VRaven_Bot@@@@UAEPAXI@Z
	DD	FLAT:__purecall
	DD	FLAT:__purecall
	DD	FLAT:__purecall
	DD	FLAT:?HandleMessage@?$Goal@VRaven_Bot@@@@UAE_NABUTelegram@@@Z
	DD	FLAT:?AddSubgoal@?$Goal@VRaven_Bot@@@@UAEXPAV1@@Z
	DD	FLAT:?RenderAtPos@?$Goal@VRaven_Bot@@@@UBEXAAUVector2D@@PAVTypeToString@@@Z
	DD	FLAT:?Render@?$Goal@VRaven_Bot@@@@UAEXXZ
CONST	ENDS
;	COMDAT __CT??_R0?AVruntime_error@std@@@8??0runtime_error@std@@QAE@ABV01@@Z12
xdata$x	SEGMENT
__CT??_R0?AVruntime_error@std@@@8??0runtime_error@std@@QAE@ABV01@@Z12 DD 00H
	DD	FLAT:??_R0?AVruntime_error@std@@@8
	DD	00H
	DD	0ffffffffH
	ORG $+4
	DD	0cH
	DD	FLAT:??0runtime_error@std@@QAE@ABV01@@Z
xdata$x	ENDS
;	COMDAT ??_R0?AVruntime_error@std@@@8
data$r	SEGMENT
??_R0?AVruntime_error@std@@@8 DD FLAT:??_7type_info@@6B@ ; std::runtime_error `RTTI Type Descriptor'
	DD	00H
	DB	'.?AVruntime_error@std@@', 00H
data$r	ENDS
;	COMDAT ??_7runtime_error@std@@6B@
CONST	SEGMENT
??_7runtime_error@std@@6B@ DD FLAT:??_R4runtime_error@std@@6B@ ; std::runtime_error::`vftable'
	DD	FLAT:??_Eruntime_error@std@@UAEPAXI@Z
	DD	FLAT:?what@exception@std@@UBEPBDXZ
CONST	ENDS
;	COMDAT ??_C@_0BJ@LFDBABJJ@ITERATOR?5LIST?5CORRUPTED?$CB@
CONST	SEGMENT
??_C@_0BJ@LFDBABJJ@ITERATOR?5LIST?5CORRUPTED?$CB@ DB 'ITERATOR LIST CORRU'
	DB	'PTED!', 00H					; `string'
CONST	ENDS
;	COMDAT ??_C@_0GC@KLECFGLI@C?3?2Program?5Files?2Microsoft?5Visu@
CONST	SEGMENT
??_C@_0GC@KLECFGLI@C?3?2Program?5Files?2Microsoft?5Visu@ DB 'C:\Program F'
	DB	'iles\Microsoft Visual Studio\2022\Community\VC\Tools\MSVC\14.'
	DB	'44.35207\include\xmemory', 00H		; `string'
CONST	ENDS
;	COMDAT ??_C@_02DKCKIIND@?$CFs@
CONST	SEGMENT
??_C@_02DKCKIIND@?$CFs@ DB '%s', 00H			; `string'
CONST	ENDS
;	COMDAT ??_C@_0BB@FCMFBGOM@invalid?5argument@
CONST	SEGMENT
??_C@_0BB@FCMFBGOM@invalid?5argument@ DB 'invalid argument', 00H ; `string'
CONST	ENDS
;	COMDAT __CT??_R0?AVbad_alloc@std@@@8??0bad_alloc@std@@QAE@ABV01@@Z12
xdata$x	SEGMENT
__CT??_R0?AVbad_alloc@std@@@8??0bad_alloc@std@@QAE@ABV01@@Z12 DD 010H
	DD	FLAT:??_R0?AVbad_alloc@std@@@8
	DD	00H
	DD	0ffffffffH
	ORG $+4
	DD	0cH
	DD	FLAT:??0bad_alloc@std@@QAE@ABV01@@Z
xdata$x	ENDS
;	COMDAT ??_R0?AVbad_alloc@std@@@8
data$r	SEGMENT
??_R0?AVbad_alloc@std@@@8 DD FLAT:??_7type_info@@6B@	; std::bad_alloc `RTTI Type Descriptor'
	DD	00H
	DB	'.?AVbad_alloc@std@@', 00H
data$r	ENDS
;	COMDAT __CT??_R0?AVbad_array_new_length@std@@@8??0bad_array_new_length@std@@QAE@ABV01@@Z12
xdata$x	SEGMENT
__CT??_R0?AVbad_array_new_length@std@@@8??0bad_array_new_length@std@@QAE@ABV01@@Z12 DD 00H
	DD	FLAT:??_R0?AVbad_array_new_length@std@@@8
	DD	00H
	DD	0ffffffffH
	ORG $+4
	DD	0cH
	DD	FLAT:??0bad_array_new_length@std@@QAE@ABV01@@Z
xdata$x	ENDS
;	COMDAT ??_R0?AVbad_array_new_length@std@@@8
data$r	SEGMENT
??_R0?AVbad_array_new_length@std@@@8 DD FLAT:??_7type_info@@6B@ ; std::bad_array_new_length `RTTI Type Descriptor'
	DD	00H
	DB	'.?AVbad_array_new_length@std@@', 00H
data$r	ENDS
;	COMDAT __CTA3?AVbad_array_new_length@std@@
xdata$x	SEGMENT
__CTA3?AVbad_array_new_length@std@@ DD 03H
	DD	FLAT:__CT??_R0?AVbad_array_new_length@std@@@8??0bad_array_new_length@std@@QAE@ABV01@@Z12
	DD	FLAT:__CT??_R0?AVbad_alloc@std@@@8??0bad_alloc@std@@QAE@ABV01@@Z12
	DD	FLAT:__CT??_R0?AVexception@std@@@8??0exception@std@@QAE@ABV01@@Z12
xdata$x	ENDS
;	COMDAT __TI3?AVbad_array_new_length@std@@
xdata$x	SEGMENT
__TI3?AVbad_array_new_length@std@@ DD 00H
	DD	FLAT:??1bad_array_new_length@std@@UAE@XZ
	DD	00H
	DD	FLAT:__CTA3?AVbad_array_new_length@std@@
xdata$x	ENDS
;	COMDAT __CT??_R0?AVexception@std@@@8??0exception@std@@QAE@ABV01@@Z12
xdata$x	SEGMENT
__CT??_R0?AVexception@std@@@8??0exception@std@@QAE@ABV01@@Z12 DD 00H
	DD	FLAT:??_R0?AVexception@std@@@8
	DD	00H
	DD	0ffffffffH
	ORG $+4
	DD	0cH
	DD	FLAT:??0exception@std@@QAE@ABV01@@Z
xdata$x	ENDS
;	COMDAT ??_R0?AVexception@std@@@8
data$r	SEGMENT
??_R0?AVexception@std@@@8 DD FLAT:??_7type_info@@6B@	; std::exception `RTTI Type Descriptor'
	DD	00H
	DB	'.?AVexception@std@@', 00H
data$r	ENDS
;	COMDAT ??_C@_0BF@KINCDENJ@bad?5array?5new?5length@
CONST	SEGMENT
??_C@_0BF@KINCDENJ@bad?5array?5new?5length@ DB 'bad array new length', 00H ; `string'
CONST	ENDS
;	COMDAT ??_7bad_array_new_length@std@@6B@
CONST	SEGMENT
??_7bad_array_new_length@std@@6B@ DD FLAT:??_R4bad_array_new_length@std@@6B@ ; std::bad_array_new_length::`vftable'
	DD	FLAT:??_Ebad_array_new_length@std@@UAEPAXI@Z
	DD	FLAT:?what@exception@std@@UBEPBDXZ
CONST	ENDS
;	COMDAT ??_7bad_alloc@std@@6B@
CONST	SEGMENT
??_7bad_alloc@std@@6B@ DD FLAT:??_R4bad_alloc@std@@6B@	; std::bad_alloc::`vftable'
	DD	FLAT:??_Ebad_alloc@std@@UAEPAXI@Z
	DD	FLAT:?what@exception@std@@UBEPBDXZ
CONST	ENDS
;	COMDAT ??_C@_0BC@EOODALEL@Unknown?5exception@
CONST	SEGMENT
??_C@_0BC@EOODALEL@Unknown?5exception@ DB 'Unknown exception', 00H ; `string'
CONST	ENDS
;	COMDAT ??_7exception@std@@6B@
CONST	SEGMENT
??_7exception@std@@6B@ DD FLAT:??_R4exception@std@@6B@	; std::exception::`vftable'
	DD	FLAT:??_Eexception@std@@UAEPAXI@Z
	DD	FLAT:?what@exception@std@@UBEPBDXZ
CONST	ENDS
;	COMDAT voltbl
voltbl	SEGMENT
_volmd	DB	09H
voltbl	ENDS
;	COMDAT xdata$x
xdata$x	SEGMENT
__ehfuncinfo$??$_Deallocate@$07@std@@YAXPAXI@Z DD 019930522H
	DD	00H
	DD	00H
	DD	2 DUP(00H)
	DD	2 DUP(00H)
	DD	00H
	DD	05H
xdata$x	ENDS
;	COMDAT voltbl
voltbl	SEGMENT
_volmd	DB	016H
voltbl	ENDS
;	COMDAT xdata$x
xdata$x	SEGMENT
__unwindtable$??$?0ABQAV?$Goal@VRaven_Bot@@@@@?$_List_node_emplace_op2@V?$allocator@U?$_List_node@PAV?$Goal@VRaven_Bot@@@@PAX@std@@@std@@@std@@QAE@AAV?$allocator@U?$_List_node@PAV?$Goal@VRaven_Bot@@@@PAX@std@@@1@ABQAV?$Goal@VRaven_Bot@@@@@Z DD 0ffffffffH
	DD	FLAT:__unwindfunclet$??$?0ABQAV?$Goal@VRaven_Bot@@@@@?$_List_node_emplace_op2@V?$allocator@U?$_List_node@PAV?$Goal@VRaven_Bot@@@@PAX@std@@@std@@@std@@QAE@AAV?$allocator@U?$_List_node@PAV?$Goal@VRaven_Bot@@@@PAX@std@@@1@ABQAV?$Goal@VRaven_Bot@@@@@Z$0
__ehfuncinfo$??$?0ABQAV?$Goal@VRaven_Bot@@@@@?$_List_node_emplace_op2@V?$allocator@U?$_List_node@PAV?$Goal@VRaven_Bot@@@@PAX@std@@@std@@@std@@QAE@AAV?$allocator@U?$_List_node@PAV?$Goal@VRaven_Bot@@@@PAX@std@@@1@ABQAV?$Goal@VRaven_Bot@@@@@Z DD 019930522H
	DD	01H
	DD	FLAT:__unwindtable$??$?0ABQAV?$Goal@VRaven_Bot@@@@@?$_List_node_emplace_op2@V?$allocator@U?$_List_node@PAV?$Goal@VRaven_Bot@@@@PAX@std@@@std@@@std@@QAE@AAV?$allocator@U?$_List_node@PAV?$Goal@VRaven_Bot@@@@PAX@std@@@1@ABQAV?$Goal@VRaven_Bot@@@@@Z
	DD	2 DUP(00H)
	DD	2 DUP(00H)
	DD	00H
	DD	01H
xdata$x	ENDS
;	COMDAT voltbl
voltbl	SEGMENT
_volmd	DB	09H
voltbl	ENDS
;	COMDAT xdata$x
xdata$x	SEGMENT
__ehfuncinfo$??1?$_List_node_emplace_op2@V?$allocator@U?$_List_node@PAV?$Goal@VRaven_Bot@@@@PAX@std@@@std@@@std@@QAE@XZ DD 019930522H
	DD	00H
	DD	00H
	DD	2 DUP(00H)
	DD	2 DUP(00H)
	DD	00H
	DD	05H
xdata$x	ENDS
;	COMDAT voltbl
voltbl	SEGMENT
_volmd	DB	09H
voltbl	ENDS
;	COMDAT xdata$x
xdata$x	SEGMENT
__ehfuncinfo$??$_Freenode@V?$allocator@U?$_List_node@PAV?$Goal@VRaven_Bot@@@@PAX@std@@@std@@@?$_List_node@PAV?$Goal@VRaven_Bot@@@@PAX@std@@SAXAAV?$allocator@U?$_List_node@PAV?$Goal@VRaven_Bot@@@@PAX@std@@@1@PAU01@@Z DD 019930522H
	DD	00H
	DD	00H
	DD	2 DUP(00H)
	DD	2 DUP(00H)
	DD	00H
	DD	05H
xdata$x	ENDS
;	COMDAT voltbl
voltbl	SEGMENT
_volmd	DB	016H
voltbl	ENDS
;	COMDAT xdata$x
xdata$x	SEGMENT
__unwindtable$??0Goal_Explore@@QAE@PAVRaven_Bot@@@Z DD 0ffffffffH
	DD	FLAT:__unwindfunclet$??0Goal_Explore@@QAE@PAVRaven_Bot@@@Z$0
__ehfuncinfo$??0Goal_Explore@@QAE@PAVRaven_Bot@@@Z DD 019930522H
	DD	01H
	DD	FLAT:__unwindtable$??0Goal_Explore@@QAE@PAVRaven_Bot@@@Z
	DD	2 DUP(00H)
	DD	2 DUP(00H)
	DD	00H
	DD	01H
xdata$x	ENDS
voltbl	SEGMENT
_volmd	DD	0ffffffffH
	DDSymXIndex: 	FLAT:__unwindfunclet$?Activate@Goal_HuntTarget@@UAEXXZ$0
	DD	02cH
voltbl	ENDS
xdata$x	SEGMENT
__unwindtable$?Activate@Goal_HuntTarget@@UAEXXZ DD 0ffffffffH
	DD	FLAT:__unwindfunclet$?Activate@Goal_HuntTarget@@UAEXXZ$0
	DD	0ffffffffH
	DD	FLAT:__unwindfunclet$?Activate@Goal_HuntTarget@@UAEXXZ$1
__ehfuncinfo$?Activate@Goal_HuntTarget@@UAEXXZ DD 019930522H
	DD	02H
	DD	FLAT:__unwindtable$?Activate@Goal_HuntTarget@@UAEXXZ
	DD	2 DUP(00H)
	DD	2 DUP(00H)
	DD	00H
	DD	01H
xdata$x	ENDS
;	COMDAT voltbl
voltbl	SEGMENT
_volmd	DB	016H
voltbl	ENDS
;	COMDAT xdata$x
xdata$x	SEGMENT
__unwindtable$?RenderAtPos@?$Goal_Composite@VRaven_Bot@@@@UBEXAAUVector2D@@PAVTypeToString@@@Z DD 0ffffffffH
	DD	FLAT:__unwindfunclet$?RenderAtPos@?$Goal_Composite@VRaven_Bot@@@@UBEXAAUVector2D@@PAVTypeToString@@@Z$0
__ehfuncinfo$?RenderAtPos@?$Goal_Composite@VRaven_Bot@@@@UBEXAAUVector2D@@PAVTypeToString@@@Z DD 019930522H
	DD	01H
	DD	FLAT:__unwindtable$?RenderAtPos@?$Goal_Composite@VRaven_Bot@@@@UBEXAAUVector2D@@PAVTypeToString@@@Z
	DD	2 DUP(00H)
	DD	2 DUP(00H)
	DD	00H
	DD	01H
xdata$x	ENDS
;	COMDAT voltbl
voltbl	SEGMENT
_volmd	DB	016H
voltbl	ENDS
;	COMDAT xdata$x
xdata$x	SEGMENT
__unwindtable$?RemoveAllSubgoals@?$Goal_Composite@VRaven_Bot@@@@QAEXXZ DD 0ffffffffH
	DD	FLAT:__unwindfunclet$?RemoveAllSubgoals@?$Goal_Composite@VRaven_Bot@@@@QAEXXZ$0
__ehfuncinfo$?RemoveAllSubgoals@?$Goal_Composite@VRaven_Bot@@@@QAEXXZ DD 019930522H
	DD	01H
	DD	FLAT:__unwindtable$?RemoveAllSubgoals@?$Goal_Composite@VRaven_Bot@@@@QAEXXZ
	DD	2 DUP(00H)
	DD	2 DUP(00H)
	DD	00H
	DD	01H
xdata$x	ENDS
;	COMDAT voltbl
voltbl	SEGMENT
_volmd	DB	09H
voltbl	ENDS
;	COMDAT xdata$x
xdata$x	SEGMENT
__ehfuncinfo$??1?$Goal_Composite@VRaven_Bot@@@@UAE@XZ DD 019930522H
	DD	00H
	DD	00H
	DD	2 DUP(00H)
	DD	2 DUP(00H)
	DD	00H
	DD	05H
xdata$x	ENDS
;	COMDAT voltbl
voltbl	SEGMENT
_volmd	DB	016H
voltbl	ENDS
;	COMDAT xdata$x
xdata$x	SEGMENT
__unwindtable$??0?$Goal_Composite@VRaven_Bot@@@@QAE@PAVRaven_Bot@@H@Z DD 0ffffffffH
	DD	FLAT:__unwindfunclet$??0?$Goal_Composite@VRaven_Bot@@@@QAE@PAVRaven_Bot@@H@Z$0
__ehfuncinfo$??0?$Goal_Composite@VRaven_Bot@@@@QAE@PAVRaven_Bot@@H@Z DD 019930522H
	DD	01H
	DD	FLAT:__unwindtable$??0?$Goal_Composite@VRaven_Bot@@@@QAE@PAVRaven_Bot@@H@Z
	DD	2 DUP(00H)
	DD	2 DUP(00H)
	DD	00H
	DD	01H
xdata$x	ENDS
;	COMDAT voltbl
voltbl	SEGMENT
_volmd	DB	016H
voltbl	ENDS
;	COMDAT xdata$x
xdata$x	SEGMENT
__unwindtable$?_Alloc_sentinel_and_proxy@?$list@PAV?$Goal@VRaven_Bot@@@@V?$allocator@PAV?$Goal@VRaven_Bot@@@@@std@@@std@@AAEXXZ DD 0ffffffffH
	DD	FLAT:__unwindfunclet$?_Alloc_sentinel_and_proxy@?$list@PAV?$Goal@VRaven_Bot@@@@V?$allocator@PAV?$Goal@VRaven_Bot@@@@@std@@@std@@AAEXXZ$0
__ehfuncinfo$?_Alloc_sentinel_and_proxy@?$list@PAV?$Goal@VRaven_Bot@@@@V?$allocator@PAV?$Goal@VRaven_Bot@@@@@std@@@std@@AAEXXZ DD 019930522H
	DD	01H
	DD	FLAT:__unwindtable$?_Alloc_sentinel_and_proxy@?$list@PAV?$Goal@VRaven_Bot@@@@V?$allocator@PAV?$Goal@VRaven_Bot@@@@@std@@@std@@AAEXXZ
	DD	2 DUP(00H)
	DD	2 DUP(00H)
	DD	00H
	DD	01H
xdata$x	ENDS
;	COMDAT voltbl
voltbl	SEGMENT
_volmd	DB	016H
	DB	020H
voltbl	ENDS
;	COMDAT voltbl
voltbl	SEGMENT
_volmd	DW	02eH
	DW	0172H
voltbl	ENDS
;	COMDAT xdata$x
xdata$x	SEGMENT
__unwindtable$?RenderAtPos@?$Goal@VRaven_Bot@@@@UBEXAAUVector2D@@PAVTypeToString@@@Z DD 0ffffffffH
	DD	FLAT:__unwindfunclet$?RenderAtPos@?$Goal@VRaven_Bot@@@@UBEXAAUVector2D@@PAVTypeToString@@@Z$0
__ehfuncinfo$?RenderAtPos@?$Goal@VRaven_Bot@@@@UBEXAAUVector2D@@PAVTypeToString@@@Z DD 019930522H
	DD	01H
	DD	FLAT:__unwindtable$?RenderAtPos@?$Goal@VRaven_Bot@@@@UBEXAAUVector2D@@PAVTypeToString@@@Z
	DD	2 DUP(00H)
	DD	2 DUP(00H)
	DD	00H
	DD	01H
xdata$x	ENDS
; Function compile flags: /Odtp /RTCsu
; File C:\Program Files\Microsoft Visual Studio\2022\Community\VC\Tools\MSVC\14.44.35207\include\type_traits
;	COMDAT ??$forward@ABQAU?$_List_node@PAV?$Goal@VRaven_Bot@@@@PAX@std@@@std@@YAABQAU?$_List_node@PAV?$Goal@VRaven_Bot@@@@PAX@0@ABQAU10@@Z
_TEXT	SEGMENT
__Arg$ = 8						; size = 4
??$forward@ABQAU?$_List_node@PAV?$Goal@VRaven_Bot@@@@PAX@std@@@std@@YAABQAU?$_List_node@PAV?$Goal@VRaven_Bot@@@@PAX@0@ABQAU10@@Z PROC ; std::forward<std::_List_node<Goal<Raven_Bot> *,void *> * const &>, COMDAT

; 1501 : _NODISCARD _MSVC_INTRINSIC constexpr _Ty&& forward(remove_reference_t<_Ty>& _Arg) noexcept {

	push	ebp
	mov	ebp, esp

; 1502 :     return static_cast<_Ty&&>(_Arg);

	mov	eax, DWORD PTR __Arg$[ebp]

; 1503 : }

	pop	ebp
	ret	0
??$forward@ABQAU?$_List_node@PAV?$Goal@VRaven_Bot@@@@PAX@std@@@std@@YAABQAU?$_List_node@PAV?$Goal@VRaven_Bot@@@@PAX@0@ABQAU10@@Z ENDP ; std::forward<std::_List_node<Goal<Raven_Bot> *,void *> * const &>
_TEXT	ENDS
; Function compile flags: /Odtp /RTCsu
; File C:\Program Files\Microsoft Visual Studio\2022\Community\VC\Tools\MSVC\14.44.35207\include\xmemory
;	COMDAT ??$_Get_size_of_n@$0M@@std@@YAII@Z
_TEXT	SEGMENT
__Max_possible$1 = -8					; size = 4
__Overflow_is_possible$ = -1				; size = 1
__Count$ = 8						; size = 4
??$_Get_size_of_n@$0M@@std@@YAII@Z PROC			; std::_Get_size_of_n<12>, COMDAT

; 112  : _NODISCARD constexpr size_t _Get_size_of_n(const size_t _Count) {

	push	ebp
	mov	ebp, esp
	sub	esp, 8
	mov	DWORD PTR [ebp-8], -858993460		; ccccccccH
	mov	DWORD PTR [ebp-4], -858993460		; ccccccccH

; 113  :     constexpr bool _Overflow_is_possible = _Ty_size > 1;

	mov	BYTE PTR __Overflow_is_possible$[ebp], 1

; 114  : 
; 115  :     if constexpr (_Overflow_is_possible) {
; 116  :         constexpr size_t _Max_possible = static_cast<size_t>(-1) / _Ty_size;

	mov	DWORD PTR __Max_possible$1[ebp], 357913941 ; 15555555H

; 117  :         if (_Count > _Max_possible) {

	cmp	DWORD PTR __Count$[ebp], 357913941	; 15555555H
	jbe	SHORT $LN2@Get_size_o

; 118  :             _Throw_bad_array_new_length(); // multiply overflow

	call	?_Throw_bad_array_new_length@std@@YAXXZ	; std::_Throw_bad_array_new_length
	npad	1
$LN2@Get_size_o:

; 119  :         }
; 120  :     }
; 121  : 
; 122  :     return _Count * _Ty_size;

	imul	eax, DWORD PTR __Count$[ebp], 12
$LN1@Get_size_o:

; 123  : }

	add	esp, 8
	cmp	ebp, esp
	call	__RTC_CheckEsp
	mov	esp, ebp
	pop	ebp
	ret	0
??$_Get_size_of_n@$0M@@std@@YAII@Z ENDP			; std::_Get_size_of_n<12>
_TEXT	ENDS
; Function compile flags: /Odtp /RTCsu
; File C:\Program Files\Microsoft Visual Studio\2022\Community\VC\Tools\MSVC\14.44.35207\include\xutility
;	COMDAT ??$_Construct_in_place@PAU?$_List_node@PAV?$Goal@VRaven_Bot@@@@PAX@std@@ABQAU12@@std@@YAXAAPAU?$_List_node@PAV?$Goal@VRaven_Bot@@@@PAX@0@ABQAU10@@Z
_TEXT	SEGMENT
$T1 = -4						; size = 4
__Obj$ = 8						; size = 4
_<_Args_0>$ = 12					; size = 4
??$_Construct_in_place@PAU?$_List_node@PAV?$Goal@VRaven_Bot@@@@PAX@std@@ABQAU12@@std@@YAXAAPAU?$_List_node@PAV?$Goal@VRaven_Bot@@@@PAX@0@ABQAU10@@Z PROC ; std::_Construct_in_place<std::_List_node<Goal<Raven_Bot> *,void *> *,std::_List_node<Goal<Raven_Bot> *,void *> * const &>, COMDAT

; 469  :     noexcept(is_nothrow_constructible_v<_Ty, _Types...>) {

	push	ebp
	mov	ebp, esp
	push	ecx
	mov	DWORD PTR [ebp-4], -858993460		; ccccccccH

; 470  : #if _HAS_CXX20
; 471  :     if (_STD is_constant_evaluated()) {
; 472  :         _STD construct_at(_STD addressof(_Obj), _STD forward<_Types>(_Args)...);
; 473  :     } else
; 474  : #endif // _HAS_CXX20
; 475  :     {
; 476  :         ::new (static_cast<void*>(_STD addressof(_Obj))) _Ty(_STD forward<_Types>(_Args)...);

	mov	eax, DWORD PTR __Obj$[ebp]
	push	eax
	call	??$addressof@PAU?$_List_node@PAV?$Goal@VRaven_Bot@@@@PAX@std@@@std@@YAPAPAU?$_List_node@PAV?$Goal@VRaven_Bot@@@@PAX@0@AAPAU10@@Z ; std::addressof<std::_List_node<Goal<Raven_Bot> *,void *> *>
	add	esp, 4
	push	eax
	push	4
	call	??2@YAPAXIPAX@Z				; operator new
	add	esp, 8
	mov	DWORD PTR $T1[ebp], eax
	mov	ecx, DWORD PTR _<_Args_0>$[ebp]
	push	ecx
	call	??$forward@ABQAU?$_List_node@PAV?$Goal@VRaven_Bot@@@@PAX@std@@@std@@YAABQAU?$_List_node@PAV?$Goal@VRaven_Bot@@@@PAX@0@ABQAU10@@Z ; std::forward<std::_List_node<Goal<Raven_Bot> *,void *> * const &>
	add	esp, 4
	mov	edx, DWORD PTR $T1[ebp]
	mov	eax, DWORD PTR [eax]
	mov	DWORD PTR [edx], eax

; 477  :     }
; 478  : }

	add	esp, 4
	cmp	ebp, esp
	call	__RTC_CheckEsp
	mov	esp, ebp
	pop	ebp
	ret	0
??$_Construct_in_place@PAU?$_List_node@PAV?$Goal@VRaven_Bot@@@@PAX@std@@ABQAU12@@std@@YAXAAPAU?$_List_node@PAV?$Goal@VRaven_Bot@@@@PAX@0@ABQAU10@@Z ENDP ; std::_Construct_in_place<std::_List_node<Goal<Raven_Bot> *,void *> *,std::_List_node<Goal<Raven_Bot> *,void *> * const &>
_TEXT	ENDS
; Function compile flags: /Odtp /RTCsu
; File C:\Program Files\Microsoft Visual Studio\2022\Community\VC\Tools\MSVC\14.44.35207\include\xmemory
;	COMDAT ??$_Destroy_in_place@PAU?$_List_node@PAV?$Goal@VRaven_Bot@@@@PAX@std@@@std@@YAXAAPAU?$_List_node@PAV?$Goal@VRaven_Bot@@@@PAX@0@@Z
_TEXT	SEGMENT
__Obj$ = 8						; size = 4
??$_Destroy_in_place@PAU?$_List_node@PAV?$Goal@VRaven_Bot@@@@PAX@std@@@std@@YAXAAPAU?$_List_node@PAV?$Goal@VRaven_Bot@@@@PAX@0@@Z PROC ; std::_Destroy_in_place<std::_List_node<Goal<Raven_Bot> *,void *> *>, COMDAT

; 320  : _CONSTEXPR20 void _Destroy_in_place(_Ty& _Obj) noexcept {

	push	ebp
	mov	ebp, esp

; 321  :     if constexpr (is_array_v<_Ty>) {
; 322  :         _STD _Destroy_range(_Obj, _Obj + extent_v<_Ty>);
; 323  :     } else {
; 324  :         _Obj.~_Ty();
; 325  :     }
; 326  : }

	pop	ebp
	ret	0
??$_Destroy_in_place@PAU?$_List_node@PAV?$Goal@VRaven_Bot@@@@PAX@std@@@std@@YAXAAPAU?$_List_node@PAV?$Goal@VRaven_Bot@@@@PAX@0@@Z ENDP ; std::_Destroy_in_place<std::_List_node<Goal<Raven_Bot> *,void *> *>
_TEXT	ENDS
; Function compile flags: /Odtp /RTCsu
; File C:\Program Files\Microsoft Visual Studio\2022\Community\VC\Tools\MSVC\14.44.35207\include\type_traits
;	COMDAT ??$forward@AAPAU?$_List_node@PAV?$Goal@VRaven_Bot@@@@PAX@std@@@std@@YAAAPAU?$_List_node@PAV?$Goal@VRaven_Bot@@@@PAX@0@AAPAU10@@Z
_TEXT	SEGMENT
__Arg$ = 8						; size = 4
??$forward@AAPAU?$_List_node@PAV?$Goal@VRaven_Bot@@@@PAX@std@@@std@@YAAAPAU?$_List_node@PAV?$Goal@VRaven_Bot@@@@PAX@0@AAPAU10@@Z PROC ; std::forward<std::_List_node<Goal<Raven_Bot> *,void *> * &>, COMDAT

; 1501 : _NODISCARD _MSVC_INTRINSIC constexpr _Ty&& forward(remove_reference_t<_Ty>& _Arg) noexcept {

	push	ebp
	mov	ebp, esp

; 1502 :     return static_cast<_Ty&&>(_Arg);

	mov	eax, DWORD PTR __Arg$[ebp]

; 1503 : }

	pop	ebp
	ret	0
??$forward@AAPAU?$_List_node@PAV?$Goal@VRaven_Bot@@@@PAX@std@@@std@@YAAAPAU?$_List_node@PAV?$Goal@VRaven_Bot@@@@PAX@0@AAPAU10@@Z ENDP ; std::forward<std::_List_node<Goal<Raven_Bot> *,void *> * &>
_TEXT	ENDS
; Function compile flags: /Odtp /RTCsu
; File C:\Program Files\Microsoft Visual Studio\2022\Community\VC\Tools\MSVC\14.44.35207\include\type_traits
;	COMDAT ??$addressof@PAU?$_List_node@PAV?$Goal@VRaven_Bot@@@@PAX@std@@@std@@YAPAPAU?$_List_node@PAV?$Goal@VRaven_Bot@@@@PAX@0@AAPAU10@@Z
_TEXT	SEGMENT
__Val$ = 8						; size = 4
??$addressof@PAU?$_List_node@PAV?$Goal@VRaven_Bot@@@@PAX@std@@@std@@YAPAPAU?$_List_node@PAV?$Goal@VRaven_Bot@@@@PAX@0@AAPAU10@@Z PROC ; std::addressof<std::_List_node<Goal<Raven_Bot> *,void *> *>, COMDAT

; 1524 : _NODISCARD constexpr _Ty* addressof(_Ty& _Val) noexcept {

	push	ebp
	mov	ebp, esp

; 1525 :     return __builtin_addressof(_Val);

	mov	eax, DWORD PTR __Val$[ebp]

; 1526 : }

	pop	ebp
	ret	0
??$addressof@PAU?$_List_node@PAV?$Goal@VRaven_Bot@@@@PAX@std@@@std@@YAPAPAU?$_List_node@PAV?$Goal@VRaven_Bot@@@@PAX@0@AAPAU10@@Z ENDP ; std::addressof<std::_List_node<Goal<Raven_Bot> *,void *> *>
_TEXT	ENDS
; Function compile flags: /Odtp /RTCsu
; File C:\Program Files\Microsoft Visual Studio\2022\Community\VC\Tools\MSVC\14.44.35207\include\xmemory
;	COMDAT ??$_Allocate_manually_vector_aligned@U_Default_allocate_traits@std@@@std@@YAPAXI@Z
_TEXT	SEGMENT
__Ptr$ = -12						; size = 4
__Ptr_container$ = -8					; size = 4
__Block_size$ = -4					; size = 4
__Bytes$ = 8						; size = 4
??$_Allocate_manually_vector_aligned@U_Default_allocate_traits@std@@@std@@YAPAXI@Z PROC ; std::_Allocate_manually_vector_aligned<std::_Default_allocate_traits>, COMDAT

; 182  : __declspec(allocator) void* _Allocate_manually_vector_aligned(const size_t _Bytes) {

	push	ebp
	mov	ebp, esp
	sub	esp, 12					; 0000000cH
	mov	DWORD PTR [ebp-12], -858993460		; ccccccccH
	mov	DWORD PTR [ebp-8], -858993460		; ccccccccH
	mov	DWORD PTR [ebp-4], -858993460		; ccccccccH

; 183  :     // allocate _Bytes manually aligned to at least _Big_allocation_alignment
; 184  :     const size_t _Block_size = _Non_user_size + _Bytes;

	mov	eax, DWORD PTR __Bytes$[ebp]
	add	eax, 39					; 00000027H
	mov	DWORD PTR __Block_size$[ebp], eax

; 185  :     if (_Block_size <= _Bytes) {

	mov	ecx, DWORD PTR __Block_size$[ebp]
	cmp	ecx, DWORD PTR __Bytes$[ebp]
	ja	SHORT $LN2@Allocate_m

; 186  :         _Throw_bad_array_new_length(); // add overflow

	call	?_Throw_bad_array_new_length@std@@YAXXZ	; std::_Throw_bad_array_new_length
	npad	1
$LN2@Allocate_m:

; 187  :     }
; 188  : 
; 189  :     const uintptr_t _Ptr_container = reinterpret_cast<uintptr_t>(_Traits::_Allocate(_Block_size));

	mov	edx, DWORD PTR __Block_size$[ebp]
	push	edx
	call	?_Allocate@_Default_allocate_traits@std@@SAPAXI@Z ; std::_Default_allocate_traits::_Allocate
	add	esp, 4
	mov	DWORD PTR __Ptr_container$[ebp], eax

; 190  :     _STL_VERIFY(_Ptr_container != 0, "invalid argument"); // validate even in release since we're doing p[-1]

	cmp	DWORD PTR __Ptr_container$[ebp], 0
	jne	SHORT $LN3@Allocate_m
	push	OFFSET $SG206517
	push	OFFSET $SG206518
	push	0
	push	190					; 000000beH
	push	OFFSET $SG206519
	push	2
	call	__CrtDbgReport
	add	esp, 24					; 00000018H
	cmp	eax, 1
	jne	SHORT $LN5@Allocate_m
	int	3
$LN5@Allocate_m:
	push	0
	push	0
	push	0
	push	0
	push	0
	call	__invoke_watson
	npad	1
$LN3@Allocate_m:

; 191  :     void* const _Ptr = reinterpret_cast<void*>((_Ptr_container + _Non_user_size) & ~(_Big_allocation_alignment - 1));

	mov	ecx, DWORD PTR __Ptr_container$[ebp]
	add	ecx, 39					; 00000027H
	and	ecx, -32				; ffffffe0H
	mov	DWORD PTR __Ptr$[ebp], ecx

; 192  :     static_cast<uintptr_t*>(_Ptr)[-1] = _Ptr_container;

	mov	edx, 4
	imul	eax, edx, -1
	mov	ecx, DWORD PTR __Ptr$[ebp]
	mov	edx, DWORD PTR __Ptr_container$[ebp]
	mov	DWORD PTR [ecx+eax], edx

; 193  : 
; 194  : #ifdef _DEBUG
; 195  :     static_cast<uintptr_t*>(_Ptr)[-2] = _Big_allocation_sentinel;

	mov	eax, 4
	imul	ecx, eax, -2
	mov	edx, DWORD PTR __Ptr$[ebp]
	mov	DWORD PTR [edx+ecx], -84215046		; fafafafaH

; 196  : #endif // defined(_DEBUG)
; 197  :     return _Ptr;

	mov	eax, DWORD PTR __Ptr$[ebp]
$LN1@Allocate_m:

; 198  : }

	add	esp, 12					; 0000000cH
	cmp	ebp, esp
	call	__RTC_CheckEsp
	mov	esp, ebp
	pop	ebp
	ret	0
??$_Allocate_manually_vector_aligned@U_Default_allocate_traits@std@@@std@@YAPAXI@Z ENDP ; std::_Allocate_manually_vector_aligned<std::_Default_allocate_traits>
_TEXT	ENDS
; Function compile flags: /Odtp /RTCsu
; File C:\Program Files\Microsoft Visual Studio\2022\Community\VC\Tools\MSVC\14.44.35207\include\xmemory
;	COMDAT ??$construct@PAV?$Goal@VRaven_Bot@@@@ABQAV1@@?$_Default_allocator_traits@V?$allocator@U?$_List_node@PAV?$Goal@VRaven_Bot@@@@PAX@std@@@std@@@std@@SAXAAV?$allocator@U?$_List_node@PAV?$Goal@VRaven_Bot@@@@PAX@std@@@1@QAPAV?$Goal@VRaven_Bot@@@@ABQAV3@@Z
_TEXT	SEGMENT
$T1 = -4						; size = 4
___formal$ = 8						; size = 4
__Ptr$ = 12						; size = 4
_<_Args_0>$ = 16					; size = 4
??$construct@PAV?$Goal@VRaven_Bot@@@@ABQAV1@@?$_Default_allocator_traits@V?$allocator@U?$_List_node@PAV?$Goal@VRaven_Bot@@@@PAX@std@@@std@@@std@@SAXAAV?$allocator@U?$_List_node@PAV?$Goal@VRaven_Bot@@@@PAX@std@@@1@QAPAV?$Goal@VRaven_Bot@@@@ABQAV3@@Z PROC ; std::_Default_allocator_traits<std::allocator<std::_List_node<Goal<Raven_Bot> *,void *> > >::construct<Goal<Raven_Bot> *,Goal<Raven_Bot> * const &>, COMDAT

; 728  :     static _CONSTEXPR20 void construct(_Alloc&, _Objty* const _Ptr, _Types&&... _Args) {

	push	ebp
	mov	ebp, esp
	push	ecx
	mov	DWORD PTR [ebp-4], -858993460		; ccccccccH

; 729  : #if _HAS_CXX20
; 730  :         _STD construct_at(_Ptr, _STD forward<_Types>(_Args)...);
; 731  : #else // ^^^ _HAS_CXX20 / !_HAS_CXX20 vvv
; 732  :         ::new (const_cast<void*>(static_cast<const volatile void*>(_Ptr))) _Objty(_STD forward<_Types>(_Args)...);

	mov	eax, DWORD PTR __Ptr$[ebp]
	push	eax
	push	4
	call	??2@YAPAXIPAX@Z				; operator new
	add	esp, 8
	mov	DWORD PTR $T1[ebp], eax
	mov	ecx, DWORD PTR _<_Args_0>$[ebp]
	push	ecx
	call	??$forward@ABQAV?$Goal@VRaven_Bot@@@@@std@@YAABQAV?$Goal@VRaven_Bot@@@@ABQAV1@@Z ; std::forward<Goal<Raven_Bot> * const &>
	add	esp, 4
	mov	edx, DWORD PTR $T1[ebp]
	mov	eax, DWORD PTR [eax]
	mov	DWORD PTR [edx], eax

; 733  : #endif // ^^^ !_HAS_CXX20 ^^^
; 734  :     }

	add	esp, 4
	cmp	ebp, esp
	call	__RTC_CheckEsp
	mov	esp, ebp
	pop	ebp
	ret	0
??$construct@PAV?$Goal@VRaven_Bot@@@@ABQAV1@@?$_Default_allocator_traits@V?$allocator@U?$_List_node@PAV?$Goal@VRaven_Bot@@@@PAX@std@@@std@@@std@@SAXAAV?$allocator@U?$_List_node@PAV?$Goal@VRaven_Bot@@@@PAX@std@@@1@QAPAV?$Goal@VRaven_Bot@@@@ABQAV3@@Z ENDP ; std::_Default_allocator_traits<std::allocator<std::_List_node<Goal<Raven_Bot> *,void *> > >::construct<Goal<Raven_Bot> *,Goal<Raven_Bot> * const &>
_TEXT	ENDS
; Function compile flags: /Odtp /RTCsu
; File C:\Program Files\Microsoft Visual Studio\2022\Community\VC\Tools\MSVC\14.44.35207\include\xmemory
;	COMDAT ??$destroy@PAV?$Goal@VRaven_Bot@@@@@?$_Default_allocator_traits@V?$allocator@U?$_List_node@PAV?$Goal@VRaven_Bot@@@@PAX@std@@@std@@@std@@SAXAAV?$allocator@U?$_List_node@PAV?$Goal@VRaven_Bot@@@@PAX@std@@@1@QAPAV?$Goal@VRaven_Bot@@@@@Z
_TEXT	SEGMENT
___formal$ = 8						; size = 4
__Ptr$ = 12						; size = 4
??$destroy@PAV?$Goal@VRaven_Bot@@@@@?$_Default_allocator_traits@V?$allocator@U?$_List_node@PAV?$Goal@VRaven_Bot@@@@PAX@std@@@std@@@std@@SAXAAV?$allocator@U?$_List_node@PAV?$Goal@VRaven_Bot@@@@PAX@std@@@1@QAPAV?$Goal@VRaven_Bot@@@@@Z PROC ; std::_Default_allocator_traits<std::allocator<std::_List_node<Goal<Raven_Bot> *,void *> > >::destroy<Goal<Raven_Bot> *>, COMDAT

; 737  :     static _CONSTEXPR20 void destroy(_Alloc&, _Uty* const _Ptr) {

	push	ebp
	mov	ebp, esp

; 738  : #if _HAS_CXX20
; 739  :         _STD destroy_at(_Ptr);
; 740  : #else // ^^^ _HAS_CXX20 / !_HAS_CXX20 vvv
; 741  :         _Ptr->~_Uty();
; 742  : #endif // ^^^ !_HAS_CXX20 ^^^
; 743  :     }

	pop	ebp
	ret	0
??$destroy@PAV?$Goal@VRaven_Bot@@@@@?$_Default_allocator_traits@V?$allocator@U?$_List_node@PAV?$Goal@VRaven_Bot@@@@PAX@std@@@std@@@std@@SAXAAV?$allocator@U?$_List_node@PAV?$Goal@VRaven_Bot@@@@PAX@std@@@1@QAPAV?$Goal@VRaven_Bot@@@@@Z ENDP ; std::_Default_allocator_traits<std::allocator<std::_List_node<Goal<Raven_Bot> *,void *> > >::destroy<Goal<Raven_Bot> *>
_TEXT	ENDS
; Function compile flags: /Odtp /RTCsu
; File C:\Program Files\Microsoft Visual Studio\2022\Community\VC\Tools\MSVC\14.44.35207\include\type_traits
;	COMDAT ??$addressof@PAV?$Goal@VRaven_Bot@@@@@std@@YAPAPAV?$Goal@VRaven_Bot@@@@AAPAV1@@Z
_TEXT	SEGMENT
__Val$ = 8						; size = 4
??$addressof@PAV?$Goal@VRaven_Bot@@@@@std@@YAPAPAV?$Goal@VRaven_Bot@@@@AAPAV1@@Z PROC ; std::addressof<Goal<Raven_Bot> *>, COMDAT

; 1524 : _NODISCARD constexpr _Ty* addressof(_Ty& _Val) noexcept {

	push	ebp
	mov	ebp, esp

; 1525 :     return __builtin_addressof(_Val);

	mov	eax, DWORD PTR __Val$[ebp]

; 1526 : }

	pop	ebp
	ret	0
??$addressof@PAV?$Goal@VRaven_Bot@@@@@std@@YAPAPAV?$Goal@VRaven_Bot@@@@AAPAV1@@Z ENDP ; std::addressof<Goal<Raven_Bot> *>
_TEXT	ENDS
; Function compile flags: /Odtp /RTCsu
; File C:\Program Files\Microsoft Visual Studio\2022\Community\VC\Tools\MSVC\14.44.35207\include\utility
;	COMDAT ??$_Max_limit@H@std@@YAHXZ
_TEXT	SEGMENT
__Unsigned_max$1 = -4					; size = 4
??$_Max_limit@H@std@@YAHXZ PROC				; std::_Max_limit<int>, COMDAT

; 863  : _NODISCARD constexpr _Ty _Max_limit() noexcept { // same as (numeric_limits<_Ty>::max)(), less throughput cost

	push	ebp
	mov	ebp, esp
	push	ecx

; 864  :     _STL_INTERNAL_STATIC_ASSERT(is_integral_v<_Ty>); // doesn't attempt to handle all types
; 865  :     if constexpr (is_signed_v<_Ty>) {
; 866  :         constexpr auto _Unsigned_max = static_cast<make_unsigned_t<_Ty>>(-1);

	mov	DWORD PTR __Unsigned_max$1[ebp], -1

; 867  :         return static_cast<_Ty>(_Unsigned_max >> 1);

	mov	eax, 2147483647				; 7fffffffH

; 868  :     } else {
; 869  :         return static_cast<_Ty>(-1);
; 870  :     }
; 871  : }

	mov	esp, ebp
	pop	ebp
	ret	0
??$_Max_limit@H@std@@YAHXZ ENDP				; std::_Max_limit<int>
_TEXT	ENDS
; Function compile flags: /Odtp /RTCsu
; File C:\Program Files\Microsoft Visual Studio\2022\Community\VC\Tools\MSVC\14.44.35207\include\xmemory
;	COMDAT ??$_Destroy_in_place@PAD@std@@YAXAAPAD@Z
_TEXT	SEGMENT
__Obj$ = 8						; size = 4
??$_Destroy_in_place@PAD@std@@YAXAAPAD@Z PROC		; std::_Destroy_in_place<char *>, COMDAT

; 320  : _CONSTEXPR20 void _Destroy_in_place(_Ty& _Obj) noexcept {

	push	ebp
	mov	ebp, esp

; 321  :     if constexpr (is_array_v<_Ty>) {
; 322  :         _STD _Destroy_range(_Obj, _Obj + extent_v<_Ty>);
; 323  :     } else {
; 324  :         _Obj.~_Ty();
; 325  :     }
; 326  : }

	pop	ebp
	ret	0
??$_Destroy_in_place@PAD@std@@YAXAAPAD@Z ENDP		; std::_Destroy_in_place<char *>
_TEXT	ENDS
; Function compile flags: /Odtp /RTCsu
; File C:\Program Files\Microsoft Visual Studio\2022\Community\VC\Tools\MSVC\14.44.35207\include\xmemory
;	COMDAT ??$_Deallocate@$07@std@@YAXPAXI@Z
_TEXT	SEGMENT
__$EHRec$ = -12						; size = 12
__Ptr$ = 8						; size = 4
__Bytes$ = 12						; size = 4
??$_Deallocate@$07@std@@YAXPAXI@Z PROC			; std::_Deallocate<8>, COMDAT

; 261  : _CONSTEXPR20 void _Deallocate(void* _Ptr, size_t _Bytes) noexcept {

	push	ebp
	mov	ebp, esp
	push	-1
	push	__ehhandler$??$_Deallocate@$07@std@@YAXPAXI@Z
	mov	eax, DWORD PTR fs:0
	push	eax
	mov	eax, DWORD PTR ___security_cookie
	xor	eax, ebp
	push	eax
	lea	eax, DWORD PTR __$EHRec$[ebp]
	mov	DWORD PTR fs:0, eax

; 262  :     // deallocate storage allocated by _Allocate
; 263  : #if _HAS_CXX20 // TRANSITION, GH-1532
; 264  :     if (_STD is_constant_evaluated()) {
; 265  :         ::operator delete(_Ptr);
; 266  :         return;
; 267  :     }
; 268  : #endif // _HAS_CXX20
; 269  : 
; 270  : #ifdef __cpp_aligned_new
; 271  :     if constexpr (_Align > __STDCPP_DEFAULT_NEW_ALIGNMENT__) {
; 272  :         size_t _Passed_align = _Align;
; 273  : #if defined(_M_IX86) || defined(_M_X64)
; 274  :         if (_Bytes >= _Big_allocation_threshold) {
; 275  :             // boost the alignment of big allocations to help autovectorization
; 276  :             _Passed_align = (_STD max)(_Align, _Big_allocation_alignment);
; 277  :         }
; 278  : #endif // defined(_M_IX86) || defined(_M_X64)
; 279  :         ::operator delete(_Ptr, _Bytes, align_val_t{_Passed_align});
; 280  :     } else
; 281  : #endif // defined(__cpp_aligned_new)
; 282  :     {
; 283  : #if defined(_M_IX86) || defined(_M_X64)
; 284  :         if (_Bytes >= _Big_allocation_threshold) {

	cmp	DWORD PTR __Bytes$[ebp], 4096		; 00001000H
	jb	SHORT $LN2@Deallocate

; 285  :             // boost the alignment of big allocations to help autovectorization
; 286  :             _Adjust_manually_vector_aligned(_Ptr, _Bytes);

	lea	eax, DWORD PTR __Bytes$[ebp]
	push	eax
	lea	ecx, DWORD PTR __Ptr$[ebp]
	push	ecx
	call	?_Adjust_manually_vector_aligned@std@@YAXAAPAXAAI@Z ; std::_Adjust_manually_vector_aligned
	add	esp, 8
$LN2@Deallocate:

; 287  :         }
; 288  : #endif // defined(_M_IX86) || defined(_M_X64)
; 289  :         ::operator delete(_Ptr, _Bytes);

	mov	edx, DWORD PTR __Bytes$[ebp]
	push	edx
	mov	eax, DWORD PTR __Ptr$[ebp]
	push	eax
	call	??3@YAXPAXI@Z				; operator delete
	add	esp, 8

; 290  :     }
; 291  : }

	mov	ecx, DWORD PTR __$EHRec$[ebp]
	mov	DWORD PTR fs:0, ecx
	pop	ecx
	add	esp, 12					; 0000000cH
	cmp	ebp, esp
	call	__RTC_CheckEsp
	mov	esp, ebp
	pop	ebp
	ret	0
	int	3
	int	3
	int	3
	int	3
	int	3
_TEXT	ENDS
;	COMDAT text$x
text$x	SEGMENT
__ehhandler$??$_Deallocate@$07@std@@YAXPAXI@Z:
	npad	1
	npad	1
	mov	edx, DWORD PTR [esp+8]
	lea	eax, DWORD PTR [edx+12]
	mov	ecx, DWORD PTR [edx-4]
	xor	ecx, eax
	call	@__security_check_cookie@4
	mov	eax, OFFSET __ehfuncinfo$??$_Deallocate@$07@std@@YAXPAXI@Z
	jmp	___CxxFrameHandler3
text$x	ENDS
??$_Deallocate@$07@std@@YAXPAXI@Z ENDP			; std::_Deallocate<8>
; Function compile flags: /Odtp /RTCsu
; File C:\Program Files\Microsoft Visual Studio\2022\Community\VC\Tools\MSVC\14.44.35207\include\type_traits
;	COMDAT ??$addressof@$$CBV?$_List_val@U?$_List_simple_types@PAV?$Goal@VRaven_Bot@@@@@std@@@std@@@std@@YAPBV?$_List_val@U?$_List_simple_types@PAV?$Goal@VRaven_Bot@@@@@std@@@0@ABV10@@Z
_TEXT	SEGMENT
__Val$ = 8						; size = 4
??$addressof@$$CBV?$_List_val@U?$_List_simple_types@PAV?$Goal@VRaven_Bot@@@@@std@@@std@@@std@@YAPBV?$_List_val@U?$_List_simple_types@PAV?$Goal@VRaven_Bot@@@@@std@@@0@ABV10@@Z PROC ; std::addressof<std::_List_val<std::_List_simple_types<Goal<Raven_Bot> *> > const >, COMDAT

; 1524 : _NODISCARD constexpr _Ty* addressof(_Ty& _Val) noexcept {

	push	ebp
	mov	ebp, esp

; 1525 :     return __builtin_addressof(_Val);

	mov	eax, DWORD PTR __Val$[ebp]

; 1526 : }

	pop	ebp
	ret	0
??$addressof@$$CBV?$_List_val@U?$_List_simple_types@PAV?$Goal@VRaven_Bot@@@@@std@@@std@@@std@@YAPBV?$_List_val@U?$_List_simple_types@PAV?$Goal@VRaven_Bot@@@@@std@@@0@ABV10@@Z ENDP ; std::addressof<std::_List_val<std::_List_simple_types<Goal<Raven_Bot> *> > const >
_TEXT	ENDS
; Function compile flags: /Odtp /RTCsu
; File C:\Program Files\Microsoft Visual Studio\2022\Community\VC\Tools\MSVC\14.44.35207\include\list
;	COMDAT ??$_Freenode0@V?$allocator@U?$_List_node@PAV?$Goal@VRaven_Bot@@@@PAX@std@@@std@@@?$_List_node@PAV?$Goal@VRaven_Bot@@@@PAX@std@@SAXAAV?$allocator@U?$_List_node@PAV?$Goal@VRaven_Bot@@@@PAX@std@@@1@PAU01@@Z
_TEXT	SEGMENT
__Al$ = 8						; size = 4
__Ptr$ = 12						; size = 4
??$_Freenode0@V?$allocator@U?$_List_node@PAV?$Goal@VRaven_Bot@@@@PAX@std@@@std@@@?$_List_node@PAV?$Goal@VRaven_Bot@@@@PAX@std@@SAXAAV?$allocator@U?$_List_node@PAV?$Goal@VRaven_Bot@@@@PAX@std@@@1@PAU01@@Z PROC ; std::_List_node<Goal<Raven_Bot> *,void *>::_Freenode0<std::allocator<std::_List_node<Goal<Raven_Bot> *,void *> > >, COMDAT

; 307  :     static void _Freenode0(_Alnode& _Al, _Nodeptr _Ptr) noexcept {

	push	ebp
	mov	ebp, esp

; 308  :         // destroy pointer members in _Ptr and deallocate with _Al
; 309  :         static_assert(is_same_v<typename _Alnode::value_type, _List_node>, "Bad _Freenode0 call");
; 310  :         _Destroy_in_place(_Ptr->_Next);

	mov	eax, DWORD PTR __Ptr$[ebp]
	push	eax
	call	??$_Destroy_in_place@PAU?$_List_node@PAV?$Goal@VRaven_Bot@@@@PAX@std@@@std@@YAXAAPAU?$_List_node@PAV?$Goal@VRaven_Bot@@@@PAX@0@@Z ; std::_Destroy_in_place<std::_List_node<Goal<Raven_Bot> *,void *> *>
	add	esp, 4

; 311  :         _Destroy_in_place(_Ptr->_Prev);

	mov	ecx, DWORD PTR __Ptr$[ebp]
	add	ecx, 4
	push	ecx
	call	??$_Destroy_in_place@PAU?$_List_node@PAV?$Goal@VRaven_Bot@@@@PAX@std@@@std@@YAXAAPAU?$_List_node@PAV?$Goal@VRaven_Bot@@@@PAX@0@@Z ; std::_Destroy_in_place<std::_List_node<Goal<Raven_Bot> *,void *> *>
	add	esp, 4

; 312  :         allocator_traits<_Alnode>::deallocate(_Al, _Ptr, 1);

	push	1
	mov	edx, DWORD PTR __Ptr$[ebp]
	push	edx
	mov	eax, DWORD PTR __Al$[ebp]
	push	eax
	call	?deallocate@?$_Default_allocator_traits@V?$allocator@U?$_List_node@PAV?$Goal@VRaven_Bot@@@@PAX@std@@@std@@@std@@SAXAAV?$allocator@U?$_List_node@PAV?$Goal@VRaven_Bot@@@@PAX@std@@@2@QAU?$_List_node@PAV?$Goal@VRaven_Bot@@@@PAX@2@I@Z ; std::_Default_allocator_traits<std::allocator<std::_List_node<Goal<Raven_Bot> *,void *> > >::deallocate
	add	esp, 12					; 0000000cH

; 313  :     }

	cmp	ebp, esp
	call	__RTC_CheckEsp
	pop	ebp
	ret	0
??$_Freenode0@V?$allocator@U?$_List_node@PAV?$Goal@VRaven_Bot@@@@PAX@std@@@std@@@?$_List_node@PAV?$Goal@VRaven_Bot@@@@PAX@std@@SAXAAV?$allocator@U?$_List_node@PAV?$Goal@VRaven_Bot@@@@PAX@std@@@1@PAU01@@Z ENDP ; std::_List_node<Goal<Raven_Bot> *,void *>::_Freenode0<std::allocator<std::_List_node<Goal<Raven_Bot> *,void *> > >
_TEXT	ENDS
; Function compile flags: /Odtp /RTCsu
; File C:\Program Files\Microsoft Visual Studio\2022\Community\VC\Tools\MSVC\14.44.35207\include\xutility
;	COMDAT ??$_Construct_in_place@PAU?$_List_node@PAV?$Goal@VRaven_Bot@@@@PAX@std@@AAPAU12@@std@@YAXAAPAU?$_List_node@PAV?$Goal@VRaven_Bot@@@@PAX@0@0@Z
_TEXT	SEGMENT
$T1 = -4						; size = 4
__Obj$ = 8						; size = 4
_<_Args_0>$ = 12					; size = 4
??$_Construct_in_place@PAU?$_List_node@PAV?$Goal@VRaven_Bot@@@@PAX@std@@AAPAU12@@std@@YAXAAPAU?$_List_node@PAV?$Goal@VRaven_Bot@@@@PAX@0@0@Z PROC ; std::_Construct_in_place<std::_List_node<Goal<Raven_Bot> *,void *> *,std::_List_node<Goal<Raven_Bot> *,void *> * &>, COMDAT

; 469  :     noexcept(is_nothrow_constructible_v<_Ty, _Types...>) {

	push	ebp
	mov	ebp, esp
	push	ecx
	mov	DWORD PTR [ebp-4], -858993460		; ccccccccH

; 470  : #if _HAS_CXX20
; 471  :     if (_STD is_constant_evaluated()) {
; 472  :         _STD construct_at(_STD addressof(_Obj), _STD forward<_Types>(_Args)...);
; 473  :     } else
; 474  : #endif // _HAS_CXX20
; 475  :     {
; 476  :         ::new (static_cast<void*>(_STD addressof(_Obj))) _Ty(_STD forward<_Types>(_Args)...);

	mov	eax, DWORD PTR __Obj$[ebp]
	push	eax
	call	??$addressof@PAU?$_List_node@PAV?$Goal@VRaven_Bot@@@@PAX@std@@@std@@YAPAPAU?$_List_node@PAV?$Goal@VRaven_Bot@@@@PAX@0@AAPAU10@@Z ; std::addressof<std::_List_node<Goal<Raven_Bot> *,void *> *>
	add	esp, 4
	push	eax
	push	4
	call	??2@YAPAXIPAX@Z				; operator new
	add	esp, 8
	mov	DWORD PTR $T1[ebp], eax
	mov	ecx, DWORD PTR _<_Args_0>$[ebp]
	push	ecx
	call	??$forward@AAPAU?$_List_node@PAV?$Goal@VRaven_Bot@@@@PAX@std@@@std@@YAAAPAU?$_List_node@PAV?$Goal@VRaven_Bot@@@@PAX@0@AAPAU10@@Z ; std::forward<std::_List_node<Goal<Raven_Bot> *,void *> * &>
	add	esp, 4
	mov	edx, DWORD PTR $T1[ebp]
	mov	eax, DWORD PTR [eax]
	mov	DWORD PTR [edx], eax

; 477  :     }
; 478  : }

	add	esp, 4
	cmp	ebp, esp
	call	__RTC_CheckEsp
	mov	esp, ebp
	pop	ebp
	ret	0
??$_Construct_in_place@PAU?$_List_node@PAV?$Goal@VRaven_Bot@@@@PAX@std@@AAPAU12@@std@@YAXAAPAU?$_List_node@PAV?$Goal@VRaven_Bot@@@@PAX@0@0@Z ENDP ; std::_Construct_in_place<std::_List_node<Goal<Raven_Bot> *,void *> *,std::_List_node<Goal<Raven_Bot> *,void *> * &>
_TEXT	ENDS
; Function compile flags: /Odtp /RTCsu
; File C:\Program Files\Microsoft Visual Studio\2022\Community\VC\Tools\MSVC\14.44.35207\include\type_traits
;	COMDAT ??$move@AAV?$_List_const_iterator@V?$_List_val@U?$_List_simple_types@PAV?$Goal@VRaven_Bot@@@@@std@@@std@@@std@@@std@@YA$$QAV?$_List_const_iterator@V?$_List_val@U?$_List_simple_types@PAV?$Goal@VRaven_Bot@@@@@std@@@std@@@0@AAV10@@Z
_TEXT	SEGMENT
__Arg$ = 8						; size = 4
??$move@AAV?$_List_const_iterator@V?$_List_val@U?$_List_simple_types@PAV?$Goal@VRaven_Bot@@@@@std@@@std@@@std@@@std@@YA$$QAV?$_List_const_iterator@V?$_List_val@U?$_List_simple_types@PAV?$Goal@VRaven_Bot@@@@@std@@@std@@@0@AAV10@@Z PROC ; std::move<std::_List_const_iterator<std::_List_val<std::_List_simple_types<Goal<Raven_Bot> *> > > &>, COMDAT

; 1512 : _NODISCARD _MSVC_INTRINSIC constexpr remove_reference_t<_Ty>&& move(_Ty&& _Arg) noexcept {

	push	ebp
	mov	ebp, esp

; 1513 :     return static_cast<remove_reference_t<_Ty>&&>(_Arg);

	mov	eax, DWORD PTR __Arg$[ebp]

; 1514 : }

	pop	ebp
	ret	0
??$move@AAV?$_List_const_iterator@V?$_List_val@U?$_List_simple_types@PAV?$Goal@VRaven_Bot@@@@@std@@@std@@@std@@@std@@YA$$QAV?$_List_const_iterator@V?$_List_val@U?$_List_simple_types@PAV?$Goal@VRaven_Bot@@@@@std@@@std@@@0@AAV10@@Z ENDP ; std::move<std::_List_const_iterator<std::_List_val<std::_List_simple_types<Goal<Raven_Bot> *> > > &>
_TEXT	ENDS
; Function compile flags: /Odtp /RTCsu
; File C:\Program Files\Microsoft Visual Studio\2022\Community\VC\Tools\MSVC\14.44.35207\include\xmemory
;	COMDAT ??$_Allocate@$07U_Default_allocate_traits@std@@@std@@YAPAXI@Z
_TEXT	SEGMENT
__Bytes$ = 8						; size = 4
??$_Allocate@$07U_Default_allocate_traits@std@@@std@@YAPAXI@Z PROC ; std::_Allocate<8,std::_Default_allocate_traits>, COMDAT

; 225  : __declspec(allocator) _CONSTEXPR20 void* _Allocate(const size_t _Bytes) {

	push	ebp
	mov	ebp, esp

; 226  :     // allocate _Bytes
; 227  :     if (_Bytes == 0) {

	cmp	DWORD PTR __Bytes$[ebp], 0
	jne	SHORT $LN2@Allocate

; 228  :         return nullptr;

	xor	eax, eax
	jmp	SHORT $LN1@Allocate
$LN2@Allocate:

; 229  :     }
; 230  : 
; 231  : #if _HAS_CXX20 // TRANSITION, GH-1532
; 232  :     if (_STD is_constant_evaluated()) {
; 233  :         return _Traits::_Allocate(_Bytes);
; 234  :     }
; 235  : #endif // _HAS_CXX20
; 236  : 
; 237  : #ifdef __cpp_aligned_new
; 238  :     if constexpr (_Align > __STDCPP_DEFAULT_NEW_ALIGNMENT__) {
; 239  :         size_t _Passed_align = _Align;
; 240  : #if defined(_M_IX86) || defined(_M_X64)
; 241  :         if (_Bytes >= _Big_allocation_threshold) {
; 242  :             // boost the alignment of big allocations to help autovectorization
; 243  :             _Passed_align = (_STD max)(_Align, _Big_allocation_alignment);
; 244  :         }
; 245  : #endif // defined(_M_IX86) || defined(_M_X64)
; 246  :         return _Traits::_Allocate_aligned(_Bytes, _Passed_align);
; 247  :     } else
; 248  : #endif // defined(__cpp_aligned_new)
; 249  :     {
; 250  : #if defined(_M_IX86) || defined(_M_X64)
; 251  :         if (_Bytes >= _Big_allocation_threshold) {

	cmp	DWORD PTR __Bytes$[ebp], 4096		; 00001000H
	jb	SHORT $LN3@Allocate

; 252  :             // boost the alignment of big allocations to help autovectorization
; 253  :             return _Allocate_manually_vector_aligned<_Traits>(_Bytes);

	mov	eax, DWORD PTR __Bytes$[ebp]
	push	eax
	call	??$_Allocate_manually_vector_aligned@U_Default_allocate_traits@std@@@std@@YAPAXI@Z ; std::_Allocate_manually_vector_aligned<std::_Default_allocate_traits>
	add	esp, 4
	jmp	SHORT $LN1@Allocate
$LN3@Allocate:

; 254  :         }
; 255  : #endif // defined(_M_IX86) || defined(_M_X64)
; 256  :         return _Traits::_Allocate(_Bytes);

	mov	ecx, DWORD PTR __Bytes$[ebp]
	push	ecx
	call	?_Allocate@_Default_allocate_traits@std@@SAPAXI@Z ; std::_Default_allocate_traits::_Allocate
	add	esp, 4
$LN1@Allocate:

; 257  :     }
; 258  : }

	cmp	ebp, esp
	call	__RTC_CheckEsp
	pop	ebp
	ret	0
??$_Allocate@$07U_Default_allocate_traits@std@@@std@@YAPAXI@Z ENDP ; std::_Allocate<8,std::_Default_allocate_traits>
_TEXT	ENDS
; Function compile flags: /Odtp /RTCsu
; File C:\Program Files\Microsoft Visual Studio\2022\Community\VC\Tools\MSVC\14.44.35207\include\xmemory
;	COMDAT ??$_Get_size_of_n@$07@std@@YAII@Z
_TEXT	SEGMENT
__Max_possible$1 = -8					; size = 4
__Overflow_is_possible$ = -1				; size = 1
__Count$ = 8						; size = 4
??$_Get_size_of_n@$07@std@@YAII@Z PROC			; std::_Get_size_of_n<8>, COMDAT

; 112  : _NODISCARD constexpr size_t _Get_size_of_n(const size_t _Count) {

	push	ebp
	mov	ebp, esp
	sub	esp, 8
	mov	DWORD PTR [ebp-8], -858993460		; ccccccccH
	mov	DWORD PTR [ebp-4], -858993460		; ccccccccH

; 113  :     constexpr bool _Overflow_is_possible = _Ty_size > 1;

	mov	BYTE PTR __Overflow_is_possible$[ebp], 1

; 114  : 
; 115  :     if constexpr (_Overflow_is_possible) {
; 116  :         constexpr size_t _Max_possible = static_cast<size_t>(-1) / _Ty_size;

	mov	DWORD PTR __Max_possible$1[ebp], 536870911 ; 1fffffffH

; 117  :         if (_Count > _Max_possible) {

	cmp	DWORD PTR __Count$[ebp], 536870911	; 1fffffffH
	jbe	SHORT $LN2@Get_size_o

; 118  :             _Throw_bad_array_new_length(); // multiply overflow

	call	?_Throw_bad_array_new_length@std@@YAXXZ	; std::_Throw_bad_array_new_length
	npad	1
$LN2@Get_size_o:

; 119  :         }
; 120  :     }
; 121  : 
; 122  :     return _Count * _Ty_size;

	mov	eax, DWORD PTR __Count$[ebp]
	shl	eax, 3
$LN1@Get_size_o:

; 123  : }

	add	esp, 8
	cmp	ebp, esp
	call	__RTC_CheckEsp
	mov	esp, ebp
	pop	ebp
	ret	0
??$_Get_size_of_n@$07@std@@YAII@Z ENDP			; std::_Get_size_of_n<8>
_TEXT	ENDS
; Function compile flags: /Odtp /RTCsu
; File C:\Program Files\Microsoft Visual Studio\2022\Community\VC\Tools\MSVC\14.44.35207\include\type_traits
;	COMDAT ??$addressof@U_Container_base12@std@@@std@@YAPAU_Container_base12@0@AAU10@@Z
_TEXT	SEGMENT
__Val$ = 8						; size = 4
??$addressof@U_Container_base12@std@@@std@@YAPAU_Container_base12@0@AAU10@@Z PROC ; std::addressof<std::_Container_base12>, COMDAT

; 1524 : _NODISCARD constexpr _Ty* addressof(_Ty& _Val) noexcept {

	push	ebp
	mov	ebp, esp

; 1525 :     return __builtin_addressof(_Val);

	mov	eax, DWORD PTR __Val$[ebp]

; 1526 : }

	pop	ebp
	ret	0
??$addressof@U_Container_base12@std@@@std@@YAPAU_Container_base12@0@AAU10@@Z ENDP ; std::addressof<std::_Container_base12>
_TEXT	ENDS
; Function compile flags: /Odtp /RTCsu
; File C:\Program Files\Microsoft Visual Studio\2022\Community\VC\Tools\MSVC\14.44.35207\include\list
;	COMDAT ??$?0ABQAV?$Goal@VRaven_Bot@@@@@?$_List_node_emplace_op2@V?$allocator@U?$_List_node@PAV?$Goal@VRaven_Bot@@@@PAX@std@@@std@@@std@@QAE@AAV?$allocator@U?$_List_node@PAV?$Goal@VRaven_Bot@@@@PAX@std@@@1@ABQAV?$Goal@VRaven_Bot@@@@@Z
_TEXT	SEGMENT
_this$ = -16						; size = 4
__$EHRec$ = -12						; size = 12
__Al_$ = 8						; size = 4
_<_Vals_0>$ = 12					; size = 4
??$?0ABQAV?$Goal@VRaven_Bot@@@@@?$_List_node_emplace_op2@V?$allocator@U?$_List_node@PAV?$Goal@VRaven_Bot@@@@PAX@std@@@std@@@std@@QAE@AAV?$allocator@U?$_List_node@PAV?$Goal@VRaven_Bot@@@@PAX@std@@@1@ABQAV?$Goal@VRaven_Bot@@@@@Z PROC ; std::_List_node_emplace_op2<std::allocator<std::_List_node<Goal<Raven_Bot> *,void *> > >::_List_node_emplace_op2<std::allocator<std::_List_node<Goal<Raven_Bot> *,void *> > ><Goal<Raven_Bot> * const &>, COMDAT
; _this$ = ecx

; 593  :     explicit _List_node_emplace_op2(_Alnode& _Al_, _Valtys&&... _Vals) : _Alloc_construct_ptr<_Alnode>(_Al_) {

	push	ebp
	mov	ebp, esp
	push	-1
	push	__ehhandler$??$?0ABQAV?$Goal@VRaven_Bot@@@@@?$_List_node_emplace_op2@V?$allocator@U?$_List_node@PAV?$Goal@VRaven_Bot@@@@PAX@std@@@std@@@std@@QAE@AAV?$allocator@U?$_List_node@PAV?$Goal@VRaven_Bot@@@@PAX@std@@@1@ABQAV?$Goal@VRaven_Bot@@@@@Z
	mov	eax, DWORD PTR fs:0
	push	eax
	push	ecx
	mov	DWORD PTR [ebp-16], -858993460		; ccccccccH
	mov	eax, DWORD PTR ___security_cookie
	xor	eax, ebp
	push	eax
	lea	eax, DWORD PTR __$EHRec$[ebp]
	mov	DWORD PTR fs:0, eax
	mov	DWORD PTR _this$[ebp], ecx
	mov	eax, DWORD PTR __Al_$[ebp]
	push	eax
	mov	ecx, DWORD PTR _this$[ebp]
	call	??0?$_Alloc_construct_ptr@V?$allocator@U?$_List_node@PAV?$Goal@VRaven_Bot@@@@PAX@std@@@std@@@std@@QAE@AAV?$allocator@U?$_List_node@PAV?$Goal@VRaven_Bot@@@@PAX@std@@@1@@Z ; std::_Alloc_construct_ptr<std::allocator<std::_List_node<Goal<Raven_Bot> *,void *> > >::_Alloc_construct_ptr<std::allocator<std::_List_node<Goal<Raven_Bot> *,void *> > >
	mov	DWORD PTR __$EHRec$[ebp+8], 0

; 594  :         this->_Allocate();

	mov	ecx, DWORD PTR _this$[ebp]
	call	?_Allocate@?$_Alloc_construct_ptr@V?$allocator@U?$_List_node@PAV?$Goal@VRaven_Bot@@@@PAX@std@@@std@@@std@@QAEXXZ ; std::_Alloc_construct_ptr<std::allocator<std::_List_node<Goal<Raven_Bot> *,void *> > >::_Allocate

; 595  :         _Alnode_traits::construct(this->_Al, _STD addressof(this->_Ptr->_Myval), _STD forward<_Valtys>(_Vals)...);

	mov	ecx, DWORD PTR _<_Vals_0>$[ebp]
	push	ecx
	call	??$forward@ABQAV?$Goal@VRaven_Bot@@@@@std@@YAABQAV?$Goal@VRaven_Bot@@@@ABQAV1@@Z ; std::forward<Goal<Raven_Bot> * const &>
	add	esp, 4
	push	eax
	mov	edx, DWORD PTR _this$[ebp]
	mov	eax, DWORD PTR [edx+4]
	add	eax, 8
	push	eax
	call	??$addressof@PAV?$Goal@VRaven_Bot@@@@@std@@YAPAPAV?$Goal@VRaven_Bot@@@@AAPAV1@@Z ; std::addressof<Goal<Raven_Bot> *>
	add	esp, 4
	push	eax
	mov	ecx, DWORD PTR _this$[ebp]
	mov	edx, DWORD PTR [ecx]
	push	edx
	call	??$construct@PAV?$Goal@VRaven_Bot@@@@ABQAV1@@?$_Default_allocator_traits@V?$allocator@U?$_List_node@PAV?$Goal@VRaven_Bot@@@@PAX@std@@@std@@@std@@SAXAAV?$allocator@U?$_List_node@PAV?$Goal@VRaven_Bot@@@@PAX@std@@@1@QAPAV?$Goal@VRaven_Bot@@@@ABQAV3@@Z ; std::_Default_allocator_traits<std::allocator<std::_List_node<Goal<Raven_Bot> *,void *> > >::construct<Goal<Raven_Bot> *,Goal<Raven_Bot> * const &>
	add	esp, 12					; 0000000cH

; 596  :     }

	mov	DWORD PTR __$EHRec$[ebp+8], -1
	mov	eax, DWORD PTR _this$[ebp]
	mov	ecx, DWORD PTR __$EHRec$[ebp]
	mov	DWORD PTR fs:0, ecx
	pop	ecx
	add	esp, 16					; 00000010H
	cmp	ebp, esp
	call	__RTC_CheckEsp
	mov	esp, ebp
	pop	ebp
	ret	8
_TEXT	ENDS
;	COMDAT text$x
text$x	SEGMENT
__unwindfunclet$??$?0ABQAV?$Goal@VRaven_Bot@@@@@?$_List_node_emplace_op2@V?$allocator@U?$_List_node@PAV?$Goal@VRaven_Bot@@@@PAX@std@@@std@@@std@@QAE@AAV?$allocator@U?$_List_node@PAV?$Goal@VRaven_Bot@@@@PAX@std@@@1@ABQAV?$Goal@VRaven_Bot@@@@@Z$0:
	mov	ecx, DWORD PTR _this$[ebp]
	jmp	??1?$_Alloc_construct_ptr@V?$allocator@U?$_List_node@PAV?$Goal@VRaven_Bot@@@@PAX@std@@@std@@@std@@QAE@XZ ; std::_Alloc_construct_ptr<std::allocator<std::_List_node<Goal<Raven_Bot> *,void *> > >::~_Alloc_construct_ptr<std::allocator<std::_List_node<Goal<Raven_Bot> *,void *> > >
	int	3
	int	3
	int	3
	int	3
	int	3
__ehhandler$??$?0ABQAV?$Goal@VRaven_Bot@@@@@?$_List_node_emplace_op2@V?$allocator@U?$_List_node@PAV?$Goal@VRaven_Bot@@@@PAX@std@@@std@@@std@@QAE@AAV?$allocator@U?$_List_node@PAV?$Goal@VRaven_Bot@@@@PAX@std@@@1@ABQAV?$Goal@VRaven_Bot@@@@@Z:
	npad	1
	npad	1
	mov	edx, DWORD PTR [esp+8]
	lea	eax, DWORD PTR [edx+12]
	mov	ecx, DWORD PTR [edx-8]
	xor	ecx, eax
	call	@__security_check_cookie@4
	mov	eax, OFFSET __ehfuncinfo$??$?0ABQAV?$Goal@VRaven_Bot@@@@@?$_List_node_emplace_op2@V?$allocator@U?$_List_node@PAV?$Goal@VRaven_Bot@@@@PAX@std@@@std@@@std@@QAE@AAV?$allocator@U?$_List_node@PAV?$Goal@VRaven_Bot@@@@PAX@std@@@1@ABQAV?$Goal@VRaven_Bot@@@@@Z
	jmp	___CxxFrameHandler3
text$x	ENDS
??$?0ABQAV?$Goal@VRaven_Bot@@@@@?$_List_node_emplace_op2@V?$allocator@U?$_List_node@PAV?$Goal@VRaven_Bot@@@@PAX@std@@@std@@@std@@QAE@AAV?$allocator@U?$_List_node@PAV?$Goal@VRaven_Bot@@@@PAX@std@@@1@ABQAV?$Goal@VRaven_Bot@@@@@Z ENDP ; std::_List_node_emplace_op2<std::allocator<std::_List_node<Goal<Raven_Bot> *,void *> > >::_List_node_emplace_op2<std::allocator<std::_List_node<Goal<Raven_Bot> *,void *> > ><Goal<Raven_Bot> * const &>
; Function compile flags: /Odtp /RTCsu
; File C:\Program Files\Microsoft Visual Studio\2022\Community\VC\Tools\MSVC\14.44.35207\include\type_traits
;	COMDAT ??$forward@ABQAV?$Goal@VRaven_Bot@@@@@std@@YAABQAV?$Goal@VRaven_Bot@@@@ABQAV1@@Z
_TEXT	SEGMENT
__Arg$ = 8						; size = 4
??$forward@ABQAV?$Goal@VRaven_Bot@@@@@std@@YAABQAV?$Goal@VRaven_Bot@@@@ABQAV1@@Z PROC ; std::forward<Goal<Raven_Bot> * const &>, COMDAT

; 1501 : _NODISCARD _MSVC_INTRINSIC constexpr _Ty&& forward(remove_reference_t<_Ty>& _Arg) noexcept {

	push	ebp
	mov	ebp, esp

; 1502 :     return static_cast<_Ty&&>(_Arg);

	mov	eax, DWORD PTR __Arg$[ebp]

; 1503 : }

	pop	ebp
	ret	0
??$forward@ABQAV?$Goal@VRaven_Bot@@@@@std@@YAABQAV?$Goal@VRaven_Bot@@@@ABQAV1@@Z ENDP ; std::forward<Goal<Raven_Bot> * const &>
_TEXT	ENDS
; Function compile flags: /Odtp /RTCsu
; File C:\Program Files\Microsoft Visual Studio\2022\Community\VC\Tools\MSVC\14.44.35207\include\list
;	COMDAT ?_Transfer_before@?$_List_node_emplace_op2@V?$allocator@U?$_List_node@PAV?$Goal@VRaven_Bot@@@@PAX@std@@@std@@@std@@QAEPAU?$_List_node@PAV?$Goal@VRaven_Bot@@@@PAX@2@QAU32@@Z
_TEXT	SEGMENT
__Result$ = -20						; size = 4
__Insert_after$ = -12					; size = 4
_this$ = -4						; size = 4
__Insert_before$ = 8					; size = 4
?_Transfer_before@?$_List_node_emplace_op2@V?$allocator@U?$_List_node@PAV?$Goal@VRaven_Bot@@@@PAX@std@@@std@@@std@@QAEPAU?$_List_node@PAV?$Goal@VRaven_Bot@@@@PAX@2@QAU32@@Z PROC ; std::_List_node_emplace_op2<std::allocator<std::_List_node<Goal<Raven_Bot> *,void *> > >::_Transfer_before, COMDAT
; _this$ = ecx

; 607  :     pointer _Transfer_before(const pointer _Insert_before) noexcept {

	push	ebp
	mov	ebp, esp
	sub	esp, 20					; 00000014H
	mov	eax, -858993460				; ccccccccH
	mov	DWORD PTR [ebp-20], eax
	mov	DWORD PTR [ebp-16], eax
	mov	DWORD PTR [ebp-12], eax
	mov	DWORD PTR [ebp-8], eax
	mov	DWORD PTR [ebp-4], eax
	mov	DWORD PTR _this$[ebp], ecx

; 608  :         const pointer _Insert_after = _Insert_before->_Prev;

	mov	eax, DWORD PTR __Insert_before$[ebp]
	mov	ecx, DWORD PTR [eax+4]
	mov	DWORD PTR __Insert_after$[ebp], ecx

; 609  :         _Construct_in_place(this->_Ptr->_Next, _Insert_before);

	lea	edx, DWORD PTR __Insert_before$[ebp]
	push	edx
	mov	eax, DWORD PTR _this$[ebp]
	mov	ecx, DWORD PTR [eax+4]
	push	ecx
	call	??$_Construct_in_place@PAU?$_List_node@PAV?$Goal@VRaven_Bot@@@@PAX@std@@ABQAU12@@std@@YAXAAPAU?$_List_node@PAV?$Goal@VRaven_Bot@@@@PAX@0@ABQAU10@@Z ; std::_Construct_in_place<std::_List_node<Goal<Raven_Bot> *,void *> *,std::_List_node<Goal<Raven_Bot> *,void *> * const &>
	add	esp, 8

; 610  :         _Construct_in_place(this->_Ptr->_Prev, _Insert_after);

	lea	edx, DWORD PTR __Insert_after$[ebp]
	push	edx
	mov	eax, DWORD PTR _this$[ebp]
	mov	ecx, DWORD PTR [eax+4]
	add	ecx, 4
	push	ecx
	call	??$_Construct_in_place@PAU?$_List_node@PAV?$Goal@VRaven_Bot@@@@PAX@std@@ABQAU12@@std@@YAXAAPAU?$_List_node@PAV?$Goal@VRaven_Bot@@@@PAX@0@ABQAU10@@Z ; std::_Construct_in_place<std::_List_node<Goal<Raven_Bot> *,void *> *,std::_List_node<Goal<Raven_Bot> *,void *> * const &>
	add	esp, 8

; 611  :         const auto _Result    = this->_Ptr;

	mov	edx, DWORD PTR _this$[ebp]
	mov	eax, DWORD PTR [edx+4]
	mov	DWORD PTR __Result$[ebp], eax

; 612  :         this->_Ptr            = pointer{};

	mov	ecx, DWORD PTR _this$[ebp]
	mov	DWORD PTR [ecx+4], 0

; 613  :         _Insert_before->_Prev = _Result;

	mov	edx, DWORD PTR __Insert_before$[ebp]
	mov	eax, DWORD PTR __Result$[ebp]
	mov	DWORD PTR [edx+4], eax

; 614  :         _Insert_after->_Next  = _Result;

	mov	ecx, DWORD PTR __Insert_after$[ebp]
	mov	edx, DWORD PTR __Result$[ebp]
	mov	DWORD PTR [ecx], edx

; 615  :         return _Result;

	mov	eax, DWORD PTR __Result$[ebp]

; 616  :     }

	push	edx
	mov	ecx, ebp
	push	eax
	lea	edx, DWORD PTR $LN6@Transfer_b
	call	@_RTC_CheckStackVars@8
	pop	eax
	pop	edx
	add	esp, 20					; 00000014H
	cmp	ebp, esp
	call	__RTC_CheckEsp
	mov	esp, ebp
	pop	ebp
	ret	4
	npad	1
$LN6@Transfer_b:
	DD	1
	DD	$LN5@Transfer_b
$LN5@Transfer_b:
	DD	-12					; fffffff4H
	DD	4
	DD	$LN4@Transfer_b
$LN4@Transfer_b:
	DB	95					; 0000005fH
	DB	73					; 00000049H
	DB	110					; 0000006eH
	DB	115					; 00000073H
	DB	101					; 00000065H
	DB	114					; 00000072H
	DB	116					; 00000074H
	DB	95					; 0000005fH
	DB	97					; 00000061H
	DB	102					; 00000066H
	DB	116					; 00000074H
	DB	101					; 00000065H
	DB	114					; 00000072H
	DB	0
?_Transfer_before@?$_List_node_emplace_op2@V?$allocator@U?$_List_node@PAV?$Goal@VRaven_Bot@@@@PAX@std@@@std@@@std@@QAEPAU?$_List_node@PAV?$Goal@VRaven_Bot@@@@PAX@2@QAU32@@Z ENDP ; std::_List_node_emplace_op2<std::allocator<std::_List_node<Goal<Raven_Bot> *,void *> > >::_Transfer_before
_TEXT	ENDS
; Function compile flags: /Odtp /RTCsu
; File C:\Program Files\Microsoft Visual Studio\2022\Community\VC\Tools\MSVC\14.44.35207\include\list
;	COMDAT ??1?$_List_node_emplace_op2@V?$allocator@U?$_List_node@PAV?$Goal@VRaven_Bot@@@@PAX@std@@@std@@@std@@QAE@XZ
_TEXT	SEGMENT
_this$ = -16						; size = 4
__$EHRec$ = -12						; size = 12
??1?$_List_node_emplace_op2@V?$allocator@U?$_List_node@PAV?$Goal@VRaven_Bot@@@@PAX@std@@@std@@@std@@QAE@XZ PROC ; std::_List_node_emplace_op2<std::allocator<std::_List_node<Goal<Raven_Bot> *,void *> > >::~_List_node_emplace_op2<std::allocator<std::_List_node<Goal<Raven_Bot> *,void *> > >, COMDAT
; _this$ = ecx

; 598  :     ~_List_node_emplace_op2() {

	push	ebp
	mov	ebp, esp
	push	-1
	push	__ehhandler$??1?$_List_node_emplace_op2@V?$allocator@U?$_List_node@PAV?$Goal@VRaven_Bot@@@@PAX@std@@@std@@@std@@QAE@XZ
	mov	eax, DWORD PTR fs:0
	push	eax
	push	ecx
	mov	DWORD PTR [ebp-16], -858993460		; ccccccccH
	mov	eax, DWORD PTR ___security_cookie
	xor	eax, ebp
	push	eax
	lea	eax, DWORD PTR __$EHRec$[ebp]
	mov	DWORD PTR fs:0, eax
	mov	DWORD PTR _this$[ebp], ecx

; 599  :         if (this->_Ptr != pointer{}) {

	mov	eax, DWORD PTR _this$[ebp]
	cmp	DWORD PTR [eax+4], 0
	je	SHORT $LN2@List_node_

; 600  :             _Alnode_traits::destroy(this->_Al, _STD addressof(this->_Ptr->_Myval));

	mov	ecx, DWORD PTR _this$[ebp]
	mov	edx, DWORD PTR [ecx+4]
	add	edx, 8
	push	edx
	call	??$addressof@PAV?$Goal@VRaven_Bot@@@@@std@@YAPAPAV?$Goal@VRaven_Bot@@@@AAPAV1@@Z ; std::addressof<Goal<Raven_Bot> *>
	add	esp, 4
	push	eax
	mov	eax, DWORD PTR _this$[ebp]
	mov	ecx, DWORD PTR [eax]
	push	ecx
	call	??$destroy@PAV?$Goal@VRaven_Bot@@@@@?$_Default_allocator_traits@V?$allocator@U?$_List_node@PAV?$Goal@VRaven_Bot@@@@PAX@std@@@std@@@std@@SAXAAV?$allocator@U?$_List_node@PAV?$Goal@VRaven_Bot@@@@PAX@std@@@1@QAPAV?$Goal@VRaven_Bot@@@@@Z ; std::_Default_allocator_traits<std::allocator<std::_List_node<Goal<Raven_Bot> *,void *> > >::destroy<Goal<Raven_Bot> *>
	add	esp, 8
$LN2@List_node_:

; 601  :         }
; 602  :     }

	mov	ecx, DWORD PTR _this$[ebp]
	call	??1?$_Alloc_construct_ptr@V?$allocator@U?$_List_node@PAV?$Goal@VRaven_Bot@@@@PAX@std@@@std@@@std@@QAE@XZ ; std::_Alloc_construct_ptr<std::allocator<std::_List_node<Goal<Raven_Bot> *,void *> > >::~_Alloc_construct_ptr<std::allocator<std::_List_node<Goal<Raven_Bot> *,void *> > >
	npad	1
	mov	ecx, DWORD PTR __$EHRec$[ebp]
	mov	DWORD PTR fs:0, ecx
	pop	ecx
	add	esp, 16					; 00000010H
	cmp	ebp, esp
	call	__RTC_CheckEsp
	mov	esp, ebp
	pop	ebp
	ret	0
	int	3
	int	3
	int	3
	int	3
	int	3
_TEXT	ENDS
;	COMDAT text$x
text$x	SEGMENT
__ehhandler$??1?$_List_node_emplace_op2@V?$allocator@U?$_List_node@PAV?$Goal@VRaven_Bot@@@@PAX@std@@@std@@@std@@QAE@XZ:
	npad	1
	npad	1
	mov	edx, DWORD PTR [esp+8]
	lea	eax, DWORD PTR [edx+12]
	mov	ecx, DWORD PTR [edx-8]
	xor	ecx, eax
	call	@__security_check_cookie@4
	mov	eax, OFFSET __ehfuncinfo$??1?$_List_node_emplace_op2@V?$allocator@U?$_List_node@PAV?$Goal@VRaven_Bot@@@@PAX@std@@@std@@@std@@QAE@XZ
	jmp	___CxxFrameHandler3
text$x	ENDS
??1?$_List_node_emplace_op2@V?$allocator@U?$_List_node@PAV?$Goal@VRaven_Bot@@@@PAX@std@@@std@@@std@@QAE@XZ ENDP ; std::_List_node_emplace_op2<std::allocator<std::_List_node<Goal<Raven_Bot> *,void *> > >::~_List_node_emplace_op2<std::allocator<std::_List_node<Goal<Raven_Bot> *,void *> > >
; Function compile flags: /Odtp /RTCsu
; File C:\Program Files\Microsoft Visual Studio\2022\Community\VC\Tools\MSVC\14.44.35207\include\xmemory
;	COMDAT ??1?$_Alloc_construct_ptr@V?$allocator@U?$_List_node@PAV?$Goal@VRaven_Bot@@@@PAX@std@@@std@@@std@@QAE@XZ
_TEXT	SEGMENT
_this$ = -4						; size = 4
??1?$_Alloc_construct_ptr@V?$allocator@U?$_List_node@PAV?$Goal@VRaven_Bot@@@@PAX@std@@@std@@@std@@QAE@XZ PROC ; std::_Alloc_construct_ptr<std::allocator<std::_List_node<Goal<Raven_Bot> *,void *> > >::~_Alloc_construct_ptr<std::allocator<std::_List_node<Goal<Raven_Bot> *,void *> > >, COMDAT
; _this$ = ecx

; 1171 :     _CONSTEXPR20 ~_Alloc_construct_ptr() { // if this instance is engaged, deallocate storage

	push	ebp
	mov	ebp, esp
	push	ecx
	mov	DWORD PTR [ebp-4], -858993460		; ccccccccH
	mov	DWORD PTR _this$[ebp], ecx

; 1172 :         if (_Ptr) {

	mov	eax, DWORD PTR _this$[ebp]
	cmp	DWORD PTR [eax+4], 0
	je	SHORT $LN2@Alloc_cons

; 1173 :             _Al.deallocate(_Ptr, 1);

	push	1
	mov	ecx, DWORD PTR _this$[ebp]
	mov	edx, DWORD PTR [ecx+4]
	push	edx
	mov	eax, DWORD PTR _this$[ebp]
	mov	ecx, DWORD PTR [eax]
	call	?deallocate@?$allocator@U?$_List_node@PAV?$Goal@VRaven_Bot@@@@PAX@std@@@std@@QAEXQAU?$_List_node@PAV?$Goal@VRaven_Bot@@@@PAX@2@I@Z ; std::allocator<std::_List_node<Goal<Raven_Bot> *,void *> >::deallocate
	npad	1
$LN2@Alloc_cons:

; 1174 :         }
; 1175 :     }

	add	esp, 4
	cmp	ebp, esp
	call	__RTC_CheckEsp
	mov	esp, ebp
	pop	ebp
	ret	0
??1?$_Alloc_construct_ptr@V?$allocator@U?$_List_node@PAV?$Goal@VRaven_Bot@@@@PAX@std@@@std@@@std@@QAE@XZ ENDP ; std::_Alloc_construct_ptr<std::allocator<std::_List_node<Goal<Raven_Bot> *,void *> > >::~_Alloc_construct_ptr<std::allocator<std::_List_node<Goal<Raven_Bot> *,void *> > >
_TEXT	ENDS
; Function compile flags: /Odtp /RTCsu
; File C:\Program Files\Microsoft Visual Studio\2022\Community\VC\Tools\MSVC\14.44.35207\include\xmemory
;	COMDAT ?_Allocate@?$_Alloc_construct_ptr@V?$allocator@U?$_List_node@PAV?$Goal@VRaven_Bot@@@@PAX@std@@@std@@@std@@QAEXXZ
_TEXT	SEGMENT
_this$ = -4						; size = 4
?_Allocate@?$_Alloc_construct_ptr@V?$allocator@U?$_List_node@PAV?$Goal@VRaven_Bot@@@@PAX@std@@@std@@@std@@QAEXXZ PROC ; std::_Alloc_construct_ptr<std::allocator<std::_List_node<Goal<Raven_Bot> *,void *> > >::_Allocate, COMDAT
; _this$ = ecx

; 1166 :     _CONSTEXPR20 void _Allocate() { // disengage *this, then allocate a new memory block

	push	ebp
	mov	ebp, esp
	push	ecx
	mov	DWORD PTR [ebp-4], -858993460		; ccccccccH
	mov	DWORD PTR _this$[ebp], ecx

; 1167 :         _Ptr = nullptr; // if allocate throws, prevents double-free

	mov	eax, DWORD PTR _this$[ebp]
	mov	DWORD PTR [eax+4], 0

; 1168 :         _Ptr = _Al.allocate(1);

	push	1
	mov	ecx, DWORD PTR _this$[ebp]
	mov	ecx, DWORD PTR [ecx]
	call	?allocate@?$allocator@U?$_List_node@PAV?$Goal@VRaven_Bot@@@@PAX@std@@@std@@QAEPAU?$_List_node@PAV?$Goal@VRaven_Bot@@@@PAX@2@I@Z ; std::allocator<std::_List_node<Goal<Raven_Bot> *,void *> >::allocate
	mov	edx, DWORD PTR _this$[ebp]
	mov	DWORD PTR [edx+4], eax

; 1169 :     }

	add	esp, 4
	cmp	ebp, esp
	call	__RTC_CheckEsp
	mov	esp, ebp
	pop	ebp
	ret	0
?_Allocate@?$_Alloc_construct_ptr@V?$allocator@U?$_List_node@PAV?$Goal@VRaven_Bot@@@@PAX@std@@@std@@@std@@QAEXXZ ENDP ; std::_Alloc_construct_ptr<std::allocator<std::_List_node<Goal<Raven_Bot> *,void *> > >::_Allocate
_TEXT	ENDS
; Function compile flags: /Odtp /RTCsu
; File C:\Program Files\Microsoft Visual Studio\2022\Community\VC\Tools\MSVC\14.44.35207\include\xmemory
;	COMDAT ??0?$_Alloc_construct_ptr@V?$allocator@U?$_List_node@PAV?$Goal@VRaven_Bot@@@@PAX@std@@@std@@@std@@QAE@AAV?$allocator@U?$_List_node@PAV?$Goal@VRaven_Bot@@@@PAX@std@@@1@@Z
_TEXT	SEGMENT
_this$ = -4						; size = 4
__Al_$ = 8						; size = 4
??0?$_Alloc_construct_ptr@V?$allocator@U?$_List_node@PAV?$Goal@VRaven_Bot@@@@PAX@std@@@std@@@std@@QAE@AAV?$allocator@U?$_List_node@PAV?$Goal@VRaven_Bot@@@@PAX@std@@@1@@Z PROC ; std::_Alloc_construct_ptr<std::allocator<std::_List_node<Goal<Raven_Bot> *,void *> > >::_Alloc_construct_ptr<std::allocator<std::_List_node<Goal<Raven_Bot> *,void *> > >, COMDAT
; _this$ = ecx

; 1160 :     _CONSTEXPR20 explicit _Alloc_construct_ptr(_Alloc& _Al_) : _Al(_Al_), _Ptr(nullptr) {}

	push	ebp
	mov	ebp, esp
	push	ecx
	mov	DWORD PTR _this$[ebp], ecx
	mov	eax, DWORD PTR _this$[ebp]
	mov	ecx, DWORD PTR __Al_$[ebp]
	mov	DWORD PTR [eax], ecx
	mov	edx, DWORD PTR _this$[ebp]
	mov	DWORD PTR [edx+4], 0
	mov	eax, DWORD PTR _this$[ebp]
	mov	esp, ebp
	pop	ebp
	ret	4
??0?$_Alloc_construct_ptr@V?$allocator@U?$_List_node@PAV?$Goal@VRaven_Bot@@@@PAX@std@@@std@@@std@@QAE@AAV?$allocator@U?$_List_node@PAV?$Goal@VRaven_Bot@@@@PAX@std@@@1@@Z ENDP ; std::_Alloc_construct_ptr<std::allocator<std::_List_node<Goal<Raven_Bot> *,void *> > >::_Alloc_construct_ptr<std::allocator<std::_List_node<Goal<Raven_Bot> *,void *> > >
_TEXT	ENDS
; Function compile flags: /Odtp /RTCsu
; File C:\Program Files\Microsoft Visual Studio\2022\Community\VC\Tools\MSVC\14.44.35207\include\list
;	COMDAT ??$_Freenode@V?$allocator@U?$_List_node@PAV?$Goal@VRaven_Bot@@@@PAX@std@@@std@@@?$_List_node@PAV?$Goal@VRaven_Bot@@@@PAX@std@@SAXAAV?$allocator@U?$_List_node@PAV?$Goal@VRaven_Bot@@@@PAX@std@@@1@PAU01@@Z
_TEXT	SEGMENT
__$EHRec$ = -12						; size = 12
__Al$ = 8						; size = 4
__Ptr$ = 12						; size = 4
??$_Freenode@V?$allocator@U?$_List_node@PAV?$Goal@VRaven_Bot@@@@PAX@std@@@std@@@?$_List_node@PAV?$Goal@VRaven_Bot@@@@PAX@std@@SAXAAV?$allocator@U?$_List_node@PAV?$Goal@VRaven_Bot@@@@PAX@std@@@1@PAU01@@Z PROC ; std::_List_node<Goal<Raven_Bot> *,void *>::_Freenode<std::allocator<std::_List_node<Goal<Raven_Bot> *,void *> > >, COMDAT

; 316  :     static void _Freenode(_Alnode& _Al, _Nodeptr _Ptr) noexcept { // destroy all members in _Ptr and deallocate with _Al

	push	ebp
	mov	ebp, esp
	push	-1
	push	__ehhandler$??$_Freenode@V?$allocator@U?$_List_node@PAV?$Goal@VRaven_Bot@@@@PAX@std@@@std@@@?$_List_node@PAV?$Goal@VRaven_Bot@@@@PAX@std@@SAXAAV?$allocator@U?$_List_node@PAV?$Goal@VRaven_Bot@@@@PAX@std@@@1@PAU01@@Z
	mov	eax, DWORD PTR fs:0
	push	eax
	mov	eax, DWORD PTR ___security_cookie
	xor	eax, ebp
	push	eax
	lea	eax, DWORD PTR __$EHRec$[ebp]
	mov	DWORD PTR fs:0, eax

; 317  :         allocator_traits<_Alnode>::destroy(_Al, _STD addressof(_Ptr->_Myval));

	mov	eax, DWORD PTR __Ptr$[ebp]
	add	eax, 8
	push	eax
	call	??$addressof@PAV?$Goal@VRaven_Bot@@@@@std@@YAPAPAV?$Goal@VRaven_Bot@@@@AAPAV1@@Z ; std::addressof<Goal<Raven_Bot> *>
	add	esp, 4
	push	eax
	mov	ecx, DWORD PTR __Al$[ebp]
	push	ecx
	call	??$destroy@PAV?$Goal@VRaven_Bot@@@@@?$_Default_allocator_traits@V?$allocator@U?$_List_node@PAV?$Goal@VRaven_Bot@@@@PAX@std@@@std@@@std@@SAXAAV?$allocator@U?$_List_node@PAV?$Goal@VRaven_Bot@@@@PAX@std@@@1@QAPAV?$Goal@VRaven_Bot@@@@@Z ; std::_Default_allocator_traits<std::allocator<std::_List_node<Goal<Raven_Bot> *,void *> > >::destroy<Goal<Raven_Bot> *>
	add	esp, 8

; 318  :         _Freenode0(_Al, _Ptr);

	mov	edx, DWORD PTR __Ptr$[ebp]
	push	edx
	mov	eax, DWORD PTR __Al$[ebp]
	push	eax
	call	??$_Freenode0@V?$allocator@U?$_List_node@PAV?$Goal@VRaven_Bot@@@@PAX@std@@@std@@@?$_List_node@PAV?$Goal@VRaven_Bot@@@@PAX@std@@SAXAAV?$allocator@U?$_List_node@PAV?$Goal@VRaven_Bot@@@@PAX@std@@@1@PAU01@@Z ; std::_List_node<Goal<Raven_Bot> *,void *>::_Freenode0<std::allocator<std::_List_node<Goal<Raven_Bot> *,void *> > >
	add	esp, 8

; 319  :     }

	mov	ecx, DWORD PTR __$EHRec$[ebp]
	mov	DWORD PTR fs:0, ecx
	pop	ecx
	add	esp, 12					; 0000000cH
	cmp	ebp, esp
	call	__RTC_CheckEsp
	mov	esp, ebp
	pop	ebp
	ret	0
	int	3
	int	3
	int	3
	int	3
	int	3
_TEXT	ENDS
;	COMDAT text$x
text$x	SEGMENT
__ehhandler$??$_Freenode@V?$allocator@U?$_List_node@PAV?$Goal@VRaven_Bot@@@@PAX@std@@@std@@@?$_List_node@PAV?$Goal@VRaven_Bot@@@@PAX@std@@SAXAAV?$allocator@U?$_List_node@PAV?$Goal@VRaven_Bot@@@@PAX@std@@@1@PAU01@@Z:
	npad	1
	npad	1
	mov	edx, DWORD PTR [esp+8]
	lea	eax, DWORD PTR [edx+12]
	mov	ecx, DWORD PTR [edx-4]
	xor	ecx, eax
	call	@__security_check_cookie@4
	mov	eax, OFFSET __ehfuncinfo$??$_Freenode@V?$allocator@U?$_List_node@PAV?$Goal@VRaven_Bot@@@@PAX@std@@@std@@@?$_List_node@PAV?$Goal@VRaven_Bot@@@@PAX@std@@SAXAAV?$allocator@U?$_List_node@PAV?$Goal@VRaven_Bot@@@@PAX@std@@@1@PAU01@@Z
	jmp	___CxxFrameHandler3
text$x	ENDS
??$_Freenode@V?$allocator@U?$_List_node@PAV?$Goal@VRaven_Bot@@@@PAX@std@@@std@@@?$_List_node@PAV?$Goal@VRaven_Bot@@@@PAX@std@@SAXAAV?$allocator@U?$_List_node@PAV?$Goal@VRaven_Bot@@@@PAX@std@@@1@PAU01@@Z ENDP ; std::_List_node<Goal<Raven_Bot> *,void *>::_Freenode<std::allocator<std::_List_node<Goal<Raven_Bot> *,void *> > >
; Function compile flags: /Odtp /RTCsu
; File C:\Program Files\Microsoft Visual Studio\2022\Community\VC\Tools\MSVC\14.44.35207\include\type_traits
;	COMDAT ??$forward@PAU_Container_base12@std@@@std@@YA$$QAPAU_Container_base12@0@AAPAU10@@Z
_TEXT	SEGMENT
__Arg$ = 8						; size = 4
??$forward@PAU_Container_base12@std@@@std@@YA$$QAPAU_Container_base12@0@AAPAU10@@Z PROC ; std::forward<std::_Container_base12 *>, COMDAT

; 1501 : _NODISCARD _MSVC_INTRINSIC constexpr _Ty&& forward(remove_reference_t<_Ty>& _Arg) noexcept {

	push	ebp
	mov	ebp, esp

; 1502 :     return static_cast<_Ty&&>(_Arg);

	mov	eax, DWORD PTR __Arg$[ebp]

; 1503 : }

	pop	ebp
	ret	0
??$forward@PAU_Container_base12@std@@@std@@YA$$QAPAU_Container_base12@0@AAPAU10@@Z ENDP ; std::forward<std::_Container_base12 *>
_TEXT	ENDS
; Function compile flags: /Odtp /RTCsu
; File C:\Program Files\Microsoft Visual Studio\2022\Community\VC\Tools\MSVC\14.44.35207\include\type_traits
;	COMDAT ??$addressof@U_Container_proxy@std@@@std@@YAPAU_Container_proxy@0@AAU10@@Z
_TEXT	SEGMENT
__Val$ = 8						; size = 4
??$addressof@U_Container_proxy@std@@@std@@YAPAU_Container_proxy@0@AAU10@@Z PROC ; std::addressof<std::_Container_proxy>, COMDAT

; 1524 : _NODISCARD constexpr _Ty* addressof(_Ty& _Val) noexcept {

	push	ebp
	mov	ebp, esp

; 1525 :     return __builtin_addressof(_Val);

	mov	eax, DWORD PTR __Val$[ebp]

; 1526 : }

	pop	ebp
	ret	0
??$addressof@U_Container_proxy@std@@@std@@YAPAU_Container_proxy@0@AAU10@@Z ENDP ; std::addressof<std::_Container_proxy>
_TEXT	ENDS
; Function compile flags: /Odtp /RTCsu
; File C:\Program Files\Microsoft Visual Studio\2022\Community\VC\Tools\MSVC\14.44.35207\include\xmemory
;	COMDAT ?deallocate@?$_Default_allocator_traits@V?$allocator@U_Container_proxy@std@@@std@@@std@@SAXAAV?$allocator@U_Container_proxy@std@@@2@QAU_Container_proxy@2@I@Z
_TEXT	SEGMENT
__Al$ = 8						; size = 4
__Ptr$ = 12						; size = 4
__Count$ = 16						; size = 4
?deallocate@?$_Default_allocator_traits@V?$allocator@U_Container_proxy@std@@@std@@@std@@SAXAAV?$allocator@U_Container_proxy@std@@@2@QAU_Container_proxy@2@I@Z PROC ; std::_Default_allocator_traits<std::allocator<std::_Container_proxy> >::deallocate, COMDAT

; 714  :     /* strengthened */ {

	push	ebp
	mov	ebp, esp

; 715  :         // no overflow check on the following multiply; we assume _Allocate did that check
; 716  : #if _HAS_CXX20 // TRANSITION, GH-1532
; 717  :         if (_STD is_constant_evaluated()) {
; 718  :             _Al.deallocate(_Ptr, _Count);
; 719  :         } else
; 720  : #endif // _HAS_CXX20
; 721  :         {
; 722  :             (void) _Al;
; 723  :             _STD _Deallocate<_New_alignof<value_type>>(_Ptr, sizeof(value_type) * _Count);

	mov	eax, DWORD PTR __Count$[ebp]
	shl	eax, 3
	push	eax
	mov	ecx, DWORD PTR __Ptr$[ebp]
	push	ecx
	call	??$_Deallocate@$07@std@@YAXPAXI@Z	; std::_Deallocate<8>
	add	esp, 8

; 724  :         }
; 725  :     }

	cmp	ebp, esp
	call	__RTC_CheckEsp
	pop	ebp
	ret	0
?deallocate@?$_Default_allocator_traits@V?$allocator@U_Container_proxy@std@@@std@@@std@@SAXAAV?$allocator@U_Container_proxy@std@@@2@QAU_Container_proxy@2@I@Z ENDP ; std::_Default_allocator_traits<std::allocator<std::_Container_proxy> >::deallocate
_TEXT	ENDS
; Function compile flags: /Odtp /RTCsu
; File C:\Program Files\Microsoft Visual Studio\2022\Community\VC\Tools\MSVC\14.44.35207\include\xmemory
;	COMDAT ??$?0$$V@?$_Compressed_pair@V?$allocator@U?$_List_node@PAV?$Goal@VRaven_Bot@@@@PAX@std@@@std@@V?$_List_val@U?$_List_simple_types@PAV?$Goal@VRaven_Bot@@@@@std@@@2@$00@std@@QAE@U_Zero_then_variadic_args_t@1@@Z
_TEXT	SEGMENT
_this$ = -4						; size = 4
___formal$ = 8						; size = 1
??$?0$$V@?$_Compressed_pair@V?$allocator@U?$_List_node@PAV?$Goal@VRaven_Bot@@@@PAX@std@@@std@@V?$_List_val@U?$_List_simple_types@PAV?$Goal@VRaven_Bot@@@@@std@@@2@$00@std@@QAE@U_Zero_then_variadic_args_t@1@@Z PROC ; std::_Compressed_pair<std::allocator<std::_List_node<Goal<Raven_Bot> *,void *> >,std::_List_val<std::_List_simple_types<Goal<Raven_Bot> *> >,1>::_Compressed_pair<std::allocator<std::_List_node<Goal<Raven_Bot> *,void *> >,std::_List_val<std::_List_simple_types<Goal<Raven_Bot> *> >,1><>, COMDAT
; _this$ = ecx

; 1531 :         : _Ty1(), _Myval2(_STD forward<_Other2>(_Val2)...) {}

	push	ebp
	mov	ebp, esp
	push	ecx
	mov	DWORD PTR [ebp-4], -858993460		; ccccccccH
	mov	DWORD PTR _this$[ebp], ecx
	mov	ecx, DWORD PTR _this$[ebp]
	call	??0?$allocator@U?$_List_node@PAV?$Goal@VRaven_Bot@@@@PAX@std@@@std@@QAE@XZ ; std::allocator<std::_List_node<Goal<Raven_Bot> *,void *> >::allocator<std::_List_node<Goal<Raven_Bot> *,void *> >
	mov	ecx, DWORD PTR _this$[ebp]
	call	??0?$_List_val@U?$_List_simple_types@PAV?$Goal@VRaven_Bot@@@@@std@@@std@@QAE@XZ ; std::_List_val<std::_List_simple_types<Goal<Raven_Bot> *> >::_List_val<std::_List_simple_types<Goal<Raven_Bot> *> >
	npad	1
	mov	eax, DWORD PTR _this$[ebp]
	add	esp, 4
	cmp	ebp, esp
	call	__RTC_CheckEsp
	mov	esp, ebp
	pop	ebp
	ret	4
??$?0$$V@?$_Compressed_pair@V?$allocator@U?$_List_node@PAV?$Goal@VRaven_Bot@@@@PAX@std@@@std@@V?$_List_val@U?$_List_simple_types@PAV?$Goal@VRaven_Bot@@@@@std@@@2@$00@std@@QAE@U_Zero_then_variadic_args_t@1@@Z ENDP ; std::_Compressed_pair<std::allocator<std::_List_node<Goal<Raven_Bot> *,void *> >,std::_List_val<std::_List_simple_types<Goal<Raven_Bot> *> >,1>::_Compressed_pair<std::allocator<std::_List_node<Goal<Raven_Bot> *,void *> >,std::_List_val<std::_List_simple_types<Goal<Raven_Bot> *> >,1><>
_TEXT	ENDS
; Function compile flags: /Odtp /RTCsu
; File C:\Program Files\Microsoft Visual Studio\2022\Community\VC\Tools\MSVC\14.44.35207\include\xmemory
;	COMDAT ??$?0U?$_List_node@PAV?$Goal@VRaven_Bot@@@@PAX@std@@@?$allocator@U_Container_proxy@std@@@std@@QAE@ABV?$allocator@U?$_List_node@PAV?$Goal@VRaven_Bot@@@@PAX@std@@@1@@Z
_TEXT	SEGMENT
_this$ = -4						; size = 4
___formal$ = 8						; size = 4
??$?0U?$_List_node@PAV?$Goal@VRaven_Bot@@@@PAX@std@@@?$allocator@U_Container_proxy@std@@@std@@QAE@ABV?$allocator@U?$_List_node@PAV?$Goal@VRaven_Bot@@@@PAX@std@@@1@@Z PROC ; std::allocator<std::_Container_proxy>::allocator<std::_Container_proxy><std::_List_node<Goal<Raven_Bot> *,void *> >, COMDAT
; _this$ = ecx

; 978  :     constexpr allocator(const allocator<_Other>&) noexcept {}

	push	ebp
	mov	ebp, esp
	push	ecx
	mov	DWORD PTR _this$[ebp], ecx
	mov	eax, DWORD PTR _this$[ebp]
	mov	esp, ebp
	pop	ebp
	ret	4
??$?0U?$_List_node@PAV?$Goal@VRaven_Bot@@@@PAX@std@@@?$allocator@U_Container_proxy@std@@@std@@QAE@ABV?$allocator@U?$_List_node@PAV?$Goal@VRaven_Bot@@@@PAX@std@@@1@@Z ENDP ; std::allocator<std::_Container_proxy>::allocator<std::_Container_proxy><std::_List_node<Goal<Raven_Bot> *,void *> >
_TEXT	ENDS
; Function compile flags: /Odtp /RTCsu
; File C:\Program Files\Microsoft Visual Studio\2022\Community\VC\Tools\MSVC\14.44.35207\include\type_traits
;	COMDAT ??$addressof@V?$_List_val@U?$_List_simple_types@PAV?$Goal@VRaven_Bot@@@@@std@@@std@@@std@@YAPAV?$_List_val@U?$_List_simple_types@PAV?$Goal@VRaven_Bot@@@@@std@@@0@AAV10@@Z
_TEXT	SEGMENT
__Val$ = 8						; size = 4
??$addressof@V?$_List_val@U?$_List_simple_types@PAV?$Goal@VRaven_Bot@@@@@std@@@std@@@std@@YAPAV?$_List_val@U?$_List_simple_types@PAV?$Goal@VRaven_Bot@@@@@std@@@0@AAV10@@Z PROC ; std::addressof<std::_List_val<std::_List_simple_types<Goal<Raven_Bot> *> > >, COMDAT

; 1524 : _NODISCARD constexpr _Ty* addressof(_Ty& _Val) noexcept {

	push	ebp
	mov	ebp, esp

; 1525 :     return __builtin_addressof(_Val);

	mov	eax, DWORD PTR __Val$[ebp]

; 1526 : }

	pop	ebp
	ret	0
??$addressof@V?$_List_val@U?$_List_simple_types@PAV?$Goal@VRaven_Bot@@@@@std@@@std@@@std@@YAPAV?$_List_val@U?$_List_simple_types@PAV?$Goal@VRaven_Bot@@@@@std@@@0@AAV10@@Z ENDP ; std::addressof<std::_List_val<std::_List_simple_types<Goal<Raven_Bot> *> > >
_TEXT	ENDS
; Function compile flags: /Odtp /RTCsu
; File C:\Program Files\Microsoft Visual Studio\2022\Community\VC\Tools\MSVC\14.44.35207\include\list
;	COMDAT ??$_Emplace@ABQAV?$Goal@VRaven_Bot@@@@@?$list@PAV?$Goal@VRaven_Bot@@@@V?$allocator@PAV?$Goal@VRaven_Bot@@@@@std@@@std@@QAEPAU?$_List_node@PAV?$Goal@VRaven_Bot@@@@PAX@1@QAU21@ABQAV?$Goal@VRaven_Bot@@@@@Z
_TEXT	SEGMENT
tv82 = -36						; size = 4
tv80 = -32						; size = 4
$T1 = -28						; size = 4
__Op$ = -20						; size = 8
__Mysize$ = -8						; size = 4
_this$ = -4						; size = 4
__Where$ = 8						; size = 4
_<_Val_0>$ = 12						; size = 4
??$_Emplace@ABQAV?$Goal@VRaven_Bot@@@@@?$list@PAV?$Goal@VRaven_Bot@@@@V?$allocator@PAV?$Goal@VRaven_Bot@@@@@std@@@std@@QAEPAU?$_List_node@PAV?$Goal@VRaven_Bot@@@@PAX@1@QAU21@ABQAV?$Goal@VRaven_Bot@@@@@Z PROC ; std::list<Goal<Raven_Bot> *,std::allocator<Goal<Raven_Bot> *> >::_Emplace<Goal<Raven_Bot> * const &>, COMDAT
; _this$ = ecx

; 1028 :     _Nodeptr _Emplace(const _Nodeptr _Where, _Valty&&... _Val) { // insert element at _Where

	push	ebp
	mov	ebp, esp
	sub	esp, 36					; 00000024H
	mov	eax, -858993460				; ccccccccH
	mov	DWORD PTR [ebp-36], eax
	mov	DWORD PTR [ebp-32], eax
	mov	DWORD PTR [ebp-28], eax
	mov	DWORD PTR [ebp-24], eax
	mov	DWORD PTR [ebp-20], eax
	mov	DWORD PTR [ebp-16], eax
	mov	DWORD PTR [ebp-12], eax
	mov	DWORD PTR [ebp-8], eax
	mov	DWORD PTR [ebp-4], eax
	mov	DWORD PTR _this$[ebp], ecx

; 1029 :         size_type& _Mysize = _Mypair._Myval2._Mysize;

	mov	eax, DWORD PTR _this$[ebp]
	add	eax, 8
	mov	DWORD PTR __Mysize$[ebp], eax

; 1030 :         if (_Mysize == max_size()) {

	mov	ecx, DWORD PTR _this$[ebp]
	call	?max_size@?$list@PAV?$Goal@VRaven_Bot@@@@V?$allocator@PAV?$Goal@VRaven_Bot@@@@@std@@@std@@QBEIXZ ; std::list<Goal<Raven_Bot> *,std::allocator<Goal<Raven_Bot> *> >::max_size
	mov	ecx, DWORD PTR __Mysize$[ebp]
	cmp	DWORD PTR [ecx], eax
	jne	SHORT $LN2@Emplace

; 1031 :             _Xlength_error("list too long");

	push	OFFSET ??_C@_0O@NKNMEGII@list?5too?5long@
	call	?_Xlength_error@std@@YAXPBD@Z		; std::_Xlength_error
	npad	1
$LN2@Emplace:

; 1032 :         }
; 1033 : 
; 1034 :         _List_node_emplace_op2<_Alnode> _Op{_Getal(), _STD forward<_Valty>(_Val)...};

	mov	ecx, DWORD PTR _this$[ebp]
	call	?_Getal@?$list@PAV?$Goal@VRaven_Bot@@@@V?$allocator@PAV?$Goal@VRaven_Bot@@@@@std@@@std@@AAEAAV?$allocator@U?$_List_node@PAV?$Goal@VRaven_Bot@@@@PAX@std@@@2@XZ ; std::list<Goal<Raven_Bot> *,std::allocator<Goal<Raven_Bot> *> >::_Getal
	mov	DWORD PTR tv80[ebp], eax
	mov	edx, DWORD PTR _<_Val_0>$[ebp]
	push	edx
	call	??$forward@ABQAV?$Goal@VRaven_Bot@@@@@std@@YAABQAV?$Goal@VRaven_Bot@@@@ABQAV1@@Z ; std::forward<Goal<Raven_Bot> * const &>
	add	esp, 4
	mov	DWORD PTR tv82[ebp], eax
	mov	eax, DWORD PTR tv82[ebp]
	push	eax
	mov	ecx, DWORD PTR tv80[ebp]
	push	ecx
	lea	ecx, DWORD PTR __Op$[ebp]
	call	??$?0ABQAV?$Goal@VRaven_Bot@@@@@?$_List_node_emplace_op2@V?$allocator@U?$_List_node@PAV?$Goal@VRaven_Bot@@@@PAX@std@@@std@@@std@@QAE@AAV?$allocator@U?$_List_node@PAV?$Goal@VRaven_Bot@@@@PAX@std@@@1@ABQAV?$Goal@VRaven_Bot@@@@@Z ; std::_List_node_emplace_op2<std::allocator<std::_List_node<Goal<Raven_Bot> *,void *> > >::_List_node_emplace_op2<std::allocator<std::_List_node<Goal<Raven_Bot> *,void *> > ><Goal<Raven_Bot> * const &>

; 1035 :         ++_Mysize;

	mov	edx, DWORD PTR __Mysize$[ebp]
	mov	eax, DWORD PTR [edx]
	add	eax, 1
	mov	ecx, DWORD PTR __Mysize$[ebp]
	mov	DWORD PTR [ecx], eax

; 1036 :         return _Op._Transfer_before(_Where);

	mov	edx, DWORD PTR __Where$[ebp]
	push	edx
	lea	ecx, DWORD PTR __Op$[ebp]
	call	?_Transfer_before@?$_List_node_emplace_op2@V?$allocator@U?$_List_node@PAV?$Goal@VRaven_Bot@@@@PAX@std@@@std@@@std@@QAEPAU?$_List_node@PAV?$Goal@VRaven_Bot@@@@PAX@2@QAU32@@Z ; std::_List_node_emplace_op2<std::allocator<std::_List_node<Goal<Raven_Bot> *,void *> > >::_Transfer_before
	mov	DWORD PTR $T1[ebp], eax
	lea	ecx, DWORD PTR __Op$[ebp]
	call	??1?$_List_node_emplace_op2@V?$allocator@U?$_List_node@PAV?$Goal@VRaven_Bot@@@@PAX@std@@@std@@@std@@QAE@XZ ; std::_List_node_emplace_op2<std::allocator<std::_List_node<Goal<Raven_Bot> *,void *> > >::~_List_node_emplace_op2<std::allocator<std::_List_node<Goal<Raven_Bot> *,void *> > >
	mov	eax, DWORD PTR $T1[ebp]
$LN1@Emplace:

; 1037 :     }

	push	edx
	mov	ecx, ebp
	push	eax
	lea	edx, DWORD PTR $LN7@Emplace
	call	@_RTC_CheckStackVars@8
	pop	eax
	pop	edx
	add	esp, 36					; 00000024H
	cmp	ebp, esp
	call	__RTC_CheckEsp
	mov	esp, ebp
	pop	ebp
	ret	8
	npad	2
$LN7@Emplace:
	DD	1
	DD	$LN6@Emplace
$LN6@Emplace:
	DD	-20					; ffffffecH
	DD	8
	DD	$LN5@Emplace
$LN5@Emplace:
	DB	95					; 0000005fH
	DB	79					; 0000004fH
	DB	112					; 00000070H
	DB	0
??$_Emplace@ABQAV?$Goal@VRaven_Bot@@@@@?$list@PAV?$Goal@VRaven_Bot@@@@V?$allocator@PAV?$Goal@VRaven_Bot@@@@@std@@@std@@QAEPAU?$_List_node@PAV?$Goal@VRaven_Bot@@@@PAX@1@QAU21@ABQAV?$Goal@VRaven_Bot@@@@@Z ENDP ; std::list<Goal<Raven_Bot> *,std::allocator<Goal<Raven_Bot> *> >::_Emplace<Goal<Raven_Bot> * const &>
_TEXT	ENDS
; Function compile flags: /Odtp /RTCsu
; File C:\Program Files\Microsoft Visual Studio\2022\Community\VC\Tools\MSVC\14.44.35207\include\list
;	COMDAT ??$_Free_non_head@V?$allocator@U?$_List_node@PAV?$Goal@VRaven_Bot@@@@PAX@std@@@std@@@?$_List_node@PAV?$Goal@VRaven_Bot@@@@PAX@std@@SAXAAV?$allocator@U?$_List_node@PAV?$Goal@VRaven_Bot@@@@PAX@std@@@1@PAU01@@Z
_TEXT	SEGMENT
__Pnext$1 = -8						; size = 4
__Pnode$ = -4						; size = 4
__Al$ = 8						; size = 4
__Head$ = 12						; size = 4
??$_Free_non_head@V?$allocator@U?$_List_node@PAV?$Goal@VRaven_Bot@@@@PAX@std@@@std@@@?$_List_node@PAV?$Goal@VRaven_Bot@@@@PAX@std@@SAXAAV?$allocator@U?$_List_node@PAV?$Goal@VRaven_Bot@@@@PAX@std@@@1@PAU01@@Z PROC ; std::_List_node<Goal<Raven_Bot> *,void *>::_Free_non_head<std::allocator<std::_List_node<Goal<Raven_Bot> *,void *> > >, COMDAT

; 323  :         _Alnode& _Al, _Nodeptr _Head) noexcept { // free a list starting at _First and terminated at nullptr

	push	ebp
	mov	ebp, esp
	sub	esp, 8
	mov	DWORD PTR [ebp-8], -858993460		; ccccccccH
	mov	DWORD PTR [ebp-4], -858993460		; ccccccccH

; 324  :         _Head->_Prev->_Next = nullptr;

	mov	eax, DWORD PTR __Head$[ebp]
	mov	ecx, DWORD PTR [eax+4]
	mov	DWORD PTR [ecx], 0

; 325  : 
; 326  :         auto _Pnode = _Head->_Next;

	mov	edx, DWORD PTR __Head$[ebp]
	mov	eax, DWORD PTR [edx]
	mov	DWORD PTR __Pnode$[ebp], eax

; 327  :         for (_Nodeptr _Pnext; _Pnode; _Pnode = _Pnext) {

	jmp	SHORT $LN4@Free_non_h
$LN2@Free_non_h:
	mov	ecx, DWORD PTR __Pnext$1[ebp]
	mov	DWORD PTR __Pnode$[ebp], ecx
$LN4@Free_non_h:
	cmp	DWORD PTR __Pnode$[ebp], 0
	je	SHORT $LN3@Free_non_h

; 328  :             _Pnext = _Pnode->_Next;

	mov	edx, DWORD PTR __Pnode$[ebp]
	mov	eax, DWORD PTR [edx]
	mov	DWORD PTR __Pnext$1[ebp], eax

; 329  :             _Freenode(_Al, _Pnode);

	mov	ecx, DWORD PTR __Pnode$[ebp]
	push	ecx
	mov	edx, DWORD PTR __Al$[ebp]
	push	edx
	call	??$_Freenode@V?$allocator@U?$_List_node@PAV?$Goal@VRaven_Bot@@@@PAX@std@@@std@@@?$_List_node@PAV?$Goal@VRaven_Bot@@@@PAX@std@@SAXAAV?$allocator@U?$_List_node@PAV?$Goal@VRaven_Bot@@@@PAX@std@@@1@PAU01@@Z ; std::_List_node<Goal<Raven_Bot> *,void *>::_Freenode<std::allocator<std::_List_node<Goal<Raven_Bot> *,void *> > >
	add	esp, 8

; 330  :         }

	jmp	SHORT $LN2@Free_non_h
$LN3@Free_non_h:

; 331  :     }

	add	esp, 8
	cmp	ebp, esp
	call	__RTC_CheckEsp
	mov	esp, ebp
	pop	ebp
	ret	0
??$_Free_non_head@V?$allocator@U?$_List_node@PAV?$Goal@VRaven_Bot@@@@PAX@std@@@std@@@?$_List_node@PAV?$Goal@VRaven_Bot@@@@PAX@std@@SAXAAV?$allocator@U?$_List_node@PAV?$Goal@VRaven_Bot@@@@PAX@std@@@1@PAU01@@Z ENDP ; std::_List_node<Goal<Raven_Bot> *,void *>::_Free_non_head<std::allocator<std::_List_node<Goal<Raven_Bot> *,void *> > >
_TEXT	ENDS
; Function compile flags: /Odtp /RTCsu
; File C:\Program Files\Microsoft Visual Studio\2022\Community\VC\Tools\MSVC\14.44.35207\include\xmemory
;	COMDAT ??$_Unfancy@D@std@@YAPADPAD@Z
_TEXT	SEGMENT
__Ptr$ = 8						; size = 4
??$_Unfancy@D@std@@YAPADPAD@Z PROC			; std::_Unfancy<char>, COMDAT

; 68   : _NODISCARD constexpr _Ty* _Unfancy(_Ty* _Ptr) noexcept { // do nothing for plain pointers

	push	ebp
	mov	ebp, esp

; 69   :     return _Ptr;

	mov	eax, DWORD PTR __Ptr$[ebp]

; 70   : }

	pop	ebp
	ret	0
??$_Unfancy@D@std@@YAPADPAD@Z ENDP			; std::_Unfancy<char>
_TEXT	ENDS
; Function compile flags: /Odtp /RTCsu
; File C:\Program Files\Microsoft Visual Studio\2022\Community\VC\Tools\MSVC\14.44.35207\include\xmemory
;	COMDAT ??1?$_Container_proxy_ptr12@V?$allocator@U_Container_proxy@std@@@std@@@std@@QAE@XZ
_TEXT	SEGMENT
_this$ = -4						; size = 4
??1?$_Container_proxy_ptr12@V?$allocator@U_Container_proxy@std@@@std@@@std@@QAE@XZ PROC ; std::_Container_proxy_ptr12<std::allocator<std::_Container_proxy> >::~_Container_proxy_ptr12<std::allocator<std::_Container_proxy> >, COMDAT
; _this$ = ecx

; 1495 :     _CONSTEXPR20 ~_Container_proxy_ptr12() {

	push	ebp
	mov	ebp, esp
	push	ecx
	mov	DWORD PTR [ebp-4], -858993460		; ccccccccH
	mov	DWORD PTR _this$[ebp], ecx

; 1496 :         if (_Ptr) {

	mov	eax, DWORD PTR _this$[ebp]
	cmp	DWORD PTR [eax], 0
	je	SHORT $LN2@Container_

; 1497 :             _Delete_plain_internal(_Al, _Ptr);

	mov	ecx, DWORD PTR _this$[ebp]
	mov	edx, DWORD PTR [ecx]
	push	edx
	mov	eax, DWORD PTR _this$[ebp]
	mov	ecx, DWORD PTR [eax+4]
	push	ecx
	call	??$_Delete_plain_internal@V?$allocator@U_Container_proxy@std@@@std@@@std@@YAXAAV?$allocator@U_Container_proxy@std@@@0@QAU_Container_proxy@0@@Z ; std::_Delete_plain_internal<std::allocator<std::_Container_proxy> >
	add	esp, 8
$LN2@Container_:

; 1498 :         }
; 1499 :     }

	add	esp, 4
	cmp	ebp, esp
	call	__RTC_CheckEsp
	mov	esp, ebp
	pop	ebp
	ret	0
??1?$_Container_proxy_ptr12@V?$allocator@U_Container_proxy@std@@@std@@@std@@QAE@XZ ENDP ; std::_Container_proxy_ptr12<std::allocator<std::_Container_proxy> >::~_Container_proxy_ptr12<std::allocator<std::_Container_proxy> >
_TEXT	ENDS
; Function compile flags: /Odtp /RTCsu
; File C:\Program Files\Microsoft Visual Studio\2022\Community\VC\Tools\MSVC\14.44.35207\include\xmemory
;	COMDAT ??0?$_Container_proxy_ptr12@V?$allocator@U_Container_proxy@std@@@std@@@std@@QAE@AAV?$allocator@U_Container_proxy@std@@@1@AAU_Container_base12@1@@Z
_TEXT	SEGMENT
$T1 = -8						; size = 4
_this$ = -4						; size = 4
__Al_$ = 8						; size = 4
__Mycont$ = 12						; size = 4
??0?$_Container_proxy_ptr12@V?$allocator@U_Container_proxy@std@@@std@@@std@@QAE@AAV?$allocator@U_Container_proxy@std@@@1@AAU_Container_base12@1@@Z PROC ; std::_Container_proxy_ptr12<std::allocator<std::_Container_proxy> >::_Container_proxy_ptr12<std::allocator<std::_Container_proxy> >, COMDAT
; _this$ = ecx

; 1481 :     _CONSTEXPR20 _Container_proxy_ptr12(_Alloc& _Al_, _Container_base12& _Mycont) : _Al(_Al_) {

	push	ebp
	mov	ebp, esp
	sub	esp, 8
	mov	DWORD PTR [ebp-8], -858993460		; ccccccccH
	mov	DWORD PTR [ebp-4], -858993460		; ccccccccH
	mov	DWORD PTR _this$[ebp], ecx
	mov	ecx, DWORD PTR _this$[ebp]
	call	??0_Basic_container_proxy_ptr12@std@@IAE@XZ ; std::_Basic_container_proxy_ptr12::_Basic_container_proxy_ptr12
	mov	eax, DWORD PTR _this$[ebp]
	mov	ecx, DWORD PTR __Al_$[ebp]
	mov	DWORD PTR [eax+4], ecx

; 1482 :         // create a new _Container_proxy pointing at _Mycont
; 1483 :         _Ptr = _Unfancy(_Al_.allocate(1));

	push	1
	mov	ecx, DWORD PTR __Al_$[ebp]
	call	?allocate@?$allocator@U_Container_proxy@std@@@std@@QAEPAU_Container_proxy@2@I@Z ; std::allocator<std::_Container_proxy>::allocate
	push	eax
	call	??$_Unfancy@U_Container_proxy@std@@@std@@YAPAU_Container_proxy@0@PAU10@@Z ; std::_Unfancy<std::_Container_proxy>
	add	esp, 4
	mov	edx, DWORD PTR _this$[ebp]
	mov	DWORD PTR [edx], eax

; 1484 :         _Construct_in_place(*_Ptr, _STD addressof(_Mycont));

	mov	eax, DWORD PTR __Mycont$[ebp]
	push	eax
	call	??$addressof@U_Container_base12@std@@@std@@YAPAU_Container_base12@0@AAU10@@Z ; std::addressof<std::_Container_base12>
	add	esp, 4
	mov	DWORD PTR $T1[ebp], eax
	lea	ecx, DWORD PTR $T1[ebp]
	push	ecx
	mov	edx, DWORD PTR _this$[ebp]
	mov	eax, DWORD PTR [edx]
	push	eax
	call	??$_Construct_in_place@U_Container_proxy@std@@PAU_Container_base12@2@@std@@YAXAAU_Container_proxy@0@$$QAPAU_Container_base12@0@@Z ; std::_Construct_in_place<std::_Container_proxy,std::_Container_base12 *>
	add	esp, 8

; 1485 :         _Mycont._Myproxy = _Ptr;

	mov	ecx, DWORD PTR __Mycont$[ebp]
	mov	edx, DWORD PTR _this$[ebp]
	mov	eax, DWORD PTR [edx]
	mov	DWORD PTR [ecx], eax

; 1486 :     }

	mov	eax, DWORD PTR _this$[ebp]
	add	esp, 8
	cmp	ebp, esp
	call	__RTC_CheckEsp
	mov	esp, ebp
	pop	ebp
	ret	8
??0?$_Container_proxy_ptr12@V?$allocator@U_Container_proxy@std@@@std@@@std@@QAE@AAV?$allocator@U_Container_proxy@std@@@1@AAU_Container_base12@1@@Z ENDP ; std::_Container_proxy_ptr12<std::allocator<std::_Container_proxy> >::_Container_proxy_ptr12<std::allocator<std::_Container_proxy> >
_TEXT	ENDS
; Function compile flags: /Odtp /RTCsu
; File C:\Program Files\Microsoft Visual Studio\2022\Community\VC\Tools\MSVC\14.44.35207\include\xutility
;	COMDAT ??$_Construct_in_place@U_Container_proxy@std@@PAU_Container_base12@2@@std@@YAXAAU_Container_proxy@0@$$QAPAU_Container_base12@0@@Z
_TEXT	SEGMENT
$T1 = -4						; size = 4
__Obj$ = 8						; size = 4
_<_Args_0>$ = 12					; size = 4
??$_Construct_in_place@U_Container_proxy@std@@PAU_Container_base12@2@@std@@YAXAAU_Container_proxy@0@$$QAPAU_Container_base12@0@@Z PROC ; std::_Construct_in_place<std::_Container_proxy,std::_Container_base12 *>, COMDAT

; 469  :     noexcept(is_nothrow_constructible_v<_Ty, _Types...>) {

	push	ebp
	mov	ebp, esp
	push	ecx
	mov	DWORD PTR [ebp-4], -858993460		; ccccccccH

; 470  : #if _HAS_CXX20
; 471  :     if (_STD is_constant_evaluated()) {
; 472  :         _STD construct_at(_STD addressof(_Obj), _STD forward<_Types>(_Args)...);
; 473  :     } else
; 474  : #endif // _HAS_CXX20
; 475  :     {
; 476  :         ::new (static_cast<void*>(_STD addressof(_Obj))) _Ty(_STD forward<_Types>(_Args)...);

	mov	eax, DWORD PTR __Obj$[ebp]
	push	eax
	call	??$addressof@U_Container_proxy@std@@@std@@YAPAU_Container_proxy@0@AAU10@@Z ; std::addressof<std::_Container_proxy>
	add	esp, 4
	push	eax
	push	8
	call	??2@YAPAXIPAX@Z				; operator new
	add	esp, 8
	mov	DWORD PTR $T1[ebp], eax
	mov	ecx, DWORD PTR _<_Args_0>$[ebp]
	push	ecx
	call	??$forward@PAU_Container_base12@std@@@std@@YA$$QAPAU_Container_base12@0@AAPAU10@@Z ; std::forward<std::_Container_base12 *>
	add	esp, 4
	mov	edx, DWORD PTR [eax]
	push	edx
	mov	ecx, DWORD PTR $T1[ebp]
	call	??0_Container_proxy@std@@QAE@PAU_Container_base12@1@@Z ; std::_Container_proxy::_Container_proxy
	npad	1

; 477  :     }
; 478  : }

	add	esp, 4
	cmp	ebp, esp
	call	__RTC_CheckEsp
	mov	esp, ebp
	pop	ebp
	ret	0
??$_Construct_in_place@U_Container_proxy@std@@PAU_Container_base12@2@@std@@YAXAAU_Container_proxy@0@$$QAPAU_Container_base12@0@@Z ENDP ; std::_Construct_in_place<std::_Container_proxy,std::_Container_base12 *>
_TEXT	ENDS
; Function compile flags: /Odtp /RTCsu
; File C:\Program Files\Microsoft Visual Studio\2022\Community\VC\Tools\MSVC\14.44.35207\include\xmemory
;	COMDAT ??$_Unfancy@U_Container_proxy@std@@@std@@YAPAU_Container_proxy@0@PAU10@@Z
_TEXT	SEGMENT
__Ptr$ = 8						; size = 4
??$_Unfancy@U_Container_proxy@std@@@std@@YAPAU_Container_proxy@0@PAU10@@Z PROC ; std::_Unfancy<std::_Container_proxy>, COMDAT

; 68   : _NODISCARD constexpr _Ty* _Unfancy(_Ty* _Ptr) noexcept { // do nothing for plain pointers

	push	ebp
	mov	ebp, esp

; 69   :     return _Ptr;

	mov	eax, DWORD PTR __Ptr$[ebp]

; 70   : }

	pop	ebp
	ret	0
??$_Unfancy@U_Container_proxy@std@@@std@@YAPAU_Container_proxy@0@PAU10@@Z ENDP ; std::_Unfancy<std::_Container_proxy>
_TEXT	ENDS
; Function compile flags: /Odtp /RTCsu
; File C:\Program Files\Microsoft Visual Studio\2022\Community\VC\Tools\MSVC\14.44.35207\include\xmemory
;	COMDAT ??$_Deallocate_plain@V?$allocator@U_Container_proxy@std@@@std@@@std@@YAXAAV?$allocator@U_Container_proxy@std@@@0@QAU_Container_proxy@0@@Z
_TEXT	SEGMENT
__Al$ = 8						; size = 4
__Ptr$ = 12						; size = 4
??$_Deallocate_plain@V?$allocator@U_Container_proxy@std@@@std@@@std@@YAXAAV?$allocator@U_Container_proxy@std@@@0@QAU_Container_proxy@0@@Z PROC ; std::_Deallocate_plain<std::allocator<std::_Container_proxy> >, COMDAT

; 1135 : _CONSTEXPR20 void _Deallocate_plain(_Alloc& _Al, typename _Alloc::value_type* const _Ptr) noexcept {

	push	ebp
	mov	ebp, esp

; 1136 :     // deallocate a plain pointer using an allocator
; 1137 :     using _Alloc_traits = allocator_traits<_Alloc>;
; 1138 :     if constexpr (is_same_v<_Alloc_ptr_t<_Alloc>, typename _Alloc::value_type*>) {
; 1139 :         _Alloc_traits::deallocate(_Al, _Ptr, 1);

	push	1
	mov	eax, DWORD PTR __Ptr$[ebp]
	push	eax
	mov	ecx, DWORD PTR __Al$[ebp]
	push	ecx
	call	?deallocate@?$_Default_allocator_traits@V?$allocator@U_Container_proxy@std@@@std@@@std@@SAXAAV?$allocator@U_Container_proxy@std@@@2@QAU_Container_proxy@2@I@Z ; std::_Default_allocator_traits<std::allocator<std::_Container_proxy> >::deallocate
	add	esp, 12					; 0000000cH

; 1140 :     } else {
; 1141 :         using _Ptr_traits = pointer_traits<_Alloc_ptr_t<_Alloc>>;
; 1142 :         _Alloc_traits::deallocate(_Al, _Ptr_traits::pointer_to(*_Ptr), 1);
; 1143 :     }
; 1144 : }

	cmp	ebp, esp
	call	__RTC_CheckEsp
	pop	ebp
	ret	0
??$_Deallocate_plain@V?$allocator@U_Container_proxy@std@@@std@@@std@@YAXAAV?$allocator@U_Container_proxy@std@@@0@QAU_Container_proxy@0@@Z ENDP ; std::_Deallocate_plain<std::allocator<std::_Container_proxy> >
_TEXT	ENDS
; Function compile flags: /Odtp /RTCsu
; File C:\Program Files\Microsoft Visual Studio\2022\Community\VC\Tools\MSVC\14.44.35207\include\xmemory
;	COMDAT ??$?0D@?$allocator@U_Container_proxy@std@@@std@@QAE@ABV?$allocator@D@1@@Z
_TEXT	SEGMENT
_this$ = -4						; size = 4
___formal$ = 8						; size = 4
??$?0D@?$allocator@U_Container_proxy@std@@@std@@QAE@ABV?$allocator@D@1@@Z PROC ; std::allocator<std::_Container_proxy>::allocator<std::_Container_proxy><char>, COMDAT
; _this$ = ecx

; 978  :     constexpr allocator(const allocator<_Other>&) noexcept {}

	push	ebp
	mov	ebp, esp
	push	ecx
	mov	DWORD PTR _this$[ebp], ecx
	mov	eax, DWORD PTR _this$[ebp]
	mov	esp, ebp
	pop	ebp
	ret	4
??$?0D@?$allocator@U_Container_proxy@std@@@std@@QAE@ABV?$allocator@D@1@@Z ENDP ; std::allocator<std::_Container_proxy>::allocator<std::_Container_proxy><char>
_TEXT	ENDS
; Function compile flags: /Odtp /RTCsu
; File C:\Program Files\Microsoft Visual Studio\2022\Community\VC\Tools\MSVC\14.44.35207\include\xmemory
;	COMDAT ??$_Delete_plain_internal@V?$allocator@U_Container_proxy@std@@@std@@@std@@YAXAAV?$allocator@U_Container_proxy@std@@@0@QAU_Container_proxy@0@@Z
_TEXT	SEGMENT
__Al$ = 8						; size = 4
__Ptr$ = 12						; size = 4
??$_Delete_plain_internal@V?$allocator@U_Container_proxy@std@@@std@@@std@@YAXAAV?$allocator@U_Container_proxy@std@@@0@QAU_Container_proxy@0@@Z PROC ; std::_Delete_plain_internal<std::allocator<std::_Container_proxy> >, COMDAT

; 1147 : _CONSTEXPR20 void _Delete_plain_internal(_Alloc& _Al, typename _Alloc::value_type* const _Ptr) noexcept {

	push	ebp
	mov	ebp, esp

; 1148 :     // destroy *_Ptr in place, then deallocate _Ptr using _Al; used for internal container types the user didn't name
; 1149 :     using _Ty = typename _Alloc::value_type;
; 1150 :     _Ptr->~_Ty();
; 1151 :     _STD _Deallocate_plain(_Al, _Ptr);

	mov	eax, DWORD PTR __Ptr$[ebp]
	push	eax
	mov	ecx, DWORD PTR __Al$[ebp]
	push	ecx
	call	??$_Deallocate_plain@V?$allocator@U_Container_proxy@std@@@std@@@std@@YAXAAV?$allocator@U_Container_proxy@std@@@0@QAU_Container_proxy@0@@Z ; std::_Deallocate_plain<std::allocator<std::_Container_proxy> >
	add	esp, 8

; 1152 : }

	cmp	ebp, esp
	call	__RTC_CheckEsp
	pop	ebp
	ret	0
??$_Delete_plain_internal@V?$allocator@U_Container_proxy@std@@@std@@@std@@YAXAAV?$allocator@U_Container_proxy@std@@@0@QAU_Container_proxy@0@@Z ENDP ; std::_Delete_plain_internal<std::allocator<std::_Container_proxy> >
_TEXT	ENDS
; Function compile flags: /Odtp /RTCsu
; File C:\Program Files\Microsoft Visual Studio\2022\Community\VC\Tools\MSVC\14.44.35207\include\xmemory
;	COMDAT ?allocate@?$allocator@U_Container_proxy@std@@@std@@QAEPAU_Container_proxy@2@I@Z
_TEXT	SEGMENT
_this$ = -4						; size = 4
__Count$ = 8						; size = 4
?allocate@?$allocator@U_Container_proxy@std@@@std@@QAEPAU_Container_proxy@2@I@Z PROC ; std::allocator<std::_Container_proxy>::allocate, COMDAT
; _this$ = ecx

; 988  :     _NODISCARD_RAW_PTR_ALLOC _CONSTEXPR20 __declspec(allocator) _Ty* allocate(_CRT_GUARDOVERFLOW const size_t _Count) {

	push	ebp
	mov	ebp, esp
	push	ecx
	mov	DWORD PTR [ebp-4], -858993460		; ccccccccH
	mov	DWORD PTR _this$[ebp], ecx

; 989  :         static_assert(sizeof(value_type) > 0, "value_type must be complete before calling allocate.");
; 990  :         return static_cast<_Ty*>(_STD _Allocate<_New_alignof<_Ty>>(_Get_size_of_n<sizeof(_Ty)>(_Count)));

	mov	eax, DWORD PTR __Count$[ebp]
	push	eax
	call	??$_Get_size_of_n@$07@std@@YAII@Z	; std::_Get_size_of_n<8>
	add	esp, 4
	push	eax
	call	??$_Allocate@$07U_Default_allocate_traits@std@@@std@@YAPAXI@Z ; std::_Allocate<8,std::_Default_allocate_traits>
	add	esp, 4

; 991  :     }

	add	esp, 4
	cmp	ebp, esp
	call	__RTC_CheckEsp
	mov	esp, ebp
	pop	ebp
	ret	4
?allocate@?$allocator@U_Container_proxy@std@@@std@@QAEPAU_Container_proxy@2@I@Z ENDP ; std::allocator<std::_Container_proxy>::allocate
_TEXT	ENDS
; Function compile flags: /Odtp /RTCsu
; File C:\Program Files\Microsoft Visual Studio\2022\Community\VC\Tools\MSVC\14.44.35207\include\xutility
;	COMDAT ??$?9V?$_List_const_iterator@V?$_List_val@U?$_List_simple_types@PAV?$Goal@VRaven_Bot@@@@@std@@@std@@@std@@V01@@std@@YA_NABV?$reverse_iterator@V?$_List_const_iterator@V?$_List_val@U?$_List_simple_types@PAV?$Goal@VRaven_Bot@@@@@std@@@std@@@std@@@0@0@Z
_TEXT	SEGMENT
__Left$ = 8						; size = 4
__Right$ = 12						; size = 4
??$?9V?$_List_const_iterator@V?$_List_val@U?$_List_simple_types@PAV?$Goal@VRaven_Bot@@@@@std@@@std@@@std@@V01@@std@@YA_NABV?$reverse_iterator@V?$_List_const_iterator@V?$_List_val@U?$_List_simple_types@PAV?$Goal@VRaven_Bot@@@@@std@@@std@@@std@@@0@0@Z PROC ; std::operator!=<std::_List_const_iterator<std::_List_val<std::_List_simple_types<Goal<Raven_Bot> *> > >,std::_List_const_iterator<std::_List_val<std::_List_simple_types<Goal<Raven_Bot> *> > > >, COMDAT

; 1915 : {

	push	ebp
	mov	ebp, esp

; 1916 :     return _Left._Get_current() != _Right._Get_current();

	mov	ecx, DWORD PTR __Right$[ebp]
	call	?_Get_current@?$reverse_iterator@V?$_List_const_iterator@V?$_List_val@U?$_List_simple_types@PAV?$Goal@VRaven_Bot@@@@@std@@@std@@@std@@@std@@QBEABV?$_List_const_iterator@V?$_List_val@U?$_List_simple_types@PAV?$Goal@VRaven_Bot@@@@@std@@@std@@@2@XZ ; std::reverse_iterator<std::_List_const_iterator<std::_List_val<std::_List_simple_types<Goal<Raven_Bot> *> > > >::_Get_current
	push	eax
	mov	ecx, DWORD PTR __Left$[ebp]
	call	?_Get_current@?$reverse_iterator@V?$_List_const_iterator@V?$_List_val@U?$_List_simple_types@PAV?$Goal@VRaven_Bot@@@@@std@@@std@@@std@@@std@@QBEABV?$_List_const_iterator@V?$_List_val@U?$_List_simple_types@PAV?$Goal@VRaven_Bot@@@@@std@@@std@@@2@XZ ; std::reverse_iterator<std::_List_const_iterator<std::_List_val<std::_List_simple_types<Goal<Raven_Bot> *> > > >::_Get_current
	mov	ecx, eax
	call	??9?$_List_const_iterator@V?$_List_val@U?$_List_simple_types@PAV?$Goal@VRaven_Bot@@@@@std@@@std@@@std@@QBE_NABV01@@Z ; std::_List_const_iterator<std::_List_val<std::_List_simple_types<Goal<Raven_Bot> *> > >::operator!=

; 1917 : }

	cmp	ebp, esp
	call	__RTC_CheckEsp
	pop	ebp
	ret	0
??$?9V?$_List_const_iterator@V?$_List_val@U?$_List_simple_types@PAV?$Goal@VRaven_Bot@@@@@std@@@std@@@std@@V01@@std@@YA_NABV?$reverse_iterator@V?$_List_const_iterator@V?$_List_val@U?$_List_simple_types@PAV?$Goal@VRaven_Bot@@@@@std@@@std@@@std@@@0@0@Z ENDP ; std::operator!=<std::_List_const_iterator<std::_List_val<std::_List_simple_types<Goal<Raven_Bot> *> > >,std::_List_const_iterator<std::_List_val<std::_List_simple_types<Goal<Raven_Bot> *> > > >
_TEXT	ENDS
; Function compile flags: /Odtp /RTCsu
;	COMDAT ??4?$reverse_iterator@V?$_List_const_iterator@V?$_List_val@U?$_List_simple_types@PAV?$Goal@VRaven_Bot@@@@@std@@@std@@@std@@@std@@QAEAAV01@$$QAV01@@Z
_TEXT	SEGMENT
_this$ = -4						; size = 4
___that$ = 8						; size = 4
??4?$reverse_iterator@V?$_List_const_iterator@V?$_List_val@U?$_List_simple_types@PAV?$Goal@VRaven_Bot@@@@@std@@@std@@@std@@@std@@QAEAAV01@$$QAV01@@Z PROC ; std::reverse_iterator<std::_List_const_iterator<std::_List_val<std::_List_simple_types<Goal<Raven_Bot> *> > > >::operator=, COMDAT
; _this$ = ecx
	push	ebp
	mov	ebp, esp
	push	ecx
	mov	DWORD PTR [ebp-4], -858993460		; ccccccccH
	mov	DWORD PTR _this$[ebp], ecx
	mov	eax, DWORD PTR ___that$[ebp]
	push	eax
	mov	ecx, DWORD PTR _this$[ebp]
	call	??4?$_List_const_iterator@V?$_List_val@U?$_List_simple_types@PAV?$Goal@VRaven_Bot@@@@@std@@@std@@@std@@QAEAAV01@$$QAV01@@Z
	mov	eax, DWORD PTR _this$[ebp]
	add	esp, 4
	cmp	ebp, esp
	call	__RTC_CheckEsp
	mov	esp, ebp
	pop	ebp
	ret	4
??4?$reverse_iterator@V?$_List_const_iterator@V?$_List_val@U?$_List_simple_types@PAV?$Goal@VRaven_Bot@@@@@std@@@std@@@std@@@std@@QAEAAV01@$$QAV01@@Z ENDP ; std::reverse_iterator<std::_List_const_iterator<std::_List_val<std::_List_simple_types<Goal<Raven_Bot> *> > > >::operator=
_TEXT	ENDS
; Function compile flags: /Odtp /RTCsu
;	COMDAT ??1?$reverse_iterator@V?$_List_const_iterator@V?$_List_val@U?$_List_simple_types@PAV?$Goal@VRaven_Bot@@@@@std@@@std@@@std@@@std@@QAE@XZ
_TEXT	SEGMENT
_this$ = -4						; size = 4
??1?$reverse_iterator@V?$_List_const_iterator@V?$_List_val@U?$_List_simple_types@PAV?$Goal@VRaven_Bot@@@@@std@@@std@@@std@@@std@@QAE@XZ PROC ; std::reverse_iterator<std::_List_const_iterator<std::_List_val<std::_List_simple_types<Goal<Raven_Bot> *> > > >::~reverse_iterator<std::_List_const_iterator<std::_List_val<std::_List_simple_types<Goal<Raven_Bot> *> > > >, COMDAT
; _this$ = ecx
	push	ebp
	mov	ebp, esp
	push	ecx
	mov	DWORD PTR [ebp-4], -858993460		; ccccccccH
	mov	DWORD PTR _this$[ebp], ecx
	mov	ecx, DWORD PTR _this$[ebp]
	call	??1?$_List_const_iterator@V?$_List_val@U?$_List_simple_types@PAV?$Goal@VRaven_Bot@@@@@std@@@std@@@std@@QAE@XZ
	npad	1
	add	esp, 4
	cmp	ebp, esp
	call	__RTC_CheckEsp
	mov	esp, ebp
	pop	ebp
	ret	0
??1?$reverse_iterator@V?$_List_const_iterator@V?$_List_val@U?$_List_simple_types@PAV?$Goal@VRaven_Bot@@@@@std@@@std@@@std@@@std@@QAE@XZ ENDP ; std::reverse_iterator<std::_List_const_iterator<std::_List_val<std::_List_simple_types<Goal<Raven_Bot> *> > > >::~reverse_iterator<std::_List_const_iterator<std::_List_val<std::_List_simple_types<Goal<Raven_Bot> *> > > >
_TEXT	ENDS
; Function compile flags: /Odtp /RTCsu
; File C:\Program Files\Microsoft Visual Studio\2022\Community\VC\Tools\MSVC\14.44.35207\include\xutility
;	COMDAT ?_Get_current@?$reverse_iterator@V?$_List_const_iterator@V?$_List_val@U?$_List_simple_types@PAV?$Goal@VRaven_Bot@@@@@std@@@std@@@std@@@std@@QBEABV?$_List_const_iterator@V?$_List_val@U?$_List_simple_types@PAV?$Goal@VRaven_Bot@@@@@std@@@std@@@2@XZ
_TEXT	SEGMENT
_this$ = -4						; size = 4
?_Get_current@?$reverse_iterator@V?$_List_const_iterator@V?$_List_val@U?$_List_simple_types@PAV?$Goal@VRaven_Bot@@@@@std@@@std@@@std@@@std@@QBEABV?$_List_const_iterator@V?$_List_val@U?$_List_simple_types@PAV?$Goal@VRaven_Bot@@@@@std@@@std@@@2@XZ PROC ; std::reverse_iterator<std::_List_const_iterator<std::_List_val<std::_List_simple_types<Goal<Raven_Bot> *> > > >::_Get_current, COMDAT
; _this$ = ecx

; 1887 :     _NODISCARD constexpr const _BidIt& _Get_current() const noexcept {

	push	ebp
	mov	ebp, esp
	push	ecx
	mov	DWORD PTR _this$[ebp], ecx

; 1888 :         return current;

	mov	eax, DWORD PTR _this$[ebp]

; 1889 :     }

	mov	esp, ebp
	pop	ebp
	ret	0
?_Get_current@?$reverse_iterator@V?$_List_const_iterator@V?$_List_val@U?$_List_simple_types@PAV?$Goal@VRaven_Bot@@@@@std@@@std@@@std@@@std@@QBEABV?$_List_const_iterator@V?$_List_val@U?$_List_simple_types@PAV?$Goal@VRaven_Bot@@@@@std@@@std@@@2@XZ ENDP ; std::reverse_iterator<std::_List_const_iterator<std::_List_val<std::_List_simple_types<Goal<Raven_Bot> *> > > >::_Get_current
_TEXT	ENDS
; Function compile flags: /Odtp /RTCsu
; File C:\Program Files\Microsoft Visual Studio\2022\Community\VC\Tools\MSVC\14.44.35207\include\xutility
;	COMDAT ??E?$reverse_iterator@V?$_List_const_iterator@V?$_List_val@U?$_List_simple_types@PAV?$Goal@VRaven_Bot@@@@@std@@@std@@@std@@@std@@QAEAAV01@XZ
_TEXT	SEGMENT
_this$ = -4						; size = 4
??E?$reverse_iterator@V?$_List_const_iterator@V?$_List_val@U?$_List_simple_types@PAV?$Goal@VRaven_Bot@@@@@std@@@std@@@std@@@std@@QAEAAV01@XZ PROC ; std::reverse_iterator<std::_List_const_iterator<std::_List_val<std::_List_simple_types<Goal<Raven_Bot> *> > > >::operator++, COMDAT
; _this$ = ecx

; 1784 :     _CONSTEXPR17 reverse_iterator& operator++() noexcept(noexcept(--current)) /* strengthened */ {

	push	ebp
	mov	ebp, esp
	push	ecx
	mov	DWORD PTR [ebp-4], -858993460		; ccccccccH
	mov	DWORD PTR _this$[ebp], ecx

; 1785 :         --current;

	mov	ecx, DWORD PTR _this$[ebp]
	call	??F?$_List_const_iterator@V?$_List_val@U?$_List_simple_types@PAV?$Goal@VRaven_Bot@@@@@std@@@std@@@std@@QAEAAV01@XZ ; std::_List_const_iterator<std::_List_val<std::_List_simple_types<Goal<Raven_Bot> *> > >::operator--

; 1786 :         return *this;

	mov	eax, DWORD PTR _this$[ebp]

; 1787 :     }

	add	esp, 4
	cmp	ebp, esp
	call	__RTC_CheckEsp
	mov	esp, ebp
	pop	ebp
	ret	0
??E?$reverse_iterator@V?$_List_const_iterator@V?$_List_val@U?$_List_simple_types@PAV?$Goal@VRaven_Bot@@@@@std@@@std@@@std@@@std@@QAEAAV01@XZ ENDP ; std::reverse_iterator<std::_List_const_iterator<std::_List_val<std::_List_simple_types<Goal<Raven_Bot> *> > > >::operator++
_TEXT	ENDS
; Function compile flags: /Odtp /RTCsu
; File C:\Program Files\Microsoft Visual Studio\2022\Community\VC\Tools\MSVC\14.44.35207\include\xutility
;	COMDAT ??D?$reverse_iterator@V?$_List_const_iterator@V?$_List_val@U?$_List_simple_types@PAV?$Goal@VRaven_Bot@@@@@std@@@std@@@std@@@std@@QBEABQAV?$Goal@VRaven_Bot@@@@XZ
_TEXT	SEGMENT
$T1 = -28						; size = 4
__Tmp$ = -20						; size = 12
_this$ = -4						; size = 4
??D?$reverse_iterator@V?$_List_const_iterator@V?$_List_val@U?$_List_simple_types@PAV?$Goal@VRaven_Bot@@@@@std@@@std@@@std@@@std@@QBEABQAV?$Goal@VRaven_Bot@@@@XZ PROC ; std::reverse_iterator<std::_List_const_iterator<std::_List_val<std::_List_simple_types<Goal<Raven_Bot> *> > > >::operator*, COMDAT
; _this$ = ecx

; 1763 :         noexcept(is_nothrow_copy_constructible_v<_BidIt> && noexcept(*--(_STD declval<_BidIt&>()))) /* strengthened */ {

	push	ebp
	mov	ebp, esp
	sub	esp, 28					; 0000001cH
	mov	eax, -858993460				; ccccccccH
	mov	DWORD PTR [ebp-28], eax
	mov	DWORD PTR [ebp-24], eax
	mov	DWORD PTR [ebp-20], eax
	mov	DWORD PTR [ebp-16], eax
	mov	DWORD PTR [ebp-12], eax
	mov	DWORD PTR [ebp-8], eax
	mov	DWORD PTR [ebp-4], eax
	mov	DWORD PTR _this$[ebp], ecx

; 1764 :         _BidIt _Tmp = current;

	mov	eax, DWORD PTR _this$[ebp]
	push	eax
	lea	ecx, DWORD PTR __Tmp$[ebp]
	call	??0?$_List_const_iterator@V?$_List_val@U?$_List_simple_types@PAV?$Goal@VRaven_Bot@@@@@std@@@std@@@std@@QAE@ABV01@@Z
	npad	1

; 1765 :         return *--_Tmp;

	lea	ecx, DWORD PTR __Tmp$[ebp]
	call	??F?$_List_const_iterator@V?$_List_val@U?$_List_simple_types@PAV?$Goal@VRaven_Bot@@@@@std@@@std@@@std@@QAEAAV01@XZ ; std::_List_const_iterator<std::_List_val<std::_List_simple_types<Goal<Raven_Bot> *> > >::operator--
	mov	ecx, eax
	call	??D?$_List_const_iterator@V?$_List_val@U?$_List_simple_types@PAV?$Goal@VRaven_Bot@@@@@std@@@std@@@std@@QBEABQAV?$Goal@VRaven_Bot@@@@XZ ; std::_List_const_iterator<std::_List_val<std::_List_simple_types<Goal<Raven_Bot> *> > >::operator*
	mov	DWORD PTR $T1[ebp], eax
	lea	ecx, DWORD PTR __Tmp$[ebp]
	call	??1?$_List_const_iterator@V?$_List_val@U?$_List_simple_types@PAV?$Goal@VRaven_Bot@@@@@std@@@std@@@std@@QAE@XZ
	mov	eax, DWORD PTR $T1[ebp]

; 1766 :     }

	push	edx
	mov	ecx, ebp
	push	eax
	lea	edx, DWORD PTR $LN6@operator
	call	@_RTC_CheckStackVars@8
	pop	eax
	pop	edx
	add	esp, 28					; 0000001cH
	cmp	ebp, esp
	call	__RTC_CheckEsp
	mov	esp, ebp
	pop	ebp
	ret	0
$LN6@operator:
	DD	1
	DD	$LN5@operator
$LN5@operator:
	DD	-20					; ffffffecH
	DD	12					; 0000000cH
	DD	$LN4@operator
$LN4@operator:
	DB	95					; 0000005fH
	DB	84					; 00000054H
	DB	109					; 0000006dH
	DB	112					; 00000070H
	DB	0
??D?$reverse_iterator@V?$_List_const_iterator@V?$_List_val@U?$_List_simple_types@PAV?$Goal@VRaven_Bot@@@@@std@@@std@@@std@@@std@@QBEABQAV?$Goal@VRaven_Bot@@@@XZ ENDP ; std::reverse_iterator<std::_List_const_iterator<std::_List_val<std::_List_simple_types<Goal<Raven_Bot> *> > > >::operator*
_TEXT	ENDS
; Function compile flags: /Odtp /RTCsu
; File C:\Program Files\Microsoft Visual Studio\2022\Community\VC\Tools\MSVC\14.44.35207\include\xutility
;	COMDAT ??0?$reverse_iterator@V?$_List_const_iterator@V?$_List_val@U?$_List_simple_types@PAV?$Goal@VRaven_Bot@@@@@std@@@std@@@std@@@std@@QAE@V?$_List_const_iterator@V?$_List_val@U?$_List_simple_types@PAV?$Goal@VRaven_Bot@@@@@std@@@std@@@1@@Z
_TEXT	SEGMENT
_this$ = -4						; size = 4
__Right$ = 8						; size = 12
??0?$reverse_iterator@V?$_List_const_iterator@V?$_List_val@U?$_List_simple_types@PAV?$Goal@VRaven_Bot@@@@@std@@@std@@@std@@@std@@QAE@V?$_List_const_iterator@V?$_List_val@U?$_List_simple_types@PAV?$Goal@VRaven_Bot@@@@@std@@@std@@@1@@Z PROC ; std::reverse_iterator<std::_List_const_iterator<std::_List_val<std::_List_simple_types<Goal<Raven_Bot> *> > > >::reverse_iterator<std::_List_const_iterator<std::_List_val<std::_List_simple_types<Goal<Raven_Bot> *> > > >, COMDAT
; _this$ = ecx

; 1734 :     _CONSTEXPR17 explicit reverse_iterator(_BidIt _Right)

	push	ebp
	mov	ebp, esp
	push	ecx
	mov	DWORD PTR [ebp-4], -858993460		; ccccccccH
	mov	DWORD PTR _this$[ebp], ecx

; 1735 :         noexcept(is_nothrow_move_constructible_v<_BidIt>) // strengthened
; 1736 :         : current(_STD move(_Right)) {}

	lea	eax, DWORD PTR __Right$[ebp]
	push	eax
	call	??$move@AAV?$_List_const_iterator@V?$_List_val@U?$_List_simple_types@PAV?$Goal@VRaven_Bot@@@@@std@@@std@@@std@@@std@@YA$$QAV?$_List_const_iterator@V?$_List_val@U?$_List_simple_types@PAV?$Goal@VRaven_Bot@@@@@std@@@std@@@0@AAV10@@Z ; std::move<std::_List_const_iterator<std::_List_val<std::_List_simple_types<Goal<Raven_Bot> *> > > &>
	add	esp, 4
	push	eax
	mov	ecx, DWORD PTR _this$[ebp]
	call	??0?$_List_const_iterator@V?$_List_val@U?$_List_simple_types@PAV?$Goal@VRaven_Bot@@@@@std@@@std@@@std@@QAE@$$QAV01@@Z
	npad	1
	lea	ecx, DWORD PTR __Right$[ebp]
	call	??1?$_List_const_iterator@V?$_List_val@U?$_List_simple_types@PAV?$Goal@VRaven_Bot@@@@@std@@@std@@@std@@QAE@XZ
	mov	eax, DWORD PTR _this$[ebp]
	add	esp, 4
	cmp	ebp, esp
	call	__RTC_CheckEsp
	mov	esp, ebp
	pop	ebp
	ret	12					; 0000000cH
??0?$reverse_iterator@V?$_List_const_iterator@V?$_List_val@U?$_List_simple_types@PAV?$Goal@VRaven_Bot@@@@@std@@@std@@@std@@@std@@QAE@V?$_List_const_iterator@V?$_List_val@U?$_List_simple_types@PAV?$Goal@VRaven_Bot@@@@@std@@@std@@@1@@Z ENDP ; std::reverse_iterator<std::_List_const_iterator<std::_List_val<std::_List_simple_types<Goal<Raven_Bot> *> > > >::reverse_iterator<std::_List_const_iterator<std::_List_val<std::_List_simple_types<Goal<Raven_Bot> *> > > >
_TEXT	ENDS
; Function compile flags: /Odtp /RTCsu
; File C:\Program Files\Microsoft Visual Studio\2022\Community\VC\Tools\MSVC\14.44.35207\include\xutility
;	COMDAT ??0?$reverse_iterator@V?$_List_const_iterator@V?$_List_val@U?$_List_simple_types@PAV?$Goal@VRaven_Bot@@@@@std@@@std@@@std@@@std@@QAE@XZ
_TEXT	SEGMENT
_this$ = -4						; size = 4
??0?$reverse_iterator@V?$_List_const_iterator@V?$_List_val@U?$_List_simple_types@PAV?$Goal@VRaven_Bot@@@@@std@@@std@@@std@@@std@@QAE@XZ PROC ; std::reverse_iterator<std::_List_const_iterator<std::_List_val<std::_List_simple_types<Goal<Raven_Bot> *> > > >::reverse_iterator<std::_List_const_iterator<std::_List_val<std::_List_simple_types<Goal<Raven_Bot> *> > > >, COMDAT
; _this$ = ecx

; 1732 :     _CONSTEXPR17 reverse_iterator() = default;

	push	ebp
	mov	ebp, esp
	push	ecx
	mov	DWORD PTR [ebp-4], -858993460		; ccccccccH
	mov	DWORD PTR _this$[ebp], ecx

; 1733 : 
; 1734 :     _CONSTEXPR17 explicit reverse_iterator(_BidIt _Right)
; 1735 :         noexcept(is_nothrow_move_constructible_v<_BidIt>) // strengthened
; 1736 :         : current(_STD move(_Right)) {}
; 1737 : 
; 1738 :     template <class _Other>
; 1739 : #if _HAS_CXX20
; 1740 :         requires (!is_same_v<_Other, _BidIt>) && convertible_to<const _Other&, _BidIt>
; 1741 : #endif // _HAS_CXX20
; 1742 :     _CONSTEXPR17 reverse_iterator(const reverse_iterator<_Other>& _Right)
; 1743 :         noexcept(is_nothrow_constructible_v<_BidIt, const _Other&>) // strengthened
; 1744 :         : current(_Right.current) {
; 1745 :     }
; 1746 : 
; 1747 :     template <class _Other>
; 1748 : #if _HAS_CXX20
; 1749 :         requires (!is_same_v<_Other, _BidIt>)
; 1750 :               && convertible_to<const _Other&, _BidIt> && assignable_from<_BidIt&, const _Other&>
; 1751 : #endif // _HAS_CXX20
; 1752 :     _CONSTEXPR17 reverse_iterator& operator=(const reverse_iterator<_Other>& _Right)
; 1753 :         noexcept(is_nothrow_assignable_v<_BidIt&, const _Other&>) /* strengthened */ {
; 1754 :         current = _Right.current;
; 1755 :         return *this;
; 1756 :     }
; 1757 : 
; 1758 :     _NODISCARD _CONSTEXPR17 _BidIt base() const noexcept(is_nothrow_copy_constructible_v<_BidIt>) /* strengthened */ {
; 1759 :         return current;
; 1760 :     }
; 1761 : 
; 1762 :     _NODISCARD _CONSTEXPR17 reference operator*() const
; 1763 :         noexcept(is_nothrow_copy_constructible_v<_BidIt> && noexcept(*--(_STD declval<_BidIt&>()))) /* strengthened */ {
; 1764 :         _BidIt _Tmp = current;
; 1765 :         return *--_Tmp;
; 1766 :     }
; 1767 : 
; 1768 :     _NODISCARD _CONSTEXPR17 pointer operator->() const
; 1769 :         noexcept(is_nothrow_copy_constructible_v<_BidIt> && noexcept(--(_STD declval<_BidIt&>()))
; 1770 :                  && _Has_nothrow_operator_arrow<_BidIt&, pointer>) /* strengthened */
; 1771 : #if _HAS_CXX20
; 1772 :         requires (is_pointer_v<_BidIt> || requires(const _BidIt __i) { __i.operator->(); })
; 1773 : #endif
; 1774 :     {
; 1775 :         _BidIt _Tmp = current;
; 1776 :         --_Tmp;
; 1777 :         if constexpr (is_pointer_v<_BidIt>) {
; 1778 :             return _Tmp;
; 1779 :         } else {
; 1780 :             return _Tmp.operator->();
; 1781 :         }
; 1782 :     }
; 1783 : 
; 1784 :     _CONSTEXPR17 reverse_iterator& operator++() noexcept(noexcept(--current)) /* strengthened */ {
; 1785 :         --current;
; 1786 :         return *this;
; 1787 :     }
; 1788 : 
; 1789 :     _CONSTEXPR17 reverse_iterator operator++(int) noexcept(is_nothrow_copy_constructible_v<_BidIt> //
; 1790 :                                                            && noexcept(--current)) /* strengthened */ {
; 1791 :         reverse_iterator _Tmp = *this;
; 1792 :         --current;
; 1793 :         return _Tmp;
; 1794 :     }
; 1795 : 
; 1796 :     _CONSTEXPR17 reverse_iterator& operator--() noexcept(noexcept(++current)) /* strengthened */ {
; 1797 :         ++current;
; 1798 :         return *this;
; 1799 :     }
; 1800 : 
; 1801 :     _CONSTEXPR17 reverse_iterator operator--(int) noexcept(is_nothrow_copy_constructible_v<_BidIt> //
; 1802 :                                                            && noexcept(++current)) /* strengthened */ {
; 1803 :         reverse_iterator _Tmp = *this;
; 1804 :         ++current;
; 1805 :         return _Tmp;
; 1806 :     }
; 1807 : 
; 1808 :     _NODISCARD _CONSTEXPR17 reverse_iterator operator+(const difference_type _Off) const
; 1809 :         noexcept(noexcept(reverse_iterator(current - _Off))) /* strengthened */ {
; 1810 :         return reverse_iterator(current - _Off);
; 1811 :     }
; 1812 : 
; 1813 :     _CONSTEXPR17 reverse_iterator& operator+=(const difference_type _Off)
; 1814 :         noexcept(noexcept(current -= _Off)) /* strengthened */ {
; 1815 :         current -= _Off;
; 1816 :         return *this;
; 1817 :     }
; 1818 : 
; 1819 :     _NODISCARD _CONSTEXPR17 reverse_iterator operator-(const difference_type _Off) const
; 1820 :         noexcept(noexcept(reverse_iterator(current + _Off))) /* strengthened */ {
; 1821 :         return reverse_iterator(current + _Off);
; 1822 :     }
; 1823 : 
; 1824 :     _CONSTEXPR17 reverse_iterator& operator-=(const difference_type _Off)
; 1825 :         noexcept(noexcept(current += _Off)) /* strengthened */ {
; 1826 :         current += _Off;
; 1827 :         return *this;
; 1828 :     }
; 1829 : 
; 1830 :     _NODISCARD _CONSTEXPR17 reference operator[](const difference_type _Off) const
; 1831 :         noexcept(noexcept(_STD _Fake_copy_init<reference>(current[_Off]))) /* strengthened */ {
; 1832 :         return current[static_cast<difference_type>(-_Off - 1)];
; 1833 :     }
; 1834 : 
; 1835 : #if _HAS_CXX20
; 1836 :     _NODISCARD friend constexpr iter_rvalue_reference_t<_BidIt> iter_move(const reverse_iterator& _It)
; 1837 :         noexcept(is_nothrow_copy_constructible_v<_BidIt> && noexcept(_RANGES iter_move(--_STD declval<_BidIt&>()))) {
; 1838 :         auto _Tmp = _It.current;
; 1839 :         --_Tmp;
; 1840 :         return _RANGES iter_move(_Tmp);
; 1841 :     }
; 1842 : 
; 1843 :     template <indirectly_swappable<_BidIt> _BidIt2>
; 1844 :     friend constexpr void iter_swap(const reverse_iterator& _Left, const reverse_iterator<_BidIt2>& _Right)
; 1845 :         noexcept(is_nothrow_copy_constructible_v<_BidIt> && is_nothrow_copy_constructible_v<_BidIt2>
; 1846 :                  && noexcept(_RANGES iter_swap(--_STD declval<_BidIt&>(), --_STD declval<_BidIt2&>()))) {
; 1847 :         auto _LTmp = _Left.current;
; 1848 :         auto _RTmp = _Right.base();
; 1849 :         --_LTmp;
; 1850 :         --_RTmp;
; 1851 :         _RANGES iter_swap(_LTmp, _RTmp);
; 1852 :     }
; 1853 : #endif // _HAS_CXX20
; 1854 : 
; 1855 :     using _Prevent_inheriting_unwrap = reverse_iterator;
; 1856 : 
; 1857 :     template <class _BidIt2, enable_if_t<_Range_verifiable_v<_BidIt, _BidIt2>, int> = 0>
; 1858 :     friend constexpr void _Verify_range(
; 1859 :         const reverse_iterator& _First, const reverse_iterator<_BidIt2>& _Last) noexcept {
; 1860 :         _Verify_range(_Last._Get_current(), _First.current); // note reversed parameters
; 1861 :     }
; 1862 : 
; 1863 :     template <class _BidIt2 = _BidIt, enable_if_t<_Offset_verifiable_v<_BidIt2>, int> = 0>
; 1864 :     constexpr void _Verify_offset(const difference_type _Off) const noexcept {
; 1865 :         _STL_VERIFY(_Off != _Min_possible_v<difference_type>, "integer overflow");
; 1866 :         current._Verify_offset(-_Off);
; 1867 :     }
; 1868 : 
; 1869 :     template <class _BidIt2 = _BidIt, enable_if_t<_Unwrappable_v<const _BidIt2&>, int> = 0>
; 1870 :     _NODISCARD constexpr reverse_iterator<_Unwrapped_t<const _BidIt2&>> _Unwrapped() const& noexcept(
; 1871 :         noexcept(static_cast<reverse_iterator<_Unwrapped_t<const _BidIt2&>>>(current._Unwrapped()))) {
; 1872 :         return static_cast<reverse_iterator<_Unwrapped_t<const _BidIt2&>>>(current._Unwrapped());
; 1873 :     }
; 1874 :     template <class _BidIt2 = _BidIt, enable_if_t<_Unwrappable_v<_BidIt2>, int> = 0>
; 1875 :     _NODISCARD constexpr reverse_iterator<_Unwrapped_t<_BidIt2>> _Unwrapped() && noexcept(
; 1876 :         noexcept(static_cast<reverse_iterator<_Unwrapped_t<_BidIt2>>>(_STD move(current)._Unwrapped()))) {
; 1877 :         return static_cast<reverse_iterator<_Unwrapped_t<_BidIt2>>>(_STD move(current)._Unwrapped());
; 1878 :     }
; 1879 : 
; 1880 :     static constexpr bool _Unwrap_when_unverified = _Do_unwrap_when_unverified_v<_BidIt>;
; 1881 : 
; 1882 :     template <class _Src, enable_if_t<_Wrapped_seekable_v<_BidIt, const _Src&>, int> = 0>
; 1883 :     constexpr void _Seek_to(const reverse_iterator<_Src>& _It) noexcept(noexcept(current._Seek_to(_It.current))) {
; 1884 :         current._Seek_to(_It.current);
; 1885 :     }
; 1886 : 
; 1887 :     _NODISCARD constexpr const _BidIt& _Get_current() const noexcept {
; 1888 :         return current;
; 1889 :     }
; 1890 : 
; 1891 : protected:
; 1892 :     _BidIt current{};

	xor	eax, eax
	mov	ecx, DWORD PTR _this$[ebp]
	mov	DWORD PTR [ecx], eax
	mov	DWORD PTR [ecx+4], eax
	mov	DWORD PTR [ecx+8], eax
	mov	ecx, DWORD PTR _this$[ebp]
	call	??0?$_List_const_iterator@V?$_List_val@U?$_List_simple_types@PAV?$Goal@VRaven_Bot@@@@@std@@@std@@@std@@QAE@XZ
	npad	1

; 1732 :     _CONSTEXPR17 reverse_iterator() = default;

	mov	eax, DWORD PTR _this$[ebp]
	add	esp, 4
	cmp	ebp, esp
	call	__RTC_CheckEsp
	mov	esp, ebp
	pop	ebp
	ret	0
??0?$reverse_iterator@V?$_List_const_iterator@V?$_List_val@U?$_List_simple_types@PAV?$Goal@VRaven_Bot@@@@@std@@@std@@@std@@@std@@QAE@XZ ENDP ; std::reverse_iterator<std::_List_const_iterator<std::_List_val<std::_List_simple_types<Goal<Raven_Bot> *> > > >::reverse_iterator<std::_List_const_iterator<std::_List_val<std::_List_simple_types<Goal<Raven_Bot> *> > > >
_TEXT	ENDS
; Function compile flags: /Odtp /RTCsu
;	COMDAT ??0?$_List_iterator@V?$_List_val@U?$_List_simple_types@PAV?$Goal@VRaven_Bot@@@@@std@@@std@@@std@@QAE@PAU?$_List_node@PAV?$Goal@VRaven_Bot@@@@PAX@1@PBV?$_List_val@U?$_List_simple_types@PAV?$Goal@VRaven_Bot@@@@@std@@@1@@Z
_TEXT	SEGMENT
_this$ = -4						; size = 4
___param0$ = 8						; size = 4
___param1$ = 12						; size = 4
??0?$_List_iterator@V?$_List_val@U?$_List_simple_types@PAV?$Goal@VRaven_Bot@@@@@std@@@std@@@std@@QAE@PAU?$_List_node@PAV?$Goal@VRaven_Bot@@@@PAX@1@PBV?$_List_val@U?$_List_simple_types@PAV?$Goal@VRaven_Bot@@@@@std@@@1@@Z PROC ; std::_List_iterator<std::_List_val<std::_List_simple_types<Goal<Raven_Bot> *> > >::_List_iterator<std::_List_val<std::_List_simple_types<Goal<Raven_Bot> *> > >, COMDAT
; _this$ = ecx
	push	ebp
	mov	ebp, esp
	push	ecx
	mov	DWORD PTR [ebp-4], -858993460		; ccccccccH
	mov	DWORD PTR _this$[ebp], ecx
	mov	eax, DWORD PTR ___param1$[ebp]
	push	eax
	mov	ecx, DWORD PTR ___param0$[ebp]
	push	ecx
	mov	ecx, DWORD PTR _this$[ebp]
	call	??0?$_List_const_iterator@V?$_List_val@U?$_List_simple_types@PAV?$Goal@VRaven_Bot@@@@@std@@@std@@@std@@QAE@PAU?$_List_node@PAV?$Goal@VRaven_Bot@@@@PAX@1@PBV?$_List_val@U?$_List_simple_types@PAV?$Goal@VRaven_Bot@@@@@std@@@1@@Z
	npad	1
	mov	eax, DWORD PTR _this$[ebp]
	add	esp, 4
	cmp	ebp, esp
	call	__RTC_CheckEsp
	mov	esp, ebp
	pop	ebp
	ret	8
??0?$_List_iterator@V?$_List_val@U?$_List_simple_types@PAV?$Goal@VRaven_Bot@@@@@std@@@std@@@std@@QAE@PAU?$_List_node@PAV?$Goal@VRaven_Bot@@@@PAX@1@PBV?$_List_val@U?$_List_simple_types@PAV?$Goal@VRaven_Bot@@@@@std@@@1@@Z ENDP ; std::_List_iterator<std::_List_val<std::_List_simple_types<Goal<Raven_Bot> *> > >::_List_iterator<std::_List_val<std::_List_simple_types<Goal<Raven_Bot> *> > >
_TEXT	ENDS
; Function compile flags: /Odtp /RTCsu
;	COMDAT ??1?$_List_iterator@V?$_List_val@U?$_List_simple_types@PAV?$Goal@VRaven_Bot@@@@@std@@@std@@@std@@QAE@XZ
_TEXT	SEGMENT
_this$ = -4						; size = 4
??1?$_List_iterator@V?$_List_val@U?$_List_simple_types@PAV?$Goal@VRaven_Bot@@@@@std@@@std@@@std@@QAE@XZ PROC ; std::_List_iterator<std::_List_val<std::_List_simple_types<Goal<Raven_Bot> *> > >::~_List_iterator<std::_List_val<std::_List_simple_types<Goal<Raven_Bot> *> > >, COMDAT
; _this$ = ecx
	push	ebp
	mov	ebp, esp
	push	ecx
	mov	DWORD PTR [ebp-4], -858993460		; ccccccccH
	mov	DWORD PTR _this$[ebp], ecx
	mov	ecx, DWORD PTR _this$[ebp]
	call	??1?$_List_const_iterator@V?$_List_val@U?$_List_simple_types@PAV?$Goal@VRaven_Bot@@@@@std@@@std@@@std@@QAE@XZ
	npad	1
	add	esp, 4
	cmp	ebp, esp
	call	__RTC_CheckEsp
	mov	esp, ebp
	pop	ebp
	ret	0
??1?$_List_iterator@V?$_List_val@U?$_List_simple_types@PAV?$Goal@VRaven_Bot@@@@@std@@@std@@@std@@QAE@XZ ENDP ; std::_List_iterator<std::_List_val<std::_List_simple_types<Goal<Raven_Bot> *> > >::~_List_iterator<std::_List_val<std::_List_simple_types<Goal<Raven_Bot> *> > >
_TEXT	ENDS
; Function compile flags: /Odtp /RTCsu
; File C:\Program Files\Microsoft Visual Studio\2022\Community\VC\Tools\MSVC\14.44.35207\include\list
;	COMDAT ??E?$_List_iterator@V?$_List_val@U?$_List_simple_types@PAV?$Goal@VRaven_Bot@@@@@std@@@std@@@std@@QAEAAV01@XZ
_TEXT	SEGMENT
_this$ = -4						; size = 4
??E?$_List_iterator@V?$_List_val@U?$_List_simple_types@PAV?$Goal@VRaven_Bot@@@@@std@@@std@@@std@@QAEAAV01@XZ PROC ; std::_List_iterator<std::_List_val<std::_List_simple_types<Goal<Raven_Bot> *> > >::operator++, COMDAT
; _this$ = ecx

; 245  :     _List_iterator& operator++() noexcept {

	push	ebp
	mov	ebp, esp
	push	ecx
	mov	DWORD PTR [ebp-4], -858993460		; ccccccccH
	mov	DWORD PTR _this$[ebp], ecx

; 246  :         _Mybase::operator++();

	mov	ecx, DWORD PTR _this$[ebp]
	call	??E?$_List_const_iterator@V?$_List_val@U?$_List_simple_types@PAV?$Goal@VRaven_Bot@@@@@std@@@std@@@std@@QAEAAV01@XZ ; std::_List_const_iterator<std::_List_val<std::_List_simple_types<Goal<Raven_Bot> *> > >::operator++

; 247  :         return *this;

	mov	eax, DWORD PTR _this$[ebp]

; 248  :     }

	add	esp, 4
	cmp	ebp, esp
	call	__RTC_CheckEsp
	mov	esp, ebp
	pop	ebp
	ret	0
??E?$_List_iterator@V?$_List_val@U?$_List_simple_types@PAV?$Goal@VRaven_Bot@@@@@std@@@std@@@std@@QAEAAV01@XZ ENDP ; std::_List_iterator<std::_List_val<std::_List_simple_types<Goal<Raven_Bot> *> > >::operator++
_TEXT	ENDS
; Function compile flags: /Odtp /RTCsu
; File C:\Program Files\Microsoft Visual Studio\2022\Community\VC\Tools\MSVC\14.44.35207\include\list
;	COMDAT ??D?$_List_iterator@V?$_List_val@U?$_List_simple_types@PAV?$Goal@VRaven_Bot@@@@@std@@@std@@@std@@QBEAAPAV?$Goal@VRaven_Bot@@@@XZ
_TEXT	SEGMENT
_this$ = -4						; size = 4
??D?$_List_iterator@V?$_List_val@U?$_List_simple_types@PAV?$Goal@VRaven_Bot@@@@@std@@@std@@@std@@QBEAAPAV?$Goal@VRaven_Bot@@@@XZ PROC ; std::_List_iterator<std::_List_val<std::_List_simple_types<Goal<Raven_Bot> *> > >::operator*, COMDAT
; _this$ = ecx

; 237  :     _NODISCARD reference operator*() const noexcept {

	push	ebp
	mov	ebp, esp
	push	ecx
	mov	DWORD PTR [ebp-4], -858993460		; ccccccccH
	mov	DWORD PTR _this$[ebp], ecx

; 238  :         return const_cast<reference>(_Mybase::operator*());

	mov	ecx, DWORD PTR _this$[ebp]
	call	??D?$_List_const_iterator@V?$_List_val@U?$_List_simple_types@PAV?$Goal@VRaven_Bot@@@@@std@@@std@@@std@@QBEABQAV?$Goal@VRaven_Bot@@@@XZ ; std::_List_const_iterator<std::_List_val<std::_List_simple_types<Goal<Raven_Bot> *> > >::operator*

; 239  :     }

	add	esp, 4
	cmp	ebp, esp
	call	__RTC_CheckEsp
	mov	esp, ebp
	pop	ebp
	ret	0
??D?$_List_iterator@V?$_List_val@U?$_List_simple_types@PAV?$Goal@VRaven_Bot@@@@@std@@@std@@@std@@QBEAAPAV?$Goal@VRaven_Bot@@@@XZ ENDP ; std::_List_iterator<std::_List_val<std::_List_simple_types<Goal<Raven_Bot> *> > >::operator*
_TEXT	ENDS
; Function compile flags: /Odtp /RTCsu
;	COMDAT ??0?$_List_const_iterator@V?$_List_val@U?$_List_simple_types@PAV?$Goal@VRaven_Bot@@@@@std@@@std@@@std@@QAE@PAU?$_List_node@PAV?$Goal@VRaven_Bot@@@@PAX@1@PBV?$_List_val@U?$_List_simple_types@PAV?$Goal@VRaven_Bot@@@@@std@@@1@@Z
_TEXT	SEGMENT
_this$ = -4						; size = 4
___param0$ = 8						; size = 4
___param1$ = 12						; size = 4
??0?$_List_const_iterator@V?$_List_val@U?$_List_simple_types@PAV?$Goal@VRaven_Bot@@@@@std@@@std@@@std@@QAE@PAU?$_List_node@PAV?$Goal@VRaven_Bot@@@@PAX@1@PBV?$_List_val@U?$_List_simple_types@PAV?$Goal@VRaven_Bot@@@@@std@@@1@@Z PROC ; std::_List_const_iterator<std::_List_val<std::_List_simple_types<Goal<Raven_Bot> *> > >::_List_const_iterator<std::_List_val<std::_List_simple_types<Goal<Raven_Bot> *> > >, COMDAT
; _this$ = ecx
	push	ebp
	mov	ebp, esp
	push	ecx
	mov	DWORD PTR [ebp-4], -858993460		; ccccccccH
	mov	DWORD PTR _this$[ebp], ecx
	mov	eax, DWORD PTR ___param1$[ebp]
	push	eax
	mov	ecx, DWORD PTR ___param0$[ebp]
	push	ecx
	mov	ecx, DWORD PTR _this$[ebp]
	call	??0?$_List_unchecked_const_iterator@V?$_List_val@U?$_List_simple_types@PAV?$Goal@VRaven_Bot@@@@@std@@@std@@U_Iterator_base12@2@@std@@QAE@PAU?$_List_node@PAV?$Goal@VRaven_Bot@@@@PAX@1@PBV?$_List_val@U?$_List_simple_types@PAV?$Goal@VRaven_Bot@@@@@std@@@1@@Z ; std::_List_unchecked_const_iterator<std::_List_val<std::_List_simple_types<Goal<Raven_Bot> *> >,std::_Iterator_base12>::_List_unchecked_const_iterator<std::_List_val<std::_List_simple_types<Goal<Raven_Bot> *> >,std::_Iterator_base12>
	npad	1
	mov	eax, DWORD PTR _this$[ebp]
	add	esp, 4
	cmp	ebp, esp
	call	__RTC_CheckEsp
	mov	esp, ebp
	pop	ebp
	ret	8
??0?$_List_const_iterator@V?$_List_val@U?$_List_simple_types@PAV?$Goal@VRaven_Bot@@@@@std@@@std@@@std@@QAE@PAU?$_List_node@PAV?$Goal@VRaven_Bot@@@@PAX@1@PBV?$_List_val@U?$_List_simple_types@PAV?$Goal@VRaven_Bot@@@@@std@@@1@@Z ENDP ; std::_List_const_iterator<std::_List_val<std::_List_simple_types<Goal<Raven_Bot> *> > >::_List_const_iterator<std::_List_val<std::_List_simple_types<Goal<Raven_Bot> *> > >
_TEXT	ENDS
; Function compile flags: /Odtp /RTCsu
;	COMDAT ??4?$_List_const_iterator@V?$_List_val@U?$_List_simple_types@PAV?$Goal@VRaven_Bot@@@@@std@@@std@@@std@@QAEAAV01@$$QAV01@@Z
_TEXT	SEGMENT
_this$ = -4						; size = 4
___that$ = 8						; size = 4
??4?$_List_const_iterator@V?$_List_val@U?$_List_simple_types@PAV?$Goal@VRaven_Bot@@@@@std@@@std@@@std@@QAEAAV01@$$QAV01@@Z PROC ; std::_List_const_iterator<std::_List_val<std::_List_simple_types<Goal<Raven_Bot> *> > >::operator=, COMDAT
; _this$ = ecx
	push	ebp
	mov	ebp, esp
	push	ecx
	mov	DWORD PTR [ebp-4], -858993460		; ccccccccH
	mov	DWORD PTR _this$[ebp], ecx
	mov	eax, DWORD PTR ___that$[ebp]
	push	eax
	mov	ecx, DWORD PTR _this$[ebp]
	call	??4?$_List_unchecked_const_iterator@V?$_List_val@U?$_List_simple_types@PAV?$Goal@VRaven_Bot@@@@@std@@@std@@U_Iterator_base12@2@@std@@QAEAAV01@$$QAV01@@Z
	mov	eax, DWORD PTR _this$[ebp]
	add	esp, 4
	cmp	ebp, esp
	call	__RTC_CheckEsp
	mov	esp, ebp
	pop	ebp
	ret	4
??4?$_List_const_iterator@V?$_List_val@U?$_List_simple_types@PAV?$Goal@VRaven_Bot@@@@@std@@@std@@@std@@QAEAAV01@$$QAV01@@Z ENDP ; std::_List_const_iterator<std::_List_val<std::_List_simple_types<Goal<Raven_Bot> *> > >::operator=
_TEXT	ENDS
; Function compile flags: /Odtp /RTCsu
;	COMDAT ??0?$_List_const_iterator@V?$_List_val@U?$_List_simple_types@PAV?$Goal@VRaven_Bot@@@@@std@@@std@@@std@@QAE@$$QAV01@@Z
_TEXT	SEGMENT
_this$ = -4						; size = 4
___that$ = 8						; size = 4
??0?$_List_const_iterator@V?$_List_val@U?$_List_simple_types@PAV?$Goal@VRaven_Bot@@@@@std@@@std@@@std@@QAE@$$QAV01@@Z PROC ; std::_List_const_iterator<std::_List_val<std::_List_simple_types<Goal<Raven_Bot> *> > >::_List_const_iterator<std::_List_val<std::_List_simple_types<Goal<Raven_Bot> *> > >, COMDAT
; _this$ = ecx
	push	ebp
	mov	ebp, esp
	push	ecx
	mov	DWORD PTR [ebp-4], -858993460		; ccccccccH
	mov	DWORD PTR _this$[ebp], ecx
	mov	eax, DWORD PTR ___that$[ebp]
	push	eax
	mov	ecx, DWORD PTR _this$[ebp]
	call	??0?$_List_unchecked_const_iterator@V?$_List_val@U?$_List_simple_types@PAV?$Goal@VRaven_Bot@@@@@std@@@std@@U_Iterator_base12@2@@std@@QAE@$$QAV01@@Z
	npad	1
	mov	eax, DWORD PTR _this$[ebp]
	add	esp, 4
	cmp	ebp, esp
	call	__RTC_CheckEsp
	mov	esp, ebp
	pop	ebp
	ret	4
??0?$_List_const_iterator@V?$_List_val@U?$_List_simple_types@PAV?$Goal@VRaven_Bot@@@@@std@@@std@@@std@@QAE@$$QAV01@@Z ENDP ; std::_List_const_iterator<std::_List_val<std::_List_simple_types<Goal<Raven_Bot> *> > >::_List_const_iterator<std::_List_val<std::_List_simple_types<Goal<Raven_Bot> *> > >
_TEXT	ENDS
; Function compile flags: /Odtp /RTCsu
;	COMDAT ??0?$_List_const_iterator@V?$_List_val@U?$_List_simple_types@PAV?$Goal@VRaven_Bot@@@@@std@@@std@@@std@@QAE@ABV01@@Z
_TEXT	SEGMENT
_this$ = -4						; size = 4
___that$ = 8						; size = 4
??0?$_List_const_iterator@V?$_List_val@U?$_List_simple_types@PAV?$Goal@VRaven_Bot@@@@@std@@@std@@@std@@QAE@ABV01@@Z PROC ; std::_List_const_iterator<std::_List_val<std::_List_simple_types<Goal<Raven_Bot> *> > >::_List_const_iterator<std::_List_val<std::_List_simple_types<Goal<Raven_Bot> *> > >, COMDAT
; _this$ = ecx
	push	ebp
	mov	ebp, esp
	push	ecx
	mov	DWORD PTR [ebp-4], -858993460		; ccccccccH
	mov	DWORD PTR _this$[ebp], ecx
	mov	eax, DWORD PTR ___that$[ebp]
	push	eax
	mov	ecx, DWORD PTR _this$[ebp]
	call	??0?$_List_unchecked_const_iterator@V?$_List_val@U?$_List_simple_types@PAV?$Goal@VRaven_Bot@@@@@std@@@std@@U_Iterator_base12@2@@std@@QAE@ABV01@@Z
	npad	1
	mov	eax, DWORD PTR _this$[ebp]
	add	esp, 4
	cmp	ebp, esp
	call	__RTC_CheckEsp
	mov	esp, ebp
	pop	ebp
	ret	4
??0?$_List_const_iterator@V?$_List_val@U?$_List_simple_types@PAV?$Goal@VRaven_Bot@@@@@std@@@std@@@std@@QAE@ABV01@@Z ENDP ; std::_List_const_iterator<std::_List_val<std::_List_simple_types<Goal<Raven_Bot> *> > >::_List_const_iterator<std::_List_val<std::_List_simple_types<Goal<Raven_Bot> *> > >
_TEXT	ENDS
; Function compile flags: /Odtp /RTCsu
;	COMDAT ??1?$_List_const_iterator@V?$_List_val@U?$_List_simple_types@PAV?$Goal@VRaven_Bot@@@@@std@@@std@@@std@@QAE@XZ
_TEXT	SEGMENT
_this$ = -4						; size = 4
??1?$_List_const_iterator@V?$_List_val@U?$_List_simple_types@PAV?$Goal@VRaven_Bot@@@@@std@@@std@@@std@@QAE@XZ PROC ; std::_List_const_iterator<std::_List_val<std::_List_simple_types<Goal<Raven_Bot> *> > >::~_List_const_iterator<std::_List_val<std::_List_simple_types<Goal<Raven_Bot> *> > >, COMDAT
; _this$ = ecx
	push	ebp
	mov	ebp, esp
	push	ecx
	mov	DWORD PTR [ebp-4], -858993460		; ccccccccH
	mov	DWORD PTR _this$[ebp], ecx
	mov	ecx, DWORD PTR _this$[ebp]
	call	??1?$_List_unchecked_const_iterator@V?$_List_val@U?$_List_simple_types@PAV?$Goal@VRaven_Bot@@@@@std@@@std@@U_Iterator_base12@2@@std@@QAE@XZ
	npad	1
	add	esp, 4
	cmp	ebp, esp
	call	__RTC_CheckEsp
	mov	esp, ebp
	pop	ebp
	ret	0
??1?$_List_const_iterator@V?$_List_val@U?$_List_simple_types@PAV?$Goal@VRaven_Bot@@@@@std@@@std@@@std@@QAE@XZ ENDP ; std::_List_const_iterator<std::_List_val<std::_List_simple_types<Goal<Raven_Bot> *> > >::~_List_const_iterator<std::_List_val<std::_List_simple_types<Goal<Raven_Bot> *> > >
_TEXT	ENDS
; Function compile flags: /Odtp /RTCsu
;	COMDAT ??0?$_List_const_iterator@V?$_List_val@U?$_List_simple_types@PAV?$Goal@VRaven_Bot@@@@@std@@@std@@@std@@QAE@XZ
_TEXT	SEGMENT
_this$ = -4						; size = 4
??0?$_List_const_iterator@V?$_List_val@U?$_List_simple_types@PAV?$Goal@VRaven_Bot@@@@@std@@@std@@@std@@QAE@XZ PROC ; std::_List_const_iterator<std::_List_val<std::_List_simple_types<Goal<Raven_Bot> *> > >::_List_const_iterator<std::_List_val<std::_List_simple_types<Goal<Raven_Bot> *> > >, COMDAT
; _this$ = ecx
	push	ebp
	mov	ebp, esp
	push	ecx
	mov	DWORD PTR [ebp-4], -858993460		; ccccccccH
	mov	DWORD PTR _this$[ebp], ecx
	mov	ecx, DWORD PTR _this$[ebp]
	call	??0?$_List_unchecked_const_iterator@V?$_List_val@U?$_List_simple_types@PAV?$Goal@VRaven_Bot@@@@@std@@@std@@U_Iterator_base12@2@@std@@QAE@XZ ; std::_List_unchecked_const_iterator<std::_List_val<std::_List_simple_types<Goal<Raven_Bot> *> >,std::_Iterator_base12>::_List_unchecked_const_iterator<std::_List_val<std::_List_simple_types<Goal<Raven_Bot> *> >,std::_Iterator_base12>
	npad	1
	mov	eax, DWORD PTR _this$[ebp]
	add	esp, 4
	cmp	ebp, esp
	call	__RTC_CheckEsp
	mov	esp, ebp
	pop	ebp
	ret	0
??0?$_List_const_iterator@V?$_List_val@U?$_List_simple_types@PAV?$Goal@VRaven_Bot@@@@@std@@@std@@@std@@QAE@XZ ENDP ; std::_List_const_iterator<std::_List_val<std::_List_simple_types<Goal<Raven_Bot> *> > >::_List_const_iterator<std::_List_val<std::_List_simple_types<Goal<Raven_Bot> *> > >
_TEXT	ENDS
; Function compile flags: /Odtp /RTCsu
; File C:\Program Files\Microsoft Visual Studio\2022\Community\VC\Tools\MSVC\14.44.35207\include\list
;	COMDAT ??9?$_List_const_iterator@V?$_List_val@U?$_List_simple_types@PAV?$Goal@VRaven_Bot@@@@@std@@@std@@@std@@QBE_NABV01@@Z
_TEXT	SEGMENT
tv69 = -8						; size = 4
_this$ = -4						; size = 4
__Right$ = 8						; size = 4
??9?$_List_const_iterator@V?$_List_val@U?$_List_simple_types@PAV?$Goal@VRaven_Bot@@@@@std@@@std@@@std@@QBE_NABV01@@Z PROC ; std::_List_const_iterator<std::_List_val<std::_List_simple_types<Goal<Raven_Bot> *> > >::operator!=, COMDAT
; _this$ = ecx

; 201  :     _NODISCARD bool operator!=(const _List_const_iterator& _Right) const noexcept {

	push	ebp
	mov	ebp, esp
	sub	esp, 8
	mov	DWORD PTR [ebp-8], -858993460		; ccccccccH
	mov	DWORD PTR [ebp-4], -858993460		; ccccccccH
	mov	DWORD PTR _this$[ebp], ecx

; 202  :         return !(*this == _Right);

	mov	eax, DWORD PTR __Right$[ebp]
	push	eax
	mov	ecx, DWORD PTR _this$[ebp]
	call	??8?$_List_const_iterator@V?$_List_val@U?$_List_simple_types@PAV?$Goal@VRaven_Bot@@@@@std@@@std@@@std@@QBE_NABV01@@Z ; std::_List_const_iterator<std::_List_val<std::_List_simple_types<Goal<Raven_Bot> *> > >::operator==
	movzx	ecx, al
	test	ecx, ecx
	jne	SHORT $LN3@operator
	mov	DWORD PTR tv69[ebp], 1
	jmp	SHORT $LN4@operator
$LN3@operator:
	mov	DWORD PTR tv69[ebp], 0
$LN4@operator:
	movzx	eax, BYTE PTR tv69[ebp]

; 203  :     }

	add	esp, 8
	cmp	ebp, esp
	call	__RTC_CheckEsp
	mov	esp, ebp
	pop	ebp
	ret	4
??9?$_List_const_iterator@V?$_List_val@U?$_List_simple_types@PAV?$Goal@VRaven_Bot@@@@@std@@@std@@@std@@QBE_NABV01@@Z ENDP ; std::_List_const_iterator<std::_List_val<std::_List_simple_types<Goal<Raven_Bot> *> > >::operator!=
_TEXT	ENDS
; Function compile flags: /Odtp /RTCsu
; File C:\Program Files\Microsoft Visual Studio\2022\Community\VC\Tools\MSVC\14.44.35207\include\list
;	COMDAT ??8?$_List_const_iterator@V?$_List_val@U?$_List_simple_types@PAV?$Goal@VRaven_Bot@@@@@std@@@std@@@std@@QBE_NABV01@@Z
_TEXT	SEGMENT
tv134 = -8						; size = 4
_this$ = -4						; size = 4
__Right$ = 8						; size = 4
??8?$_List_const_iterator@V?$_List_val@U?$_List_simple_types@PAV?$Goal@VRaven_Bot@@@@@std@@@std@@@std@@QBE_NABV01@@Z PROC ; std::_List_const_iterator<std::_List_val<std::_List_simple_types<Goal<Raven_Bot> *> > >::operator==, COMDAT
; _this$ = ecx

; 192  :     _NODISCARD bool operator==(const _List_const_iterator& _Right) const noexcept {

	push	ebp
	mov	ebp, esp
	sub	esp, 8
	push	esi
	mov	DWORD PTR [ebp-8], -858993460		; ccccccccH
	mov	DWORD PTR [ebp-4], -858993460		; ccccccccH
	mov	DWORD PTR _this$[ebp], ecx

; 193  : #if _ITERATOR_DEBUG_LEVEL == 2
; 194  :         _STL_VERIFY(this->_Getcont() == _Right._Getcont(), "list iterators incompatible");

	mov	ecx, DWORD PTR _this$[ebp]
	call	?_Getcont@_Iterator_base12@std@@QBEPBU_Container_base12@2@XZ ; std::_Iterator_base12::_Getcont
	mov	esi, eax
	mov	ecx, DWORD PTR __Right$[ebp]
	call	?_Getcont@_Iterator_base12@std@@QBEPBU_Container_base12@2@XZ ; std::_Iterator_base12::_Getcont
	cmp	esi, eax
	je	SHORT $LN2@operator
	push	OFFSET ??_C@_0BM@BALDKKHE@list?5iterators?5incompatible@
	push	OFFSET ??_C@_02DKCKIIND@?$CFs@
	push	0
	push	194					; 000000c2H
	push	OFFSET ??_C@_0FP@IHALIHCI@C?3?2Program?5Files?2Microsoft?5Visu@
	push	2
	call	__CrtDbgReport
	add	esp, 24					; 00000018H
	cmp	eax, 1
	jne	SHORT $LN4@operator
	int	3
$LN4@operator:
	push	0
	push	0
	push	0
	push	0
	push	0
	call	__invoke_watson
	npad	1
$LN2@operator:

; 195  : #endif // _ITERATOR_DEBUG_LEVEL == 2
; 196  : 
; 197  :         return this->_Ptr == _Right._Ptr;

	mov	ecx, DWORD PTR _this$[ebp]
	mov	edx, DWORD PTR __Right$[ebp]
	mov	eax, DWORD PTR [ecx+8]
	cmp	eax, DWORD PTR [edx+8]
	jne	SHORT $LN5@operator
	mov	DWORD PTR tv134[ebp], 1
	jmp	SHORT $LN6@operator
$LN5@operator:
	mov	DWORD PTR tv134[ebp], 0
$LN6@operator:
	mov	al, BYTE PTR tv134[ebp]
$LN1@operator:

; 198  :     }

	pop	esi
	add	esp, 8
	cmp	ebp, esp
	call	__RTC_CheckEsp
	mov	esp, ebp
	pop	ebp
	ret	4
??8?$_List_const_iterator@V?$_List_val@U?$_List_simple_types@PAV?$Goal@VRaven_Bot@@@@@std@@@std@@@std@@QBE_NABV01@@Z ENDP ; std::_List_const_iterator<std::_List_val<std::_List_simple_types<Goal<Raven_Bot> *> > >::operator==
_TEXT	ENDS
; Function compile flags: /Odtp /RTCsu
; File C:\Program Files\Microsoft Visual Studio\2022\Community\VC\Tools\MSVC\14.44.35207\include\list
;	COMDAT ??F?$_List_const_iterator@V?$_List_val@U?$_List_simple_types@PAV?$Goal@VRaven_Bot@@@@@std@@@std@@@std@@QAEAAV01@XZ
_TEXT	SEGMENT
__Mycont$ = -12						; size = 4
__New_ptr$ = -8						; size = 4
_this$ = -4						; size = 4
??F?$_List_const_iterator@V?$_List_val@U?$_List_simple_types@PAV?$Goal@VRaven_Bot@@@@@std@@@std@@@std@@QAEAAV01@XZ PROC ; std::_List_const_iterator<std::_List_val<std::_List_simple_types<Goal<Raven_Bot> *> > >::operator--, COMDAT
; _this$ = ecx

; 174  :     _List_const_iterator& operator--() noexcept {

	push	ebp
	mov	ebp, esp
	sub	esp, 12					; 0000000cH
	mov	DWORD PTR [ebp-12], -858993460		; ccccccccH
	mov	DWORD PTR [ebp-8], -858993460		; ccccccccH
	mov	DWORD PTR [ebp-4], -858993460		; ccccccccH
	mov	DWORD PTR _this$[ebp], ecx

; 175  :         const auto _New_ptr = this->_Ptr->_Prev;

	mov	eax, DWORD PTR _this$[ebp]
	mov	ecx, DWORD PTR [eax+8]
	mov	edx, DWORD PTR [ecx+4]
	mov	DWORD PTR __New_ptr$[ebp], edx

; 176  : #if _ITERATOR_DEBUG_LEVEL == 2
; 177  :         const auto _Mycont = static_cast<const _Mylist*>(this->_Getcont());

	mov	ecx, DWORD PTR _this$[ebp]
	call	?_Getcont@_Iterator_base12@std@@QBEPBU_Container_base12@2@XZ ; std::_Iterator_base12::_Getcont
	mov	DWORD PTR __Mycont$[ebp], eax

; 178  :         _STL_VERIFY(_Mycont, "cannot decrement value-initialized list iterator");

	cmp	DWORD PTR __Mycont$[ebp], 0
	jne	SHORT $LN2@operator
	push	OFFSET ??_C@_0DB@MCPEHPCC@cannot?5decrement?5value?9initiali@
	push	OFFSET ??_C@_02DKCKIIND@?$CFs@
	push	0
	push	178					; 000000b2H
	push	OFFSET ??_C@_0FP@IHALIHCI@C?3?2Program?5Files?2Microsoft?5Visu@
	push	2
	call	__CrtDbgReport
	add	esp, 24					; 00000018H
	cmp	eax, 1
	jne	SHORT $LN5@operator
	int	3
$LN5@operator:
	push	0
	push	0
	push	0
	push	0
	push	0
	call	__invoke_watson
	npad	1
$LN2@operator:

; 179  :         _STL_VERIFY(_New_ptr != _Mycont->_Myhead, "cannot decrement begin list iterator");

	mov	ecx, DWORD PTR __Mycont$[ebp]
	mov	edx, DWORD PTR __New_ptr$[ebp]
	cmp	edx, DWORD PTR [ecx+4]
	jne	SHORT $LN3@operator
	push	OFFSET ??_C@_0CF@BAAFPBMN@cannot?5decrement?5begin?5list?5ite@
	push	OFFSET ??_C@_02DKCKIIND@?$CFs@
	push	0
	push	179					; 000000b3H
	push	OFFSET ??_C@_0FP@IHALIHCI@C?3?2Program?5Files?2Microsoft?5Visu@
	push	2
	call	__CrtDbgReport
	add	esp, 24					; 00000018H
	cmp	eax, 1
	jne	SHORT $LN6@operator
	int	3
$LN6@operator:
	push	0
	push	0
	push	0
	push	0
	push	0
	call	__invoke_watson
	npad	1
$LN3@operator:

; 180  : #endif // _ITERATOR_DEBUG_LEVEL == 2
; 181  : 
; 182  :         this->_Ptr = _New_ptr;

	mov	ecx, DWORD PTR _this$[ebp]
	mov	edx, DWORD PTR __New_ptr$[ebp]
	mov	DWORD PTR [ecx+8], edx

; 183  :         return *this;

	mov	eax, DWORD PTR _this$[ebp]
$LN1@operator:

; 184  :     }

	add	esp, 12					; 0000000cH
	cmp	ebp, esp
	call	__RTC_CheckEsp
	mov	esp, ebp
	pop	ebp
	ret	0
??F?$_List_const_iterator@V?$_List_val@U?$_List_simple_types@PAV?$Goal@VRaven_Bot@@@@@std@@@std@@@std@@QAEAAV01@XZ ENDP ; std::_List_const_iterator<std::_List_val<std::_List_simple_types<Goal<Raven_Bot> *> > >::operator--
_TEXT	ENDS
; Function compile flags: /Odtp /RTCsu
; File C:\Program Files\Microsoft Visual Studio\2022\Community\VC\Tools\MSVC\14.44.35207\include\list
;	COMDAT ??E?$_List_const_iterator@V?$_List_val@U?$_List_simple_types@PAV?$Goal@VRaven_Bot@@@@@std@@@std@@@std@@QAEAAV01@XZ
_TEXT	SEGMENT
__Mycont$ = -8						; size = 4
_this$ = -4						; size = 4
??E?$_List_const_iterator@V?$_List_val@U?$_List_simple_types@PAV?$Goal@VRaven_Bot@@@@@std@@@std@@@std@@QAEAAV01@XZ PROC ; std::_List_const_iterator<std::_List_val<std::_List_simple_types<Goal<Raven_Bot> *> > >::operator++, COMDAT
; _this$ = ecx

; 157  :     _List_const_iterator& operator++() noexcept {

	push	ebp
	mov	ebp, esp
	sub	esp, 8
	mov	DWORD PTR [ebp-8], -858993460		; ccccccccH
	mov	DWORD PTR [ebp-4], -858993460		; ccccccccH
	mov	DWORD PTR _this$[ebp], ecx

; 158  : #if _ITERATOR_DEBUG_LEVEL == 2
; 159  :         const auto _Mycont = static_cast<const _Mylist*>(this->_Getcont());

	mov	ecx, DWORD PTR _this$[ebp]
	call	?_Getcont@_Iterator_base12@std@@QBEPBU_Container_base12@2@XZ ; std::_Iterator_base12::_Getcont
	mov	DWORD PTR __Mycont$[ebp], eax

; 160  :         _STL_VERIFY(_Mycont, "cannot increment value-initialized list iterator");

	cmp	DWORD PTR __Mycont$[ebp], 0
	jne	SHORT $LN2@operator
	push	OFFSET ??_C@_0DB@ENBCPNKO@cannot?5increment?5value?9initiali@
	push	OFFSET ??_C@_02DKCKIIND@?$CFs@
	push	0
	push	160					; 000000a0H
	push	OFFSET ??_C@_0FP@IHALIHCI@C?3?2Program?5Files?2Microsoft?5Visu@
	push	2
	call	__CrtDbgReport
	add	esp, 24					; 00000018H
	cmp	eax, 1
	jne	SHORT $LN5@operator
	int	3
$LN5@operator:
	push	0
	push	0
	push	0
	push	0
	push	0
	call	__invoke_watson
	npad	1
$LN2@operator:

; 161  :         _STL_VERIFY(this->_Ptr != _Mycont->_Myhead, "cannot increment end list iterator");

	mov	ecx, DWORD PTR _this$[ebp]
	mov	edx, DWORD PTR __Mycont$[ebp]
	mov	eax, DWORD PTR [ecx+8]
	cmp	eax, DWORD PTR [edx+4]
	jne	SHORT $LN3@operator
	push	OFFSET ??_C@_0CD@PMFMCEG@cannot?5increment?5end?5list?5itera@
	push	OFFSET ??_C@_02DKCKIIND@?$CFs@
	push	0
	push	161					; 000000a1H
	push	OFFSET ??_C@_0FP@IHALIHCI@C?3?2Program?5Files?2Microsoft?5Visu@
	push	2
	call	__CrtDbgReport
	add	esp, 24					; 00000018H
	cmp	eax, 1
	jne	SHORT $LN6@operator
	int	3
$LN6@operator:
	push	0
	push	0
	push	0
	push	0
	push	0
	call	__invoke_watson
	npad	1
$LN3@operator:

; 162  : #endif // _ITERATOR_DEBUG_LEVEL == 2
; 163  : 
; 164  :         this->_Ptr = this->_Ptr->_Next;

	mov	edx, DWORD PTR _this$[ebp]
	mov	eax, DWORD PTR [edx+8]
	mov	ecx, DWORD PTR _this$[ebp]
	mov	edx, DWORD PTR [eax]
	mov	DWORD PTR [ecx+8], edx

; 165  :         return *this;

	mov	eax, DWORD PTR _this$[ebp]
$LN1@operator:

; 166  :     }

	add	esp, 8
	cmp	ebp, esp
	call	__RTC_CheckEsp
	mov	esp, ebp
	pop	ebp
	ret	0
??E?$_List_const_iterator@V?$_List_val@U?$_List_simple_types@PAV?$Goal@VRaven_Bot@@@@@std@@@std@@@std@@QAEAAV01@XZ ENDP ; std::_List_const_iterator<std::_List_val<std::_List_simple_types<Goal<Raven_Bot> *> > >::operator++
_TEXT	ENDS
; Function compile flags: /Odtp /RTCsu
; File C:\Program Files\Microsoft Visual Studio\2022\Community\VC\Tools\MSVC\14.44.35207\include\list
;	COMDAT ??D?$_List_const_iterator@V?$_List_val@U?$_List_simple_types@PAV?$Goal@VRaven_Bot@@@@@std@@@std@@@std@@QBEABQAV?$Goal@VRaven_Bot@@@@XZ
_TEXT	SEGMENT
__Mycont$ = -8						; size = 4
_this$ = -4						; size = 4
??D?$_List_const_iterator@V?$_List_val@U?$_List_simple_types@PAV?$Goal@VRaven_Bot@@@@@std@@@std@@@std@@QBEABQAV?$Goal@VRaven_Bot@@@@XZ PROC ; std::_List_const_iterator<std::_List_val<std::_List_simple_types<Goal<Raven_Bot> *> > >::operator*, COMDAT
; _this$ = ecx

; 143  :     _NODISCARD reference operator*() const noexcept {

	push	ebp
	mov	ebp, esp
	sub	esp, 8
	mov	DWORD PTR [ebp-8], -858993460		; ccccccccH
	mov	DWORD PTR [ebp-4], -858993460		; ccccccccH
	mov	DWORD PTR _this$[ebp], ecx

; 144  : #if _ITERATOR_DEBUG_LEVEL == 2
; 145  :         const auto _Mycont = static_cast<const _Mylist*>(this->_Getcont());

	mov	ecx, DWORD PTR _this$[ebp]
	call	?_Getcont@_Iterator_base12@std@@QBEPBU_Container_base12@2@XZ ; std::_Iterator_base12::_Getcont
	mov	DWORD PTR __Mycont$[ebp], eax

; 146  :         _STL_VERIFY(_Mycont, "cannot dereference value-initialized list iterator");

	cmp	DWORD PTR __Mycont$[ebp], 0
	jne	SHORT $LN2@operator
	push	OFFSET ??_C@_0DD@MBIHGLJE@cannot?5dereference?5value?9initia@
	push	OFFSET ??_C@_02DKCKIIND@?$CFs@
	push	0
	push	146					; 00000092H
	push	OFFSET ??_C@_0FP@IHALIHCI@C?3?2Program?5Files?2Microsoft?5Visu@
	push	2
	call	__CrtDbgReport
	add	esp, 24					; 00000018H
	cmp	eax, 1
	jne	SHORT $LN5@operator
	int	3
$LN5@operator:
	push	0
	push	0
	push	0
	push	0
	push	0
	call	__invoke_watson
	npad	1
$LN2@operator:

; 147  :         _STL_VERIFY(this->_Ptr != _Mycont->_Myhead, "cannot dereference end list iterator");

	mov	ecx, DWORD PTR _this$[ebp]
	mov	edx, DWORD PTR __Mycont$[ebp]
	mov	eax, DWORD PTR [ecx+8]
	cmp	eax, DWORD PTR [edx+4]
	jne	SHORT $LN3@operator
	push	OFFSET ??_C@_0CF@JCBFHMPL@cannot?5dereference?5end?5list?5ite@
	push	OFFSET ??_C@_02DKCKIIND@?$CFs@
	push	0
	push	147					; 00000093H
	push	OFFSET ??_C@_0FP@IHALIHCI@C?3?2Program?5Files?2Microsoft?5Visu@
	push	2
	call	__CrtDbgReport
	add	esp, 24					; 00000018H
	cmp	eax, 1
	jne	SHORT $LN6@operator
	int	3
$LN6@operator:
	push	0
	push	0
	push	0
	push	0
	push	0
	call	__invoke_watson
	npad	1
$LN3@operator:

; 148  : #endif // _ITERATOR_DEBUG_LEVEL == 2
; 149  : 
; 150  :         return this->_Ptr->_Myval;

	mov	edx, DWORD PTR _this$[ebp]
	mov	eax, DWORD PTR [edx+8]
	add	eax, 8
$LN1@operator:

; 151  :     }

	add	esp, 8
	cmp	ebp, esp
	call	__RTC_CheckEsp
	mov	esp, ebp
	pop	ebp
	ret	0
??D?$_List_const_iterator@V?$_List_val@U?$_List_simple_types@PAV?$Goal@VRaven_Bot@@@@@std@@@std@@@std@@QBEABQAV?$Goal@VRaven_Bot@@@@XZ ENDP ; std::_List_const_iterator<std::_List_val<std::_List_simple_types<Goal<Raven_Bot> *> > >::operator*
_TEXT	ENDS
; Function compile flags: /Odtp /RTCsu
;	COMDAT ??4?$_List_unchecked_const_iterator@V?$_List_val@U?$_List_simple_types@PAV?$Goal@VRaven_Bot@@@@@std@@@std@@U_Iterator_base12@2@@std@@QAEAAV01@$$QAV01@@Z
_TEXT	SEGMENT
_this$ = -4						; size = 4
___that$ = 8						; size = 4
??4?$_List_unchecked_const_iterator@V?$_List_val@U?$_List_simple_types@PAV?$Goal@VRaven_Bot@@@@@std@@@std@@U_Iterator_base12@2@@std@@QAEAAV01@$$QAV01@@Z PROC ; std::_List_unchecked_const_iterator<std::_List_val<std::_List_simple_types<Goal<Raven_Bot> *> >,std::_Iterator_base12>::operator=, COMDAT
; _this$ = ecx
	push	ebp
	mov	ebp, esp
	push	ecx
	mov	DWORD PTR [ebp-4], -858993460		; ccccccccH
	mov	DWORD PTR _this$[ebp], ecx
	mov	eax, DWORD PTR ___that$[ebp]
	push	eax
	mov	ecx, DWORD PTR _this$[ebp]
	call	??4_Iterator_base12@std@@QAEAAU01@ABU01@@Z ; std::_Iterator_base12::operator=
	mov	ecx, DWORD PTR _this$[ebp]
	mov	edx, DWORD PTR ___that$[ebp]
	mov	eax, DWORD PTR [edx+8]
	mov	DWORD PTR [ecx+8], eax
	mov	eax, DWORD PTR _this$[ebp]
	add	esp, 4
	cmp	ebp, esp
	call	__RTC_CheckEsp
	mov	esp, ebp
	pop	ebp
	ret	4
??4?$_List_unchecked_const_iterator@V?$_List_val@U?$_List_simple_types@PAV?$Goal@VRaven_Bot@@@@@std@@@std@@U_Iterator_base12@2@@std@@QAEAAV01@$$QAV01@@Z ENDP ; std::_List_unchecked_const_iterator<std::_List_val<std::_List_simple_types<Goal<Raven_Bot> *> >,std::_Iterator_base12>::operator=
_TEXT	ENDS
; Function compile flags: /Odtp /RTCsu
;	COMDAT ??0?$_List_unchecked_const_iterator@V?$_List_val@U?$_List_simple_types@PAV?$Goal@VRaven_Bot@@@@@std@@@std@@U_Iterator_base12@2@@std@@QAE@$$QAV01@@Z
_TEXT	SEGMENT
_this$ = -4						; size = 4
___that$ = 8						; size = 4
??0?$_List_unchecked_const_iterator@V?$_List_val@U?$_List_simple_types@PAV?$Goal@VRaven_Bot@@@@@std@@@std@@U_Iterator_base12@2@@std@@QAE@$$QAV01@@Z PROC ; std::_List_unchecked_const_iterator<std::_List_val<std::_List_simple_types<Goal<Raven_Bot> *> >,std::_Iterator_base12>::_List_unchecked_const_iterator<std::_List_val<std::_List_simple_types<Goal<Raven_Bot> *> >,std::_Iterator_base12>, COMDAT
; _this$ = ecx
	push	ebp
	mov	ebp, esp
	push	ecx
	mov	DWORD PTR [ebp-4], -858993460		; ccccccccH
	mov	DWORD PTR _this$[ebp], ecx
	mov	eax, DWORD PTR ___that$[ebp]
	push	eax
	mov	ecx, DWORD PTR _this$[ebp]
	call	??0_Iterator_base12@std@@QAE@ABU01@@Z	; std::_Iterator_base12::_Iterator_base12
	mov	ecx, DWORD PTR _this$[ebp]
	mov	edx, DWORD PTR ___that$[ebp]
	mov	eax, DWORD PTR [edx+8]
	mov	DWORD PTR [ecx+8], eax
	mov	eax, DWORD PTR _this$[ebp]
	add	esp, 4
	cmp	ebp, esp
	call	__RTC_CheckEsp
	mov	esp, ebp
	pop	ebp
	ret	4
??0?$_List_unchecked_const_iterator@V?$_List_val@U?$_List_simple_types@PAV?$Goal@VRaven_Bot@@@@@std@@@std@@U_Iterator_base12@2@@std@@QAE@$$QAV01@@Z ENDP ; std::_List_unchecked_const_iterator<std::_List_val<std::_List_simple_types<Goal<Raven_Bot> *> >,std::_Iterator_base12>::_List_unchecked_const_iterator<std::_List_val<std::_List_simple_types<Goal<Raven_Bot> *> >,std::_Iterator_base12>
_TEXT	ENDS
; Function compile flags: /Odtp /RTCsu
;	COMDAT ??0?$_List_unchecked_const_iterator@V?$_List_val@U?$_List_simple_types@PAV?$Goal@VRaven_Bot@@@@@std@@@std@@U_Iterator_base12@2@@std@@QAE@ABV01@@Z
_TEXT	SEGMENT
_this$ = -4						; size = 4
___that$ = 8						; size = 4
??0?$_List_unchecked_const_iterator@V?$_List_val@U?$_List_simple_types@PAV?$Goal@VRaven_Bot@@@@@std@@@std@@U_Iterator_base12@2@@std@@QAE@ABV01@@Z PROC ; std::_List_unchecked_const_iterator<std::_List_val<std::_List_simple_types<Goal<Raven_Bot> *> >,std::_Iterator_base12>::_List_unchecked_const_iterator<std::_List_val<std::_List_simple_types<Goal<Raven_Bot> *> >,std::_Iterator_base12>, COMDAT
; _this$ = ecx
	push	ebp
	mov	ebp, esp
	push	ecx
	mov	DWORD PTR [ebp-4], -858993460		; ccccccccH
	mov	DWORD PTR _this$[ebp], ecx
	mov	eax, DWORD PTR ___that$[ebp]
	push	eax
	mov	ecx, DWORD PTR _this$[ebp]
	call	??0_Iterator_base12@std@@QAE@ABU01@@Z	; std::_Iterator_base12::_Iterator_base12
	mov	ecx, DWORD PTR _this$[ebp]
	mov	edx, DWORD PTR ___that$[ebp]
	mov	eax, DWORD PTR [edx+8]
	mov	DWORD PTR [ecx+8], eax
	mov	eax, DWORD PTR _this$[ebp]
	add	esp, 4
	cmp	ebp, esp
	call	__RTC_CheckEsp
	mov	esp, ebp
	pop	ebp
	ret	4
??0?$_List_unchecked_const_iterator@V?$_List_val@U?$_List_simple_types@PAV?$Goal@VRaven_Bot@@@@@std@@@std@@U_Iterator_base12@2@@std@@QAE@ABV01@@Z ENDP ; std::_List_unchecked_const_iterator<std::_List_val<std::_List_simple_types<Goal<Raven_Bot> *> >,std::_Iterator_base12>::_List_unchecked_const_iterator<std::_List_val<std::_List_simple_types<Goal<Raven_Bot> *> >,std::_Iterator_base12>
_TEXT	ENDS
; Function compile flags: /Odtp /RTCsu
;	COMDAT ??1?$_List_unchecked_const_iterator@V?$_List_val@U?$_List_simple_types@PAV?$Goal@VRaven_Bot@@@@@std@@@std@@U_Iterator_base12@2@@std@@QAE@XZ
_TEXT	SEGMENT
_this$ = -4						; size = 4
??1?$_List_unchecked_const_iterator@V?$_List_val@U?$_List_simple_types@PAV?$Goal@VRaven_Bot@@@@@std@@@std@@U_Iterator_base12@2@@std@@QAE@XZ PROC ; std::_List_unchecked_const_iterator<std::_List_val<std::_List_simple_types<Goal<Raven_Bot> *> >,std::_Iterator_base12>::~_List_unchecked_const_iterator<std::_List_val<std::_List_simple_types<Goal<Raven_Bot> *> >,std::_Iterator_base12>, COMDAT
; _this$ = ecx
	push	ebp
	mov	ebp, esp
	push	ecx
	mov	DWORD PTR [ebp-4], -858993460		; ccccccccH
	mov	DWORD PTR _this$[ebp], ecx
	mov	ecx, DWORD PTR _this$[ebp]
	call	??1_Iterator_base12@std@@QAE@XZ		; std::_Iterator_base12::~_Iterator_base12
	npad	1
	add	esp, 4
	cmp	ebp, esp
	call	__RTC_CheckEsp
	mov	esp, ebp
	pop	ebp
	ret	0
??1?$_List_unchecked_const_iterator@V?$_List_val@U?$_List_simple_types@PAV?$Goal@VRaven_Bot@@@@@std@@@std@@U_Iterator_base12@2@@std@@QAE@XZ ENDP ; std::_List_unchecked_const_iterator<std::_List_val<std::_List_simple_types<Goal<Raven_Bot> *> >,std::_Iterator_base12>::~_List_unchecked_const_iterator<std::_List_val<std::_List_simple_types<Goal<Raven_Bot> *> >,std::_Iterator_base12>
_TEXT	ENDS
; Function compile flags: /Odtp /RTCsu
; File C:\Program Files\Microsoft Visual Studio\2022\Community\VC\Tools\MSVC\14.44.35207\include\list
;	COMDAT ??0?$_List_unchecked_const_iterator@V?$_List_val@U?$_List_simple_types@PAV?$Goal@VRaven_Bot@@@@@std@@@std@@U_Iterator_base12@2@@std@@QAE@PAU?$_List_node@PAV?$Goal@VRaven_Bot@@@@PAX@1@PBV?$_List_val@U?$_List_simple_types@PAV?$Goal@VRaven_Bot@@@@@std@@@1@@Z
_TEXT	SEGMENT
_this$ = -4						; size = 4
__Pnode$ = 8						; size = 4
__Plist$ = 12						; size = 4
??0?$_List_unchecked_const_iterator@V?$_List_val@U?$_List_simple_types@PAV?$Goal@VRaven_Bot@@@@@std@@@std@@U_Iterator_base12@2@@std@@QAE@PAU?$_List_node@PAV?$Goal@VRaven_Bot@@@@PAX@1@PBV?$_List_val@U?$_List_simple_types@PAV?$Goal@VRaven_Bot@@@@@std@@@1@@Z PROC ; std::_List_unchecked_const_iterator<std::_List_val<std::_List_simple_types<Goal<Raven_Bot> *> >,std::_Iterator_base12>::_List_unchecked_const_iterator<std::_List_val<std::_List_simple_types<Goal<Raven_Bot> *> >,std::_Iterator_base12>, COMDAT
; _this$ = ecx

; 37   :     _List_unchecked_const_iterator(_Nodeptr _Pnode, const _Mylist* _Plist) noexcept : _Ptr(_Pnode) {

	push	ebp
	mov	ebp, esp
	push	ecx
	mov	DWORD PTR [ebp-4], -858993460		; ccccccccH
	mov	DWORD PTR _this$[ebp], ecx
	mov	ecx, DWORD PTR _this$[ebp]
	call	??0_Iterator_base12@std@@QAE@XZ		; std::_Iterator_base12::_Iterator_base12
	mov	eax, DWORD PTR _this$[ebp]
	mov	ecx, DWORD PTR __Pnode$[ebp]
	mov	DWORD PTR [eax+8], ecx

; 38   :         this->_Adopt(_Plist);

	mov	edx, DWORD PTR __Plist$[ebp]
	push	edx
	mov	ecx, DWORD PTR _this$[ebp]
	call	?_Adopt@_Iterator_base12@std@@QAEXPBU_Container_base12@2@@Z ; std::_Iterator_base12::_Adopt
	npad	1

; 39   :     }

	mov	eax, DWORD PTR _this$[ebp]
	add	esp, 4
	cmp	ebp, esp
	call	__RTC_CheckEsp
	mov	esp, ebp
	pop	ebp
	ret	8
??0?$_List_unchecked_const_iterator@V?$_List_val@U?$_List_simple_types@PAV?$Goal@VRaven_Bot@@@@@std@@@std@@U_Iterator_base12@2@@std@@QAE@PAU?$_List_node@PAV?$Goal@VRaven_Bot@@@@PAX@1@PBV?$_List_val@U?$_List_simple_types@PAV?$Goal@VRaven_Bot@@@@@std@@@1@@Z ENDP ; std::_List_unchecked_const_iterator<std::_List_val<std::_List_simple_types<Goal<Raven_Bot> *> >,std::_Iterator_base12>::_List_unchecked_const_iterator<std::_List_val<std::_List_simple_types<Goal<Raven_Bot> *> >,std::_Iterator_base12>
_TEXT	ENDS
; Function compile flags: /Odtp /RTCsu
; File C:\Program Files\Microsoft Visual Studio\2022\Community\VC\Tools\MSVC\14.44.35207\include\list
;	COMDAT ??0?$_List_unchecked_const_iterator@V?$_List_val@U?$_List_simple_types@PAV?$Goal@VRaven_Bot@@@@@std@@@std@@U_Iterator_base12@2@@std@@QAE@XZ
_TEXT	SEGMENT
_this$ = -4						; size = 4
??0?$_List_unchecked_const_iterator@V?$_List_val@U?$_List_simple_types@PAV?$Goal@VRaven_Bot@@@@@std@@@std@@U_Iterator_base12@2@@std@@QAE@XZ PROC ; std::_List_unchecked_const_iterator<std::_List_val<std::_List_simple_types<Goal<Raven_Bot> *> >,std::_Iterator_base12>::_List_unchecked_const_iterator<std::_List_val<std::_List_simple_types<Goal<Raven_Bot> *> >,std::_Iterator_base12>, COMDAT
; _this$ = ecx

; 35   :     _List_unchecked_const_iterator() noexcept : _Ptr() {}

	push	ebp
	mov	ebp, esp
	push	ecx
	mov	DWORD PTR [ebp-4], -858993460		; ccccccccH
	mov	DWORD PTR _this$[ebp], ecx
	mov	ecx, DWORD PTR _this$[ebp]
	call	??0_Iterator_base12@std@@QAE@XZ		; std::_Iterator_base12::_Iterator_base12
	mov	eax, DWORD PTR _this$[ebp]
	mov	DWORD PTR [eax+8], 0
	mov	eax, DWORD PTR _this$[ebp]
	add	esp, 4
	cmp	ebp, esp
	call	__RTC_CheckEsp
	mov	esp, ebp
	pop	ebp
	ret	0
??0?$_List_unchecked_const_iterator@V?$_List_val@U?$_List_simple_types@PAV?$Goal@VRaven_Bot@@@@@std@@@std@@U_Iterator_base12@2@@std@@QAE@XZ ENDP ; std::_List_unchecked_const_iterator<std::_List_val<std::_List_simple_types<Goal<Raven_Bot> *> >,std::_Iterator_base12>::_List_unchecked_const_iterator<std::_List_val<std::_List_simple_types<Goal<Raven_Bot> *> >,std::_Iterator_base12>
_TEXT	ENDS
; Function compile flags: /Odtp /RTCsu
; File C:\Program Files\Microsoft Visual Studio\2022\Community\VC\Tools\MSVC\14.44.35207\include\utility
;	COMDAT ??$min@I@std@@YAABIABI0@Z
_TEXT	SEGMENT
tv65 = -8						; size = 4
$T1 = -4						; size = 4
__Left$ = 8						; size = 4
__Right$ = 12						; size = 4
??$min@I@std@@YAABIABI0@Z PROC				; std::min<unsigned int>, COMDAT

; 99   :         noexcept(noexcept(_Right < _Left)) /* strengthened */ {

	push	ebp
	mov	ebp, esp
	sub	esp, 8

; 100  :     // return smaller of _Left and _Right
; 101  :     return _Right < _Left ? _Right : _Left;

	mov	eax, DWORD PTR __Right$[ebp]
	mov	ecx, DWORD PTR __Left$[ebp]
	mov	edx, DWORD PTR [eax]
	cmp	edx, DWORD PTR [ecx]
	jae	SHORT $LN3@min
	mov	eax, DWORD PTR __Right$[ebp]
	mov	DWORD PTR tv65[ebp], eax
	jmp	SHORT $LN4@min
$LN3@min:
	mov	ecx, DWORD PTR __Left$[ebp]
	mov	DWORD PTR tv65[ebp], ecx
$LN4@min:
	mov	edx, DWORD PTR tv65[ebp]
	mov	DWORD PTR $T1[ebp], edx
	mov	eax, DWORD PTR $T1[ebp]

; 102  : }

	mov	esp, ebp
	pop	ebp
	ret	0
??$min@I@std@@YAABIABI0@Z ENDP				; std::min<unsigned int>
_TEXT	ENDS
; Function compile flags: /Odtp /RTCsu
;	COMDAT ??_GGoal_MoveToPosition@@UAEPAXI@Z
_TEXT	SEGMENT
_this$ = -4						; size = 4
___flags$ = 8						; size = 4
??_GGoal_MoveToPosition@@UAEPAXI@Z PROC			; Goal_MoveToPosition::`scalar deleting destructor', COMDAT
; _this$ = ecx
	push	ebp
	mov	ebp, esp
	push	ecx
	mov	DWORD PTR [ebp-4], -858993460		; ccccccccH
	mov	DWORD PTR _this$[ebp], ecx
	mov	ecx, DWORD PTR _this$[ebp]
	call	??1Goal_MoveToPosition@@UAE@XZ
	mov	eax, DWORD PTR ___flags$[ebp]
	and	eax, 1
	je	SHORT $LN2@scalar
	push	48					; 00000030H
	mov	ecx, DWORD PTR _this$[ebp]
	push	ecx
	call	??3@YAXPAXI@Z				; operator delete
	add	esp, 8
$LN2@scalar:
	mov	eax, DWORD PTR _this$[ebp]
	add	esp, 4
	cmp	ebp, esp
	call	__RTC_CheckEsp
	mov	esp, ebp
	pop	ebp
	ret	4
??_GGoal_MoveToPosition@@UAEPAXI@Z ENDP			; Goal_MoveToPosition::`scalar deleting destructor'
_TEXT	ENDS
; Function compile flags: /Odtp /RTCsu
;	COMDAT ??1Goal_MoveToPosition@@UAE@XZ
_TEXT	SEGMENT
_this$ = -4						; size = 4
??1Goal_MoveToPosition@@UAE@XZ PROC			; Goal_MoveToPosition::~Goal_MoveToPosition, COMDAT
; _this$ = ecx
	push	ebp
	mov	ebp, esp
	push	ecx
	mov	DWORD PTR [ebp-4], -858993460		; ccccccccH
	mov	DWORD PTR _this$[ebp], ecx
	mov	ecx, DWORD PTR _this$[ebp]
	call	??1?$Goal_Composite@VRaven_Bot@@@@UAE@XZ ; Goal_Composite<Raven_Bot>::~Goal_Composite<Raven_Bot>
	npad	1
	add	esp, 4
	cmp	ebp, esp
	call	__RTC_CheckEsp
	mov	esp, ebp
	pop	ebp
	ret	0
??1Goal_MoveToPosition@@UAE@XZ ENDP			; Goal_MoveToPosition::~Goal_MoveToPosition
_TEXT	ENDS
; Function compile flags: /Odtp /RTCsu
; File C:\Users\Hamzzi\Desktop\AI_Practice\Source\VS2010\Buckland_Chapter7 to 10_Raven\goals\Goal_MoveToPosition.h
;	COMDAT ?Terminate@Goal_MoveToPosition@@UAEXXZ
_TEXT	SEGMENT
_this$ = -4						; size = 4
?Terminate@Goal_MoveToPosition@@UAEXXZ PROC		; Goal_MoveToPosition::Terminate, COMDAT
; _this$ = ecx

; 32   :   void Terminate(){}

	push	ebp
	mov	ebp, esp
	push	ecx
	mov	DWORD PTR _this$[ebp], ecx
	mov	esp, ebp
	pop	ebp
	ret	0
?Terminate@Goal_MoveToPosition@@UAEXXZ ENDP		; Goal_MoveToPosition::Terminate
_TEXT	ENDS
; Function compile flags: /Odtp /RTCsu
; File C:\Users\Hamzzi\Desktop\AI_Practice\Source\VS2010\Buckland_Chapter7 to 10_Raven\goals\Goal_MoveToPosition.h
;	COMDAT ??0Goal_MoveToPosition@@QAE@PAVRaven_Bot@@UVector2D@@@Z
_TEXT	SEGMENT
_this$ = -4						; size = 4
_pBot$ = 8						; size = 4
_pos$ = 12						; size = 16
??0Goal_MoveToPosition@@QAE@PAVRaven_Bot@@UVector2D@@@Z PROC ; Goal_MoveToPosition::Goal_MoveToPosition, COMDAT
; _this$ = ecx

; 27   :   {}

	push	ebp
	mov	ebp, esp
	push	ecx
	mov	DWORD PTR [ebp-4], -858993460		; ccccccccH
	mov	DWORD PTR _this$[ebp], ecx

; 24   :             Goal_Composite<Raven_Bot>(pBot,

	push	6
	mov	eax, DWORD PTR _pBot$[ebp]
	push	eax
	mov	ecx, DWORD PTR _this$[ebp]
	call	??0?$Goal_Composite@VRaven_Bot@@@@QAE@PAVRaven_Bot@@H@Z ; Goal_Composite<Raven_Bot>::Goal_Composite<Raven_Bot>

; 27   :   {}

	mov	ecx, DWORD PTR _this$[ebp]
	mov	DWORD PTR [ecx], OFFSET ??_7Goal_MoveToPosition@@6B@

; 25   :                                       goal_move_to_position),
; 26   :             m_vDestination(pos)

	mov	edx, DWORD PTR _this$[ebp]
	add	edx, 32					; 00000020H
	mov	eax, DWORD PTR _pos$[ebp]
	mov	DWORD PTR [edx], eax
	mov	ecx, DWORD PTR _pos$[ebp+4]
	mov	DWORD PTR [edx+4], ecx
	mov	eax, DWORD PTR _pos$[ebp+8]
	mov	DWORD PTR [edx+8], eax
	mov	ecx, DWORD PTR _pos$[ebp+12]
	mov	DWORD PTR [edx+12], ecx

; 27   :   {}

	mov	eax, DWORD PTR _this$[ebp]
	add	esp, 4
	cmp	ebp, esp
	call	__RTC_CheckEsp
	mov	esp, ebp
	pop	ebp
	ret	20					; 00000014H
??0Goal_MoveToPosition@@QAE@PAVRaven_Bot@@UVector2D@@@Z ENDP ; Goal_MoveToPosition::Goal_MoveToPosition
_TEXT	ENDS
; Function compile flags: /Odtp /RTCsu
;	COMDAT ??_GGoal_Explore@@UAEPAXI@Z
_TEXT	SEGMENT
_this$ = -4						; size = 4
___flags$ = 8						; size = 4
??_GGoal_Explore@@UAEPAXI@Z PROC			; Goal_Explore::`scalar deleting destructor', COMDAT
; _this$ = ecx
	push	ebp
	mov	ebp, esp
	push	ecx
	mov	DWORD PTR [ebp-4], -858993460		; ccccccccH
	mov	DWORD PTR _this$[ebp], ecx
	mov	ecx, DWORD PTR _this$[ebp]
	call	??1Goal_Explore@@UAE@XZ
	mov	eax, DWORD PTR ___flags$[ebp]
	and	eax, 1
	je	SHORT $LN2@scalar
	push	56					; 00000038H
	mov	ecx, DWORD PTR _this$[ebp]
	push	ecx
	call	??3@YAXPAXI@Z				; operator delete
	add	esp, 8
$LN2@scalar:
	mov	eax, DWORD PTR _this$[ebp]
	add	esp, 4
	cmp	ebp, esp
	call	__RTC_CheckEsp
	mov	esp, ebp
	pop	ebp
	ret	4
??_GGoal_Explore@@UAEPAXI@Z ENDP			; Goal_Explore::`scalar deleting destructor'
_TEXT	ENDS
; Function compile flags: /Odtp /RTCsu
;	COMDAT ??1Goal_Explore@@UAE@XZ
_TEXT	SEGMENT
_this$ = -4						; size = 4
??1Goal_Explore@@UAE@XZ PROC				; Goal_Explore::~Goal_Explore, COMDAT
; _this$ = ecx
	push	ebp
	mov	ebp, esp
	push	ecx
	mov	DWORD PTR [ebp-4], -858993460		; ccccccccH
	mov	DWORD PTR _this$[ebp], ecx
	mov	ecx, DWORD PTR _this$[ebp]
	call	??1?$Goal_Composite@VRaven_Bot@@@@UAE@XZ ; Goal_Composite<Raven_Bot>::~Goal_Composite<Raven_Bot>
	npad	1
	add	esp, 4
	cmp	ebp, esp
	call	__RTC_CheckEsp
	mov	esp, ebp
	pop	ebp
	ret	0
??1Goal_Explore@@UAE@XZ ENDP				; Goal_Explore::~Goal_Explore
_TEXT	ENDS
; Function compile flags: /Odtp /RTCsu
; File C:\Users\Hamzzi\Desktop\AI_Practice\Source\VS2010\Buckland_Chapter7 to 10_Raven\goals\Goal_Explore.h
;	COMDAT ?Terminate@Goal_Explore@@UAEXXZ
_TEXT	SEGMENT
_this$ = -4						; size = 4
?Terminate@Goal_Explore@@UAEXXZ PROC			; Goal_Explore::Terminate, COMDAT
; _this$ = ecx

; 33   :   void Terminate(){}

	push	ebp
	mov	ebp, esp
	push	ecx
	mov	DWORD PTR _this$[ebp], ecx
	mov	esp, ebp
	pop	ebp
	ret	0
?Terminate@Goal_Explore@@UAEXXZ ENDP			; Goal_Explore::Terminate
_TEXT	ENDS
; Function compile flags: /Odtp /RTCsu
; File C:\Users\Hamzzi\Desktop\AI_Practice\Source\VS2010\Buckland_Chapter7 to 10_Raven\goals\Goal_Explore.h
;	COMDAT ??0Goal_Explore@@QAE@PAVRaven_Bot@@@Z
_TEXT	SEGMENT
_this$ = -16						; size = 4
__$EHRec$ = -12						; size = 12
_pOwner$ = 8						; size = 4
??0Goal_Explore@@QAE@PAVRaven_Bot@@@Z PROC		; Goal_Explore::Goal_Explore, COMDAT
; _this$ = ecx

; 26   :   {}

	push	ebp
	mov	ebp, esp
	push	-1
	push	__ehhandler$??0Goal_Explore@@QAE@PAVRaven_Bot@@@Z
	mov	eax, DWORD PTR fs:0
	push	eax
	push	ecx
	mov	DWORD PTR [ebp-16], -858993460		; ccccccccH
	mov	eax, DWORD PTR ___security_cookie
	xor	eax, ebp
	push	eax
	lea	eax, DWORD PTR __$EHRec$[ebp]
	mov	DWORD PTR fs:0, eax
	mov	DWORD PTR _this$[ebp], ecx

; 23   :   Goal_Explore(Raven_Bot* pOwner):Goal_Composite<Raven_Bot>(pOwner,

	push	1
	mov	eax, DWORD PTR _pOwner$[ebp]
	push	eax
	mov	ecx, DWORD PTR _this$[ebp]
	call	??0?$Goal_Composite@VRaven_Bot@@@@QAE@PAVRaven_Bot@@H@Z ; Goal_Composite<Raven_Bot>::Goal_Composite<Raven_Bot>
	mov	DWORD PTR __$EHRec$[ebp+8], 0

; 26   :   {}

	mov	ecx, DWORD PTR _this$[ebp]
	mov	DWORD PTR [ecx], OFFSET ??_7Goal_Explore@@6B@
	mov	ecx, DWORD PTR _this$[ebp]
	add	ecx, 32					; 00000020H
	call	??0Vector2D@@QAE@XZ			; Vector2D::Vector2D

; 24   :                                                             goal_explore),
; 25   :                                   m_bDestinationIsSet(false)

	mov	edx, DWORD PTR _this$[ebp]
	mov	BYTE PTR [edx+48], 0

; 26   :   {}

	mov	DWORD PTR __$EHRec$[ebp+8], -1
	mov	eax, DWORD PTR _this$[ebp]
	mov	ecx, DWORD PTR __$EHRec$[ebp]
	mov	DWORD PTR fs:0, ecx
	pop	ecx
	add	esp, 16					; 00000010H
	cmp	ebp, esp
	call	__RTC_CheckEsp
	mov	esp, ebp
	pop	ebp
	ret	4
_TEXT	ENDS
;	COMDAT text$x
text$x	SEGMENT
__unwindfunclet$??0Goal_Explore@@QAE@PAVRaven_Bot@@@Z$0:
	mov	ecx, DWORD PTR _this$[ebp]
	jmp	??1?$Goal_Composite@VRaven_Bot@@@@UAE@XZ ; Goal_Composite<Raven_Bot>::~Goal_Composite<Raven_Bot>
	int	3
	int	3
	int	3
	int	3
	int	3
__ehhandler$??0Goal_Explore@@QAE@PAVRaven_Bot@@@Z:
	npad	1
	npad	1
	mov	edx, DWORD PTR [esp+8]
	lea	eax, DWORD PTR [edx+12]
	mov	ecx, DWORD PTR [edx-8]
	xor	ecx, eax
	call	@__security_check_cookie@4
	mov	eax, OFFSET __ehfuncinfo$??0Goal_Explore@@QAE@PAVRaven_Bot@@@Z
	jmp	___CxxFrameHandler3
text$x	ENDS
??0Goal_Explore@@QAE@PAVRaven_Bot@@@Z ENDP		; Goal_Explore::Goal_Explore
; Function compile flags: /Odtp /RTCsu
; File C:\Users\Hamzzi\Desktop\AI_Practice\Source\VS2010\Buckland_Chapter7 to 10_Raven\goals\Goal_HuntTarget.cpp
_TEXT	SEGMENT
_this$ = -4						; size = 4
?Render@Goal_HuntTarget@@UAEXXZ PROC			; Goal_HuntTarget::Render
; _this$ = ecx

; 74   : {  

	push	ebp
	mov	ebp, esp
	push	ecx
	mov	DWORD PTR [ebp-4], -858993460		; ccccccccH
	mov	DWORD PTR _this$[ebp], ecx

; 75   : //#define SHOW_LAST_RECORDED_POSITION
; 76   : #ifdef SHOW_LAST_RECORDED_POSITION
; 77   :   //render last recorded position as a green circle
; 78   :   if (m_pOwner->GetTargetSys()->isTargetPresent())
; 79   :   {
; 80   :     gdi->GreenPen();
; 81   :     gdi->RedBrush();
; 82   :     gdi->Circle(m_pOwner->GetTargetSys()->GetLastRecordedPosition(), 3);
; 83   :   }
; 84   : #endif
; 85   : 
; 86   :  //forward the request to the subgoals
; 87   :   Goal_Composite<Raven_Bot>::Render();

	mov	ecx, DWORD PTR _this$[ebp]
	call	?Render@?$Goal_Composite@VRaven_Bot@@@@UAEXXZ ; Goal_Composite<Raven_Bot>::Render
	npad	1

; 88   :   
; 89   : }

	add	esp, 4
	cmp	ebp, esp
	call	__RTC_CheckEsp
	mov	esp, ebp
	pop	ebp
	ret	0
?Render@Goal_HuntTarget@@UAEXXZ ENDP			; Goal_HuntTarget::Render
_TEXT	ENDS
; Function compile flags: /Odtp /RTCsu
; File C:\Users\Hamzzi\Desktop\AI_Practice\Source\VS2010\Buckland_Chapter7 to 10_Raven\goals\Goal_HuntTarget.cpp
_TEXT	SEGMENT
_this$ = -4						; size = 4
?Process@Goal_HuntTarget@@UAEHXZ PROC			; Goal_HuntTarget::Process
; _this$ = ecx

; 55   : {

	push	ebp
	mov	ebp, esp
	push	ecx
	mov	DWORD PTR [ebp-4], -858993460		; ccccccccH
	mov	DWORD PTR _this$[ebp], ecx

; 56   :   //if status is inactive, call Activate()
; 57   :   ActivateIfInactive();

	mov	ecx, DWORD PTR _this$[ebp]
	call	?ActivateIfInactive@?$Goal@VRaven_Bot@@@@IAEXXZ ; Goal<Raven_Bot>::ActivateIfInactive

; 58   : 
; 59   :   m_iStatus = ProcessSubgoals();

	mov	ecx, DWORD PTR _this$[ebp]
	call	?ProcessSubgoals@?$Goal_Composite@VRaven_Bot@@@@IAEHXZ ; Goal_Composite<Raven_Bot>::ProcessSubgoals
	mov	ecx, DWORD PTR _this$[ebp]
	mov	DWORD PTR [ecx+12], eax

; 60   : 
; 61   :   //if target is in view this goal is satisfied
; 62   :   if (m_pOwner->GetTargetSys()->isTargetWithinFOV())

	mov	edx, DWORD PTR _this$[ebp]
	mov	ecx, DWORD PTR [edx+8]
	call	?GetTargetSys@Raven_Bot@@QAEQAVRaven_TargetingSystem@@XZ ; Raven_Bot::GetTargetSys
	mov	ecx, eax
	call	?isTargetWithinFOV@Raven_TargetingSystem@@QBE_NXZ ; Raven_TargetingSystem::isTargetWithinFOV
	movzx	eax, al
	test	eax, eax
	je	SHORT $LN2@Process

; 63   :   {
; 64   :      m_iStatus = completed;

	mov	ecx, DWORD PTR _this$[ebp]
	mov	DWORD PTR [ecx+12], 2
$LN2@Process:

; 65   :   }
; 66   : 
; 67   :   return m_iStatus;

	mov	edx, DWORD PTR _this$[ebp]
	mov	eax, DWORD PTR [edx+12]

; 68   : }

	add	esp, 4
	cmp	ebp, esp
	call	__RTC_CheckEsp
	mov	esp, ebp
	pop	ebp
	ret	0
?Process@Goal_HuntTarget@@UAEHXZ ENDP			; Goal_HuntTarget::Process
_TEXT	ENDS
; Function compile flags: /Odtp /RTCsu
; File C:\Users\Hamzzi\Desktop\AI_Practice\Source\VS2010\Buckland_Chapter7 to 10_Raven\goals\Goal_HuntTarget.cpp
_TEXT	SEGMENT
tv197 = -64						; size = 4
tv167 = -60						; size = 4
$T2 = -56						; size = 4
$T3 = -52						; size = 4
$T4 = -48						; size = 4
$T5 = -44						; size = 4
_lrp$6 = -36						; size = 16
_this$ = -16						; size = 4
__$EHRec$ = -12						; size = 12
?Activate@Goal_HuntTarget@@UAEXXZ PROC			; Goal_HuntTarget::Activate
; _this$ = ecx

; 15   : {

	push	ebp
	mov	ebp, esp
	push	-1
	push	__ehhandler$?Activate@Goal_HuntTarget@@UAEXXZ
	mov	eax, DWORD PTR fs:0
	push	eax
	sub	esp, 52					; 00000034H
	push	esi
	push	edi
	push	ecx
	lea	edi, DWORD PTR [ebp-64]
	mov	ecx, 13					; 0000000dH
	mov	eax, -858993460				; ccccccccH
	rep stosd
	pop	ecx
	mov	eax, DWORD PTR ___security_cookie
	xor	eax, ebp
	push	eax
	lea	eax, DWORD PTR __$EHRec$[ebp]
	mov	DWORD PTR fs:0, eax
	mov	DWORD PTR _this$[ebp], ecx

; 16   :   m_iStatus = active;

	mov	eax, DWORD PTR _this$[ebp]
	mov	DWORD PTR [eax+12], 0

; 17   :   
; 18   :   //if this goal is reactivated then there may be some existing subgoals that
; 19   :   //must be removed
; 20   :   RemoveAllSubgoals();

	mov	ecx, DWORD PTR _this$[ebp]
	call	?RemoveAllSubgoals@?$Goal_Composite@VRaven_Bot@@@@QAEXXZ ; Goal_Composite<Raven_Bot>::RemoveAllSubgoals
	npad	1

; 21   :   
; 22   :   //it is possible for the target to die whilst this goal is active so we
; 23   :   //must test to make sure the bot always has an active target
; 24   :   if (m_pOwner->GetTargetSys()->isTargetPresent())

	mov	ecx, DWORD PTR _this$[ebp]
	mov	ecx, DWORD PTR [ecx+8]
	call	?GetTargetSys@Raven_Bot@@QAEQAVRaven_TargetingSystem@@XZ ; Raven_Bot::GetTargetSys
	mov	ecx, eax
	call	?isTargetPresent@Raven_TargetingSystem@@QBE_NXZ ; Raven_TargetingSystem::isTargetPresent
	movzx	edx, al
	test	edx, edx
	je	$LN2@Activate

; 25   :   {
; 26   :     //grab a local copy of the last recorded position (LRP) of the target
; 27   :     const Vector2D lrp = m_pOwner->GetTargetSys()->GetLastRecordedPosition();

	lea	eax, DWORD PTR _lrp$6[ebp]
	push	eax
	mov	ecx, DWORD PTR _this$[ebp]
	mov	ecx, DWORD PTR [ecx+8]
	call	?GetTargetSys@Raven_Bot@@QAEQAVRaven_TargetingSystem@@XZ ; Raven_Bot::GetTargetSys
	mov	ecx, eax
	call	?GetLastRecordedPosition@Raven_TargetingSystem@@QBE?AUVector2D@@XZ ; Raven_TargetingSystem::GetLastRecordedPosition
	npad	1

; 28   : 
; 29   :     //if the bot has reached the LRP and it still hasn't found the target
; 30   :     //it starts to search by using the explore goal to move to random
; 31   :     //map locations
; 32   :     if (lrp.isZero() || m_pOwner->isAtPosition(lrp))

	lea	ecx, DWORD PTR _lrp$6[ebp]
	call	?isZero@Vector2D@@QBE_NXZ		; Vector2D::isZero
	movzx	edx, al
	test	edx, edx
	jne	SHORT $LN6@Activate
	sub	esp, 16					; 00000010H
	mov	eax, esp
	mov	ecx, DWORD PTR _lrp$6[ebp]
	mov	DWORD PTR [eax], ecx
	mov	edx, DWORD PTR _lrp$6[ebp+4]
	mov	DWORD PTR [eax+4], edx
	mov	ecx, DWORD PTR _lrp$6[ebp+8]
	mov	DWORD PTR [eax+8], ecx
	mov	edx, DWORD PTR _lrp$6[ebp+12]
	mov	DWORD PTR [eax+12], edx
	mov	eax, DWORD PTR _this$[ebp]
	mov	ecx, DWORD PTR [eax+8]
	call	?isAtPosition@Raven_Bot@@QBE_NUVector2D@@@Z ; Raven_Bot::isAtPosition
	movzx	ecx, al
	test	ecx, ecx
	je	SHORT $LN4@Activate
$LN6@Activate:

; 33   :     {
; 34   :       AddSubgoal(new Goal_Explore(m_pOwner));

	push	56					; 00000038H
	call	??2@YAPAXI@Z				; operator new
	add	esp, 4
	mov	DWORD PTR $T4[ebp], eax
	mov	DWORD PTR __$EHRec$[ebp+8], 0
	cmp	DWORD PTR $T4[ebp], 0
	je	SHORT $LN8@Activate
	mov	edx, DWORD PTR _this$[ebp]
	mov	eax, DWORD PTR [edx+8]
	push	eax
	mov	ecx, DWORD PTR $T4[ebp]
	call	??0Goal_Explore@@QAE@PAVRaven_Bot@@@Z	; Goal_Explore::Goal_Explore
	mov	DWORD PTR tv167[ebp], eax
	jmp	SHORT $LN9@Activate
$LN8@Activate:
	mov	DWORD PTR tv167[ebp], 0
$LN9@Activate:
	mov	ecx, DWORD PTR tv167[ebp]
	mov	DWORD PTR $T5[ebp], ecx
	mov	DWORD PTR __$EHRec$[ebp+8], -1
	mov	esi, esp
	mov	edx, DWORD PTR $T5[ebp]
	push	edx
	mov	eax, DWORD PTR _this$[ebp]
	mov	edx, DWORD PTR [eax]
	mov	ecx, DWORD PTR _this$[ebp]
	mov	eax, DWORD PTR [edx+20]
	call	eax
	cmp	esi, esp
	call	__RTC_CheckEsp
	npad	1

; 35   :     }

	jmp	SHORT $LN5@Activate
$LN4@Activate:

; 36   : 
; 37   :     //else move to the LRP
; 38   :     else
; 39   :     {
; 40   :       AddSubgoal(new Goal_MoveToPosition(m_pOwner, lrp));

	push	48					; 00000030H
	call	??2@YAPAXI@Z				; operator new
	add	esp, 4
	mov	DWORD PTR $T2[ebp], eax
	mov	DWORD PTR __$EHRec$[ebp+8], 1
	cmp	DWORD PTR $T2[ebp], 0
	je	SHORT $LN10@Activate
	sub	esp, 16					; 00000010H
	mov	ecx, esp
	mov	edx, DWORD PTR _lrp$6[ebp]
	mov	DWORD PTR [ecx], edx
	mov	eax, DWORD PTR _lrp$6[ebp+4]
	mov	DWORD PTR [ecx+4], eax
	mov	edx, DWORD PTR _lrp$6[ebp+8]
	mov	DWORD PTR [ecx+8], edx
	mov	eax, DWORD PTR _lrp$6[ebp+12]
	mov	DWORD PTR [ecx+12], eax
	mov	ecx, DWORD PTR _this$[ebp]
	mov	edx, DWORD PTR [ecx+8]
	push	edx
	mov	ecx, DWORD PTR $T2[ebp]
	call	??0Goal_MoveToPosition@@QAE@PAVRaven_Bot@@UVector2D@@@Z ; Goal_MoveToPosition::Goal_MoveToPosition
	mov	DWORD PTR tv197[ebp], eax
	jmp	SHORT $LN11@Activate
$LN10@Activate:
	mov	DWORD PTR tv197[ebp], 0
$LN11@Activate:
	mov	eax, DWORD PTR tv197[ebp]
	mov	DWORD PTR $T3[ebp], eax
	mov	DWORD PTR __$EHRec$[ebp+8], -1
	mov	esi, esp
	mov	ecx, DWORD PTR $T3[ebp]
	push	ecx
	mov	edx, DWORD PTR _this$[ebp]
	mov	eax, DWORD PTR [edx]
	mov	ecx, DWORD PTR _this$[ebp]
	mov	edx, DWORD PTR [eax+20]
	call	edx
	cmp	esi, esp
	call	__RTC_CheckEsp
	npad	1
$LN5@Activate:

; 41   :     }
; 42   :   }

	jmp	SHORT $LN3@Activate
$LN2@Activate:

; 43   : 
; 44   :   //if their is no active target then this goal can be removed from the queue
; 45   :   else
; 46   :   {
; 47   :     m_iStatus = completed;

	mov	eax, DWORD PTR _this$[ebp]
	mov	DWORD PTR [eax+12], 2
$LN3@Activate:

; 48   :   }
; 49   :     
; 50   : }

	push	edx
	mov	ecx, ebp
	push	eax
	lea	edx, DWORD PTR $LN17@Activate
	call	@_RTC_CheckStackVars@8
	pop	eax
	pop	edx
	mov	ecx, DWORD PTR __$EHRec$[ebp]
	mov	DWORD PTR fs:0, ecx
	pop	ecx
	pop	edi
	pop	esi
	add	esp, 64					; 00000040H
	cmp	ebp, esp
	call	__RTC_CheckEsp
	mov	esp, ebp
	pop	ebp
	ret	0
	npad	1
$LN17@Activate:
	DD	1
	DD	$LN16@Activate
$LN16@Activate:
	DD	-36					; ffffffdcH
	DD	16					; 00000010H
	DD	$LN14@Activate
$LN14@Activate:
	DB	108					; 0000006cH
	DB	114					; 00000072H
	DB	112					; 00000070H
	DB	0
_TEXT	ENDS
text$x	SEGMENT
__unwindfunclet$?Activate@Goal_HuntTarget@@UAEXXZ$0:
	push	56					; 00000038H
	mov	eax, DWORD PTR $T4[ebp]
	push	eax
	call	??3@YAXPAXI@Z				; operator delete
	add	esp, 8
	ret	0
__unwindfunclet$?Activate@Goal_HuntTarget@@UAEXXZ$1:
	push	48					; 00000030H
	mov	eax, DWORD PTR $T2[ebp]
	push	eax
	call	??3@YAXPAXI@Z				; operator delete
	add	esp, 8
	ret	0
	int	3
	int	3
	int	3
	int	3
	int	3
__ehhandler$?Activate@Goal_HuntTarget@@UAEXXZ:
	npad	1
	npad	1
	mov	edx, DWORD PTR [esp+8]
	lea	eax, DWORD PTR [edx+12]
	mov	ecx, DWORD PTR [edx-64]
	xor	ecx, eax
	call	@__security_check_cookie@4
	mov	eax, OFFSET __ehfuncinfo$?Activate@Goal_HuntTarget@@UAEXXZ
	jmp	___CxxFrameHandler3
text$x	ENDS
?Activate@Goal_HuntTarget@@UAEXXZ ENDP			; Goal_HuntTarget::Activate
; Function compile flags: /Odtp /RTCsu
;	COMDAT ??_G?$Goal_Composite@VRaven_Bot@@@@UAEPAXI@Z
_TEXT	SEGMENT
_this$ = -4						; size = 4
___flags$ = 8						; size = 4
??_G?$Goal_Composite@VRaven_Bot@@@@UAEPAXI@Z PROC	; Goal_Composite<Raven_Bot>::`scalar deleting destructor', COMDAT
; _this$ = ecx
	push	ebp
	mov	ebp, esp
	push	ecx
	mov	DWORD PTR [ebp-4], -858993460		; ccccccccH
	mov	DWORD PTR _this$[ebp], ecx
	mov	ecx, DWORD PTR _this$[ebp]
	call	??1?$Goal_Composite@VRaven_Bot@@@@UAE@XZ ; Goal_Composite<Raven_Bot>::~Goal_Composite<Raven_Bot>
	mov	eax, DWORD PTR ___flags$[ebp]
	and	eax, 1
	je	SHORT $LN2@scalar
	push	28					; 0000001cH
	mov	ecx, DWORD PTR _this$[ebp]
	push	ecx
	call	??3@YAXPAXI@Z				; operator delete
	add	esp, 8
$LN2@scalar:
	mov	eax, DWORD PTR _this$[ebp]
	add	esp, 4
	cmp	ebp, esp
	call	__RTC_CheckEsp
	mov	esp, ebp
	pop	ebp
	ret	4
??_G?$Goal_Composite@VRaven_Bot@@@@UAEPAXI@Z ENDP	; Goal_Composite<Raven_Bot>::`scalar deleting destructor'
_TEXT	ENDS
; Function compile flags: /Odtp /RTCsu
; File C:\Users\Hamzzi\Desktop\AI_Practice\Source\VS2010\Common\Goals\Goal_Composite.h
;	COMDAT ?Render@?$Goal_Composite@VRaven_Bot@@@@UAEXXZ
_TEXT	SEGMENT
tv74 = -8						; size = 4
_this$ = -4						; size = 4
?Render@?$Goal_Composite@VRaven_Bot@@@@UAEXXZ PROC	; Goal_Composite<Raven_Bot>::Render, COMDAT
; _this$ = ecx

; 182  : {

	push	ebp
	mov	ebp, esp
	sub	esp, 8
	push	esi
	mov	DWORD PTR [ebp-8], -858993460		; ccccccccH
	mov	DWORD PTR [ebp-4], -858993460		; ccccccccH
	mov	DWORD PTR _this$[ebp], ecx

; 183  :   if (!m_SubGoals.empty())

	mov	ecx, DWORD PTR _this$[ebp]
	add	ecx, 16					; 00000010H
	call	?empty@?$list@PAV?$Goal@VRaven_Bot@@@@V?$allocator@PAV?$Goal@VRaven_Bot@@@@@std@@@std@@QBE_NXZ ; std::list<Goal<Raven_Bot> *,std::allocator<Goal<Raven_Bot> *> >::empty
	movzx	eax, al
	test	eax, eax
	jne	SHORT $LN2@Render

; 184  :   {
; 185  :     m_SubGoals.front()->Render();

	mov	ecx, DWORD PTR _this$[ebp]
	add	ecx, 16					; 00000010H
	call	?front@?$list@PAV?$Goal@VRaven_Bot@@@@V?$allocator@PAV?$Goal@VRaven_Bot@@@@@std@@@std@@QAEAAPAV?$Goal@VRaven_Bot@@@@XZ ; std::list<Goal<Raven_Bot> *,std::allocator<Goal<Raven_Bot> *> >::front
	mov	ecx, DWORD PTR [eax]
	mov	DWORD PTR tv74[ebp], ecx
	mov	edx, DWORD PTR tv74[ebp]
	mov	eax, DWORD PTR [edx]
	mov	esi, esp
	mov	ecx, DWORD PTR tv74[ebp]
	mov	edx, DWORD PTR [eax+28]
	call	edx
	cmp	esi, esp
	call	__RTC_CheckEsp
	npad	1
$LN2@Render:

; 186  :   }
; 187  : }

	pop	esi
	add	esp, 8
	cmp	ebp, esp
	call	__RTC_CheckEsp
	mov	esp, ebp
	pop	ebp
	ret	0
?Render@?$Goal_Composite@VRaven_Bot@@@@UAEXXZ ENDP	; Goal_Composite<Raven_Bot>::Render
_TEXT	ENDS
; Function compile flags: /Odtp /RTCsu
; File C:\Users\Hamzzi\Desktop\AI_Practice\Source\VS2010\Common\Goals\Goal_Composite.h
;	COMDAT ?RenderAtPos@?$Goal_Composite@VRaven_Bot@@@@UBEXAAUVector2D@@PAVTypeToString@@@Z
_TEXT	SEGMENT
tv135 = -76						; size = 4
tv147 = -72						; size = 4
tv145 = -68						; size = 4
$T2 = -64						; size = 12
$T3 = -49						; size = 1
$T4 = -48						; size = 12
_it$ = -32						; size = 12
_this$ = -16						; size = 4
__$EHRec$ = -12						; size = 12
_pos$ = 8						; size = 4
_tts$ = 12						; size = 4
?RenderAtPos@?$Goal_Composite@VRaven_Bot@@@@UBEXAAUVector2D@@PAVTypeToString@@@Z PROC ; Goal_Composite<Raven_Bot>::RenderAtPos, COMDAT
; _this$ = ecx

; 165  : {

	push	ebp
	mov	ebp, esp
	push	-1
	push	__ehhandler$?RenderAtPos@?$Goal_Composite@VRaven_Bot@@@@UBEXAAUVector2D@@PAVTypeToString@@@Z
	mov	eax, DWORD PTR fs:0
	push	eax
	sub	esp, 64					; 00000040H
	push	esi
	push	edi
	push	ecx
	lea	edi, DWORD PTR [ebp-76]
	mov	ecx, 16					; 00000010H
	mov	eax, -858993460				; ccccccccH
	rep stosd
	pop	ecx
	mov	eax, DWORD PTR ___security_cookie
	xor	eax, ebp
	push	eax
	lea	eax, DWORD PTR __$EHRec$[ebp]
	mov	DWORD PTR fs:0, eax
	mov	DWORD PTR _this$[ebp], ecx

; 166  :   Goal<entity_type>::RenderAtPos(pos, tts);

	mov	eax, DWORD PTR _tts$[ebp]
	push	eax
	mov	ecx, DWORD PTR _pos$[ebp]
	push	ecx
	mov	ecx, DWORD PTR _this$[ebp]
	call	?RenderAtPos@?$Goal@VRaven_Bot@@@@UBEXAAUVector2D@@PAVTypeToString@@@Z ; Goal<Raven_Bot>::RenderAtPos

; 167  : 
; 168  :   pos.x += 10;

	mov	edx, DWORD PTR _pos$[ebp]
	movsd	xmm0, QWORD PTR [edx]
	addsd	xmm0, QWORD PTR __real@4024000000000000
	mov	eax, DWORD PTR _pos$[ebp]
	movsd	QWORD PTR [eax], xmm0

; 169  : 
; 170  :   gdi->TransparentText();

	call	?Instance@Cgdi@@SAPAV1@XZ		; Cgdi::Instance
	mov	ecx, eax
	call	?TransparentText@Cgdi@@QAEXXZ		; Cgdi::TransparentText

; 171  :   SubgoalList::const_reverse_iterator it;

	lea	ecx, DWORD PTR _it$[ebp]
	call	??0?$reverse_iterator@V?$_List_const_iterator@V?$_List_val@U?$_List_simple_types@PAV?$Goal@VRaven_Bot@@@@@std@@@std@@@std@@@std@@QAE@XZ ; std::reverse_iterator<std::_List_const_iterator<std::_List_val<std::_List_simple_types<Goal<Raven_Bot> *> > > >::reverse_iterator<std::_List_const_iterator<std::_List_val<std::_List_simple_types<Goal<Raven_Bot> *> > > >
	mov	DWORD PTR __$EHRec$[ebp+8], 0

; 172  :   for (it=m_SubGoals.rbegin(); it != m_SubGoals.rend(); ++it)

	lea	ecx, DWORD PTR $T4[ebp]
	push	ecx
	mov	ecx, DWORD PTR _this$[ebp]
	add	ecx, 16					; 00000010H
	call	?rbegin@?$list@PAV?$Goal@VRaven_Bot@@@@V?$allocator@PAV?$Goal@VRaven_Bot@@@@@std@@@std@@QBE?AV?$reverse_iterator@V?$_List_const_iterator@V?$_List_val@U?$_List_simple_types@PAV?$Goal@VRaven_Bot@@@@@std@@@std@@@std@@@2@XZ ; std::list<Goal<Raven_Bot> *,std::allocator<Goal<Raven_Bot> *> >::rbegin
	mov	DWORD PTR tv145[ebp], eax
	mov	edx, DWORD PTR tv145[ebp]
	push	edx
	lea	ecx, DWORD PTR _it$[ebp]
	call	??4?$reverse_iterator@V?$_List_const_iterator@V?$_List_val@U?$_List_simple_types@PAV?$Goal@VRaven_Bot@@@@@std@@@std@@@std@@@std@@QAEAAV01@$$QAV01@@Z
	lea	ecx, DWORD PTR $T4[ebp]
	call	??1?$reverse_iterator@V?$_List_const_iterator@V?$_List_val@U?$_List_simple_types@PAV?$Goal@VRaven_Bot@@@@@std@@@std@@@std@@@std@@QAE@XZ
	npad	1
	jmp	SHORT $LN4@RenderAtPo
$LN2@RenderAtPo:
	lea	ecx, DWORD PTR _it$[ebp]
	call	??E?$reverse_iterator@V?$_List_const_iterator@V?$_List_val@U?$_List_simple_types@PAV?$Goal@VRaven_Bot@@@@@std@@@std@@@std@@@std@@QAEAAV01@XZ ; std::reverse_iterator<std::_List_const_iterator<std::_List_val<std::_List_simple_types<Goal<Raven_Bot> *> > > >::operator++
	npad	1
$LN4@RenderAtPo:
	lea	eax, DWORD PTR $T2[ebp]
	push	eax
	mov	ecx, DWORD PTR _this$[ebp]
	add	ecx, 16					; 00000010H
	call	?rend@?$list@PAV?$Goal@VRaven_Bot@@@@V?$allocator@PAV?$Goal@VRaven_Bot@@@@@std@@@std@@QBE?AV?$reverse_iterator@V?$_List_const_iterator@V?$_List_val@U?$_List_simple_types@PAV?$Goal@VRaven_Bot@@@@@std@@@std@@@std@@@2@XZ ; std::list<Goal<Raven_Bot> *,std::allocator<Goal<Raven_Bot> *> >::rend
	mov	DWORD PTR tv147[ebp], eax
	mov	ecx, DWORD PTR tv147[ebp]
	push	ecx
	lea	edx, DWORD PTR _it$[ebp]
	push	edx
	call	??$?9V?$_List_const_iterator@V?$_List_val@U?$_List_simple_types@PAV?$Goal@VRaven_Bot@@@@@std@@@std@@@std@@V01@@std@@YA_NABV?$reverse_iterator@V?$_List_const_iterator@V?$_List_val@U?$_List_simple_types@PAV?$Goal@VRaven_Bot@@@@@std@@@std@@@std@@@0@0@Z ; std::operator!=<std::_List_const_iterator<std::_List_val<std::_List_simple_types<Goal<Raven_Bot> *> > >,std::_List_const_iterator<std::_List_val<std::_List_simple_types<Goal<Raven_Bot> *> > > >
	add	esp, 8
	mov	BYTE PTR $T3[ebp], al
	lea	ecx, DWORD PTR $T2[ebp]
	call	??1?$reverse_iterator@V?$_List_const_iterator@V?$_List_val@U?$_List_simple_types@PAV?$Goal@VRaven_Bot@@@@@std@@@std@@@std@@@std@@QAE@XZ
	movzx	eax, BYTE PTR $T3[ebp]
	test	eax, eax
	je	SHORT $LN3@RenderAtPo

; 173  :   {
; 174  :     (*it)->RenderAtPos(pos, tts);

	lea	ecx, DWORD PTR _it$[ebp]
	call	??D?$reverse_iterator@V?$_List_const_iterator@V?$_List_val@U?$_List_simple_types@PAV?$Goal@VRaven_Bot@@@@@std@@@std@@@std@@@std@@QBEABQAV?$Goal@VRaven_Bot@@@@XZ ; std::reverse_iterator<std::_List_const_iterator<std::_List_val<std::_List_simple_types<Goal<Raven_Bot> *> > > >::operator*
	mov	ecx, DWORD PTR [eax]
	mov	DWORD PTR tv135[ebp], ecx
	mov	esi, esp
	mov	edx, DWORD PTR _tts$[ebp]
	push	edx
	mov	eax, DWORD PTR _pos$[ebp]
	push	eax
	mov	ecx, DWORD PTR tv135[ebp]
	mov	edx, DWORD PTR [ecx]
	mov	ecx, DWORD PTR tv135[ebp]
	mov	eax, DWORD PTR [edx+24]
	call	eax
	cmp	esi, esp
	call	__RTC_CheckEsp
	npad	1

; 175  :   }

	jmp	SHORT $LN2@RenderAtPo
$LN3@RenderAtPo:

; 176  : 
; 177  :   pos.x -= 10;

	mov	ecx, DWORD PTR _pos$[ebp]
	movsd	xmm0, QWORD PTR [ecx]
	subsd	xmm0, QWORD PTR __real@4024000000000000
	mov	edx, DWORD PTR _pos$[ebp]
	movsd	QWORD PTR [edx], xmm0

; 178  : }

	mov	DWORD PTR __$EHRec$[ebp+8], -1
	lea	ecx, DWORD PTR _it$[ebp]
	call	??1?$reverse_iterator@V?$_List_const_iterator@V?$_List_val@U?$_List_simple_types@PAV?$Goal@VRaven_Bot@@@@@std@@@std@@@std@@@std@@QAE@XZ
	npad	1
	push	edx
	mov	ecx, ebp
	push	eax
	lea	edx, DWORD PTR $LN12@RenderAtPo
	call	@_RTC_CheckStackVars@8
	pop	eax
	pop	edx
	mov	ecx, DWORD PTR __$EHRec$[ebp]
	mov	DWORD PTR fs:0, ecx
	pop	ecx
	pop	edi
	pop	esi
	add	esp, 76					; 0000004cH
	cmp	ebp, esp
	call	__RTC_CheckEsp
	mov	esp, ebp
	pop	ebp
	ret	8
	npad	3
$LN12@RenderAtPo:
	DD	1
	DD	$LN11@RenderAtPo
$LN11@RenderAtPo:
	DD	-32					; ffffffe0H
	DD	12					; 0000000cH
	DD	$LN9@RenderAtPo
$LN9@RenderAtPo:
	DB	105					; 00000069H
	DB	116					; 00000074H
	DB	0
_TEXT	ENDS
;	COMDAT text$x
text$x	SEGMENT
__unwindfunclet$?RenderAtPos@?$Goal_Composite@VRaven_Bot@@@@UBEXAAUVector2D@@PAVTypeToString@@@Z$0:
	lea	ecx, DWORD PTR _it$[ebp]
	jmp	??1?$reverse_iterator@V?$_List_const_iterator@V?$_List_val@U?$_List_simple_types@PAV?$Goal@VRaven_Bot@@@@@std@@@std@@@std@@@std@@QAE@XZ
	int	3
	int	3
	int	3
	int	3
	int	3
__ehhandler$?RenderAtPos@?$Goal_Composite@VRaven_Bot@@@@UBEXAAUVector2D@@PAVTypeToString@@@Z:
	npad	1
	npad	1
	mov	edx, DWORD PTR [esp+8]
	lea	eax, DWORD PTR [edx+12]
	mov	ecx, DWORD PTR [edx-76]
	xor	ecx, eax
	call	@__security_check_cookie@4
	mov	eax, OFFSET __ehfuncinfo$?RenderAtPos@?$Goal_Composite@VRaven_Bot@@@@UBEXAAUVector2D@@PAVTypeToString@@@Z
	jmp	___CxxFrameHandler3
text$x	ENDS
?RenderAtPos@?$Goal_Composite@VRaven_Bot@@@@UBEXAAUVector2D@@PAVTypeToString@@@Z ENDP ; Goal_Composite<Raven_Bot>::RenderAtPos
; Function compile flags: /Odtp /RTCsu
; File C:\Users\Hamzzi\Desktop\AI_Practice\Source\VS2010\Common\Goals\Goal_Composite.h
;	COMDAT ?RemoveAllSubgoals@?$Goal_Composite@VRaven_Bot@@@@QAEXXZ
_TEXT	SEGMENT
tv136 = -68						; size = 4
tv93 = -64						; size = 4
tv141 = -60						; size = 4
$T2 = -56						; size = 4
$T3 = -52						; size = 12
$T4 = -37						; size = 1
_it$5 = -32						; size = 12
_this$ = -16						; size = 4
__$EHRec$ = -12						; size = 12
?RemoveAllSubgoals@?$Goal_Composite@VRaven_Bot@@@@QAEXXZ PROC ; Goal_Composite<Raven_Bot>::RemoveAllSubgoals, COMDAT
; _this$ = ecx

; 79   : {

	push	ebp
	mov	ebp, esp
	push	-1
	push	__ehhandler$?RemoveAllSubgoals@?$Goal_Composite@VRaven_Bot@@@@QAEXXZ
	mov	eax, DWORD PTR fs:0
	push	eax
	sub	esp, 56					; 00000038H
	push	esi
	push	edi
	push	ecx
	lea	edi, DWORD PTR [ebp-68]
	mov	ecx, 14					; 0000000eH
	mov	eax, -858993460				; ccccccccH
	rep stosd
	pop	ecx
	mov	eax, DWORD PTR ___security_cookie
	xor	eax, ebp
	push	eax
	lea	eax, DWORD PTR __$EHRec$[ebp]
	mov	DWORD PTR fs:0, eax
	mov	DWORD PTR _this$[ebp], ecx

; 80   :   for (SubgoalList::iterator it = m_SubGoals.begin();

	lea	eax, DWORD PTR _it$5[ebp]
	push	eax
	mov	ecx, DWORD PTR _this$[ebp]
	add	ecx, 16					; 00000010H
	call	?begin@?$list@PAV?$Goal@VRaven_Bot@@@@V?$allocator@PAV?$Goal@VRaven_Bot@@@@@std@@@std@@QAE?AV?$_List_iterator@V?$_List_val@U?$_List_simple_types@PAV?$Goal@VRaven_Bot@@@@@std@@@std@@@2@XZ ; std::list<Goal<Raven_Bot> *,std::allocator<Goal<Raven_Bot> *> >::begin
	mov	DWORD PTR __$EHRec$[ebp+8], 0
	jmp	SHORT $LN4@RemoveAllS
$LN2@RemoveAllS:

; 82   :        ++it)

	lea	ecx, DWORD PTR _it$5[ebp]
	call	??E?$_List_iterator@V?$_List_val@U?$_List_simple_types@PAV?$Goal@VRaven_Bot@@@@@std@@@std@@@std@@QAEAAV01@XZ ; std::_List_iterator<std::_List_val<std::_List_simple_types<Goal<Raven_Bot> *> > >::operator++
	npad	1
$LN4@RemoveAllS:

; 81   :        it != m_SubGoals.end();

	lea	ecx, DWORD PTR $T3[ebp]
	push	ecx
	mov	ecx, DWORD PTR _this$[ebp]
	add	ecx, 16					; 00000010H
	call	?end@?$list@PAV?$Goal@VRaven_Bot@@@@V?$allocator@PAV?$Goal@VRaven_Bot@@@@@std@@@std@@QAE?AV?$_List_iterator@V?$_List_val@U?$_List_simple_types@PAV?$Goal@VRaven_Bot@@@@@std@@@std@@@2@XZ ; std::list<Goal<Raven_Bot> *,std::allocator<Goal<Raven_Bot> *> >::end
	mov	DWORD PTR tv141[ebp], eax
	mov	edx, DWORD PTR tv141[ebp]
	push	edx
	lea	ecx, DWORD PTR _it$5[ebp]
	call	??9?$_List_const_iterator@V?$_List_val@U?$_List_simple_types@PAV?$Goal@VRaven_Bot@@@@@std@@@std@@@std@@QBE_NABV01@@Z ; std::_List_const_iterator<std::_List_val<std::_List_simple_types<Goal<Raven_Bot> *> > >::operator!=
	mov	BYTE PTR $T4[ebp], al
	lea	ecx, DWORD PTR $T3[ebp]
	call	??1?$_List_iterator@V?$_List_val@U?$_List_simple_types@PAV?$Goal@VRaven_Bot@@@@@std@@@std@@@std@@QAE@XZ
	movzx	eax, BYTE PTR $T4[ebp]
	test	eax, eax
	je	SHORT $LN3@RemoveAllS

; 83   :   {  
; 84   :     (*it)->Terminate();

	lea	ecx, DWORD PTR _it$5[ebp]
	call	??D?$_List_iterator@V?$_List_val@U?$_List_simple_types@PAV?$Goal@VRaven_Bot@@@@@std@@@std@@@std@@QBEAAPAV?$Goal@VRaven_Bot@@@@XZ ; std::_List_iterator<std::_List_val<std::_List_simple_types<Goal<Raven_Bot> *> > >::operator*
	mov	ecx, DWORD PTR [eax]
	mov	DWORD PTR tv93[ebp], ecx
	mov	edx, DWORD PTR tv93[ebp]
	mov	eax, DWORD PTR [edx]
	mov	esi, esp
	mov	ecx, DWORD PTR tv93[ebp]
	mov	edx, DWORD PTR [eax+12]
	call	edx
	cmp	esi, esp
	call	__RTC_CheckEsp
	npad	1

; 85   :     
; 86   :     delete *it;

	lea	ecx, DWORD PTR _it$5[ebp]
	call	??D?$_List_iterator@V?$_List_val@U?$_List_simple_types@PAV?$Goal@VRaven_Bot@@@@@std@@@std@@@std@@QBEAAPAV?$Goal@VRaven_Bot@@@@XZ ; std::_List_iterator<std::_List_val<std::_List_simple_types<Goal<Raven_Bot> *> > >::operator*
	mov	eax, DWORD PTR [eax]
	mov	DWORD PTR $T2[ebp], eax
	cmp	DWORD PTR $T2[ebp], 0
	je	SHORT $LN6@RemoveAllS
	mov	esi, esp
	push	1
	mov	ecx, DWORD PTR $T2[ebp]
	mov	edx, DWORD PTR [ecx]
	mov	ecx, DWORD PTR $T2[ebp]
	mov	eax, DWORD PTR [edx]
	call	eax
	cmp	esi, esp
	call	__RTC_CheckEsp
	mov	DWORD PTR tv136[ebp], eax
	jmp	SHORT $LN7@RemoveAllS
$LN6@RemoveAllS:
	mov	DWORD PTR tv136[ebp], 0
$LN7@RemoveAllS:

; 87   :   }

	jmp	$LN2@RemoveAllS
$LN3@RemoveAllS:
	mov	DWORD PTR __$EHRec$[ebp+8], -1
	lea	ecx, DWORD PTR _it$5[ebp]
	call	??1?$_List_iterator@V?$_List_val@U?$_List_simple_types@PAV?$Goal@VRaven_Bot@@@@@std@@@std@@@std@@QAE@XZ
	npad	1

; 88   : 
; 89   :   m_SubGoals.clear();

	mov	ecx, DWORD PTR _this$[ebp]
	add	ecx, 16					; 00000010H
	call	?clear@?$list@PAV?$Goal@VRaven_Bot@@@@V?$allocator@PAV?$Goal@VRaven_Bot@@@@@std@@@std@@QAEXXZ ; std::list<Goal<Raven_Bot> *,std::allocator<Goal<Raven_Bot> *> >::clear
	npad	1

; 90   : }

	push	edx
	mov	ecx, ebp
	push	eax
	lea	edx, DWORD PTR $LN13@RemoveAllS
	call	@_RTC_CheckStackVars@8
	pop	eax
	pop	edx
	mov	ecx, DWORD PTR __$EHRec$[ebp]
	mov	DWORD PTR fs:0, ecx
	pop	ecx
	pop	edi
	pop	esi
	add	esp, 68					; 00000044H
	cmp	ebp, esp
	call	__RTC_CheckEsp
	mov	esp, ebp
	pop	ebp
	ret	0
$LN13@RemoveAllS:
	DD	1
	DD	$LN12@RemoveAllS
$LN12@RemoveAllS:
	DD	-32					; ffffffe0H
	DD	12					; 0000000cH
	DD	$LN10@RemoveAllS
$LN10@RemoveAllS:
	DB	105					; 00000069H
	DB	116					; 00000074H
	DB	0
_TEXT	ENDS
;	COMDAT text$x
text$x	SEGMENT
__unwindfunclet$?RemoveAllSubgoals@?$Goal_Composite@VRaven_Bot@@@@QAEXXZ$0:
	lea	ecx, DWORD PTR _it$5[ebp]
	jmp	??1?$_List_iterator@V?$_List_val@U?$_List_simple_types@PAV?$Goal@VRaven_Bot@@@@@std@@@std@@@std@@QAE@XZ
	int	3
	int	3
	int	3
	int	3
	int	3
__ehhandler$?RemoveAllSubgoals@?$Goal_Composite@VRaven_Bot@@@@QAEXXZ:
	npad	1
	npad	1
	mov	edx, DWORD PTR [esp+8]
	lea	eax, DWORD PTR [edx+12]
	mov	ecx, DWORD PTR [edx-68]
	xor	ecx, eax
	call	@__security_check_cookie@4
	mov	eax, OFFSET __ehfuncinfo$?RemoveAllSubgoals@?$Goal_Composite@VRaven_Bot@@@@QAEXXZ
	jmp	___CxxFrameHandler3
text$x	ENDS
?RemoveAllSubgoals@?$Goal_Composite@VRaven_Bot@@@@QAEXXZ ENDP ; Goal_Composite<Raven_Bot>::RemoveAllSubgoals
; Function compile flags: /Odtp /RTCsu
; File C:\Users\Hamzzi\Desktop\AI_Practice\Source\VS2010\Common\Goals\Goal_Composite.h
;	COMDAT ?AddSubgoal@?$Goal_Composite@VRaven_Bot@@@@UAEXPAV?$Goal@VRaven_Bot@@@@@Z
_TEXT	SEGMENT
_this$ = -4						; size = 4
_g$ = 8							; size = 4
?AddSubgoal@?$Goal_Composite@VRaven_Bot@@@@UAEXPAV?$Goal@VRaven_Bot@@@@@Z PROC ; Goal_Composite<Raven_Bot>::AddSubgoal, COMDAT
; _this$ = ecx

; 138  : {   

	push	ebp
	mov	ebp, esp
	push	ecx
	mov	DWORD PTR [ebp-4], -858993460		; ccccccccH
	mov	DWORD PTR _this$[ebp], ecx

; 139  :   //add the new goal to the front of the list
; 140  :   m_SubGoals.push_front(g);

	lea	eax, DWORD PTR _g$[ebp]
	push	eax
	mov	ecx, DWORD PTR _this$[ebp]
	add	ecx, 16					; 00000010H
	call	?push_front@?$list@PAV?$Goal@VRaven_Bot@@@@V?$allocator@PAV?$Goal@VRaven_Bot@@@@@std@@@std@@QAEXABQAV?$Goal@VRaven_Bot@@@@@Z ; std::list<Goal<Raven_Bot> *,std::allocator<Goal<Raven_Bot> *> >::push_front
	npad	1

; 141  : }

	add	esp, 4
	cmp	ebp, esp
	call	__RTC_CheckEsp
	mov	esp, ebp
	pop	ebp
	ret	4
?AddSubgoal@?$Goal_Composite@VRaven_Bot@@@@UAEXPAV?$Goal@VRaven_Bot@@@@@Z ENDP ; Goal_Composite<Raven_Bot>::AddSubgoal
_TEXT	ENDS
; Function compile flags: /Odtp /RTCsu
; File C:\Users\Hamzzi\Desktop\AI_Practice\Source\VS2010\Common\Goals\Goal_Composite.h
;	COMDAT ?HandleMessage@?$Goal_Composite@VRaven_Bot@@@@UAE_NABUTelegram@@@Z
_TEXT	SEGMENT
_this$ = -4						; size = 4
_msg$ = 8						; size = 4
?HandleMessage@?$Goal_Composite@VRaven_Bot@@@@UAE_NABUTelegram@@@Z PROC ; Goal_Composite<Raven_Bot>::HandleMessage, COMDAT
; _this$ = ecx

; 56   :   { return ForwardMessageToFrontMostSubgoal(msg);}

	push	ebp
	mov	ebp, esp
	push	ecx
	mov	DWORD PTR [ebp-4], -858993460		; ccccccccH
	mov	DWORD PTR _this$[ebp], ecx
	mov	eax, DWORD PTR _msg$[ebp]
	push	eax
	mov	ecx, DWORD PTR _this$[ebp]
	call	?ForwardMessageToFrontMostSubgoal@?$Goal_Composite@VRaven_Bot@@@@IAE_NABUTelegram@@@Z ; Goal_Composite<Raven_Bot>::ForwardMessageToFrontMostSubgoal
	add	esp, 4
	cmp	ebp, esp
	call	__RTC_CheckEsp
	mov	esp, ebp
	pop	ebp
	ret	4
?HandleMessage@?$Goal_Composite@VRaven_Bot@@@@UAE_NABUTelegram@@@Z ENDP ; Goal_Composite<Raven_Bot>::HandleMessage
_TEXT	ENDS
; Function compile flags: /Odtp /RTCsu
; File C:\Users\Hamzzi\Desktop\AI_Practice\Source\VS2010\Common\Goals\Goal_Composite.h
;	COMDAT ??1?$Goal_Composite@VRaven_Bot@@@@UAE@XZ
_TEXT	SEGMENT
_this$ = -16						; size = 4
__$EHRec$ = -12						; size = 12
??1?$Goal_Composite@VRaven_Bot@@@@UAE@XZ PROC		; Goal_Composite<Raven_Bot>::~Goal_Composite<Raven_Bot>, COMDAT
; _this$ = ecx

; 41   :   virtual ~Goal_Composite(){RemoveAllSubgoals();}

	push	ebp
	mov	ebp, esp
	push	-1
	push	__ehhandler$??1?$Goal_Composite@VRaven_Bot@@@@UAE@XZ
	mov	eax, DWORD PTR fs:0
	push	eax
	push	ecx
	mov	DWORD PTR [ebp-16], -858993460		; ccccccccH
	mov	eax, DWORD PTR ___security_cookie
	xor	eax, ebp
	push	eax
	lea	eax, DWORD PTR __$EHRec$[ebp]
	mov	DWORD PTR fs:0, eax
	mov	DWORD PTR _this$[ebp], ecx
	mov	eax, DWORD PTR _this$[ebp]
	mov	DWORD PTR [eax], OFFSET ??_7?$Goal_Composite@VRaven_Bot@@@@6B@
	mov	ecx, DWORD PTR _this$[ebp]
	call	?RemoveAllSubgoals@?$Goal_Composite@VRaven_Bot@@@@QAEXXZ ; Goal_Composite<Raven_Bot>::RemoveAllSubgoals
	npad	1
	mov	ecx, DWORD PTR _this$[ebp]
	add	ecx, 16					; 00000010H
	call	??1?$list@PAV?$Goal@VRaven_Bot@@@@V?$allocator@PAV?$Goal@VRaven_Bot@@@@@std@@@std@@QAE@XZ ; std::list<Goal<Raven_Bot> *,std::allocator<Goal<Raven_Bot> *> >::~list<Goal<Raven_Bot> *,std::allocator<Goal<Raven_Bot> *> >
	mov	ecx, DWORD PTR _this$[ebp]
	call	??1?$Goal@VRaven_Bot@@@@UAE@XZ		; Goal<Raven_Bot>::~Goal<Raven_Bot>
	npad	1
	mov	ecx, DWORD PTR __$EHRec$[ebp]
	mov	DWORD PTR fs:0, ecx
	pop	ecx
	add	esp, 16					; 00000010H
	cmp	ebp, esp
	call	__RTC_CheckEsp
	mov	esp, ebp
	pop	ebp
	ret	0
	int	3
	int	3
	int	3
	int	3
	int	3
_TEXT	ENDS
;	COMDAT text$x
text$x	SEGMENT
__ehhandler$??1?$Goal_Composite@VRaven_Bot@@@@UAE@XZ:
	npad	1
	npad	1
	mov	edx, DWORD PTR [esp+8]
	lea	eax, DWORD PTR [edx+12]
	mov	ecx, DWORD PTR [edx-8]
	xor	ecx, eax
	call	@__security_check_cookie@4
	mov	eax, OFFSET __ehfuncinfo$??1?$Goal_Composite@VRaven_Bot@@@@UAE@XZ
	jmp	___CxxFrameHandler3
text$x	ENDS
??1?$Goal_Composite@VRaven_Bot@@@@UAE@XZ ENDP		; Goal_Composite<Raven_Bot>::~Goal_Composite<Raven_Bot>
; Function compile flags: /Odtp /RTCsu
; File C:\Users\Hamzzi\Desktop\AI_Practice\Source\VS2010\Common\Goals\Goal_Composite.h
;	COMDAT ??0?$Goal_Composite@VRaven_Bot@@@@QAE@PAVRaven_Bot@@H@Z
_TEXT	SEGMENT
_this$ = -16						; size = 4
__$EHRec$ = -12						; size = 12
_pE$ = 8						; size = 4
_type$ = 12						; size = 4
??0?$Goal_Composite@VRaven_Bot@@@@QAE@PAVRaven_Bot@@H@Z PROC ; Goal_Composite<Raven_Bot>::Goal_Composite<Raven_Bot>, COMDAT
; _this$ = ecx

; 37   :   Goal_Composite(entity_type* pE, int type):Goal<entity_type>(pE,type){}

	push	ebp
	mov	ebp, esp
	push	-1
	push	__ehhandler$??0?$Goal_Composite@VRaven_Bot@@@@QAE@PAVRaven_Bot@@H@Z
	mov	eax, DWORD PTR fs:0
	push	eax
	push	ecx
	mov	DWORD PTR [ebp-16], -858993460		; ccccccccH
	mov	eax, DWORD PTR ___security_cookie
	xor	eax, ebp
	push	eax
	lea	eax, DWORD PTR __$EHRec$[ebp]
	mov	DWORD PTR fs:0, eax
	mov	DWORD PTR _this$[ebp], ecx
	mov	eax, DWORD PTR _type$[ebp]
	push	eax
	mov	ecx, DWORD PTR _pE$[ebp]
	push	ecx
	mov	ecx, DWORD PTR _this$[ebp]
	call	??0?$Goal@VRaven_Bot@@@@QAE@PAVRaven_Bot@@H@Z ; Goal<Raven_Bot>::Goal<Raven_Bot>
	mov	DWORD PTR __$EHRec$[ebp+8], 0
	mov	edx, DWORD PTR _this$[ebp]
	mov	DWORD PTR [edx], OFFSET ??_7?$Goal_Composite@VRaven_Bot@@@@6B@
	mov	ecx, DWORD PTR _this$[ebp]
	add	ecx, 16					; 00000010H
	call	??0?$list@PAV?$Goal@VRaven_Bot@@@@V?$allocator@PAV?$Goal@VRaven_Bot@@@@@std@@@std@@QAE@XZ ; std::list<Goal<Raven_Bot> *,std::allocator<Goal<Raven_Bot> *> >::list<Goal<Raven_Bot> *,std::allocator<Goal<Raven_Bot> *> >
	npad	1
	mov	DWORD PTR __$EHRec$[ebp+8], -1
	mov	eax, DWORD PTR _this$[ebp]
	mov	ecx, DWORD PTR __$EHRec$[ebp]
	mov	DWORD PTR fs:0, ecx
	pop	ecx
	add	esp, 16					; 00000010H
	cmp	ebp, esp
	call	__RTC_CheckEsp
	mov	esp, ebp
	pop	ebp
	ret	8
_TEXT	ENDS
;	COMDAT text$x
text$x	SEGMENT
__unwindfunclet$??0?$Goal_Composite@VRaven_Bot@@@@QAE@PAVRaven_Bot@@H@Z$0:
	mov	ecx, DWORD PTR _this$[ebp]
	jmp	??1?$Goal@VRaven_Bot@@@@UAE@XZ		; Goal<Raven_Bot>::~Goal<Raven_Bot>
	int	3
	int	3
	int	3
	int	3
	int	3
__ehhandler$??0?$Goal_Composite@VRaven_Bot@@@@QAE@PAVRaven_Bot@@H@Z:
	npad	1
	npad	1
	mov	edx, DWORD PTR [esp+8]
	lea	eax, DWORD PTR [edx+12]
	mov	ecx, DWORD PTR [edx-8]
	xor	ecx, eax
	call	@__security_check_cookie@4
	mov	eax, OFFSET __ehfuncinfo$??0?$Goal_Composite@VRaven_Bot@@@@QAE@PAVRaven_Bot@@H@Z
	jmp	___CxxFrameHandler3
text$x	ENDS
??0?$Goal_Composite@VRaven_Bot@@@@QAE@PAVRaven_Bot@@H@Z ENDP ; Goal_Composite<Raven_Bot>::Goal_Composite<Raven_Bot>
; Function compile flags: /Odtp /RTCsu
; File C:\Users\Hamzzi\Desktop\AI_Practice\Source\VS2010\Common\Goals\Goal_Composite.h
;	COMDAT ?ForwardMessageToFrontMostSubgoal@?$Goal_Composite@VRaven_Bot@@@@IAE_NABUTelegram@@@Z
_TEXT	SEGMENT
tv74 = -8						; size = 4
_this$ = -4						; size = 4
_msg$ = 8						; size = 4
?ForwardMessageToFrontMostSubgoal@?$Goal_Composite@VRaven_Bot@@@@IAE_NABUTelegram@@@Z PROC ; Goal_Composite<Raven_Bot>::ForwardMessageToFrontMostSubgoal, COMDAT
; _this$ = ecx

; 151  : {

	push	ebp
	mov	ebp, esp
	sub	esp, 8
	push	esi
	mov	DWORD PTR [ebp-8], -858993460		; ccccccccH
	mov	DWORD PTR [ebp-4], -858993460		; ccccccccH
	mov	DWORD PTR _this$[ebp], ecx

; 152  :   if (!m_SubGoals.empty())

	mov	ecx, DWORD PTR _this$[ebp]
	add	ecx, 16					; 00000010H
	call	?empty@?$list@PAV?$Goal@VRaven_Bot@@@@V?$allocator@PAV?$Goal@VRaven_Bot@@@@@std@@@std@@QBE_NXZ ; std::list<Goal<Raven_Bot> *,std::allocator<Goal<Raven_Bot> *> >::empty
	movzx	eax, al
	test	eax, eax
	jne	SHORT $LN2@ForwardMes

; 153  :   {
; 154  :     return m_SubGoals.front()->HandleMessage(msg);

	mov	ecx, DWORD PTR _this$[ebp]
	add	ecx, 16					; 00000010H
	call	?front@?$list@PAV?$Goal@VRaven_Bot@@@@V?$allocator@PAV?$Goal@VRaven_Bot@@@@@std@@@std@@QAEAAPAV?$Goal@VRaven_Bot@@@@XZ ; std::list<Goal<Raven_Bot> *,std::allocator<Goal<Raven_Bot> *> >::front
	mov	ecx, DWORD PTR [eax]
	mov	DWORD PTR tv74[ebp], ecx
	mov	esi, esp
	mov	edx, DWORD PTR _msg$[ebp]
	push	edx
	mov	eax, DWORD PTR tv74[ebp]
	mov	edx, DWORD PTR [eax]
	mov	ecx, DWORD PTR tv74[ebp]
	mov	eax, DWORD PTR [edx+16]
	call	eax
	cmp	esi, esp
	call	__RTC_CheckEsp
	jmp	SHORT $LN1@ForwardMes
$LN2@ForwardMes:

; 155  :   }
; 156  : 
; 157  :   //return false if the message has not been handled
; 158  :   return false;

	xor	al, al
$LN1@ForwardMes:

; 159  : }

	pop	esi
	add	esp, 8
	cmp	ebp, esp
	call	__RTC_CheckEsp
	mov	esp, ebp
	pop	ebp
	ret	4
?ForwardMessageToFrontMostSubgoal@?$Goal_Composite@VRaven_Bot@@@@IAE_NABUTelegram@@@Z ENDP ; Goal_Composite<Raven_Bot>::ForwardMessageToFrontMostSubgoal
_TEXT	ENDS
; Function compile flags: /Odtp /RTCsu
; File C:\Users\Hamzzi\Desktop\AI_Practice\Source\VS2010\Common\Goals\Goal_Composite.h
;	COMDAT ?ProcessSubgoals@?$Goal_Composite@VRaven_Bot@@@@IAEHXZ
_TEXT	SEGMENT
tv145 = -24						; size = 4
tv132 = -20						; size = 4
tv88 = -16						; size = 4
$T1 = -12						; size = 4
_StatusOfSubGoals$2 = -8				; size = 4
_this$ = -4						; size = 4
?ProcessSubgoals@?$Goal_Composite@VRaven_Bot@@@@IAEHXZ PROC ; Goal_Composite<Raven_Bot>::ProcessSubgoals, COMDAT
; _this$ = ecx

; 100  : { 

	push	ebp
	mov	ebp, esp
	sub	esp, 24					; 00000018H
	push	esi
	mov	eax, -858993460				; ccccccccH
	mov	DWORD PTR [ebp-24], eax
	mov	DWORD PTR [ebp-20], eax
	mov	DWORD PTR [ebp-16], eax
	mov	DWORD PTR [ebp-12], eax
	mov	DWORD PTR [ebp-8], eax
	mov	DWORD PTR [ebp-4], eax
	mov	DWORD PTR _this$[ebp], ecx
$LN2@ProcessSub:

; 101  :   //remove all completed and failed goals from the front of the subgoal list
; 102  :   while (!m_SubGoals.empty() &&

	mov	ecx, DWORD PTR _this$[ebp]
	add	ecx, 16					; 00000010H
	call	?empty@?$list@PAV?$Goal@VRaven_Bot@@@@V?$allocator@PAV?$Goal@VRaven_Bot@@@@@std@@@std@@QBE_NXZ ; std::list<Goal<Raven_Bot> *,std::allocator<Goal<Raven_Bot> *> >::empty
	movzx	eax, al
	test	eax, eax
	jne	$LN3@ProcessSub
	mov	ecx, DWORD PTR _this$[ebp]
	add	ecx, 16					; 00000010H
	call	?front@?$list@PAV?$Goal@VRaven_Bot@@@@V?$allocator@PAV?$Goal@VRaven_Bot@@@@@std@@@std@@QAEAAPAV?$Goal@VRaven_Bot@@@@XZ ; std::list<Goal<Raven_Bot> *,std::allocator<Goal<Raven_Bot> *> >::front
	mov	ecx, DWORD PTR [eax]
	call	?isComplete@?$Goal@VRaven_Bot@@@@QBE_NXZ ; Goal<Raven_Bot>::isComplete
	movzx	ecx, al
	test	ecx, ecx
	jne	SHORT $LN4@ProcessSub
	mov	ecx, DWORD PTR _this$[ebp]
	add	ecx, 16					; 00000010H
	call	?front@?$list@PAV?$Goal@VRaven_Bot@@@@V?$allocator@PAV?$Goal@VRaven_Bot@@@@@std@@@std@@QAEAAPAV?$Goal@VRaven_Bot@@@@XZ ; std::list<Goal<Raven_Bot> *,std::allocator<Goal<Raven_Bot> *> >::front
	mov	ecx, DWORD PTR [eax]
	call	?hasFailed@?$Goal@VRaven_Bot@@@@QBE_NXZ	; Goal<Raven_Bot>::hasFailed
	movzx	edx, al
	test	edx, edx
	je	SHORT $LN3@ProcessSub
$LN4@ProcessSub:

; 103  :          (m_SubGoals.front()->isComplete() || m_SubGoals.front()->hasFailed()))
; 104  :   {    
; 105  :     m_SubGoals.front()->Terminate();

	mov	ecx, DWORD PTR _this$[ebp]
	add	ecx, 16					; 00000010H
	call	?front@?$list@PAV?$Goal@VRaven_Bot@@@@V?$allocator@PAV?$Goal@VRaven_Bot@@@@@std@@@std@@QAEAAPAV?$Goal@VRaven_Bot@@@@XZ ; std::list<Goal<Raven_Bot> *,std::allocator<Goal<Raven_Bot> *> >::front
	mov	eax, DWORD PTR [eax]
	mov	DWORD PTR tv88[ebp], eax
	mov	ecx, DWORD PTR tv88[ebp]
	mov	edx, DWORD PTR [ecx]
	mov	esi, esp
	mov	ecx, DWORD PTR tv88[ebp]
	mov	eax, DWORD PTR [edx+12]
	call	eax
	cmp	esi, esp
	call	__RTC_CheckEsp
	npad	1

; 106  :     delete m_SubGoals.front(); 

	mov	ecx, DWORD PTR _this$[ebp]
	add	ecx, 16					; 00000010H
	call	?front@?$list@PAV?$Goal@VRaven_Bot@@@@V?$allocator@PAV?$Goal@VRaven_Bot@@@@@std@@@std@@QAEAAPAV?$Goal@VRaven_Bot@@@@XZ ; std::list<Goal<Raven_Bot> *,std::allocator<Goal<Raven_Bot> *> >::front
	mov	ecx, DWORD PTR [eax]
	mov	DWORD PTR $T1[ebp], ecx
	cmp	DWORD PTR $T1[ebp], 0
	je	SHORT $LN9@ProcessSub
	mov	esi, esp
	push	1
	mov	edx, DWORD PTR $T1[ebp]
	mov	eax, DWORD PTR [edx]
	mov	ecx, DWORD PTR $T1[ebp]
	mov	edx, DWORD PTR [eax]
	call	edx
	cmp	esi, esp
	call	__RTC_CheckEsp
	mov	DWORD PTR tv132[ebp], eax
	jmp	SHORT $LN10@ProcessSub
$LN9@ProcessSub:
	mov	DWORD PTR tv132[ebp], 0
$LN10@ProcessSub:

; 107  :     m_SubGoals.pop_front();

	mov	ecx, DWORD PTR _this$[ebp]
	add	ecx, 16					; 00000010H
	call	?pop_front@?$list@PAV?$Goal@VRaven_Bot@@@@V?$allocator@PAV?$Goal@VRaven_Bot@@@@@std@@@std@@QAEXXZ ; std::list<Goal<Raven_Bot> *,std::allocator<Goal<Raven_Bot> *> >::pop_front
	npad	1

; 108  :   }

	jmp	$LN2@ProcessSub
$LN3@ProcessSub:

; 109  : 
; 110  :   //if any subgoals remain, process the one at the front of the list
; 111  :   if (!m_SubGoals.empty())

	mov	ecx, DWORD PTR _this$[ebp]
	add	ecx, 16					; 00000010H
	call	?empty@?$list@PAV?$Goal@VRaven_Bot@@@@V?$allocator@PAV?$Goal@VRaven_Bot@@@@@std@@@std@@QBE_NXZ ; std::list<Goal<Raven_Bot> *,std::allocator<Goal<Raven_Bot> *> >::empty
	movzx	eax, al
	test	eax, eax
	jne	SHORT $LN5@ProcessSub

; 112  :   { 
; 113  :     //grab the status of the front-most subgoal
; 114  :     int StatusOfSubGoals = m_SubGoals.front()->Process();

	mov	ecx, DWORD PTR _this$[ebp]
	add	ecx, 16					; 00000010H
	call	?front@?$list@PAV?$Goal@VRaven_Bot@@@@V?$allocator@PAV?$Goal@VRaven_Bot@@@@@std@@@std@@QAEAAPAV?$Goal@VRaven_Bot@@@@XZ ; std::list<Goal<Raven_Bot> *,std::allocator<Goal<Raven_Bot> *> >::front
	mov	ecx, DWORD PTR [eax]
	mov	DWORD PTR tv145[ebp], ecx
	mov	edx, DWORD PTR tv145[ebp]
	mov	eax, DWORD PTR [edx]
	mov	esi, esp
	mov	ecx, DWORD PTR tv145[ebp]
	mov	edx, DWORD PTR [eax+8]
	call	edx
	cmp	esi, esp
	call	__RTC_CheckEsp
	mov	DWORD PTR _StatusOfSubGoals$2[ebp], eax

; 115  : 
; 116  :     //we have to test for the special case where the front-most subgoal
; 117  :     //reports 'completed' *and* the subgoal list contains additional goals.When
; 118  :     //this is the case, to ensure the parent keeps processing its subgoal list
; 119  :     //we must return the 'active' status.
; 120  :     if (StatusOfSubGoals == completed && m_SubGoals.size() > 1)

	cmp	DWORD PTR _StatusOfSubGoals$2[ebp], 2
	jne	SHORT $LN7@ProcessSub
	mov	ecx, DWORD PTR _this$[ebp]
	add	ecx, 16					; 00000010H
	call	?size@?$list@PAV?$Goal@VRaven_Bot@@@@V?$allocator@PAV?$Goal@VRaven_Bot@@@@@std@@@std@@QBEIXZ ; std::list<Goal<Raven_Bot> *,std::allocator<Goal<Raven_Bot> *> >::size
	cmp	eax, 1
	jbe	SHORT $LN7@ProcessSub

; 121  :     {
; 122  :       return active;

	xor	eax, eax
	jmp	SHORT $LN6@ProcessSub
$LN7@ProcessSub:

; 123  :     }
; 124  : 
; 125  :     return StatusOfSubGoals;

	mov	eax, DWORD PTR _StatusOfSubGoals$2[ebp]
	jmp	SHORT $LN6@ProcessSub

; 126  :   }

	jmp	SHORT $LN6@ProcessSub
$LN5@ProcessSub:

; 127  :   
; 128  :   //no more subgoals to process - return 'completed'
; 129  :   else
; 130  :   {
; 131  :     return completed;

	mov	eax, 2
$LN6@ProcessSub:

; 132  :   }
; 133  : }

	pop	esi
	add	esp, 24					; 00000018H
	cmp	ebp, esp
	call	__RTC_CheckEsp
	mov	esp, ebp
	pop	ebp
	ret	0
?ProcessSubgoals@?$Goal_Composite@VRaven_Bot@@@@IAEHXZ ENDP ; Goal_Composite<Raven_Bot>::ProcessSubgoals
_TEXT	ENDS
; Function compile flags: /Odtp /RTCsu
; File C:\Program Files\Microsoft Visual Studio\2022\Community\VC\Tools\MSVC\14.44.35207\include\xmemory
;	COMDAT ?_Get_first@?$_Compressed_pair@V?$allocator@U?$_List_node@PAV?$Goal@VRaven_Bot@@@@PAX@std@@@std@@V?$_List_val@U?$_List_simple_types@PAV?$Goal@VRaven_Bot@@@@@std@@@2@$00@std@@QBEABV?$allocator@U?$_List_node@PAV?$Goal@VRaven_Bot@@@@PAX@std@@@2@XZ
_TEXT	SEGMENT
_this$ = -4						; size = 4
?_Get_first@?$_Compressed_pair@V?$allocator@U?$_List_node@PAV?$Goal@VRaven_Bot@@@@PAX@std@@@std@@V?$_List_val@U?$_List_simple_types@PAV?$Goal@VRaven_Bot@@@@@std@@@2@$00@std@@QBEABV?$allocator@U?$_List_node@PAV?$Goal@VRaven_Bot@@@@PAX@std@@@2@XZ PROC ; std::_Compressed_pair<std::allocator<std::_List_node<Goal<Raven_Bot> *,void *> >,std::_List_val<std::_List_simple_types<Goal<Raven_Bot> *> >,1>::_Get_first, COMDAT
; _this$ = ecx

; 1542 :     constexpr const _Ty1& _Get_first() const noexcept {

	push	ebp
	mov	ebp, esp
	push	ecx
	mov	DWORD PTR _this$[ebp], ecx

; 1543 :         return *this;

	mov	eax, DWORD PTR _this$[ebp]

; 1544 :     }

	mov	esp, ebp
	pop	ebp
	ret	0
?_Get_first@?$_Compressed_pair@V?$allocator@U?$_List_node@PAV?$Goal@VRaven_Bot@@@@PAX@std@@@std@@V?$_List_val@U?$_List_simple_types@PAV?$Goal@VRaven_Bot@@@@@std@@@2@$00@std@@QBEABV?$allocator@U?$_List_node@PAV?$Goal@VRaven_Bot@@@@PAX@std@@@2@XZ ENDP ; std::_Compressed_pair<std::allocator<std::_List_node<Goal<Raven_Bot> *,void *> >,std::_List_val<std::_List_simple_types<Goal<Raven_Bot> *> >,1>::_Get_first
_TEXT	ENDS
; Function compile flags: /Odtp /RTCsu
; File C:\Program Files\Microsoft Visual Studio\2022\Community\VC\Tools\MSVC\14.44.35207\include\xmemory
;	COMDAT ?_Get_first@?$_Compressed_pair@V?$allocator@U?$_List_node@PAV?$Goal@VRaven_Bot@@@@PAX@std@@@std@@V?$_List_val@U?$_List_simple_types@PAV?$Goal@VRaven_Bot@@@@@std@@@2@$00@std@@QAEAAV?$allocator@U?$_List_node@PAV?$Goal@VRaven_Bot@@@@PAX@std@@@2@XZ
_TEXT	SEGMENT
_this$ = -4						; size = 4
?_Get_first@?$_Compressed_pair@V?$allocator@U?$_List_node@PAV?$Goal@VRaven_Bot@@@@PAX@std@@@std@@V?$_List_val@U?$_List_simple_types@PAV?$Goal@VRaven_Bot@@@@@std@@@2@$00@std@@QAEAAV?$allocator@U?$_List_node@PAV?$Goal@VRaven_Bot@@@@PAX@std@@@2@XZ PROC ; std::_Compressed_pair<std::allocator<std::_List_node<Goal<Raven_Bot> *,void *> >,std::_List_val<std::_List_simple_types<Goal<Raven_Bot> *> >,1>::_Get_first, COMDAT
; _this$ = ecx

; 1538 :     constexpr _Ty1& _Get_first() noexcept {

	push	ebp
	mov	ebp, esp
	push	ecx
	mov	DWORD PTR _this$[ebp], ecx

; 1539 :         return *this;

	mov	eax, DWORD PTR _this$[ebp]

; 1540 :     }

	mov	esp, ebp
	pop	ebp
	ret	0
?_Get_first@?$_Compressed_pair@V?$allocator@U?$_List_node@PAV?$Goal@VRaven_Bot@@@@PAX@std@@@std@@V?$_List_val@U?$_List_simple_types@PAV?$Goal@VRaven_Bot@@@@@std@@@2@$00@std@@QAEAAV?$allocator@U?$_List_node@PAV?$Goal@VRaven_Bot@@@@PAX@std@@@2@XZ ENDP ; std::_Compressed_pair<std::allocator<std::_List_node<Goal<Raven_Bot> *,void *> >,std::_List_val<std::_List_simple_types<Goal<Raven_Bot> *> >,1>::_Get_first
_TEXT	ENDS
; Function compile flags: /Odtp /RTCsu
; File C:\Program Files\Microsoft Visual Studio\2022\Community\VC\Tools\MSVC\14.44.35207\include\list
;	COMDAT ?_Orphan_non_end@?$_List_val@U?$_List_simple_types@PAV?$Goal@VRaven_Bot@@@@@std@@@std@@QAEXXZ
_TEXT	SEGMENT
__Pnextnext$1 = -28					; size = 4
__Head$ = -24						; size = 4
__Pnext$ = -20						; size = 4
__Lock$ = -12						; size = 4
_this$ = -4						; size = 4
?_Orphan_non_end@?$_List_val@U?$_List_simple_types@PAV?$Goal@VRaven_Bot@@@@@std@@@std@@QAEXXZ PROC ; std::_List_val<std::_List_simple_types<Goal<Raven_Bot> *> >::_Orphan_non_end, COMDAT
; _this$ = ecx

; 386  :     void _Orphan_non_end() noexcept { // orphan iterators except end()

	push	ebp
	mov	ebp, esp
	sub	esp, 28					; 0000001cH
	mov	eax, -858993460				; ccccccccH
	mov	DWORD PTR [ebp-28], eax
	mov	DWORD PTR [ebp-24], eax
	mov	DWORD PTR [ebp-20], eax
	mov	DWORD PTR [ebp-16], eax
	mov	DWORD PTR [ebp-12], eax
	mov	DWORD PTR [ebp-8], eax
	mov	DWORD PTR [ebp-4], eax
	mov	DWORD PTR _this$[ebp], ecx

; 387  : #if _ITERATOR_DEBUG_LEVEL == 2
; 388  :         _Lockit _Lock(_LOCK_DEBUG);

	push	3
	lea	ecx, DWORD PTR __Lock$[ebp]
	call	??0_Lockit@std@@QAE@H@Z			; std::_Lockit::_Lockit

; 389  :         _Iterator_base12** _Pnext = &this->_Myproxy->_Myfirstiter;

	mov	eax, DWORD PTR _this$[ebp]
	mov	ecx, DWORD PTR [eax]
	add	ecx, 4
	mov	DWORD PTR __Pnext$[ebp], ecx

; 390  :         const auto _Head          = _Myhead;

	mov	edx, DWORD PTR _this$[ebp]
	mov	eax, DWORD PTR [edx+4]
	mov	DWORD PTR __Head$[ebp], eax
$LN2@Orphan_non:

; 391  :         while (*_Pnext) {

	mov	ecx, DWORD PTR __Pnext$[ebp]
	cmp	DWORD PTR [ecx], 0
	je	SHORT $LN3@Orphan_non

; 392  :             _Iterator_base12** _Pnextnext = &(*_Pnext)->_Mynextiter;

	mov	edx, DWORD PTR __Pnext$[ebp]
	mov	eax, DWORD PTR [edx]
	add	eax, 4
	mov	DWORD PTR __Pnextnext$1[ebp], eax

; 393  :             if (static_cast<_List_const_iterator<_List_val>&>(**_Pnext)._Ptr == _Head) { // iterator is end(), move on

	mov	ecx, DWORD PTR __Pnext$[ebp]
	mov	edx, DWORD PTR [ecx]
	mov	eax, DWORD PTR [edx+8]
	cmp	eax, DWORD PTR __Head$[ebp]
	jne	SHORT $LN4@Orphan_non

; 394  :                 _Pnext = _Pnextnext;

	mov	ecx, DWORD PTR __Pnextnext$1[ebp]
	mov	DWORD PTR __Pnext$[ebp], ecx

; 395  :             } else { // orphan the iterator

	jmp	SHORT $LN5@Orphan_non
$LN4@Orphan_non:

; 396  :                 (*_Pnext)->_Myproxy = nullptr;

	mov	edx, DWORD PTR __Pnext$[ebp]
	mov	eax, DWORD PTR [edx]
	mov	DWORD PTR [eax], 0

; 397  :                 *_Pnext             = *_Pnextnext;

	mov	ecx, DWORD PTR __Pnext$[ebp]
	mov	edx, DWORD PTR __Pnextnext$1[ebp]
	mov	eax, DWORD PTR [edx]
	mov	DWORD PTR [ecx], eax
$LN5@Orphan_non:

; 398  :             }
; 399  :         }

	jmp	SHORT $LN2@Orphan_non
$LN3@Orphan_non:

; 400  : #endif // _ITERATOR_DEBUG_LEVEL == 2
; 401  :     }

	lea	ecx, DWORD PTR __Lock$[ebp]
	call	??1_Lockit@std@@QAE@XZ			; std::_Lockit::~_Lockit
	npad	1
	push	edx
	mov	ecx, ebp
	push	eax
	lea	edx, DWORD PTR $LN10@Orphan_non
	call	@_RTC_CheckStackVars@8
	pop	eax
	pop	edx
	add	esp, 28					; 0000001cH
	cmp	ebp, esp
	call	__RTC_CheckEsp
	mov	esp, ebp
	pop	ebp
	ret	0
$LN10@Orphan_non:
	DD	1
	DD	$LN9@Orphan_non
$LN9@Orphan_non:
	DD	-12					; fffffff4H
	DD	4
	DD	$LN8@Orphan_non
$LN8@Orphan_non:
	DB	95					; 0000005fH
	DB	76					; 0000004cH
	DB	111					; 0000006fH
	DB	99					; 00000063H
	DB	107					; 0000006bH
	DB	0
?_Orphan_non_end@?$_List_val@U?$_List_simple_types@PAV?$Goal@VRaven_Bot@@@@@std@@@std@@QAEXXZ ENDP ; std::_List_val<std::_List_simple_types<Goal<Raven_Bot> *> >::_Orphan_non_end
_TEXT	ENDS
; Function compile flags: /Odtp /RTCsu
; File C:\Program Files\Microsoft Visual Studio\2022\Community\VC\Tools\MSVC\14.44.35207\include\list
;	COMDAT ?_Orphan_ptr2@?$_List_val@U?$_List_simple_types@PAV?$Goal@VRaven_Bot@@@@@std@@@std@@QAEXPAU?$_List_node@PAV?$Goal@VRaven_Bot@@@@PAX@2@@Z
_TEXT	SEGMENT
__Pnextptr$1 = -32					; size = 4
__Pnextnext$2 = -28					; size = 4
__Head$ = -24						; size = 4
__Pnext$ = -20						; size = 4
__Lock$ = -12						; size = 4
_this$ = -4						; size = 4
__Ptr$ = 8						; size = 4
?_Orphan_ptr2@?$_List_val@U?$_List_simple_types@PAV?$Goal@VRaven_Bot@@@@@std@@@std@@QAEXPAU?$_List_node@PAV?$Goal@VRaven_Bot@@@@PAX@2@@Z PROC ; std::_List_val<std::_List_simple_types<Goal<Raven_Bot> *> >::_Orphan_ptr2, COMDAT
; _this$ = ecx

; 365  :     void _Orphan_ptr2(_Nodeptr _Ptr) noexcept { // orphan iterators with specified node pointers

	push	ebp
	mov	ebp, esp
	sub	esp, 32					; 00000020H
	mov	eax, -858993460				; ccccccccH
	mov	DWORD PTR [ebp-32], eax
	mov	DWORD PTR [ebp-28], eax
	mov	DWORD PTR [ebp-24], eax
	mov	DWORD PTR [ebp-20], eax
	mov	DWORD PTR [ebp-16], eax
	mov	DWORD PTR [ebp-12], eax
	mov	DWORD PTR [ebp-8], eax
	mov	DWORD PTR [ebp-4], eax
	mov	DWORD PTR _this$[ebp], ecx

; 366  : #if _ITERATOR_DEBUG_LEVEL == 2
; 367  :         _Lockit _Lock(_LOCK_DEBUG);

	push	3
	lea	ecx, DWORD PTR __Lock$[ebp]
	call	??0_Lockit@std@@QAE@H@Z			; std::_Lockit::_Lockit

; 368  :         _Iterator_base12** _Pnext = &this->_Myproxy->_Myfirstiter;

	mov	eax, DWORD PTR _this$[ebp]
	mov	ecx, DWORD PTR [eax]
	add	ecx, 4
	mov	DWORD PTR __Pnext$[ebp], ecx

; 369  :         const auto _Head          = _Myhead;

	mov	edx, DWORD PTR _this$[ebp]
	mov	eax, DWORD PTR [edx+4]
	mov	DWORD PTR __Head$[ebp], eax
$LN2@Orphan_ptr:

; 370  :         while (*_Pnext) {

	mov	ecx, DWORD PTR __Pnext$[ebp]
	cmp	DWORD PTR [ecx], 0
	je	SHORT $LN3@Orphan_ptr

; 371  :             _Iterator_base12** _Pnextnext = &(*_Pnext)->_Mynextiter;

	mov	edx, DWORD PTR __Pnext$[ebp]
	mov	eax, DWORD PTR [edx]
	add	eax, 4
	mov	DWORD PTR __Pnextnext$2[ebp], eax

; 372  :             const auto _Pnextptr          = static_cast<_List_const_iterator<_List_val>&>(**_Pnext)._Ptr;

	mov	ecx, DWORD PTR __Pnext$[ebp]
	mov	edx, DWORD PTR [ecx]
	mov	eax, DWORD PTR [edx+8]
	mov	DWORD PTR __Pnextptr$1[ebp], eax

; 373  :             if (_Pnextptr == _Head || _Pnextptr != _Ptr) {

	mov	ecx, DWORD PTR __Pnextptr$1[ebp]
	cmp	ecx, DWORD PTR __Head$[ebp]
	je	SHORT $LN6@Orphan_ptr
	mov	edx, DWORD PTR __Pnextptr$1[ebp]
	cmp	edx, DWORD PTR __Ptr$[ebp]
	je	SHORT $LN4@Orphan_ptr
$LN6@Orphan_ptr:

; 374  :                 // iterator is end() or doesn't point at the one we are orphaning, move on
; 375  :                 _Pnext = _Pnextnext;

	mov	eax, DWORD PTR __Pnextnext$2[ebp]
	mov	DWORD PTR __Pnext$[ebp], eax

; 376  :             } else { // orphan the iterator

	jmp	SHORT $LN5@Orphan_ptr
$LN4@Orphan_ptr:

; 377  :                 (*_Pnext)->_Myproxy = nullptr;

	mov	ecx, DWORD PTR __Pnext$[ebp]
	mov	edx, DWORD PTR [ecx]
	mov	DWORD PTR [edx], 0

; 378  :                 *_Pnext             = *_Pnextnext;

	mov	eax, DWORD PTR __Pnext$[ebp]
	mov	ecx, DWORD PTR __Pnextnext$2[ebp]
	mov	edx, DWORD PTR [ecx]
	mov	DWORD PTR [eax], edx
$LN5@Orphan_ptr:

; 379  :             }
; 380  :         }

	jmp	SHORT $LN2@Orphan_ptr
$LN3@Orphan_ptr:

; 381  : #else // ^^^ _ITERATOR_DEBUG_LEVEL == 2 / _ITERATOR_DEBUG_LEVEL != 2 vvv
; 382  :         (void) _Ptr;
; 383  : #endif // ^^^ _ITERATOR_DEBUG_LEVEL != 2 ^^^
; 384  :     }

	lea	ecx, DWORD PTR __Lock$[ebp]
	call	??1_Lockit@std@@QAE@XZ			; std::_Lockit::~_Lockit
	npad	1
	push	edx
	mov	ecx, ebp
	push	eax
	lea	edx, DWORD PTR $LN11@Orphan_ptr
	call	@_RTC_CheckStackVars@8
	pop	eax
	pop	edx
	add	esp, 32					; 00000020H
	cmp	ebp, esp
	call	__RTC_CheckEsp
	mov	esp, ebp
	pop	ebp
	ret	4
	npad	1
$LN11@Orphan_ptr:
	DD	1
	DD	$LN10@Orphan_ptr
$LN10@Orphan_ptr:
	DD	-12					; fffffff4H
	DD	4
	DD	$LN9@Orphan_ptr
$LN9@Orphan_ptr:
	DB	95					; 0000005fH
	DB	76					; 0000004cH
	DB	111					; 0000006fH
	DB	99					; 00000063H
	DB	107					; 0000006bH
	DB	0
?_Orphan_ptr2@?$_List_val@U?$_List_simple_types@PAV?$Goal@VRaven_Bot@@@@@std@@@std@@QAEXPAU?$_List_node@PAV?$Goal@VRaven_Bot@@@@PAX@2@@Z ENDP ; std::_List_val<std::_List_simple_types<Goal<Raven_Bot> *> >::_Orphan_ptr2
_TEXT	ENDS
; Function compile flags: /Odtp /RTCsu
; File C:\Program Files\Microsoft Visual Studio\2022\Community\VC\Tools\MSVC\14.44.35207\include\list
;	COMDAT ??0?$_List_val@U?$_List_simple_types@PAV?$Goal@VRaven_Bot@@@@@std@@@std@@QAE@XZ
_TEXT	SEGMENT
_this$ = -4						; size = 4
??0?$_List_val@U?$_List_simple_types@PAV?$Goal@VRaven_Bot@@@@@std@@@std@@QAE@XZ PROC ; std::_List_val<std::_List_simple_types<Goal<Raven_Bot> *> >::_List_val<std::_List_simple_types<Goal<Raven_Bot> *> >, COMDAT
; _this$ = ecx

; 353  :     _List_val() noexcept : _Myhead(), _Mysize(0) {} // initialize data

	push	ebp
	mov	ebp, esp
	push	ecx
	mov	DWORD PTR [ebp-4], -858993460		; ccccccccH
	mov	DWORD PTR _this$[ebp], ecx
	mov	ecx, DWORD PTR _this$[ebp]
	call	??0_Container_base12@std@@QAE@XZ	; std::_Container_base12::_Container_base12
	mov	eax, DWORD PTR _this$[ebp]
	mov	DWORD PTR [eax+4], 0
	mov	ecx, DWORD PTR _this$[ebp]
	mov	DWORD PTR [ecx+8], 0
	mov	eax, DWORD PTR _this$[ebp]
	add	esp, 4
	cmp	ebp, esp
	call	__RTC_CheckEsp
	mov	esp, ebp
	pop	ebp
	ret	0
??0?$_List_val@U?$_List_simple_types@PAV?$Goal@VRaven_Bot@@@@@std@@@std@@QAE@XZ ENDP ; std::_List_val<std::_List_simple_types<Goal<Raven_Bot> *> >::_List_val<std::_List_simple_types<Goal<Raven_Bot> *> >
_TEXT	ENDS
; Function compile flags: /Odtp /RTCsu
; File C:\Program Files\Microsoft Visual Studio\2022\Community\VC\Tools\MSVC\14.44.35207\include\list
;	COMDAT ?_Getal@?$list@PAV?$Goal@VRaven_Bot@@@@V?$allocator@PAV?$Goal@VRaven_Bot@@@@@std@@@std@@ABEABV?$allocator@U?$_List_node@PAV?$Goal@VRaven_Bot@@@@PAX@std@@@2@XZ
_TEXT	SEGMENT
_this$ = -4						; size = 4
?_Getal@?$list@PAV?$Goal@VRaven_Bot@@@@V?$allocator@PAV?$Goal@VRaven_Bot@@@@@std@@@std@@ABEABV?$allocator@U?$_List_node@PAV?$Goal@VRaven_Bot@@@@PAX@std@@@2@XZ PROC ; std::list<Goal<Raven_Bot> *,std::allocator<Goal<Raven_Bot> *> >::_Getal, COMDAT
; _this$ = ecx

; 1866 :     const _Alnode& _Getal() const noexcept {

	push	ebp
	mov	ebp, esp
	push	ecx
	mov	DWORD PTR [ebp-4], -858993460		; ccccccccH
	mov	DWORD PTR _this$[ebp], ecx

; 1867 :         return _Mypair._Get_first();

	mov	ecx, DWORD PTR _this$[ebp]
	call	?_Get_first@?$_Compressed_pair@V?$allocator@U?$_List_node@PAV?$Goal@VRaven_Bot@@@@PAX@std@@@std@@V?$_List_val@U?$_List_simple_types@PAV?$Goal@VRaven_Bot@@@@@std@@@2@$00@std@@QBEABV?$allocator@U?$_List_node@PAV?$Goal@VRaven_Bot@@@@PAX@std@@@2@XZ ; std::_Compressed_pair<std::allocator<std::_List_node<Goal<Raven_Bot> *,void *> >,std::_List_val<std::_List_simple_types<Goal<Raven_Bot> *> >,1>::_Get_first

; 1868 :     }

	add	esp, 4
	cmp	ebp, esp
	call	__RTC_CheckEsp
	mov	esp, ebp
	pop	ebp
	ret	0
?_Getal@?$list@PAV?$Goal@VRaven_Bot@@@@V?$allocator@PAV?$Goal@VRaven_Bot@@@@@std@@@std@@ABEABV?$allocator@U?$_List_node@PAV?$Goal@VRaven_Bot@@@@PAX@std@@@2@XZ ENDP ; std::list<Goal<Raven_Bot> *,std::allocator<Goal<Raven_Bot> *> >::_Getal
_TEXT	ENDS
; Function compile flags: /Odtp /RTCsu
; File C:\Program Files\Microsoft Visual Studio\2022\Community\VC\Tools\MSVC\14.44.35207\include\list
;	COMDAT ?_Getal@?$list@PAV?$Goal@VRaven_Bot@@@@V?$allocator@PAV?$Goal@VRaven_Bot@@@@@std@@@std@@AAEAAV?$allocator@U?$_List_node@PAV?$Goal@VRaven_Bot@@@@PAX@std@@@2@XZ
_TEXT	SEGMENT
_this$ = -4						; size = 4
?_Getal@?$list@PAV?$Goal@VRaven_Bot@@@@V?$allocator@PAV?$Goal@VRaven_Bot@@@@@std@@@std@@AAEAAV?$allocator@U?$_List_node@PAV?$Goal@VRaven_Bot@@@@PAX@std@@@2@XZ PROC ; std::list<Goal<Raven_Bot> *,std::allocator<Goal<Raven_Bot> *> >::_Getal, COMDAT
; _this$ = ecx

; 1862 :     _Alnode& _Getal() noexcept {

	push	ebp
	mov	ebp, esp
	push	ecx
	mov	DWORD PTR [ebp-4], -858993460		; ccccccccH
	mov	DWORD PTR _this$[ebp], ecx

; 1863 :         return _Mypair._Get_first();

	mov	ecx, DWORD PTR _this$[ebp]
	call	?_Get_first@?$_Compressed_pair@V?$allocator@U?$_List_node@PAV?$Goal@VRaven_Bot@@@@PAX@std@@@std@@V?$_List_val@U?$_List_simple_types@PAV?$Goal@VRaven_Bot@@@@@std@@@2@$00@std@@QAEAAV?$allocator@U?$_List_node@PAV?$Goal@VRaven_Bot@@@@PAX@std@@@2@XZ ; std::_Compressed_pair<std::allocator<std::_List_node<Goal<Raven_Bot> *,void *> >,std::_List_val<std::_List_simple_types<Goal<Raven_Bot> *> >,1>::_Get_first

; 1864 :     }

	add	esp, 4
	cmp	ebp, esp
	call	__RTC_CheckEsp
	mov	esp, ebp
	pop	ebp
	ret	0
?_Getal@?$list@PAV?$Goal@VRaven_Bot@@@@V?$allocator@PAV?$Goal@VRaven_Bot@@@@@std@@@std@@AAEAAV?$allocator@U?$_List_node@PAV?$Goal@VRaven_Bot@@@@PAX@std@@@2@XZ ENDP ; std::list<Goal<Raven_Bot> *,std::allocator<Goal<Raven_Bot> *> >::_Getal
_TEXT	ENDS
; Function compile flags: /Odtp /RTCsu
; File C:\Program Files\Microsoft Visual Studio\2022\Community\VC\Tools\MSVC\14.44.35207\include\list
;	COMDAT ?_Alloc_sentinel_and_proxy@?$list@PAV?$Goal@VRaven_Bot@@@@V?$allocator@PAV?$Goal@VRaven_Bot@@@@@std@@@std@@AAEXXZ
_TEXT	SEGMENT
__Newhead$ = -60					; size = 4
__Al$ = -52						; size = 4
__Proxy$ = -44						; size = 8
_$S17$ = -25						; size = 1
__Alproxy$ = -20					; size = 4
_this$ = -16						; size = 4
__$EHRec$ = -12						; size = 12
?_Alloc_sentinel_and_proxy@?$list@PAV?$Goal@VRaven_Bot@@@@V?$allocator@PAV?$Goal@VRaven_Bot@@@@@std@@@std@@AAEXXZ PROC ; std::list<Goal<Raven_Bot> *,std::allocator<Goal<Raven_Bot> *> >::_Alloc_sentinel_and_proxy, COMDAT
; _this$ = ecx

; 1847 :     void _Alloc_sentinel_and_proxy() {

	push	ebp
	mov	ebp, esp
	push	-1
	push	__ehhandler$?_Alloc_sentinel_and_proxy@?$list@PAV?$Goal@VRaven_Bot@@@@V?$allocator@PAV?$Goal@VRaven_Bot@@@@@std@@@std@@AAEXXZ
	mov	eax, DWORD PTR fs:0
	push	eax
	sub	esp, 52					; 00000034H
	push	edi
	push	ecx
	lea	edi, DWORD PTR [ebp-64]
	mov	ecx, 13					; 0000000dH
	mov	eax, -858993460				; ccccccccH
	rep stosd
	pop	ecx
	mov	eax, DWORD PTR ___security_cookie
	xor	eax, ebp
	push	eax
	lea	eax, DWORD PTR __$EHRec$[ebp]
	mov	DWORD PTR fs:0, eax
	mov	DWORD PTR _this$[ebp], ecx

; 1848 :         auto&& _Alproxy = _GET_PROXY_ALLOCATOR(_Alnode, _Getal());

	mov	ecx, DWORD PTR _this$[ebp]
	call	?_Getal@?$list@PAV?$Goal@VRaven_Bot@@@@V?$allocator@PAV?$Goal@VRaven_Bot@@@@@std@@@std@@AAEAAV?$allocator@U?$_List_node@PAV?$Goal@VRaven_Bot@@@@PAX@std@@@2@XZ ; std::list<Goal<Raven_Bot> *,std::allocator<Goal<Raven_Bot> *> >::_Getal
	push	eax
	lea	ecx, DWORD PTR _$S17$[ebp]
	call	??$?0U?$_List_node@PAV?$Goal@VRaven_Bot@@@@PAX@std@@@?$allocator@U_Container_proxy@std@@@std@@QAE@ABV?$allocator@U?$_List_node@PAV?$Goal@VRaven_Bot@@@@PAX@std@@@1@@Z ; std::allocator<std::_Container_proxy>::allocator<std::_Container_proxy><std::_List_node<Goal<Raven_Bot> *,void *> >
	lea	eax, DWORD PTR _$S17$[ebp]
	mov	DWORD PTR __Alproxy$[ebp], eax

; 1849 :         _Container_proxy_ptr<_Alty> _Proxy(_Alproxy, _Mypair._Myval2);

	mov	ecx, DWORD PTR _this$[ebp]
	push	ecx
	mov	edx, DWORD PTR __Alproxy$[ebp]
	push	edx
	lea	ecx, DWORD PTR __Proxy$[ebp]
	call	??0?$_Container_proxy_ptr12@V?$allocator@U_Container_proxy@std@@@std@@@std@@QAE@AAV?$allocator@U_Container_proxy@std@@@1@AAU_Container_base12@1@@Z ; std::_Container_proxy_ptr12<std::allocator<std::_Container_proxy> >::_Container_proxy_ptr12<std::allocator<std::_Container_proxy> >
	mov	DWORD PTR __$EHRec$[ebp+8], 0

; 1850 :         auto& _Al     = _Getal();

	mov	ecx, DWORD PTR _this$[ebp]
	call	?_Getal@?$list@PAV?$Goal@VRaven_Bot@@@@V?$allocator@PAV?$Goal@VRaven_Bot@@@@@std@@@std@@AAEAAV?$allocator@U?$_List_node@PAV?$Goal@VRaven_Bot@@@@PAX@std@@@2@XZ ; std::list<Goal<Raven_Bot> *,std::allocator<Goal<Raven_Bot> *> >::_Getal
	mov	DWORD PTR __Al$[ebp], eax

; 1851 :         auto _Newhead = _Al.allocate(1);

	push	1
	mov	ecx, DWORD PTR __Al$[ebp]
	call	?allocate@?$allocator@U?$_List_node@PAV?$Goal@VRaven_Bot@@@@PAX@std@@@std@@QAEPAU?$_List_node@PAV?$Goal@VRaven_Bot@@@@PAX@2@I@Z ; std::allocator<std::_List_node<Goal<Raven_Bot> *,void *> >::allocate
	mov	DWORD PTR __Newhead$[ebp], eax

; 1852 :         _Construct_in_place(_Newhead->_Next, _Newhead);

	lea	eax, DWORD PTR __Newhead$[ebp]
	push	eax
	mov	ecx, DWORD PTR __Newhead$[ebp]
	push	ecx
	call	??$_Construct_in_place@PAU?$_List_node@PAV?$Goal@VRaven_Bot@@@@PAX@std@@AAPAU12@@std@@YAXAAPAU?$_List_node@PAV?$Goal@VRaven_Bot@@@@PAX@0@0@Z ; std::_Construct_in_place<std::_List_node<Goal<Raven_Bot> *,void *> *,std::_List_node<Goal<Raven_Bot> *,void *> * &>
	add	esp, 8

; 1853 :         _Construct_in_place(_Newhead->_Prev, _Newhead);

	lea	edx, DWORD PTR __Newhead$[ebp]
	push	edx
	mov	eax, DWORD PTR __Newhead$[ebp]
	add	eax, 4
	push	eax
	call	??$_Construct_in_place@PAU?$_List_node@PAV?$Goal@VRaven_Bot@@@@PAX@std@@AAPAU12@@std@@YAXAAPAU?$_List_node@PAV?$Goal@VRaven_Bot@@@@PAX@0@0@Z ; std::_Construct_in_place<std::_List_node<Goal<Raven_Bot> *,void *> *,std::_List_node<Goal<Raven_Bot> *,void *> * &>
	add	esp, 8

; 1854 :         _Mypair._Myval2._Myhead = _Newhead;

	mov	ecx, DWORD PTR _this$[ebp]
	mov	edx, DWORD PTR __Newhead$[ebp]
	mov	DWORD PTR [ecx+4], edx

; 1855 :         _Proxy._Release();

	lea	ecx, DWORD PTR __Proxy$[ebp]
	call	?_Release@_Basic_container_proxy_ptr12@std@@QAEXXZ ; std::_Basic_container_proxy_ptr12::_Release

; 1856 :     }

	mov	DWORD PTR __$EHRec$[ebp+8], -1
	lea	ecx, DWORD PTR __Proxy$[ebp]
	call	??1?$_Container_proxy_ptr12@V?$allocator@U_Container_proxy@std@@@std@@@std@@QAE@XZ ; std::_Container_proxy_ptr12<std::allocator<std::_Container_proxy> >::~_Container_proxy_ptr12<std::allocator<std::_Container_proxy> >
	npad	1
	push	edx
	mov	ecx, ebp
	push	eax
	lea	edx, DWORD PTR $LN9@Alloc_sent
	call	@_RTC_CheckStackVars@8
	pop	eax
	pop	edx
	mov	ecx, DWORD PTR __$EHRec$[ebp]
	mov	DWORD PTR fs:0, ecx
	pop	ecx
	pop	edi
	add	esp, 64					; 00000040H
	cmp	ebp, esp
	call	__RTC_CheckEsp
	mov	esp, ebp
	pop	ebp
	ret	0
	npad	1
$LN9@Alloc_sent:
	DD	3
	DD	$LN8@Alloc_sent
$LN8@Alloc_sent:
	DD	-25					; ffffffe7H
	DD	1
	DD	$LN4@Alloc_sent
	DD	-44					; ffffffd4H
	DD	8
	DD	$LN5@Alloc_sent
	DD	-60					; ffffffc4H
	DD	4
	DD	$LN6@Alloc_sent
$LN6@Alloc_sent:
	DB	95					; 0000005fH
	DB	78					; 0000004eH
	DB	101					; 00000065H
	DB	119					; 00000077H
	DB	104					; 00000068H
	DB	101					; 00000065H
	DB	97					; 00000061H
	DB	100					; 00000064H
	DB	0
$LN5@Alloc_sent:
	DB	95					; 0000005fH
	DB	80					; 00000050H
	DB	114					; 00000072H
	DB	111					; 0000006fH
	DB	120					; 00000078H
	DB	121					; 00000079H
	DB	0
$LN4@Alloc_sent:
	DB	36					; 00000024H
	DB	83					; 00000053H
	DB	49					; 00000031H
	DB	55					; 00000037H
	DB	0
_TEXT	ENDS
;	COMDAT text$x
text$x	SEGMENT
__unwindfunclet$?_Alloc_sentinel_and_proxy@?$list@PAV?$Goal@VRaven_Bot@@@@V?$allocator@PAV?$Goal@VRaven_Bot@@@@@std@@@std@@AAEXXZ$0:
	lea	ecx, DWORD PTR __Proxy$[ebp]
	jmp	??1?$_Container_proxy_ptr12@V?$allocator@U_Container_proxy@std@@@std@@@std@@QAE@XZ ; std::_Container_proxy_ptr12<std::allocator<std::_Container_proxy> >::~_Container_proxy_ptr12<std::allocator<std::_Container_proxy> >
	int	3
	int	3
	int	3
	int	3
	int	3
__ehhandler$?_Alloc_sentinel_and_proxy@?$list@PAV?$Goal@VRaven_Bot@@@@V?$allocator@PAV?$Goal@VRaven_Bot@@@@@std@@@std@@AAEXXZ:
	npad	1
	npad	1
	mov	edx, DWORD PTR [esp+8]
	lea	eax, DWORD PTR [edx+12]
	mov	ecx, DWORD PTR [edx-60]
	xor	ecx, eax
	call	@__security_check_cookie@4
	mov	eax, OFFSET __ehfuncinfo$?_Alloc_sentinel_and_proxy@?$list@PAV?$Goal@VRaven_Bot@@@@V?$allocator@PAV?$Goal@VRaven_Bot@@@@@std@@@std@@AAEXXZ
	jmp	___CxxFrameHandler3
text$x	ENDS
?_Alloc_sentinel_and_proxy@?$list@PAV?$Goal@VRaven_Bot@@@@V?$allocator@PAV?$Goal@VRaven_Bot@@@@@std@@@std@@AAEXXZ ENDP ; std::list<Goal<Raven_Bot> *,std::allocator<Goal<Raven_Bot> *> >::_Alloc_sentinel_and_proxy
; Function compile flags: /Odtp /RTCsu
; File C:\Program Files\Microsoft Visual Studio\2022\Community\VC\Tools\MSVC\14.44.35207\include\list
;	COMDAT ?_Tidy@?$list@PAV?$Goal@VRaven_Bot@@@@V?$allocator@PAV?$Goal@VRaven_Bot@@@@@std@@@std@@AAEXXZ
_TEXT	SEGMENT
__My_data$ = -12					; size = 4
__Al$ = -8						; size = 4
_this$ = -4						; size = 4
?_Tidy@?$list@PAV?$Goal@VRaven_Bot@@@@V?$allocator@PAV?$Goal@VRaven_Bot@@@@@std@@@std@@AAEXXZ PROC ; std::list<Goal<Raven_Bot> *,std::allocator<Goal<Raven_Bot> *> >::_Tidy, COMDAT
; _this$ = ecx

; 1514 :     void _Tidy() noexcept {

	push	ebp
	mov	ebp, esp
	sub	esp, 12					; 0000000cH
	mov	DWORD PTR [ebp-12], -858993460		; ccccccccH
	mov	DWORD PTR [ebp-8], -858993460		; ccccccccH
	mov	DWORD PTR [ebp-4], -858993460		; ccccccccH
	mov	DWORD PTR _this$[ebp], ecx

; 1515 :         auto& _Al      = _Getal();

	mov	ecx, DWORD PTR _this$[ebp]
	call	?_Getal@?$list@PAV?$Goal@VRaven_Bot@@@@V?$allocator@PAV?$Goal@VRaven_Bot@@@@@std@@@std@@AAEAAV?$allocator@U?$_List_node@PAV?$Goal@VRaven_Bot@@@@PAX@std@@@2@XZ ; std::list<Goal<Raven_Bot> *,std::allocator<Goal<Raven_Bot> *> >::_Getal
	mov	DWORD PTR __Al$[ebp], eax

; 1516 :         auto& _My_data = _Mypair._Myval2;

	mov	eax, DWORD PTR _this$[ebp]
	mov	DWORD PTR __My_data$[ebp], eax

; 1517 :         _My_data._Orphan_all();

	mov	ecx, DWORD PTR __My_data$[ebp]
	call	?_Orphan_all@_Container_base12@std@@QAEXXZ ; std::_Container_base12::_Orphan_all

; 1518 :         _Node::_Free_non_head(_Al, _My_data._Myhead);

	mov	ecx, DWORD PTR __My_data$[ebp]
	mov	edx, DWORD PTR [ecx+4]
	push	edx
	mov	eax, DWORD PTR __Al$[ebp]
	push	eax
	call	??$_Free_non_head@V?$allocator@U?$_List_node@PAV?$Goal@VRaven_Bot@@@@PAX@std@@@std@@@?$_List_node@PAV?$Goal@VRaven_Bot@@@@PAX@std@@SAXAAV?$allocator@U?$_List_node@PAV?$Goal@VRaven_Bot@@@@PAX@std@@@1@PAU01@@Z ; std::_List_node<Goal<Raven_Bot> *,void *>::_Free_non_head<std::allocator<std::_List_node<Goal<Raven_Bot> *,void *> > >
	add	esp, 8

; 1519 :         _Node::_Freenode0(_Al, _My_data._Myhead);

	mov	ecx, DWORD PTR __My_data$[ebp]
	mov	edx, DWORD PTR [ecx+4]
	push	edx
	mov	eax, DWORD PTR __Al$[ebp]
	push	eax
	call	??$_Freenode0@V?$allocator@U?$_List_node@PAV?$Goal@VRaven_Bot@@@@PAX@std@@@std@@@?$_List_node@PAV?$Goal@VRaven_Bot@@@@PAX@std@@SAXAAV?$allocator@U?$_List_node@PAV?$Goal@VRaven_Bot@@@@PAX@std@@@1@PAU01@@Z ; std::_List_node<Goal<Raven_Bot> *,void *>::_Freenode0<std::allocator<std::_List_node<Goal<Raven_Bot> *,void *> > >
	add	esp, 8

; 1520 :     }

	add	esp, 12					; 0000000cH
	cmp	ebp, esp
	call	__RTC_CheckEsp
	mov	esp, ebp
	pop	ebp
	ret	0
?_Tidy@?$list@PAV?$Goal@VRaven_Bot@@@@V?$allocator@PAV?$Goal@VRaven_Bot@@@@@std@@@std@@AAEXXZ ENDP ; std::list<Goal<Raven_Bot> *,std::allocator<Goal<Raven_Bot> *> >::_Tidy
_TEXT	ENDS
; Function compile flags: /Odtp /RTCsu
; File C:\Program Files\Microsoft Visual Studio\2022\Community\VC\Tools\MSVC\14.44.35207\include\list
;	COMDAT ?clear@?$list@PAV?$Goal@VRaven_Bot@@@@V?$allocator@PAV?$Goal@VRaven_Bot@@@@@std@@@std@@QAEXXZ
_TEXT	SEGMENT
__My_data$ = -8						; size = 4
_this$ = -4						; size = 4
?clear@?$list@PAV?$Goal@VRaven_Bot@@@@V?$allocator@PAV?$Goal@VRaven_Bot@@@@@std@@@std@@QAEXXZ PROC ; std::list<Goal<Raven_Bot> *,std::allocator<Goal<Raven_Bot> *> >::clear, COMDAT
; _this$ = ecx

; 1504 :     void clear() noexcept { // erase all

	push	ebp
	mov	ebp, esp
	sub	esp, 8
	mov	DWORD PTR [ebp-8], -858993460		; ccccccccH
	mov	DWORD PTR [ebp-4], -858993460		; ccccccccH
	mov	DWORD PTR _this$[ebp], ecx

; 1505 :         auto& _My_data = _Mypair._Myval2;

	mov	eax, DWORD PTR _this$[ebp]
	mov	DWORD PTR __My_data$[ebp], eax

; 1506 :         _My_data._Orphan_non_end();

	mov	ecx, DWORD PTR __My_data$[ebp]
	call	?_Orphan_non_end@?$_List_val@U?$_List_simple_types@PAV?$Goal@VRaven_Bot@@@@@std@@@std@@QAEXXZ ; std::_List_val<std::_List_simple_types<Goal<Raven_Bot> *> >::_Orphan_non_end

; 1507 :         _Node::_Free_non_head(_Getal(), _My_data._Myhead);

	mov	ecx, DWORD PTR __My_data$[ebp]
	mov	edx, DWORD PTR [ecx+4]
	push	edx
	mov	ecx, DWORD PTR _this$[ebp]
	call	?_Getal@?$list@PAV?$Goal@VRaven_Bot@@@@V?$allocator@PAV?$Goal@VRaven_Bot@@@@@std@@@std@@AAEAAV?$allocator@U?$_List_node@PAV?$Goal@VRaven_Bot@@@@PAX@std@@@2@XZ ; std::list<Goal<Raven_Bot> *,std::allocator<Goal<Raven_Bot> *> >::_Getal
	push	eax
	call	??$_Free_non_head@V?$allocator@U?$_List_node@PAV?$Goal@VRaven_Bot@@@@PAX@std@@@std@@@?$_List_node@PAV?$Goal@VRaven_Bot@@@@PAX@std@@SAXAAV?$allocator@U?$_List_node@PAV?$Goal@VRaven_Bot@@@@PAX@std@@@1@PAU01@@Z ; std::_List_node<Goal<Raven_Bot> *,void *>::_Free_non_head<std::allocator<std::_List_node<Goal<Raven_Bot> *,void *> > >
	add	esp, 8

; 1508 :         _My_data._Myhead->_Next = _My_data._Myhead;

	mov	eax, DWORD PTR __My_data$[ebp]
	mov	ecx, DWORD PTR [eax+4]
	mov	edx, DWORD PTR __My_data$[ebp]
	mov	eax, DWORD PTR [edx+4]
	mov	DWORD PTR [ecx], eax

; 1509 :         _My_data._Myhead->_Prev = _My_data._Myhead;

	mov	ecx, DWORD PTR __My_data$[ebp]
	mov	edx, DWORD PTR [ecx+4]
	mov	eax, DWORD PTR __My_data$[ebp]
	mov	ecx, DWORD PTR [eax+4]
	mov	DWORD PTR [edx+4], ecx

; 1510 :         _My_data._Mysize        = 0;

	mov	edx, DWORD PTR __My_data$[ebp]
	mov	DWORD PTR [edx+8], 0

; 1511 :     }

	add	esp, 8
	cmp	ebp, esp
	call	__RTC_CheckEsp
	mov	esp, ebp
	pop	ebp
	ret	0
?clear@?$list@PAV?$Goal@VRaven_Bot@@@@V?$allocator@PAV?$Goal@VRaven_Bot@@@@@std@@@std@@QAEXXZ ENDP ; std::list<Goal<Raven_Bot> *,std::allocator<Goal<Raven_Bot> *> >::clear
_TEXT	ENDS
; Function compile flags: /Odtp /RTCsu
; File C:\Program Files\Microsoft Visual Studio\2022\Community\VC\Tools\MSVC\14.44.35207\include\list
;	COMDAT ?_Unchecked_erase@?$list@PAV?$Goal@VRaven_Bot@@@@V?$allocator@PAV?$Goal@VRaven_Bot@@@@@std@@@std@@AAEPAU?$_List_node@PAV?$Goal@VRaven_Bot@@@@PAX@2@QAU32@@Z
_TEXT	SEGMENT
__Result$ = -8						; size = 4
_this$ = -4						; size = 4
__Pnode$ = 8						; size = 4
?_Unchecked_erase@?$list@PAV?$Goal@VRaven_Bot@@@@V?$allocator@PAV?$Goal@VRaven_Bot@@@@@std@@@std@@AAEPAU?$_List_node@PAV?$Goal@VRaven_Bot@@@@PAX@2@QAU32@@Z PROC ; std::list<Goal<Raven_Bot> *,std::allocator<Goal<Raven_Bot> *> >::_Unchecked_erase, COMDAT
; _this$ = ecx

; 1437 :     _Nodeptr _Unchecked_erase(const _Nodeptr _Pnode) noexcept { // erase element at _Pnode

	push	ebp
	mov	ebp, esp
	sub	esp, 8
	mov	DWORD PTR [ebp-8], -858993460		; ccccccccH
	mov	DWORD PTR [ebp-4], -858993460		; ccccccccH
	mov	DWORD PTR _this$[ebp], ecx

; 1438 :         const auto _Result = _Pnode->_Next;

	mov	eax, DWORD PTR __Pnode$[ebp]
	mov	ecx, DWORD PTR [eax]
	mov	DWORD PTR __Result$[ebp], ecx

; 1439 :         _Mypair._Myval2._Orphan_ptr2(_Pnode);

	mov	edx, DWORD PTR __Pnode$[ebp]
	push	edx
	mov	ecx, DWORD PTR _this$[ebp]
	call	?_Orphan_ptr2@?$_List_val@U?$_List_simple_types@PAV?$Goal@VRaven_Bot@@@@@std@@@std@@QAEXPAU?$_List_node@PAV?$Goal@VRaven_Bot@@@@PAX@2@@Z ; std::_List_val<std::_List_simple_types<Goal<Raven_Bot> *> >::_Orphan_ptr2

; 1440 :         --_Mypair._Myval2._Mysize;

	mov	eax, DWORD PTR _this$[ebp]
	mov	ecx, DWORD PTR [eax+8]
	sub	ecx, 1
	mov	edx, DWORD PTR _this$[ebp]
	mov	DWORD PTR [edx+8], ecx

; 1441 :         _Pnode->_Prev->_Next = _Result;

	mov	eax, DWORD PTR __Pnode$[ebp]
	mov	ecx, DWORD PTR [eax+4]
	mov	edx, DWORD PTR __Result$[ebp]
	mov	DWORD PTR [ecx], edx

; 1442 :         _Result->_Prev       = _Pnode->_Prev;

	mov	eax, DWORD PTR __Result$[ebp]
	mov	ecx, DWORD PTR __Pnode$[ebp]
	mov	edx, DWORD PTR [ecx+4]
	mov	DWORD PTR [eax+4], edx

; 1443 :         _Node::_Freenode(_Getal(), _Pnode);

	mov	eax, DWORD PTR __Pnode$[ebp]
	push	eax
	mov	ecx, DWORD PTR _this$[ebp]
	call	?_Getal@?$list@PAV?$Goal@VRaven_Bot@@@@V?$allocator@PAV?$Goal@VRaven_Bot@@@@@std@@@std@@AAEAAV?$allocator@U?$_List_node@PAV?$Goal@VRaven_Bot@@@@PAX@std@@@2@XZ ; std::list<Goal<Raven_Bot> *,std::allocator<Goal<Raven_Bot> *> >::_Getal
	push	eax
	call	??$_Freenode@V?$allocator@U?$_List_node@PAV?$Goal@VRaven_Bot@@@@PAX@std@@@std@@@?$_List_node@PAV?$Goal@VRaven_Bot@@@@PAX@std@@SAXAAV?$allocator@U?$_List_node@PAV?$Goal@VRaven_Bot@@@@PAX@std@@@1@PAU01@@Z ; std::_List_node<Goal<Raven_Bot> *,void *>::_Freenode<std::allocator<std::_List_node<Goal<Raven_Bot> *,void *> > >
	add	esp, 8

; 1444 :         return _Result;

	mov	eax, DWORD PTR __Result$[ebp]

; 1445 :     }

	add	esp, 8
	cmp	ebp, esp
	call	__RTC_CheckEsp
	mov	esp, ebp
	pop	ebp
	ret	4
?_Unchecked_erase@?$list@PAV?$Goal@VRaven_Bot@@@@V?$allocator@PAV?$Goal@VRaven_Bot@@@@@std@@@std@@AAEPAU?$_List_node@PAV?$Goal@VRaven_Bot@@@@PAX@2@QAU32@@Z ENDP ; std::list<Goal<Raven_Bot> *,std::allocator<Goal<Raven_Bot> *> >::_Unchecked_erase
_TEXT	ENDS
; Function compile flags: /Odtp /RTCsu
; File C:\Program Files\Microsoft Visual Studio\2022\Community\VC\Tools\MSVC\14.44.35207\include\list
;	COMDAT ?pop_front@?$list@PAV?$Goal@VRaven_Bot@@@@V?$allocator@PAV?$Goal@VRaven_Bot@@@@@std@@@std@@QAEXXZ
_TEXT	SEGMENT
_this$ = -4						; size = 4
?pop_front@?$list@PAV?$Goal@VRaven_Bot@@@@V?$allocator@PAV?$Goal@VRaven_Bot@@@@@std@@@std@@QAEXXZ PROC ; std::list<Goal<Raven_Bot> *,std::allocator<Goal<Raven_Bot> *> >::pop_front, COMDAT
; _this$ = ecx

; 1265 :     void pop_front() noexcept /* strengthened */ {

	push	ebp
	mov	ebp, esp
	push	ecx
	mov	DWORD PTR [ebp-4], -858993460		; ccccccccH
	mov	DWORD PTR _this$[ebp], ecx

; 1266 : #if _MSVC_STL_HARDENING_LIST || _ITERATOR_DEBUG_LEVEL != 0
; 1267 :         _STL_VERIFY(_Mypair._Myval2._Mysize != 0, "pop_front() called on empty list");

	mov	eax, DWORD PTR _this$[ebp]
	cmp	DWORD PTR [eax+8], 0
	jne	SHORT $LN2@pop_front
	push	OFFSET ??_C@_0CB@GIIADCJH@pop_front?$CI?$CJ?5called?5on?5empty?5lis@
	push	OFFSET ??_C@_02DKCKIIND@?$CFs@
	push	0
	push	1267					; 000004f3H
	push	OFFSET ??_C@_0FP@IHALIHCI@C?3?2Program?5Files?2Microsoft?5Visu@
	push	2
	call	__CrtDbgReport
	add	esp, 24					; 00000018H
	cmp	eax, 1
	jne	SHORT $LN4@pop_front
	int	3
$LN4@pop_front:
	push	0
	push	0
	push	0
	push	0
	push	0
	call	__invoke_watson
	npad	1
$LN2@pop_front:

; 1268 : #endif
; 1269 : 
; 1270 :         _Unchecked_erase(_Mypair._Myval2._Myhead->_Next);

	mov	edx, DWORD PTR _this$[ebp]
	mov	eax, DWORD PTR [edx+4]
	mov	ecx, DWORD PTR [eax]
	push	ecx
	mov	ecx, DWORD PTR _this$[ebp]
	call	?_Unchecked_erase@?$list@PAV?$Goal@VRaven_Bot@@@@V?$allocator@PAV?$Goal@VRaven_Bot@@@@@std@@@std@@AAEPAU?$_List_node@PAV?$Goal@VRaven_Bot@@@@PAX@2@QAU32@@Z ; std::list<Goal<Raven_Bot> *,std::allocator<Goal<Raven_Bot> *> >::_Unchecked_erase
	npad	1
$LN1@pop_front:

; 1271 :     }

	add	esp, 4
	cmp	ebp, esp
	call	__RTC_CheckEsp
	mov	esp, ebp
	pop	ebp
	ret	0
?pop_front@?$list@PAV?$Goal@VRaven_Bot@@@@V?$allocator@PAV?$Goal@VRaven_Bot@@@@@std@@@std@@QAEXXZ ENDP ; std::list<Goal<Raven_Bot> *,std::allocator<Goal<Raven_Bot> *> >::pop_front
_TEXT	ENDS
; Function compile flags: /Odtp /RTCsu
; File C:\Program Files\Microsoft Visual Studio\2022\Community\VC\Tools\MSVC\14.44.35207\include\list
;	COMDAT ?push_front@?$list@PAV?$Goal@VRaven_Bot@@@@V?$allocator@PAV?$Goal@VRaven_Bot@@@@@std@@@std@@QAEXABQAV?$Goal@VRaven_Bot@@@@@Z
_TEXT	SEGMENT
_this$ = -4						; size = 4
__Val$ = 8						; size = 4
?push_front@?$list@PAV?$Goal@VRaven_Bot@@@@V?$allocator@PAV?$Goal@VRaven_Bot@@@@@std@@@std@@QAEXABQAV?$Goal@VRaven_Bot@@@@@Z PROC ; std::list<Goal<Raven_Bot> *,std::allocator<Goal<Raven_Bot> *> >::push_front, COMDAT
; _this$ = ecx

; 1252 :     void push_front(const _Ty& _Val) {

	push	ebp
	mov	ebp, esp
	push	ecx
	mov	DWORD PTR [ebp-4], -858993460		; ccccccccH
	mov	DWORD PTR _this$[ebp], ecx

; 1253 :         _Emplace(_Mypair._Myval2._Myhead->_Next, _Val);

	mov	eax, DWORD PTR __Val$[ebp]
	push	eax
	mov	ecx, DWORD PTR _this$[ebp]
	mov	edx, DWORD PTR [ecx+4]
	mov	eax, DWORD PTR [edx]
	push	eax
	mov	ecx, DWORD PTR _this$[ebp]
	call	??$_Emplace@ABQAV?$Goal@VRaven_Bot@@@@@?$list@PAV?$Goal@VRaven_Bot@@@@V?$allocator@PAV?$Goal@VRaven_Bot@@@@@std@@@std@@QAEPAU?$_List_node@PAV?$Goal@VRaven_Bot@@@@PAX@1@QAU21@ABQAV?$Goal@VRaven_Bot@@@@@Z ; std::list<Goal<Raven_Bot> *,std::allocator<Goal<Raven_Bot> *> >::_Emplace<Goal<Raven_Bot> * const &>
	npad	1

; 1254 :     }

	add	esp, 4
	cmp	ebp, esp
	call	__RTC_CheckEsp
	mov	esp, ebp
	pop	ebp
	ret	4
?push_front@?$list@PAV?$Goal@VRaven_Bot@@@@V?$allocator@PAV?$Goal@VRaven_Bot@@@@@std@@@std@@QAEXABQAV?$Goal@VRaven_Bot@@@@@Z ENDP ; std::list<Goal<Raven_Bot> *,std::allocator<Goal<Raven_Bot> *> >::push_front
_TEXT	ENDS
; Function compile flags: /Odtp /RTCsu
; File C:\Program Files\Microsoft Visual Studio\2022\Community\VC\Tools\MSVC\14.44.35207\include\list
;	COMDAT ?front@?$list@PAV?$Goal@VRaven_Bot@@@@V?$allocator@PAV?$Goal@VRaven_Bot@@@@@std@@@std@@QAEAAPAV?$Goal@VRaven_Bot@@@@XZ
_TEXT	SEGMENT
_this$ = -4						; size = 4
?front@?$list@PAV?$Goal@VRaven_Bot@@@@V?$allocator@PAV?$Goal@VRaven_Bot@@@@@std@@@std@@QAEAAPAV?$Goal@VRaven_Bot@@@@XZ PROC ; std::list<Goal<Raven_Bot> *,std::allocator<Goal<Raven_Bot> *> >::front, COMDAT
; _this$ = ecx

; 1220 :     _NODISCARD reference front() noexcept /* strengthened */ {

	push	ebp
	mov	ebp, esp
	push	ecx
	mov	DWORD PTR [ebp-4], -858993460		; ccccccccH
	mov	DWORD PTR _this$[ebp], ecx

; 1221 : #if _MSVC_STL_HARDENING_LIST || _ITERATOR_DEBUG_LEVEL != 0
; 1222 :         _STL_VERIFY(_Mypair._Myval2._Mysize != 0, "front() called on empty list");

	mov	eax, DWORD PTR _this$[ebp]
	cmp	DWORD PTR [eax+8], 0
	jne	SHORT $LN2@front
	push	OFFSET ??_C@_0BN@GOIPFJJH@front?$CI?$CJ?5called?5on?5empty?5list@
	push	OFFSET ??_C@_02DKCKIIND@?$CFs@
	push	0
	push	1222					; 000004c6H
	push	OFFSET ??_C@_0FP@IHALIHCI@C?3?2Program?5Files?2Microsoft?5Visu@
	push	2
	call	__CrtDbgReport
	add	esp, 24					; 00000018H
	cmp	eax, 1
	jne	SHORT $LN4@front
	int	3
$LN4@front:
	push	0
	push	0
	push	0
	push	0
	push	0
	call	__invoke_watson
	npad	1
$LN2@front:

; 1223 : #endif
; 1224 : 
; 1225 :         return _Mypair._Myval2._Myhead->_Next->_Myval;

	mov	edx, DWORD PTR _this$[ebp]
	mov	eax, DWORD PTR [edx+4]
	mov	eax, DWORD PTR [eax]
	add	eax, 8
$LN1@front:

; 1226 :     }

	add	esp, 4
	cmp	ebp, esp
	call	__RTC_CheckEsp
	mov	esp, ebp
	pop	ebp
	ret	0
?front@?$list@PAV?$Goal@VRaven_Bot@@@@V?$allocator@PAV?$Goal@VRaven_Bot@@@@@std@@@std@@QAEAAPAV?$Goal@VRaven_Bot@@@@XZ ENDP ; std::list<Goal<Raven_Bot> *,std::allocator<Goal<Raven_Bot> *> >::front
_TEXT	ENDS
; Function compile flags: /Odtp /RTCsu
; File C:\Program Files\Microsoft Visual Studio\2022\Community\VC\Tools\MSVC\14.44.35207\include\list
;	COMDAT ?empty@?$list@PAV?$Goal@VRaven_Bot@@@@V?$allocator@PAV?$Goal@VRaven_Bot@@@@@std@@@std@@QBE_NXZ
_TEXT	SEGMENT
tv68 = -8						; size = 4
_this$ = -4						; size = 4
?empty@?$list@PAV?$Goal@VRaven_Bot@@@@V?$allocator@PAV?$Goal@VRaven_Bot@@@@@std@@@std@@QBE_NXZ PROC ; std::list<Goal<Raven_Bot> *,std::allocator<Goal<Raven_Bot> *> >::empty, COMDAT
; _this$ = ecx

; 1212 :     _NODISCARD_EMPTY_MEMBER bool empty() const noexcept {

	push	ebp
	mov	ebp, esp
	sub	esp, 8
	mov	DWORD PTR _this$[ebp], ecx

; 1213 :         return _Mypair._Myval2._Mysize == 0;

	mov	eax, DWORD PTR _this$[ebp]
	cmp	DWORD PTR [eax+8], 0
	jne	SHORT $LN3@empty
	mov	DWORD PTR tv68[ebp], 1
	jmp	SHORT $LN4@empty
$LN3@empty:
	mov	DWORD PTR tv68[ebp], 0
$LN4@empty:
	movzx	eax, BYTE PTR tv68[ebp]

; 1214 :     }

	mov	esp, ebp
	pop	ebp
	ret	0
?empty@?$list@PAV?$Goal@VRaven_Bot@@@@V?$allocator@PAV?$Goal@VRaven_Bot@@@@@std@@@std@@QBE_NXZ ENDP ; std::list<Goal<Raven_Bot> *,std::allocator<Goal<Raven_Bot> *> >::empty
_TEXT	ENDS
; Function compile flags: /Odtp /RTCsu
; File C:\Program Files\Microsoft Visual Studio\2022\Community\VC\Tools\MSVC\14.44.35207\include\list
;	COMDAT ?max_size@?$list@PAV?$Goal@VRaven_Bot@@@@V?$allocator@PAV?$Goal@VRaven_Bot@@@@@std@@@std@@QBEIXZ
_TEXT	SEGMENT
$T1 = -12						; size = 4
$T2 = -8						; size = 4
_this$ = -4						; size = 4
?max_size@?$list@PAV?$Goal@VRaven_Bot@@@@V?$allocator@PAV?$Goal@VRaven_Bot@@@@@std@@@std@@QBEIXZ PROC ; std::list<Goal<Raven_Bot> *,std::allocator<Goal<Raven_Bot> *> >::max_size, COMDAT
; _this$ = ecx

; 1207 :     _NODISCARD size_type max_size() const noexcept {

	push	ebp
	mov	ebp, esp
	sub	esp, 12					; 0000000cH
	mov	DWORD PTR [ebp-12], -858993460		; ccccccccH
	mov	DWORD PTR [ebp-8], -858993460		; ccccccccH
	mov	DWORD PTR [ebp-4], -858993460		; ccccccccH
	mov	DWORD PTR _this$[ebp], ecx

; 1208 :         return (_STD min)(

	mov	ecx, DWORD PTR _this$[ebp]
	call	?_Getal@?$list@PAV?$Goal@VRaven_Bot@@@@V?$allocator@PAV?$Goal@VRaven_Bot@@@@@std@@@std@@ABEABV?$allocator@U?$_List_node@PAV?$Goal@VRaven_Bot@@@@PAX@std@@@2@XZ ; std::list<Goal<Raven_Bot> *,std::allocator<Goal<Raven_Bot> *> >::_Getal
	push	eax
	call	?max_size@?$_Default_allocator_traits@V?$allocator@U?$_List_node@PAV?$Goal@VRaven_Bot@@@@PAX@std@@@std@@@std@@SAIABV?$allocator@U?$_List_node@PAV?$Goal@VRaven_Bot@@@@PAX@std@@@2@@Z ; std::_Default_allocator_traits<std::allocator<std::_List_node<Goal<Raven_Bot> *,void *> > >::max_size
	add	esp, 4
	mov	DWORD PTR $T2[ebp], eax
	call	??$_Max_limit@H@std@@YAHXZ		; std::_Max_limit<int>
	mov	DWORD PTR $T1[ebp], eax
	lea	eax, DWORD PTR $T2[ebp]
	push	eax
	lea	ecx, DWORD PTR $T1[ebp]
	push	ecx
	call	??$min@I@std@@YAABIABI0@Z		; std::min<unsigned int>
	add	esp, 8
	mov	eax, DWORD PTR [eax]

; 1209 :             static_cast<size_type>(_STD _Max_limit<difference_type>()), _Alnode_traits::max_size(_Getal()));
; 1210 :     }

	add	esp, 12					; 0000000cH
	cmp	ebp, esp
	call	__RTC_CheckEsp
	mov	esp, ebp
	pop	ebp
	ret	0
?max_size@?$list@PAV?$Goal@VRaven_Bot@@@@V?$allocator@PAV?$Goal@VRaven_Bot@@@@@std@@@std@@QBEIXZ ENDP ; std::list<Goal<Raven_Bot> *,std::allocator<Goal<Raven_Bot> *> >::max_size
_TEXT	ENDS
; Function compile flags: /Odtp /RTCsu
; File C:\Program Files\Microsoft Visual Studio\2022\Community\VC\Tools\MSVC\14.44.35207\include\list
;	COMDAT ?size@?$list@PAV?$Goal@VRaven_Bot@@@@V?$allocator@PAV?$Goal@VRaven_Bot@@@@@std@@@std@@QBEIXZ
_TEXT	SEGMENT
_this$ = -4						; size = 4
?size@?$list@PAV?$Goal@VRaven_Bot@@@@V?$allocator@PAV?$Goal@VRaven_Bot@@@@@std@@@std@@QBEIXZ PROC ; std::list<Goal<Raven_Bot> *,std::allocator<Goal<Raven_Bot> *> >::size, COMDAT
; _this$ = ecx

; 1203 :     _NODISCARD size_type size() const noexcept {

	push	ebp
	mov	ebp, esp
	push	ecx
	mov	DWORD PTR _this$[ebp], ecx

; 1204 :         return _Mypair._Myval2._Mysize;

	mov	eax, DWORD PTR _this$[ebp]
	mov	eax, DWORD PTR [eax+8]

; 1205 :     }

	mov	esp, ebp
	pop	ebp
	ret	0
?size@?$list@PAV?$Goal@VRaven_Bot@@@@V?$allocator@PAV?$Goal@VRaven_Bot@@@@@std@@@std@@QBEIXZ ENDP ; std::list<Goal<Raven_Bot> *,std::allocator<Goal<Raven_Bot> *> >::size
_TEXT	ENDS
; Function compile flags: /Odtp /RTCsu
; File C:\Program Files\Microsoft Visual Studio\2022\Community\VC\Tools\MSVC\14.44.35207\include\list
;	COMDAT ?rend@?$list@PAV?$Goal@VRaven_Bot@@@@V?$allocator@PAV?$Goal@VRaven_Bot@@@@@std@@@std@@QBE?AV?$reverse_iterator@V?$_List_const_iterator@V?$_List_val@U?$_List_simple_types@PAV?$Goal@VRaven_Bot@@@@@std@@@std@@@std@@@2@XZ
_TEXT	SEGMENT
$T1 = -8						; size = 4
_this$ = -4						; size = 4
___$ReturnUdt$ = 8					; size = 4
?rend@?$list@PAV?$Goal@VRaven_Bot@@@@V?$allocator@PAV?$Goal@VRaven_Bot@@@@@std@@@std@@QBE?AV?$reverse_iterator@V?$_List_const_iterator@V?$_List_val@U?$_List_simple_types@PAV?$Goal@VRaven_Bot@@@@@std@@@std@@@std@@@2@XZ PROC ; std::list<Goal<Raven_Bot> *,std::allocator<Goal<Raven_Bot> *> >::rend, COMDAT
; _this$ = ecx

; 1156 :     _NODISCARD const_reverse_iterator rend() const noexcept {

	push	ebp
	mov	ebp, esp
	sub	esp, 8
	mov	DWORD PTR [ebp-8], -858993460		; ccccccccH
	mov	DWORD PTR [ebp-4], -858993460		; ccccccccH
	mov	DWORD PTR _this$[ebp], ecx

; 1157 :         return const_reverse_iterator(begin());

	sub	esp, 12					; 0000000cH
	mov	eax, esp
	mov	DWORD PTR $T1[ebp], esp
	push	eax
	mov	ecx, DWORD PTR _this$[ebp]
	call	?begin@?$list@PAV?$Goal@VRaven_Bot@@@@V?$allocator@PAV?$Goal@VRaven_Bot@@@@@std@@@std@@QBE?AV?$_List_const_iterator@V?$_List_val@U?$_List_simple_types@PAV?$Goal@VRaven_Bot@@@@@std@@@std@@@2@XZ ; std::list<Goal<Raven_Bot> *,std::allocator<Goal<Raven_Bot> *> >::begin
	mov	ecx, DWORD PTR ___$ReturnUdt$[ebp]
	call	??0?$reverse_iterator@V?$_List_const_iterator@V?$_List_val@U?$_List_simple_types@PAV?$Goal@VRaven_Bot@@@@@std@@@std@@@std@@@std@@QAE@V?$_List_const_iterator@V?$_List_val@U?$_List_simple_types@PAV?$Goal@VRaven_Bot@@@@@std@@@std@@@1@@Z ; std::reverse_iterator<std::_List_const_iterator<std::_List_val<std::_List_simple_types<Goal<Raven_Bot> *> > > >::reverse_iterator<std::_List_const_iterator<std::_List_val<std::_List_simple_types<Goal<Raven_Bot> *> > > >
	npad	1
	mov	eax, DWORD PTR ___$ReturnUdt$[ebp]

; 1158 :     }

	add	esp, 8
	cmp	ebp, esp
	call	__RTC_CheckEsp
	mov	esp, ebp
	pop	ebp
	ret	4
?rend@?$list@PAV?$Goal@VRaven_Bot@@@@V?$allocator@PAV?$Goal@VRaven_Bot@@@@@std@@@std@@QBE?AV?$reverse_iterator@V?$_List_const_iterator@V?$_List_val@U?$_List_simple_types@PAV?$Goal@VRaven_Bot@@@@@std@@@std@@@std@@@2@XZ ENDP ; std::list<Goal<Raven_Bot> *,std::allocator<Goal<Raven_Bot> *> >::rend
_TEXT	ENDS
; Function compile flags: /Odtp /RTCsu
; File C:\Program Files\Microsoft Visual Studio\2022\Community\VC\Tools\MSVC\14.44.35207\include\list
;	COMDAT ?rbegin@?$list@PAV?$Goal@VRaven_Bot@@@@V?$allocator@PAV?$Goal@VRaven_Bot@@@@@std@@@std@@QBE?AV?$reverse_iterator@V?$_List_const_iterator@V?$_List_val@U?$_List_simple_types@PAV?$Goal@VRaven_Bot@@@@@std@@@std@@@std@@@2@XZ
_TEXT	SEGMENT
$T1 = -8						; size = 4
_this$ = -4						; size = 4
___$ReturnUdt$ = 8					; size = 4
?rbegin@?$list@PAV?$Goal@VRaven_Bot@@@@V?$allocator@PAV?$Goal@VRaven_Bot@@@@@std@@@std@@QBE?AV?$reverse_iterator@V?$_List_const_iterator@V?$_List_val@U?$_List_simple_types@PAV?$Goal@VRaven_Bot@@@@@std@@@std@@@std@@@2@XZ PROC ; std::list<Goal<Raven_Bot> *,std::allocator<Goal<Raven_Bot> *> >::rbegin, COMDAT
; _this$ = ecx

; 1148 :     _NODISCARD const_reverse_iterator rbegin() const noexcept {

	push	ebp
	mov	ebp, esp
	sub	esp, 8
	mov	DWORD PTR [ebp-8], -858993460		; ccccccccH
	mov	DWORD PTR [ebp-4], -858993460		; ccccccccH
	mov	DWORD PTR _this$[ebp], ecx

; 1149 :         return const_reverse_iterator(end());

	sub	esp, 12					; 0000000cH
	mov	eax, esp
	mov	DWORD PTR $T1[ebp], esp
	push	eax
	mov	ecx, DWORD PTR _this$[ebp]
	call	?end@?$list@PAV?$Goal@VRaven_Bot@@@@V?$allocator@PAV?$Goal@VRaven_Bot@@@@@std@@@std@@QBE?AV?$_List_const_iterator@V?$_List_val@U?$_List_simple_types@PAV?$Goal@VRaven_Bot@@@@@std@@@std@@@2@XZ ; std::list<Goal<Raven_Bot> *,std::allocator<Goal<Raven_Bot> *> >::end
	mov	ecx, DWORD PTR ___$ReturnUdt$[ebp]
	call	??0?$reverse_iterator@V?$_List_const_iterator@V?$_List_val@U?$_List_simple_types@PAV?$Goal@VRaven_Bot@@@@@std@@@std@@@std@@@std@@QAE@V?$_List_const_iterator@V?$_List_val@U?$_List_simple_types@PAV?$Goal@VRaven_Bot@@@@@std@@@std@@@1@@Z ; std::reverse_iterator<std::_List_const_iterator<std::_List_val<std::_List_simple_types<Goal<Raven_Bot> *> > > >::reverse_iterator<std::_List_const_iterator<std::_List_val<std::_List_simple_types<Goal<Raven_Bot> *> > > >
	npad	1
	mov	eax, DWORD PTR ___$ReturnUdt$[ebp]

; 1150 :     }

	add	esp, 8
	cmp	ebp, esp
	call	__RTC_CheckEsp
	mov	esp, ebp
	pop	ebp
	ret	4
?rbegin@?$list@PAV?$Goal@VRaven_Bot@@@@V?$allocator@PAV?$Goal@VRaven_Bot@@@@@std@@@std@@QBE?AV?$reverse_iterator@V?$_List_const_iterator@V?$_List_val@U?$_List_simple_types@PAV?$Goal@VRaven_Bot@@@@@std@@@std@@@std@@@2@XZ ENDP ; std::list<Goal<Raven_Bot> *,std::allocator<Goal<Raven_Bot> *> >::rbegin
_TEXT	ENDS
; Function compile flags: /Odtp /RTCsu
; File C:\Program Files\Microsoft Visual Studio\2022\Community\VC\Tools\MSVC\14.44.35207\include\list
;	COMDAT ?end@?$list@PAV?$Goal@VRaven_Bot@@@@V?$allocator@PAV?$Goal@VRaven_Bot@@@@@std@@@std@@QBE?AV?$_List_const_iterator@V?$_List_val@U?$_List_simple_types@PAV?$Goal@VRaven_Bot@@@@@std@@@std@@@2@XZ
_TEXT	SEGMENT
_this$ = -4						; size = 4
___$ReturnUdt$ = 8					; size = 4
?end@?$list@PAV?$Goal@VRaven_Bot@@@@V?$allocator@PAV?$Goal@VRaven_Bot@@@@@std@@@std@@QBE?AV?$_List_const_iterator@V?$_List_val@U?$_List_simple_types@PAV?$Goal@VRaven_Bot@@@@@std@@@std@@@2@XZ PROC ; std::list<Goal<Raven_Bot> *,std::allocator<Goal<Raven_Bot> *> >::end, COMDAT
; _this$ = ecx

; 1116 :     _NODISCARD const_iterator end() const noexcept {

	push	ebp
	mov	ebp, esp
	push	ecx
	mov	DWORD PTR [ebp-4], -858993460		; ccccccccH
	mov	DWORD PTR _this$[ebp], ecx

; 1117 :         return const_iterator(_Mypair._Myval2._Myhead, _STD addressof(_Mypair._Myval2));

	mov	eax, DWORD PTR _this$[ebp]
	push	eax
	call	??$addressof@$$CBV?$_List_val@U?$_List_simple_types@PAV?$Goal@VRaven_Bot@@@@@std@@@std@@@std@@YAPBV?$_List_val@U?$_List_simple_types@PAV?$Goal@VRaven_Bot@@@@@std@@@0@ABV10@@Z ; std::addressof<std::_List_val<std::_List_simple_types<Goal<Raven_Bot> *> > const >
	add	esp, 4
	push	eax
	mov	ecx, DWORD PTR _this$[ebp]
	mov	edx, DWORD PTR [ecx+4]
	push	edx
	mov	ecx, DWORD PTR ___$ReturnUdt$[ebp]
	call	??0?$_List_const_iterator@V?$_List_val@U?$_List_simple_types@PAV?$Goal@VRaven_Bot@@@@@std@@@std@@@std@@QAE@PAU?$_List_node@PAV?$Goal@VRaven_Bot@@@@PAX@1@PBV?$_List_val@U?$_List_simple_types@PAV?$Goal@VRaven_Bot@@@@@std@@@1@@Z
	mov	eax, DWORD PTR ___$ReturnUdt$[ebp]

; 1118 :     }

	add	esp, 4
	cmp	ebp, esp
	call	__RTC_CheckEsp
	mov	esp, ebp
	pop	ebp
	ret	4
?end@?$list@PAV?$Goal@VRaven_Bot@@@@V?$allocator@PAV?$Goal@VRaven_Bot@@@@@std@@@std@@QBE?AV?$_List_const_iterator@V?$_List_val@U?$_List_simple_types@PAV?$Goal@VRaven_Bot@@@@@std@@@std@@@2@XZ ENDP ; std::list<Goal<Raven_Bot> *,std::allocator<Goal<Raven_Bot> *> >::end
_TEXT	ENDS
; Function compile flags: /Odtp /RTCsu
; File C:\Program Files\Microsoft Visual Studio\2022\Community\VC\Tools\MSVC\14.44.35207\include\list
;	COMDAT ?end@?$list@PAV?$Goal@VRaven_Bot@@@@V?$allocator@PAV?$Goal@VRaven_Bot@@@@@std@@@std@@QAE?AV?$_List_iterator@V?$_List_val@U?$_List_simple_types@PAV?$Goal@VRaven_Bot@@@@@std@@@std@@@2@XZ
_TEXT	SEGMENT
_this$ = -4						; size = 4
___$ReturnUdt$ = 8					; size = 4
?end@?$list@PAV?$Goal@VRaven_Bot@@@@V?$allocator@PAV?$Goal@VRaven_Bot@@@@@std@@@std@@QAE?AV?$_List_iterator@V?$_List_val@U?$_List_simple_types@PAV?$Goal@VRaven_Bot@@@@@std@@@std@@@2@XZ PROC ; std::list<Goal<Raven_Bot> *,std::allocator<Goal<Raven_Bot> *> >::end, COMDAT
; _this$ = ecx

; 1112 :     _NODISCARD iterator end() noexcept {

	push	ebp
	mov	ebp, esp
	push	ecx
	mov	DWORD PTR [ebp-4], -858993460		; ccccccccH
	mov	DWORD PTR _this$[ebp], ecx

; 1113 :         return iterator(_Mypair._Myval2._Myhead, _STD addressof(_Mypair._Myval2));

	mov	eax, DWORD PTR _this$[ebp]
	push	eax
	call	??$addressof@V?$_List_val@U?$_List_simple_types@PAV?$Goal@VRaven_Bot@@@@@std@@@std@@@std@@YAPAV?$_List_val@U?$_List_simple_types@PAV?$Goal@VRaven_Bot@@@@@std@@@0@AAV10@@Z ; std::addressof<std::_List_val<std::_List_simple_types<Goal<Raven_Bot> *> > >
	add	esp, 4
	push	eax
	mov	ecx, DWORD PTR _this$[ebp]
	mov	edx, DWORD PTR [ecx+4]
	push	edx
	mov	ecx, DWORD PTR ___$ReturnUdt$[ebp]
	call	??0?$_List_iterator@V?$_List_val@U?$_List_simple_types@PAV?$Goal@VRaven_Bot@@@@@std@@@std@@@std@@QAE@PAU?$_List_node@PAV?$Goal@VRaven_Bot@@@@PAX@1@PBV?$_List_val@U?$_List_simple_types@PAV?$Goal@VRaven_Bot@@@@@std@@@1@@Z
	mov	eax, DWORD PTR ___$ReturnUdt$[ebp]

; 1114 :     }

	add	esp, 4
	cmp	ebp, esp
	call	__RTC_CheckEsp
	mov	esp, ebp
	pop	ebp
	ret	4
?end@?$list@PAV?$Goal@VRaven_Bot@@@@V?$allocator@PAV?$Goal@VRaven_Bot@@@@@std@@@std@@QAE?AV?$_List_iterator@V?$_List_val@U?$_List_simple_types@PAV?$Goal@VRaven_Bot@@@@@std@@@std@@@2@XZ ENDP ; std::list<Goal<Raven_Bot> *,std::allocator<Goal<Raven_Bot> *> >::end
_TEXT	ENDS
; Function compile flags: /Odtp /RTCsu
; File C:\Program Files\Microsoft Visual Studio\2022\Community\VC\Tools\MSVC\14.44.35207\include\list
;	COMDAT ?begin@?$list@PAV?$Goal@VRaven_Bot@@@@V?$allocator@PAV?$Goal@VRaven_Bot@@@@@std@@@std@@QBE?AV?$_List_const_iterator@V?$_List_val@U?$_List_simple_types@PAV?$Goal@VRaven_Bot@@@@@std@@@std@@@2@XZ
_TEXT	SEGMENT
_this$ = -4						; size = 4
___$ReturnUdt$ = 8					; size = 4
?begin@?$list@PAV?$Goal@VRaven_Bot@@@@V?$allocator@PAV?$Goal@VRaven_Bot@@@@@std@@@std@@QBE?AV?$_List_const_iterator@V?$_List_val@U?$_List_simple_types@PAV?$Goal@VRaven_Bot@@@@@std@@@std@@@2@XZ PROC ; std::list<Goal<Raven_Bot> *,std::allocator<Goal<Raven_Bot> *> >::begin, COMDAT
; _this$ = ecx

; 1108 :     _NODISCARD const_iterator begin() const noexcept {

	push	ebp
	mov	ebp, esp
	push	ecx
	mov	DWORD PTR [ebp-4], -858993460		; ccccccccH
	mov	DWORD PTR _this$[ebp], ecx

; 1109 :         return const_iterator(_Mypair._Myval2._Myhead->_Next, _STD addressof(_Mypair._Myval2));

	mov	eax, DWORD PTR _this$[ebp]
	push	eax
	call	??$addressof@$$CBV?$_List_val@U?$_List_simple_types@PAV?$Goal@VRaven_Bot@@@@@std@@@std@@@std@@YAPBV?$_List_val@U?$_List_simple_types@PAV?$Goal@VRaven_Bot@@@@@std@@@0@ABV10@@Z ; std::addressof<std::_List_val<std::_List_simple_types<Goal<Raven_Bot> *> > const >
	add	esp, 4
	push	eax
	mov	ecx, DWORD PTR _this$[ebp]
	mov	edx, DWORD PTR [ecx+4]
	mov	eax, DWORD PTR [edx]
	push	eax
	mov	ecx, DWORD PTR ___$ReturnUdt$[ebp]
	call	??0?$_List_const_iterator@V?$_List_val@U?$_List_simple_types@PAV?$Goal@VRaven_Bot@@@@@std@@@std@@@std@@QAE@PAU?$_List_node@PAV?$Goal@VRaven_Bot@@@@PAX@1@PBV?$_List_val@U?$_List_simple_types@PAV?$Goal@VRaven_Bot@@@@@std@@@1@@Z
	mov	eax, DWORD PTR ___$ReturnUdt$[ebp]

; 1110 :     }

	add	esp, 4
	cmp	ebp, esp
	call	__RTC_CheckEsp
	mov	esp, ebp
	pop	ebp
	ret	4
?begin@?$list@PAV?$Goal@VRaven_Bot@@@@V?$allocator@PAV?$Goal@VRaven_Bot@@@@@std@@@std@@QBE?AV?$_List_const_iterator@V?$_List_val@U?$_List_simple_types@PAV?$Goal@VRaven_Bot@@@@@std@@@std@@@2@XZ ENDP ; std::list<Goal<Raven_Bot> *,std::allocator<Goal<Raven_Bot> *> >::begin
_TEXT	ENDS
; Function compile flags: /Odtp /RTCsu
; File C:\Program Files\Microsoft Visual Studio\2022\Community\VC\Tools\MSVC\14.44.35207\include\list
;	COMDAT ?begin@?$list@PAV?$Goal@VRaven_Bot@@@@V?$allocator@PAV?$Goal@VRaven_Bot@@@@@std@@@std@@QAE?AV?$_List_iterator@V?$_List_val@U?$_List_simple_types@PAV?$Goal@VRaven_Bot@@@@@std@@@std@@@2@XZ
_TEXT	SEGMENT
_this$ = -4						; size = 4
___$ReturnUdt$ = 8					; size = 4
?begin@?$list@PAV?$Goal@VRaven_Bot@@@@V?$allocator@PAV?$Goal@VRaven_Bot@@@@@std@@@std@@QAE?AV?$_List_iterator@V?$_List_val@U?$_List_simple_types@PAV?$Goal@VRaven_Bot@@@@@std@@@std@@@2@XZ PROC ; std::list<Goal<Raven_Bot> *,std::allocator<Goal<Raven_Bot> *> >::begin, COMDAT
; _this$ = ecx

; 1104 :     _NODISCARD iterator begin() noexcept {

	push	ebp
	mov	ebp, esp
	push	ecx
	mov	DWORD PTR [ebp-4], -858993460		; ccccccccH
	mov	DWORD PTR _this$[ebp], ecx

; 1105 :         return iterator(_Mypair._Myval2._Myhead->_Next, _STD addressof(_Mypair._Myval2));

	mov	eax, DWORD PTR _this$[ebp]
	push	eax
	call	??$addressof@V?$_List_val@U?$_List_simple_types@PAV?$Goal@VRaven_Bot@@@@@std@@@std@@@std@@YAPAV?$_List_val@U?$_List_simple_types@PAV?$Goal@VRaven_Bot@@@@@std@@@0@AAV10@@Z ; std::addressof<std::_List_val<std::_List_simple_types<Goal<Raven_Bot> *> > >
	add	esp, 4
	push	eax
	mov	ecx, DWORD PTR _this$[ebp]
	mov	edx, DWORD PTR [ecx+4]
	mov	eax, DWORD PTR [edx]
	push	eax
	mov	ecx, DWORD PTR ___$ReturnUdt$[ebp]
	call	??0?$_List_iterator@V?$_List_val@U?$_List_simple_types@PAV?$Goal@VRaven_Bot@@@@@std@@@std@@@std@@QAE@PAU?$_List_node@PAV?$Goal@VRaven_Bot@@@@PAX@1@PBV?$_List_val@U?$_List_simple_types@PAV?$Goal@VRaven_Bot@@@@@std@@@1@@Z
	mov	eax, DWORD PTR ___$ReturnUdt$[ebp]

; 1106 :     }

	add	esp, 4
	cmp	ebp, esp
	call	__RTC_CheckEsp
	mov	esp, ebp
	pop	ebp
	ret	4
?begin@?$list@PAV?$Goal@VRaven_Bot@@@@V?$allocator@PAV?$Goal@VRaven_Bot@@@@@std@@@std@@QAE?AV?$_List_iterator@V?$_List_val@U?$_List_simple_types@PAV?$Goal@VRaven_Bot@@@@@std@@@std@@@2@XZ ENDP ; std::list<Goal<Raven_Bot> *,std::allocator<Goal<Raven_Bot> *> >::begin
_TEXT	ENDS
; Function compile flags: /Odtp /RTCsu
; File C:\Program Files\Microsoft Visual Studio\2022\Community\VC\Tools\MSVC\14.44.35207\include\list
;	COMDAT ??1?$list@PAV?$Goal@VRaven_Bot@@@@V?$allocator@PAV?$Goal@VRaven_Bot@@@@@std@@@std@@QAE@XZ
_TEXT	SEGMENT
_$S14$ = -13						; size = 1
__Alproxy$ = -8						; size = 4
_this$ = -4						; size = 4
??1?$list@PAV?$Goal@VRaven_Bot@@@@V?$allocator@PAV?$Goal@VRaven_Bot@@@@@std@@@std@@QAE@XZ PROC ; std::list<Goal<Raven_Bot> *,std::allocator<Goal<Raven_Bot> *> >::~list<Goal<Raven_Bot> *,std::allocator<Goal<Raven_Bot> *> >, COMDAT
; _this$ = ecx

; 1060 :     ~list() noexcept {

	push	ebp
	mov	ebp, esp
	sub	esp, 20					; 00000014H
	mov	eax, -858993460				; ccccccccH
	mov	DWORD PTR [ebp-20], eax
	mov	DWORD PTR [ebp-16], eax
	mov	DWORD PTR [ebp-12], eax
	mov	DWORD PTR [ebp-8], eax
	mov	DWORD PTR [ebp-4], eax
	mov	DWORD PTR _this$[ebp], ecx

; 1061 :         _Tidy();

	mov	ecx, DWORD PTR _this$[ebp]
	call	?_Tidy@?$list@PAV?$Goal@VRaven_Bot@@@@V?$allocator@PAV?$Goal@VRaven_Bot@@@@@std@@@std@@AAEXXZ ; std::list<Goal<Raven_Bot> *,std::allocator<Goal<Raven_Bot> *> >::_Tidy

; 1062 : #if _ITERATOR_DEBUG_LEVEL != 0 // TRANSITION, ABI
; 1063 :         auto&& _Alproxy = _GET_PROXY_ALLOCATOR(_Alnode, _Getal());

	mov	ecx, DWORD PTR _this$[ebp]
	call	?_Getal@?$list@PAV?$Goal@VRaven_Bot@@@@V?$allocator@PAV?$Goal@VRaven_Bot@@@@@std@@@std@@AAEAAV?$allocator@U?$_List_node@PAV?$Goal@VRaven_Bot@@@@PAX@std@@@2@XZ ; std::list<Goal<Raven_Bot> *,std::allocator<Goal<Raven_Bot> *> >::_Getal
	push	eax
	lea	ecx, DWORD PTR _$S14$[ebp]
	call	??$?0U?$_List_node@PAV?$Goal@VRaven_Bot@@@@PAX@std@@@?$allocator@U_Container_proxy@std@@@std@@QAE@ABV?$allocator@U?$_List_node@PAV?$Goal@VRaven_Bot@@@@PAX@std@@@1@@Z ; std::allocator<std::_Container_proxy>::allocator<std::_Container_proxy><std::_List_node<Goal<Raven_Bot> *,void *> >
	lea	eax, DWORD PTR _$S14$[ebp]
	mov	DWORD PTR __Alproxy$[ebp], eax

; 1064 :         _Delete_plain_internal(_Alproxy, _Mypair._Myval2._Myproxy);

	mov	ecx, DWORD PTR _this$[ebp]
	mov	edx, DWORD PTR [ecx]
	push	edx
	mov	eax, DWORD PTR __Alproxy$[ebp]
	push	eax
	call	??$_Delete_plain_internal@V?$allocator@U_Container_proxy@std@@@std@@@std@@YAXAAV?$allocator@U_Container_proxy@std@@@0@QAU_Container_proxy@0@@Z ; std::_Delete_plain_internal<std::allocator<std::_Container_proxy> >
	add	esp, 8

; 1065 : #endif // _ITERATOR_DEBUG_LEVEL != 0
; 1066 :     }

	push	edx
	mov	ecx, ebp
	push	eax
	lea	edx, DWORD PTR $LN6@list
	call	@_RTC_CheckStackVars@8
	pop	eax
	pop	edx
	add	esp, 20					; 00000014H
	cmp	ebp, esp
	call	__RTC_CheckEsp
	mov	esp, ebp
	pop	ebp
	ret	0
	npad	3
$LN6@list:
	DD	1
	DD	$LN5@list
$LN5@list:
	DD	-13					; fffffff3H
	DD	1
	DD	$LN4@list
$LN4@list:
	DB	36					; 00000024H
	DB	83					; 00000053H
	DB	49					; 00000031H
	DB	52					; 00000034H
	DB	0
??1?$list@PAV?$Goal@VRaven_Bot@@@@V?$allocator@PAV?$Goal@VRaven_Bot@@@@@std@@@std@@QAE@XZ ENDP ; std::list<Goal<Raven_Bot> *,std::allocator<Goal<Raven_Bot> *> >::~list<Goal<Raven_Bot> *,std::allocator<Goal<Raven_Bot> *> >
_TEXT	ENDS
; Function compile flags: /Odtp /RTCsu
; File C:\Program Files\Microsoft Visual Studio\2022\Community\VC\Tools\MSVC\14.44.35207\include\list
;	COMDAT ??0?$list@PAV?$Goal@VRaven_Bot@@@@V?$allocator@PAV?$Goal@VRaven_Bot@@@@@std@@@std@@QAE@XZ
_TEXT	SEGMENT
$T1 = -5						; size = 1
_this$ = -4						; size = 4
??0?$list@PAV?$Goal@VRaven_Bot@@@@V?$allocator@PAV?$Goal@VRaven_Bot@@@@@std@@@std@@QAE@XZ PROC ; std::list<Goal<Raven_Bot> *,std::allocator<Goal<Raven_Bot> *> >::list<Goal<Raven_Bot> *,std::allocator<Goal<Raven_Bot> *> >, COMDAT
; _this$ = ecx

; 812  :     list() : _Mypair(_Zero_then_variadic_args_t{}) {

	push	ebp
	mov	ebp, esp
	sub	esp, 8
	mov	DWORD PTR [ebp-8], -858993460		; ccccccccH
	mov	DWORD PTR [ebp-4], -858993460		; ccccccccH
	mov	DWORD PTR _this$[ebp], ecx
	movzx	eax, BYTE PTR $T1[ebp]
	push	eax
	mov	ecx, DWORD PTR _this$[ebp]
	call	??$?0$$V@?$_Compressed_pair@V?$allocator@U?$_List_node@PAV?$Goal@VRaven_Bot@@@@PAX@std@@@std@@V?$_List_val@U?$_List_simple_types@PAV?$Goal@VRaven_Bot@@@@@std@@@2@$00@std@@QAE@U_Zero_then_variadic_args_t@1@@Z ; std::_Compressed_pair<std::allocator<std::_List_node<Goal<Raven_Bot> *,void *> >,std::_List_val<std::_List_simple_types<Goal<Raven_Bot> *> >,1>::_Compressed_pair<std::allocator<std::_List_node<Goal<Raven_Bot> *,void *> >,std::_List_val<std::_List_simple_types<Goal<Raven_Bot> *> >,1><>
	npad	1

; 813  :         _Alloc_sentinel_and_proxy();

	mov	ecx, DWORD PTR _this$[ebp]
	call	?_Alloc_sentinel_and_proxy@?$list@PAV?$Goal@VRaven_Bot@@@@V?$allocator@PAV?$Goal@VRaven_Bot@@@@@std@@@std@@AAEXXZ ; std::list<Goal<Raven_Bot> *,std::allocator<Goal<Raven_Bot> *> >::_Alloc_sentinel_and_proxy
	npad	1

; 814  :     }

	mov	eax, DWORD PTR _this$[ebp]
	add	esp, 8
	cmp	ebp, esp
	call	__RTC_CheckEsp
	mov	esp, ebp
	pop	ebp
	ret	0
??0?$list@PAV?$Goal@VRaven_Bot@@@@V?$allocator@PAV?$Goal@VRaven_Bot@@@@@std@@@std@@QAE@XZ ENDP ; std::list<Goal<Raven_Bot> *,std::allocator<Goal<Raven_Bot> *> >::list<Goal<Raven_Bot> *,std::allocator<Goal<Raven_Bot> *> >
_TEXT	ENDS
; Function compile flags: /Odtp /RTCsu
; File C:\Program Files\Microsoft Visual Studio\2022\Community\VC\Tools\MSVC\14.44.35207\include\xmemory
;	COMDAT ?max_size@?$_Default_allocator_traits@V?$allocator@U?$_List_node@PAV?$Goal@VRaven_Bot@@@@PAX@std@@@std@@@std@@SAIABV?$allocator@U?$_List_node@PAV?$Goal@VRaven_Bot@@@@PAX@std@@@2@@Z
_TEXT	SEGMENT
___formal$ = 8						; size = 4
?max_size@?$_Default_allocator_traits@V?$allocator@U?$_List_node@PAV?$Goal@VRaven_Bot@@@@PAX@std@@@std@@@std@@SAIABV?$allocator@U?$_List_node@PAV?$Goal@VRaven_Bot@@@@PAX@std@@@2@@Z PROC ; std::_Default_allocator_traits<std::allocator<std::_List_node<Goal<Raven_Bot> *,void *> > >::max_size, COMDAT

; 745  :     _NODISCARD static _CONSTEXPR20 size_type max_size(const _Alloc&) noexcept {

	push	ebp
	mov	ebp, esp

; 746  :         return static_cast<size_t>(-1) / sizeof(value_type);

	mov	eax, 357913941				; 15555555H

; 747  :     }

	pop	ebp
	ret	0
?max_size@?$_Default_allocator_traits@V?$allocator@U?$_List_node@PAV?$Goal@VRaven_Bot@@@@PAX@std@@@std@@@std@@SAIABV?$allocator@U?$_List_node@PAV?$Goal@VRaven_Bot@@@@PAX@std@@@2@@Z ENDP ; std::_Default_allocator_traits<std::allocator<std::_List_node<Goal<Raven_Bot> *,void *> > >::max_size
_TEXT	ENDS
; Function compile flags: /Odtp /RTCsu
; File C:\Program Files\Microsoft Visual Studio\2022\Community\VC\Tools\MSVC\14.44.35207\include\xmemory
;	COMDAT ?deallocate@?$_Default_allocator_traits@V?$allocator@U?$_List_node@PAV?$Goal@VRaven_Bot@@@@PAX@std@@@std@@@std@@SAXAAV?$allocator@U?$_List_node@PAV?$Goal@VRaven_Bot@@@@PAX@std@@@2@QAU?$_List_node@PAV?$Goal@VRaven_Bot@@@@PAX@2@I@Z
_TEXT	SEGMENT
__Al$ = 8						; size = 4
__Ptr$ = 12						; size = 4
__Count$ = 16						; size = 4
?deallocate@?$_Default_allocator_traits@V?$allocator@U?$_List_node@PAV?$Goal@VRaven_Bot@@@@PAX@std@@@std@@@std@@SAXAAV?$allocator@U?$_List_node@PAV?$Goal@VRaven_Bot@@@@PAX@std@@@2@QAU?$_List_node@PAV?$Goal@VRaven_Bot@@@@PAX@2@I@Z PROC ; std::_Default_allocator_traits<std::allocator<std::_List_node<Goal<Raven_Bot> *,void *> > >::deallocate, COMDAT

; 714  :     /* strengthened */ {

	push	ebp
	mov	ebp, esp

; 715  :         // no overflow check on the following multiply; we assume _Allocate did that check
; 716  : #if _HAS_CXX20 // TRANSITION, GH-1532
; 717  :         if (_STD is_constant_evaluated()) {
; 718  :             _Al.deallocate(_Ptr, _Count);
; 719  :         } else
; 720  : #endif // _HAS_CXX20
; 721  :         {
; 722  :             (void) _Al;
; 723  :             _STD _Deallocate<_New_alignof<value_type>>(_Ptr, sizeof(value_type) * _Count);

	imul	eax, DWORD PTR __Count$[ebp], 12
	push	eax
	mov	ecx, DWORD PTR __Ptr$[ebp]
	push	ecx
	call	??$_Deallocate@$07@std@@YAXPAXI@Z	; std::_Deallocate<8>
	add	esp, 8

; 724  :         }
; 725  :     }

	cmp	ebp, esp
	call	__RTC_CheckEsp
	pop	ebp
	ret	0
?deallocate@?$_Default_allocator_traits@V?$allocator@U?$_List_node@PAV?$Goal@VRaven_Bot@@@@PAX@std@@@std@@@std@@SAXAAV?$allocator@U?$_List_node@PAV?$Goal@VRaven_Bot@@@@PAX@std@@@2@QAU?$_List_node@PAV?$Goal@VRaven_Bot@@@@PAX@2@I@Z ENDP ; std::_Default_allocator_traits<std::allocator<std::_List_node<Goal<Raven_Bot> *,void *> > >::deallocate
_TEXT	ENDS
; Function compile flags: /Odtp /RTCsu
; File C:\Program Files\Microsoft Visual Studio\2022\Community\VC\Tools\MSVC\14.44.35207\include\xmemory
;	COMDAT ?allocate@?$allocator@U?$_List_node@PAV?$Goal@VRaven_Bot@@@@PAX@std@@@std@@QAEPAU?$_List_node@PAV?$Goal@VRaven_Bot@@@@PAX@2@I@Z
_TEXT	SEGMENT
_this$ = -4						; size = 4
__Count$ = 8						; size = 4
?allocate@?$allocator@U?$_List_node@PAV?$Goal@VRaven_Bot@@@@PAX@std@@@std@@QAEPAU?$_List_node@PAV?$Goal@VRaven_Bot@@@@PAX@2@I@Z PROC ; std::allocator<std::_List_node<Goal<Raven_Bot> *,void *> >::allocate, COMDAT
; _this$ = ecx

; 988  :     _NODISCARD_RAW_PTR_ALLOC _CONSTEXPR20 __declspec(allocator) _Ty* allocate(_CRT_GUARDOVERFLOW const size_t _Count) {

	push	ebp
	mov	ebp, esp
	push	ecx
	mov	DWORD PTR [ebp-4], -858993460		; ccccccccH
	mov	DWORD PTR _this$[ebp], ecx

; 989  :         static_assert(sizeof(value_type) > 0, "value_type must be complete before calling allocate.");
; 990  :         return static_cast<_Ty*>(_STD _Allocate<_New_alignof<_Ty>>(_Get_size_of_n<sizeof(_Ty)>(_Count)));

	mov	eax, DWORD PTR __Count$[ebp]
	push	eax
	call	??$_Get_size_of_n@$0M@@std@@YAII@Z	; std::_Get_size_of_n<12>
	add	esp, 4
	push	eax
	call	??$_Allocate@$07U_Default_allocate_traits@std@@@std@@YAPAXI@Z ; std::_Allocate<8,std::_Default_allocate_traits>
	add	esp, 4

; 991  :     }

	add	esp, 4
	cmp	ebp, esp
	call	__RTC_CheckEsp
	mov	esp, ebp
	pop	ebp
	ret	4
?allocate@?$allocator@U?$_List_node@PAV?$Goal@VRaven_Bot@@@@PAX@std@@@std@@QAEPAU?$_List_node@PAV?$Goal@VRaven_Bot@@@@PAX@2@I@Z ENDP ; std::allocator<std::_List_node<Goal<Raven_Bot> *,void *> >::allocate
_TEXT	ENDS
; Function compile flags: /Odtp /RTCsu
; File C:\Program Files\Microsoft Visual Studio\2022\Community\VC\Tools\MSVC\14.44.35207\include\xmemory
;	COMDAT ?deallocate@?$allocator@U?$_List_node@PAV?$Goal@VRaven_Bot@@@@PAX@std@@@std@@QAEXQAU?$_List_node@PAV?$Goal@VRaven_Bot@@@@PAX@2@I@Z
_TEXT	SEGMENT
_this$ = -4						; size = 4
__Ptr$ = 8						; size = 4
__Count$ = 12						; size = 4
?deallocate@?$allocator@U?$_List_node@PAV?$Goal@VRaven_Bot@@@@PAX@std@@@std@@QAEXQAU?$_List_node@PAV?$Goal@VRaven_Bot@@@@PAX@2@I@Z PROC ; std::allocator<std::_List_node<Goal<Raven_Bot> *,void *> >::deallocate, COMDAT
; _this$ = ecx

; 982  :     _CONSTEXPR20 void deallocate(_Ty* const _Ptr, const size_t _Count) noexcept /* strengthened */ {

	push	ebp
	mov	ebp, esp
	push	ecx
	mov	DWORD PTR [ebp-4], -858993460		; ccccccccH
	mov	DWORD PTR _this$[ebp], ecx

; 983  :         _STL_ASSERT(_Ptr != nullptr || _Count == 0, "null pointer cannot point to a block of non-zero size");

	cmp	DWORD PTR __Ptr$[ebp], 0
	jne	SHORT $LN2@deallocate
	cmp	DWORD PTR __Count$[ebp], 0
	je	SHORT $LN2@deallocate
	push	OFFSET ??_C@_0DG@KGHKKGBC@null?5pointer?5cannot?5point?5to?5a?5@
	push	OFFSET ??_C@_02DKCKIIND@?$CFs@
	push	0
	push	983					; 000003d7H
	push	OFFSET ??_C@_0GC@KLECFGLI@C?3?2Program?5Files?2Microsoft?5Visu@
	push	2
	call	__CrtDbgReport
	add	esp, 24					; 00000018H
	cmp	eax, 1
	jne	SHORT $LN4@deallocate
	int	3
$LN4@deallocate:
	push	0
	push	0
	push	0
	push	0
	push	0
	call	__invoke_watson
	npad	1
$LN2@deallocate:

; 984  :         // no overflow check on the following multiply; we assume _Allocate did that check
; 985  :         _STD _Deallocate<_New_alignof<_Ty>>(_Ptr, sizeof(_Ty) * _Count);

	imul	ecx, DWORD PTR __Count$[ebp], 12
	push	ecx
	mov	edx, DWORD PTR __Ptr$[ebp]
	push	edx
	call	??$_Deallocate@$07@std@@YAXPAXI@Z	; std::_Deallocate<8>
	add	esp, 8
$LN1@deallocate:

; 986  :     }

	add	esp, 4
	cmp	ebp, esp
	call	__RTC_CheckEsp
	mov	esp, ebp
	pop	ebp
	ret	8
?deallocate@?$allocator@U?$_List_node@PAV?$Goal@VRaven_Bot@@@@PAX@std@@@std@@QAEXQAU?$_List_node@PAV?$Goal@VRaven_Bot@@@@PAX@2@I@Z ENDP ; std::allocator<std::_List_node<Goal<Raven_Bot> *,void *> >::deallocate
_TEXT	ENDS
; Function compile flags: /Odtp /RTCsu
; File C:\Program Files\Microsoft Visual Studio\2022\Community\VC\Tools\MSVC\14.44.35207\include\xmemory
;	COMDAT ??0?$allocator@U?$_List_node@PAV?$Goal@VRaven_Bot@@@@PAX@std@@@std@@QAE@XZ
_TEXT	SEGMENT
_this$ = -4						; size = 4
??0?$allocator@U?$_List_node@PAV?$Goal@VRaven_Bot@@@@PAX@std@@@std@@QAE@XZ PROC ; std::allocator<std::_List_node<Goal<Raven_Bot> *,void *> >::allocator<std::_List_node<Goal<Raven_Bot> *,void *> >, COMDAT
; _this$ = ecx

; 974  :     constexpr allocator() noexcept {}

	push	ebp
	mov	ebp, esp
	push	ecx
	mov	DWORD PTR _this$[ebp], ecx
	mov	eax, DWORD PTR _this$[ebp]
	mov	esp, ebp
	pop	ebp
	ret	0
??0?$allocator@U?$_List_node@PAV?$Goal@VRaven_Bot@@@@PAX@std@@@std@@QAE@XZ ENDP ; std::allocator<std::_List_node<Goal<Raven_Bot> *,void *> >::allocator<std::_List_node<Goal<Raven_Bot> *,void *> >
_TEXT	ENDS
; Function compile flags: /Odtp /RTCsu
;	COMDAT ??_G?$Goal@VRaven_Bot@@@@UAEPAXI@Z
_TEXT	SEGMENT
_this$ = -4						; size = 4
___flags$ = 8						; size = 4
??_G?$Goal@VRaven_Bot@@@@UAEPAXI@Z PROC			; Goal<Raven_Bot>::`scalar deleting destructor', COMDAT
; _this$ = ecx
	push	ebp
	mov	ebp, esp
	push	ecx
	mov	DWORD PTR [ebp-4], -858993460		; ccccccccH
	mov	DWORD PTR _this$[ebp], ecx
	mov	ecx, DWORD PTR _this$[ebp]
	call	??1?$Goal@VRaven_Bot@@@@UAE@XZ		; Goal<Raven_Bot>::~Goal<Raven_Bot>
	mov	eax, DWORD PTR ___flags$[ebp]
	and	eax, 1
	je	SHORT $LN2@scalar
	push	16					; 00000010H
	mov	ecx, DWORD PTR _this$[ebp]
	push	ecx
	call	??3@YAXPAXI@Z				; operator delete
	add	esp, 8
$LN2@scalar:
	mov	eax, DWORD PTR _this$[ebp]
	add	esp, 4
	cmp	ebp, esp
	call	__RTC_CheckEsp
	mov	esp, ebp
	pop	ebp
	ret	4
??_G?$Goal@VRaven_Bot@@@@UAEPAXI@Z ENDP			; Goal<Raven_Bot>::`scalar deleting destructor'
_TEXT	ENDS
; Function compile flags: /Odtp /RTCsu
; File C:\Users\Hamzzi\Desktop\AI_Practice\Source\VS2010\Common\Goals\Goal.h
;	COMDAT ?Render@?$Goal@VRaven_Bot@@@@UAEXXZ
_TEXT	SEGMENT
_this$ = -4						; size = 4
?Render@?$Goal@VRaven_Bot@@@@UAEXXZ PROC		; Goal<Raven_Bot>::Render, COMDAT
; _this$ = ecx

; 93   :   virtual void Render(){}

	push	ebp
	mov	ebp, esp
	push	ecx
	mov	DWORD PTR _this$[ebp], ecx
	mov	esp, ebp
	pop	ebp
	ret	0
?Render@?$Goal@VRaven_Bot@@@@UAEXXZ ENDP		; Goal<Raven_Bot>::Render
_TEXT	ENDS
; Function compile flags: /Odtp /RTCsu
; File C:\Users\Hamzzi\Desktop\AI_Practice\Source\VS2010\Common\Goals\Goal.h
;	COMDAT ?RenderAtPos@?$Goal@VRaven_Bot@@@@UBEXAAUVector2D@@PAVTypeToString@@@Z
_TEXT	SEGMENT
tv155 = -56						; size = 4
tv156 = -52						; size = 4
$T2 = -48						; size = 28
_this$ = -20						; size = 4
__$ArrayPad$ = -16					; size = 4
__$EHRec$ = -12						; size = 12
_pos$ = 8						; size = 4
_tts$ = 12						; size = 4
?RenderAtPos@?$Goal@VRaven_Bot@@@@UBEXAAUVector2D@@PAVTypeToString@@@Z PROC ; Goal<Raven_Bot>::RenderAtPos, COMDAT
; _this$ = ecx

; 123  : {

	push	ebp
	mov	ebp, esp
	push	-1
	push	__ehhandler$?RenderAtPos@?$Goal@VRaven_Bot@@@@UBEXAAUVector2D@@PAVTypeToString@@@Z
	mov	eax, DWORD PTR fs:0
	push	eax
	sub	esp, 44					; 0000002cH
	push	esi
	push	edi
	push	ecx
	lea	edi, DWORD PTR [ebp-56]
	mov	ecx, 11					; 0000000bH
	mov	eax, -858993460				; ccccccccH
	rep stosd
	pop	ecx
	mov	eax, DWORD PTR ___security_cookie
	xor	eax, ebp
	mov	DWORD PTR __$ArrayPad$[ebp], eax
	push	eax
	lea	eax, DWORD PTR __$EHRec$[ebp]
	mov	DWORD PTR fs:0, eax
	mov	DWORD PTR _this$[ebp], ecx

; 124  :   pos.y += 15;

	mov	eax, DWORD PTR _pos$[ebp]
	movsd	xmm0, QWORD PTR [eax+8]
	addsd	xmm0, QWORD PTR __real@402e000000000000
	mov	ecx, DWORD PTR _pos$[ebp]
	movsd	QWORD PTR [ecx+8], xmm0

; 125  :   gdi->TransparentText();

	call	?Instance@Cgdi@@SAPAV1@XZ		; Cgdi::Instance
	mov	ecx, eax
	call	?TransparentText@Cgdi@@QAEXXZ		; Cgdi::TransparentText
	npad	1

; 126  :   if (isComplete()) gdi->TextColor(0,255,0);

	mov	ecx, DWORD PTR _this$[ebp]
	call	?isComplete@?$Goal@VRaven_Bot@@@@QBE_NXZ ; Goal<Raven_Bot>::isComplete
	movzx	edx, al
	test	edx, edx
	je	SHORT $LN2@RenderAtPo
	push	0
	push	255					; 000000ffH
	push	0
	call	?Instance@Cgdi@@SAPAV1@XZ		; Cgdi::Instance
	mov	ecx, eax
	call	?TextColor@Cgdi@@QAEXHHH@Z		; Cgdi::TextColor
	npad	1
$LN2@RenderAtPo:

; 127  :   if (isInactive()) gdi->TextColor(0,0,0);

	mov	ecx, DWORD PTR _this$[ebp]
	call	?isInactive@?$Goal@VRaven_Bot@@@@QBE_NXZ ; Goal<Raven_Bot>::isInactive
	movzx	eax, al
	test	eax, eax
	je	SHORT $LN3@RenderAtPo
	push	0
	push	0
	push	0
	call	?Instance@Cgdi@@SAPAV1@XZ		; Cgdi::Instance
	mov	ecx, eax
	call	?TextColor@Cgdi@@QAEXHHH@Z		; Cgdi::TextColor
	npad	1
$LN3@RenderAtPo:

; 128  :   if (hasFailed()) gdi->TextColor(255,0,0);

	mov	ecx, DWORD PTR _this$[ebp]
	call	?hasFailed@?$Goal@VRaven_Bot@@@@QBE_NXZ	; Goal<Raven_Bot>::hasFailed
	movzx	ecx, al
	test	ecx, ecx
	je	SHORT $LN4@RenderAtPo
	push	0
	push	0
	push	255					; 000000ffH
	call	?Instance@Cgdi@@SAPAV1@XZ		; Cgdi::Instance
	mov	ecx, eax
	call	?TextColor@Cgdi@@QAEXHHH@Z		; Cgdi::TextColor
	npad	1
$LN4@RenderAtPo:

; 129  :   if (isActive()) gdi->TextColor(0,0,255);

	mov	ecx, DWORD PTR _this$[ebp]
	call	?isActive@?$Goal@VRaven_Bot@@@@QBE_NXZ	; Goal<Raven_Bot>::isActive
	movzx	edx, al
	test	edx, edx
	je	SHORT $LN5@RenderAtPo
	push	255					; 000000ffH
	push	0
	push	0
	call	?Instance@Cgdi@@SAPAV1@XZ		; Cgdi::Instance
	mov	ecx, eax
	call	?TextColor@Cgdi@@QAEXHHH@Z		; Cgdi::TextColor
	npad	1
$LN5@RenderAtPo:

; 130  : 
; 131  :   gdi->TextAtPos(pos.x, pos.y, tts->Convert(GetType())); 

	mov	ecx, DWORD PTR _this$[ebp]
	call	?GetType@?$Goal@VRaven_Bot@@@@QBEHXZ	; Goal<Raven_Bot>::GetType
	mov	esi, esp
	push	eax
	lea	eax, DWORD PTR $T2[ebp]
	push	eax
	mov	ecx, DWORD PTR _tts$[ebp]
	mov	edx, DWORD PTR [ecx]
	mov	ecx, DWORD PTR _tts$[ebp]
	mov	eax, DWORD PTR [edx]
	call	eax
	cmp	esi, esp
	call	__RTC_CheckEsp
	mov	DWORD PTR tv156[ebp], eax
	mov	ecx, DWORD PTR tv156[ebp]
	mov	DWORD PTR tv155[ebp], ecx
	mov	DWORD PTR __$EHRec$[ebp+8], 0
	mov	edx, DWORD PTR tv155[ebp]
	push	edx
	mov	eax, DWORD PTR _pos$[ebp]
	sub	esp, 8
	movsd	xmm0, QWORD PTR [eax+8]
	movsd	QWORD PTR [esp], xmm0
	mov	ecx, DWORD PTR _pos$[ebp]
	sub	esp, 8
	movsd	xmm0, QWORD PTR [ecx]
	movsd	QWORD PTR [esp], xmm0
	call	?Instance@Cgdi@@SAPAV1@XZ		; Cgdi::Instance
	mov	ecx, eax
	call	?TextAtPos@Cgdi@@QAEXNNABV?$basic_string@DU?$char_traits@D@std@@V?$allocator@D@2@@std@@@Z ; Cgdi::TextAtPos
	mov	DWORD PTR __$EHRec$[ebp+8], -1
	lea	ecx, DWORD PTR $T2[ebp]
	call	??1?$basic_string@DU?$char_traits@D@std@@V?$allocator@D@2@@std@@QAE@XZ ; std::basic_string<char,std::char_traits<char>,std::allocator<char> >::~basic_string<char,std::char_traits<char>,std::allocator<char> >
	npad	1

; 132  : }

	mov	ecx, DWORD PTR __$EHRec$[ebp]
	mov	DWORD PTR fs:0, ecx
	pop	ecx
	pop	edi
	pop	esi
	mov	ecx, DWORD PTR __$ArrayPad$[ebp]
	xor	ecx, ebp
	call	@__security_check_cookie@4
	add	esp, 56					; 00000038H
	cmp	ebp, esp
	call	__RTC_CheckEsp
	mov	esp, ebp
	pop	ebp
	ret	8
_TEXT	ENDS
;	COMDAT text$x
text$x	SEGMENT
__unwindfunclet$?RenderAtPos@?$Goal@VRaven_Bot@@@@UBEXAAUVector2D@@PAVTypeToString@@@Z$0:
	lea	ecx, DWORD PTR $T2[ebp]
	jmp	??1?$basic_string@DU?$char_traits@D@std@@V?$allocator@D@2@@std@@QAE@XZ ; std::basic_string<char,std::char_traits<char>,std::allocator<char> >::~basic_string<char,std::char_traits<char>,std::allocator<char> >
	int	3
	int	3
	int	3
	int	3
	int	3
__ehhandler$?RenderAtPos@?$Goal@VRaven_Bot@@@@UBEXAAUVector2D@@PAVTypeToString@@@Z:
	npad	1
	npad	1
	mov	edx, DWORD PTR [esp+8]
	lea	eax, DWORD PTR [edx+12]
	mov	ecx, DWORD PTR [edx-56]
	xor	ecx, eax
	call	@__security_check_cookie@4
	mov	ecx, DWORD PTR [edx-4]
	xor	ecx, eax
	call	@__security_check_cookie@4
	mov	eax, OFFSET __ehfuncinfo$?RenderAtPos@?$Goal@VRaven_Bot@@@@UBEXAAUVector2D@@PAVTypeToString@@@Z
	jmp	___CxxFrameHandler3
text$x	ENDS
?RenderAtPos@?$Goal@VRaven_Bot@@@@UBEXAAUVector2D@@PAVTypeToString@@@Z ENDP ; Goal<Raven_Bot>::RenderAtPos
; Function compile flags: /Odtp /RTCsu
; File C:\Users\Hamzzi\Desktop\AI_Practice\Source\VS2010\Common\Goals\Goal.h
;	COMDAT ?GetType@?$Goal@VRaven_Bot@@@@QBEHXZ
_TEXT	SEGMENT
_this$ = -4						; size = 4
?GetType@?$Goal@VRaven_Bot@@@@QBEHXZ PROC		; Goal<Raven_Bot>::GetType, COMDAT
; _this$ = ecx

; 84   :   int          GetType()const{return m_iType;}

	push	ebp
	mov	ebp, esp
	push	ecx
	mov	DWORD PTR _this$[ebp], ecx
	mov	eax, DWORD PTR _this$[ebp]
	mov	eax, DWORD PTR [eax+4]
	mov	esp, ebp
	pop	ebp
	ret	0
?GetType@?$Goal@VRaven_Bot@@@@QBEHXZ ENDP		; Goal<Raven_Bot>::GetType
_TEXT	ENDS
; Function compile flags: /Odtp /RTCsu
; File C:\Users\Hamzzi\Desktop\AI_Practice\Source\VS2010\Common\Goals\Goal.h
;	COMDAT ?hasFailed@?$Goal@VRaven_Bot@@@@QBE_NXZ
_TEXT	SEGMENT
tv66 = -8						; size = 4
_this$ = -4						; size = 4
?hasFailed@?$Goal@VRaven_Bot@@@@QBE_NXZ PROC		; Goal<Raven_Bot>::hasFailed, COMDAT
; _this$ = ecx

; 83   :   bool         hasFailed()const{return m_iStatus == failed;}

	push	ebp
	mov	ebp, esp
	sub	esp, 8
	mov	DWORD PTR _this$[ebp], ecx
	mov	eax, DWORD PTR _this$[ebp]
	cmp	DWORD PTR [eax+12], 3
	jne	SHORT $LN3@hasFailed
	mov	DWORD PTR tv66[ebp], 1
	jmp	SHORT $LN4@hasFailed
$LN3@hasFailed:
	mov	DWORD PTR tv66[ebp], 0
$LN4@hasFailed:
	movzx	eax, BYTE PTR tv66[ebp]
	mov	esp, ebp
	pop	ebp
	ret	0
?hasFailed@?$Goal@VRaven_Bot@@@@QBE_NXZ ENDP		; Goal<Raven_Bot>::hasFailed
_TEXT	ENDS
; Function compile flags: /Odtp /RTCsu
; File C:\Users\Hamzzi\Desktop\AI_Practice\Source\VS2010\Common\Goals\Goal.h
;	COMDAT ?isInactive@?$Goal@VRaven_Bot@@@@QBE_NXZ
_TEXT	SEGMENT
tv66 = -8						; size = 4
_this$ = -4						; size = 4
?isInactive@?$Goal@VRaven_Bot@@@@QBE_NXZ PROC		; Goal<Raven_Bot>::isInactive, COMDAT
; _this$ = ecx

; 82   :   bool         isInactive()const{return m_iStatus == inactive;}

	push	ebp
	mov	ebp, esp
	sub	esp, 8
	mov	DWORD PTR _this$[ebp], ecx
	mov	eax, DWORD PTR _this$[ebp]
	cmp	DWORD PTR [eax+12], 1
	jne	SHORT $LN3@isInactive
	mov	DWORD PTR tv66[ebp], 1
	jmp	SHORT $LN4@isInactive
$LN3@isInactive:
	mov	DWORD PTR tv66[ebp], 0
$LN4@isInactive:
	movzx	eax, BYTE PTR tv66[ebp]
	mov	esp, ebp
	pop	ebp
	ret	0
?isInactive@?$Goal@VRaven_Bot@@@@QBE_NXZ ENDP		; Goal<Raven_Bot>::isInactive
_TEXT	ENDS
; Function compile flags: /Odtp /RTCsu
; File C:\Users\Hamzzi\Desktop\AI_Practice\Source\VS2010\Common\Goals\Goal.h
;	COMDAT ?isActive@?$Goal@VRaven_Bot@@@@QBE_NXZ
_TEXT	SEGMENT
tv66 = -8						; size = 4
_this$ = -4						; size = 4
?isActive@?$Goal@VRaven_Bot@@@@QBE_NXZ PROC		; Goal<Raven_Bot>::isActive, COMDAT
; _this$ = ecx

; 81   :   bool         isActive()const{return m_iStatus == active;}

	push	ebp
	mov	ebp, esp
	sub	esp, 8
	mov	DWORD PTR _this$[ebp], ecx
	mov	eax, DWORD PTR _this$[ebp]
	cmp	DWORD PTR [eax+12], 0
	jne	SHORT $LN3@isActive
	mov	DWORD PTR tv66[ebp], 1
	jmp	SHORT $LN4@isActive
$LN3@isActive:
	mov	DWORD PTR tv66[ebp], 0
$LN4@isActive:
	movzx	eax, BYTE PTR tv66[ebp]
	mov	esp, ebp
	pop	ebp
	ret	0
?isActive@?$Goal@VRaven_Bot@@@@QBE_NXZ ENDP		; Goal<Raven_Bot>::isActive
_TEXT	ENDS
; Function compile flags: /Odtp /RTCsu
; File C:\Users\Hamzzi\Desktop\AI_Practice\Source\VS2010\Common\Goals\Goal.h
;	COMDAT ?isComplete@?$Goal@VRaven_Bot@@@@QBE_NXZ
_TEXT	SEGMENT
tv66 = -8						; size = 4
_this$ = -4						; size = 4
?isComplete@?$Goal@VRaven_Bot@@@@QBE_NXZ PROC		; Goal<Raven_Bot>::isComplete, COMDAT
; _this$ = ecx

; 80   :   bool         isComplete()const{return m_iStatus == completed;} 

	push	ebp
	mov	ebp, esp
	sub	esp, 8
	mov	DWORD PTR _this$[ebp], ecx
	mov	eax, DWORD PTR _this$[ebp]
	cmp	DWORD PTR [eax+12], 2
	jne	SHORT $LN3@isComplete
	mov	DWORD PTR tv66[ebp], 1
	jmp	SHORT $LN4@isComplete
$LN3@isComplete:
	mov	DWORD PTR tv66[ebp], 0
$LN4@isComplete:
	movzx	eax, BYTE PTR tv66[ebp]
	mov	esp, ebp
	pop	ebp
	ret	0
?isComplete@?$Goal@VRaven_Bot@@@@QBE_NXZ ENDP		; Goal<Raven_Bot>::isComplete
_TEXT	ENDS
; Function compile flags: /Odtp /RTCsu
; File C:\Users\Hamzzi\Desktop\AI_Practice\Source\VS2010\Common\Goals\Goal.h
;	COMDAT ?AddSubgoal@?$Goal@VRaven_Bot@@@@UAEXPAV1@@Z
_TEXT	SEGMENT
$T1 = -16						; size = 12
_this$ = -4						; size = 4
_g$ = 8							; size = 4
?AddSubgoal@?$Goal@VRaven_Bot@@@@UAEXPAV1@@Z PROC	; Goal<Raven_Bot>::AddSubgoal, COMDAT
; _this$ = ecx

; 77   :   {throw std::runtime_error("Cannot add goals to atomic goals");}

	push	ebp
	mov	ebp, esp
	sub	esp, 16					; 00000010H
	mov	eax, -858993460				; ccccccccH
	mov	DWORD PTR [ebp-16], eax
	mov	DWORD PTR [ebp-12], eax
	mov	DWORD PTR [ebp-8], eax
	mov	DWORD PTR [ebp-4], eax
	mov	DWORD PTR _this$[ebp], ecx
	push	OFFSET ??_C@_0CB@OHIHCHGJ@Cannot?5add?5goals?5to?5atomic?5goal@
	lea	ecx, DWORD PTR $T1[ebp]
	call	??0runtime_error@std@@QAE@PBD@Z		; std::runtime_error::runtime_error
	push	OFFSET __TI2?AVruntime_error@std@@
	lea	eax, DWORD PTR $T1[ebp]
	push	eax
	call	__CxxThrowException@8
	npad	1
$LN1@AddSubgoal:
	add	esp, 16					; 00000010H
	cmp	ebp, esp
	call	__RTC_CheckEsp
	mov	esp, ebp
	pop	ebp
	ret	4
?AddSubgoal@?$Goal@VRaven_Bot@@@@UAEXPAV1@@Z ENDP	; Goal<Raven_Bot>::AddSubgoal
_TEXT	ENDS
; Function compile flags: /Odtp /RTCsu
; File C:\Users\Hamzzi\Desktop\AI_Practice\Source\VS2010\Common\Goals\Goal.h
;	COMDAT ?HandleMessage@?$Goal@VRaven_Bot@@@@UAE_NABUTelegram@@@Z
_TEXT	SEGMENT
_this$ = -4						; size = 4
_msg$ = 8						; size = 4
?HandleMessage@?$Goal@VRaven_Bot@@@@UAE_NABUTelegram@@@Z PROC ; Goal<Raven_Bot>::HandleMessage, COMDAT
; _this$ = ecx

; 70   :   virtual bool HandleMessage(const Telegram& msg){return false;}

	push	ebp
	mov	ebp, esp
	push	ecx
	mov	DWORD PTR _this$[ebp], ecx
	xor	al, al
	mov	esp, ebp
	pop	ebp
	ret	4
?HandleMessage@?$Goal@VRaven_Bot@@@@UAE_NABUTelegram@@@Z ENDP ; Goal<Raven_Bot>::HandleMessage
_TEXT	ENDS
; Function compile flags: /Odtp /RTCsu
; File C:\Users\Hamzzi\Desktop\AI_Practice\Source\VS2010\Common\Goals\Goal.h
;	COMDAT ??1?$Goal@VRaven_Bot@@@@UAE@XZ
_TEXT	SEGMENT
_this$ = -4						; size = 4
??1?$Goal@VRaven_Bot@@@@UAE@XZ PROC			; Goal<Raven_Bot>::~Goal<Raven_Bot>, COMDAT
; _this$ = ecx

; 56   :   virtual ~Goal(){}

	push	ebp
	mov	ebp, esp
	push	ecx
	mov	DWORD PTR _this$[ebp], ecx
	mov	eax, DWORD PTR _this$[ebp]
	mov	DWORD PTR [eax], OFFSET ??_7?$Goal@VRaven_Bot@@@@6B@
	mov	esp, ebp
	pop	ebp
	ret	0
??1?$Goal@VRaven_Bot@@@@UAE@XZ ENDP			; Goal<Raven_Bot>::~Goal<Raven_Bot>
_TEXT	ENDS
; Function compile flags: /Odtp /RTCsu
; File C:\Users\Hamzzi\Desktop\AI_Practice\Source\VS2010\Common\Goals\Goal.h
;	COMDAT ??0?$Goal@VRaven_Bot@@@@QAE@PAVRaven_Bot@@H@Z
_TEXT	SEGMENT
_this$ = -4						; size = 4
_pE$ = 8						; size = 4
_type$ = 12						; size = 4
??0?$Goal@VRaven_Bot@@@@QAE@PAVRaven_Bot@@H@Z PROC	; Goal<Raven_Bot>::Goal<Raven_Bot>, COMDAT
; _this$ = ecx

; 54   :   {}

	push	ebp
	mov	ebp, esp
	push	ecx
	mov	DWORD PTR _this$[ebp], ecx
	mov	eax, DWORD PTR _this$[ebp]
	mov	DWORD PTR [eax], OFFSET ??_7?$Goal@VRaven_Bot@@@@6B@

; 51   :   Goal(entity_type*  pE, int type):m_iType(type),

	mov	ecx, DWORD PTR _this$[ebp]
	mov	edx, DWORD PTR _type$[ebp]
	mov	DWORD PTR [ecx+4], edx

; 52   :                                    m_pOwner(pE),

	mov	eax, DWORD PTR _this$[ebp]
	mov	ecx, DWORD PTR _pE$[ebp]
	mov	DWORD PTR [eax+8], ecx

; 53   :                                    m_iStatus(inactive)

	mov	edx, DWORD PTR _this$[ebp]
	mov	DWORD PTR [edx+12], 1

; 54   :   {}

	mov	eax, DWORD PTR _this$[ebp]
	mov	esp, ebp
	pop	ebp
	ret	8
??0?$Goal@VRaven_Bot@@@@QAE@PAVRaven_Bot@@H@Z ENDP	; Goal<Raven_Bot>::Goal<Raven_Bot>
_TEXT	ENDS
; Function compile flags: /Odtp /RTCsu
; File C:\Users\Hamzzi\Desktop\AI_Practice\Source\VS2010\Common\Goals\Goal.h
;	COMDAT ?ActivateIfInactive@?$Goal@VRaven_Bot@@@@IAEXXZ
_TEXT	SEGMENT
_this$ = -4						; size = 4
?ActivateIfInactive@?$Goal@VRaven_Bot@@@@IAEXXZ PROC	; Goal<Raven_Bot>::ActivateIfInactive, COMDAT
; _this$ = ecx

; 114  : {

	push	ebp
	mov	ebp, esp
	push	ecx
	push	esi
	mov	DWORD PTR [ebp-4], -858993460		; ccccccccH
	mov	DWORD PTR _this$[ebp], ecx

; 115  :   if (isInactive())

	mov	ecx, DWORD PTR _this$[ebp]
	call	?isInactive@?$Goal@VRaven_Bot@@@@QBE_NXZ ; Goal<Raven_Bot>::isInactive
	movzx	eax, al
	test	eax, eax
	je	SHORT $LN2@ActivateIf

; 116  :   {
; 117  :     Activate();   

	mov	ecx, DWORD PTR _this$[ebp]
	mov	edx, DWORD PTR [ecx]
	mov	esi, esp
	mov	ecx, DWORD PTR _this$[ebp]
	mov	eax, DWORD PTR [edx+4]
	call	eax
	cmp	esi, esp
	call	__RTC_CheckEsp
	npad	1
$LN2@ActivateIf:

; 118  :   }
; 119  : }

	pop	esi
	add	esp, 4
	cmp	ebp, esp
	call	__RTC_CheckEsp
	mov	esp, ebp
	pop	ebp
	ret	0
?ActivateIfInactive@?$Goal@VRaven_Bot@@@@IAEXXZ ENDP	; Goal<Raven_Bot>::ActivateIfInactive
_TEXT	ENDS
; Function compile flags: /Odtp /RTCsu
; File C:\Users\Hamzzi\Desktop\AI_Practice\Source\VS2010\Buckland_Chapter7 to 10_Raven\Raven_Bot.h
;	COMDAT ?GetTargetSys@Raven_Bot@@QAEQAVRaven_TargetingSystem@@XZ
_TEXT	SEGMENT
_this$ = -4						; size = 4
?GetTargetSys@Raven_Bot@@QAEQAVRaven_TargetingSystem@@XZ PROC ; Raven_Bot::GetTargetSys, COMDAT
; _this$ = ecx

; 208  :   Raven_TargetingSystem* const       GetTargetSys(){return m_pTargSys;}

	push	ebp
	mov	ebp, esp
	push	ecx
	mov	DWORD PTR _this$[ebp], ecx
	mov	eax, DWORD PTR _this$[ebp]
	mov	eax, DWORD PTR [eax+168]
	mov	esp, ebp
	pop	ebp
	ret	0
?GetTargetSys@Raven_Bot@@QAEQAVRaven_TargetingSystem@@XZ ENDP ; Raven_Bot::GetTargetSys
_TEXT	ENDS
; Function compile flags: /Odtp /RTCsu
; File C:\Users\Hamzzi\Desktop\AI_Practice\Source\VS2010\Buckland_Chapter7 to 10_Raven\Raven_TargetingSystem.h
;	COMDAT ?isTargetPresent@Raven_TargetingSystem@@QBE_NXZ
_TEXT	SEGMENT
tv66 = -8						; size = 4
_this$ = -4						; size = 4
?isTargetPresent@Raven_TargetingSystem@@QBE_NXZ PROC	; Raven_TargetingSystem::isTargetPresent, COMDAT
; _this$ = ecx

; 45   :   bool       isTargetPresent()const{return m_pCurrentTarget != 0;}

	push	ebp
	mov	ebp, esp
	sub	esp, 8
	mov	DWORD PTR _this$[ebp], ecx
	mov	eax, DWORD PTR _this$[ebp]
	cmp	DWORD PTR [eax+4], 0
	je	SHORT $LN3@isTargetPr
	mov	DWORD PTR tv66[ebp], 1
	jmp	SHORT $LN4@isTargetPr
$LN3@isTargetPr:
	mov	DWORD PTR tv66[ebp], 0
$LN4@isTargetPr:
	movzx	eax, BYTE PTR tv66[ebp]
	mov	esp, ebp
	pop	ebp
	ret	0
?isTargetPresent@Raven_TargetingSystem@@QBE_NXZ ENDP	; Raven_TargetingSystem::isTargetPresent
_TEXT	ENDS
; Function compile flags: /Odtp /RTCsu
; File C:\Users\Hamzzi\Desktop\AI_Practice\Source\VS2010\Common\misc\cgdi.h
;	COMDAT ?TextColor@Cgdi@@QAEXHHH@Z
_TEXT	SEGMENT
_this$ = -4						; size = 4
_r$ = 8							; size = 4
_g$ = 12						; size = 4
_b$ = 16						; size = 4
?TextColor@Cgdi@@QAEXHHH@Z PROC				; Cgdi::TextColor, COMDAT
; _this$ = ecx

; 227  :   void TextColor(int r, int g, int b){SetTextColor(m_hdc, RGB(r,g,b));}

	push	ebp
	mov	ebp, esp
	push	ecx
	push	esi
	mov	DWORD PTR [ebp-4], -858993460		; ccccccccH
	mov	DWORD PTR _this$[ebp], ecx
	movzx	eax, BYTE PTR _r$[ebp]
	movzx	ecx, BYTE PTR _g$[ebp]
	shl	ecx, 8
	or	eax, ecx
	movzx	edx, BYTE PTR _b$[ebp]
	shl	edx, 16					; 00000010H
	or	eax, edx
	mov	esi, esp
	push	eax
	mov	eax, DWORD PTR _this$[ebp]
	mov	ecx, DWORD PTR [eax+124]
	push	ecx
	call	DWORD PTR __imp__SetTextColor@8
	cmp	esi, esp
	call	__RTC_CheckEsp
	npad	1
	pop	esi
	add	esp, 4
	cmp	ebp, esp
	call	__RTC_CheckEsp
	mov	esp, ebp
	pop	ebp
	ret	12					; 0000000cH
?TextColor@Cgdi@@QAEXHHH@Z ENDP				; Cgdi::TextColor
_TEXT	ENDS
; Function compile flags: /Odtp /RTCsu
; File C:\Users\Hamzzi\Desktop\AI_Practice\Source\VS2010\Common\misc\cgdi.h
;	COMDAT ?TransparentText@Cgdi@@QAEXXZ
_TEXT	SEGMENT
_this$ = -4						; size = 4
?TransparentText@Cgdi@@QAEXXZ PROC			; Cgdi::TransparentText, COMDAT
; _this$ = ecx

; 222  :   void TransparentText(){SetBkMode(m_hdc, TRANSPARENT);}

	push	ebp
	mov	ebp, esp
	push	ecx
	push	esi
	mov	DWORD PTR [ebp-4], -858993460		; ccccccccH
	mov	DWORD PTR _this$[ebp], ecx
	mov	esi, esp
	push	1
	mov	eax, DWORD PTR _this$[ebp]
	mov	ecx, DWORD PTR [eax+124]
	push	ecx
	call	DWORD PTR __imp__SetBkMode@8
	cmp	esi, esp
	call	__RTC_CheckEsp
	npad	1
	pop	esi
	add	esp, 4
	cmp	ebp, esp
	call	__RTC_CheckEsp
	mov	esp, ebp
	pop	ebp
	ret	0
?TransparentText@Cgdi@@QAEXXZ ENDP			; Cgdi::TransparentText
_TEXT	ENDS
; Function compile flags: /Odtp /RTCsu
; File C:\Users\Hamzzi\Desktop\AI_Practice\Source\VS2010\Common\misc\cgdi.h
;	COMDAT ?TextAtPos@Cgdi@@QAEXNNABV?$basic_string@DU?$char_traits@D@std@@V?$allocator@D@2@@std@@@Z
_TEXT	SEGMENT
_this$ = -4						; size = 4
_x$ = 8							; size = 8
_y$ = 16						; size = 8
_s$ = 24						; size = 4
?TextAtPos@Cgdi@@QAEXNNABV?$basic_string@DU?$char_traits@D@std@@V?$allocator@D@2@@std@@@Z PROC ; Cgdi::TextAtPos, COMDAT
; _this$ = ecx

; 213  :   {

	push	ebp
	mov	ebp, esp
	push	ecx
	push	esi
	mov	DWORD PTR [ebp-4], -858993460		; ccccccccH
	mov	DWORD PTR _this$[ebp], ecx

; 214  :     TextOut(m_hdc, (int)x, (int)y, s.c_str(), (int)s.size());

	mov	ecx, DWORD PTR _s$[ebp]
	call	?size@?$basic_string@DU?$char_traits@D@std@@V?$allocator@D@2@@std@@QBEIXZ ; std::basic_string<char,std::char_traits<char>,std::allocator<char> >::size
	mov	esi, esp
	push	eax
	mov	ecx, DWORD PTR _s$[ebp]
	call	?c_str@?$basic_string@DU?$char_traits@D@std@@V?$allocator@D@2@@std@@QBEPBDXZ ; std::basic_string<char,std::char_traits<char>,std::allocator<char> >::c_str
	push	eax
	cvttsd2si eax, QWORD PTR _y$[ebp]
	push	eax
	cvttsd2si ecx, QWORD PTR _x$[ebp]
	push	ecx
	mov	edx, DWORD PTR _this$[ebp]
	mov	eax, DWORD PTR [edx+124]
	push	eax
	call	DWORD PTR __imp__TextOutA@20
	cmp	esi, esp
	call	__RTC_CheckEsp
	npad	1

; 215  :   }

	pop	esi
	add	esp, 4
	cmp	ebp, esp
	call	__RTC_CheckEsp
	mov	esp, ebp
	pop	ebp
	ret	20					; 00000014H
?TextAtPos@Cgdi@@QAEXNNABV?$basic_string@DU?$char_traits@D@std@@V?$allocator@D@2@@std@@@Z ENDP ; Cgdi::TextAtPos
_TEXT	ENDS
; Function compile flags: /Odtp /RTCsu
; File C:\Users\Hamzzi\Desktop\AI_Practice\Source\VS2010\Common\2D\Vector2D.h
;	COMDAT ?isZero@Vector2D@@QBE_NXZ
_TEXT	SEGMENT
tv72 = -8						; size = 4
_this$ = -4						; size = 4
?isZero@Vector2D@@QBE_NXZ PROC				; Vector2D::isZero, COMDAT
; _this$ = ecx

; 31   :   bool isZero()const{return (x*x + y*y) < MinDouble;}

	push	ebp
	mov	ebp, esp
	sub	esp, 8
	mov	DWORD PTR _this$[ebp], ecx
	mov	eax, DWORD PTR _this$[ebp]
	mov	ecx, DWORD PTR _this$[ebp]
	movsd	xmm0, QWORD PTR [eax]
	mulsd	xmm0, QWORD PTR [ecx]
	mov	edx, DWORD PTR _this$[ebp]
	mov	eax, DWORD PTR _this$[ebp]
	movsd	xmm1, QWORD PTR [edx+8]
	mulsd	xmm1, QWORD PTR [eax+8]
	addsd	xmm0, xmm1
	movsd	xmm1, QWORD PTR __real@0010000000000000
	comisd	xmm1, xmm0
	jbe	SHORT $LN3@isZero
	mov	DWORD PTR tv72[ebp], 1
	jmp	SHORT $LN4@isZero
$LN3@isZero:
	mov	DWORD PTR tv72[ebp], 0
$LN4@isZero:
	movzx	eax, BYTE PTR tv72[ebp]
	mov	esp, ebp
	pop	ebp
	ret	0
?isZero@Vector2D@@QBE_NXZ ENDP				; Vector2D::isZero
_TEXT	ENDS
; Function compile flags: /Odtp /RTCsu
; File C:\Users\Hamzzi\Desktop\AI_Practice\Source\VS2010\Common\2D\Vector2D.h
;	COMDAT ??0Vector2D@@QAE@XZ
_TEXT	SEGMENT
_this$ = -4						; size = 4
??0Vector2D@@QAE@XZ PROC				; Vector2D::Vector2D, COMDAT
; _this$ = ecx

; 24   :   Vector2D():x(0.0),y(0.0){}

	push	ebp
	mov	ebp, esp
	push	ecx
	mov	DWORD PTR _this$[ebp], ecx
	mov	eax, DWORD PTR _this$[ebp]
	xorps	xmm0, xmm0
	movsd	QWORD PTR [eax], xmm0
	mov	ecx, DWORD PTR _this$[ebp]
	xorps	xmm0, xmm0
	movsd	QWORD PTR [ecx+8], xmm0
	mov	eax, DWORD PTR _this$[ebp]
	mov	esp, ebp
	pop	ebp
	ret	0
??0Vector2D@@QAE@XZ ENDP				; Vector2D::Vector2D
_TEXT	ENDS
; Function compile flags: /Odtp /RTCsu
;	COMDAT ??_Gruntime_error@std@@UAEPAXI@Z
_TEXT	SEGMENT
_this$ = -4						; size = 4
___flags$ = 8						; size = 4
??_Gruntime_error@std@@UAEPAXI@Z PROC			; std::runtime_error::`scalar deleting destructor', COMDAT
; _this$ = ecx
	push	ebp
	mov	ebp, esp
	push	ecx
	mov	DWORD PTR [ebp-4], -858993460		; ccccccccH
	mov	DWORD PTR _this$[ebp], ecx
	mov	ecx, DWORD PTR _this$[ebp]
	call	??1runtime_error@std@@UAE@XZ
	mov	eax, DWORD PTR ___flags$[ebp]
	and	eax, 1
	je	SHORT $LN2@scalar
	push	12					; 0000000cH
	mov	ecx, DWORD PTR _this$[ebp]
	push	ecx
	call	??3@YAXPAXI@Z				; operator delete
	add	esp, 8
$LN2@scalar:
	mov	eax, DWORD PTR _this$[ebp]
	add	esp, 4
	cmp	ebp, esp
	call	__RTC_CheckEsp
	mov	esp, ebp
	pop	ebp
	ret	4
??_Gruntime_error@std@@UAEPAXI@Z ENDP			; std::runtime_error::`scalar deleting destructor'
_TEXT	ENDS
; Function compile flags: /Odtp /RTCsu
;	COMDAT ??0runtime_error@std@@QAE@ABV01@@Z
_TEXT	SEGMENT
_this$ = -4						; size = 4
___that$ = 8						; size = 4
??0runtime_error@std@@QAE@ABV01@@Z PROC			; std::runtime_error::runtime_error, COMDAT
; _this$ = ecx
	push	ebp
	mov	ebp, esp
	push	ecx
	mov	DWORD PTR [ebp-4], -858993460		; ccccccccH
	mov	DWORD PTR _this$[ebp], ecx
	mov	eax, DWORD PTR ___that$[ebp]
	push	eax
	mov	ecx, DWORD PTR _this$[ebp]
	call	??0exception@std@@QAE@ABV01@@Z		; std::exception::exception
	mov	ecx, DWORD PTR _this$[ebp]
	mov	DWORD PTR [ecx], OFFSET ??_7runtime_error@std@@6B@
	mov	eax, DWORD PTR _this$[ebp]
	add	esp, 4
	cmp	ebp, esp
	call	__RTC_CheckEsp
	mov	esp, ebp
	pop	ebp
	ret	4
??0runtime_error@std@@QAE@ABV01@@Z ENDP			; std::runtime_error::runtime_error
_TEXT	ENDS
; Function compile flags: /Odtp /RTCsu
;	COMDAT ??1runtime_error@std@@UAE@XZ
_TEXT	SEGMENT
_this$ = -4						; size = 4
??1runtime_error@std@@UAE@XZ PROC			; std::runtime_error::~runtime_error, COMDAT
; _this$ = ecx
	push	ebp
	mov	ebp, esp
	push	ecx
	mov	DWORD PTR [ebp-4], -858993460		; ccccccccH
	mov	DWORD PTR _this$[ebp], ecx
	mov	ecx, DWORD PTR _this$[ebp]
	call	??1exception@std@@UAE@XZ		; std::exception::~exception
	npad	1
	add	esp, 4
	cmp	ebp, esp
	call	__RTC_CheckEsp
	mov	esp, ebp
	pop	ebp
	ret	0
??1runtime_error@std@@UAE@XZ ENDP			; std::runtime_error::~runtime_error
_TEXT	ENDS
; Function compile flags: /Odtp /RTCsu
; File C:\Program Files\Microsoft Visual Studio\2022\Community\VC\Tools\MSVC\14.44.35207\include\stdexcept
;	COMDAT ??0runtime_error@std@@QAE@PBD@Z
_TEXT	SEGMENT
_this$ = -4						; size = 4
__Message$ = 8						; size = 4
??0runtime_error@std@@QAE@PBD@Z PROC			; std::runtime_error::runtime_error, COMDAT
; _this$ = ecx

; 106  :     explicit runtime_error(const char* _Message) : _Mybase(_Message) {}

	push	ebp
	mov	ebp, esp
	push	ecx
	mov	DWORD PTR [ebp-4], -858993460		; ccccccccH
	mov	DWORD PTR _this$[ebp], ecx
	mov	eax, DWORD PTR __Message$[ebp]
	push	eax
	mov	ecx, DWORD PTR _this$[ebp]
	call	??0exception@std@@QAE@QBD@Z		; std::exception::exception
	mov	ecx, DWORD PTR _this$[ebp]
	mov	DWORD PTR [ecx], OFFSET ??_7runtime_error@std@@6B@
	mov	eax, DWORD PTR _this$[ebp]
	add	esp, 4
	cmp	ebp, esp
	call	__RTC_CheckEsp
	mov	esp, ebp
	pop	ebp
	ret	4
??0runtime_error@std@@QAE@PBD@Z ENDP			; std::runtime_error::runtime_error
_TEXT	ENDS
; Function compile flags: /Odtp /RTCsu
;	COMDAT ??1?$_Compressed_pair@V?$allocator@D@std@@V?$_String_val@U?$_Simple_types@D@std@@@2@$00@std@@QAE@XZ
_TEXT	SEGMENT
_this$ = -4						; size = 4
??1?$_Compressed_pair@V?$allocator@D@std@@V?$_String_val@U?$_Simple_types@D@std@@@2@$00@std@@QAE@XZ PROC ; std::_Compressed_pair<std::allocator<char>,std::_String_val<std::_Simple_types<char> >,1>::~_Compressed_pair<std::allocator<char>,std::_String_val<std::_Simple_types<char> >,1>, COMDAT
; _this$ = ecx
	push	ebp
	mov	ebp, esp
	push	ecx
	mov	DWORD PTR [ebp-4], -858993460		; ccccccccH
	mov	DWORD PTR _this$[ebp], ecx
	mov	ecx, DWORD PTR _this$[ebp]
	call	??1?$_String_val@U?$_Simple_types@D@std@@@std@@QAE@XZ
	npad	1
	add	esp, 4
	cmp	ebp, esp
	call	__RTC_CheckEsp
	mov	esp, ebp
	pop	ebp
	ret	0
??1?$_Compressed_pair@V?$allocator@D@std@@V?$_String_val@U?$_Simple_types@D@std@@@2@$00@std@@QAE@XZ ENDP ; std::_Compressed_pair<std::allocator<char>,std::_String_val<std::_Simple_types<char> >,1>::~_Compressed_pair<std::allocator<char>,std::_String_val<std::_Simple_types<char> >,1>
_TEXT	ENDS
; Function compile flags: /Odtp /RTCsu
; File C:\Program Files\Microsoft Visual Studio\2022\Community\VC\Tools\MSVC\14.44.35207\include\xmemory
;	COMDAT ?_Get_first@?$_Compressed_pair@V?$allocator@D@std@@V?$_String_val@U?$_Simple_types@D@std@@@2@$00@std@@QAEAAV?$allocator@D@2@XZ
_TEXT	SEGMENT
_this$ = -4						; size = 4
?_Get_first@?$_Compressed_pair@V?$allocator@D@std@@V?$_String_val@U?$_Simple_types@D@std@@@2@$00@std@@QAEAAV?$allocator@D@2@XZ PROC ; std::_Compressed_pair<std::allocator<char>,std::_String_val<std::_Simple_types<char> >,1>::_Get_first, COMDAT
; _this$ = ecx

; 1538 :     constexpr _Ty1& _Get_first() noexcept {

	push	ebp
	mov	ebp, esp
	push	ecx
	mov	DWORD PTR _this$[ebp], ecx

; 1539 :         return *this;

	mov	eax, DWORD PTR _this$[ebp]

; 1540 :     }

	mov	esp, ebp
	pop	ebp
	ret	0
?_Get_first@?$_Compressed_pair@V?$allocator@D@std@@V?$_String_val@U?$_Simple_types@D@std@@@2@$00@std@@QAEAAV?$allocator@D@2@XZ ENDP ; std::_Compressed_pair<std::allocator<char>,std::_String_val<std::_Simple_types<char> >,1>::_Get_first
_TEXT	ENDS
; Function compile flags: /Odtp /RTCsu
; File C:\Program Files\Microsoft Visual Studio\2022\Community\VC\Tools\MSVC\14.44.35207\include\xstring
;	COMDAT ?_Getal@?$basic_string@DU?$char_traits@D@std@@V?$allocator@D@2@@std@@AAEAAV?$allocator@D@2@XZ
_TEXT	SEGMENT
_this$ = -4						; size = 4
?_Getal@?$basic_string@DU?$char_traits@D@std@@V?$allocator@D@2@@std@@AAEAAV?$allocator@D@2@XZ PROC ; std::basic_string<char,std::char_traits<char>,std::allocator<char> >::_Getal, COMDAT
; _this$ = ecx

; 3106 :     _CONSTEXPR20 _Alty& _Getal() noexcept {

	push	ebp
	mov	ebp, esp
	push	ecx
	mov	DWORD PTR [ebp-4], -858993460		; ccccccccH
	mov	DWORD PTR _this$[ebp], ecx

; 3107 :         return _Mypair._Get_first();

	mov	ecx, DWORD PTR _this$[ebp]
	call	?_Get_first@?$_Compressed_pair@V?$allocator@D@std@@V?$_String_val@U?$_Simple_types@D@std@@@2@$00@std@@QAEAAV?$allocator@D@2@XZ ; std::_Compressed_pair<std::allocator<char>,std::_String_val<std::_Simple_types<char> >,1>::_Get_first

; 3108 :     }

	add	esp, 4
	cmp	ebp, esp
	call	__RTC_CheckEsp
	mov	esp, ebp
	pop	ebp
	ret	0
?_Getal@?$basic_string@DU?$char_traits@D@std@@V?$allocator@D@2@@std@@AAEAAV?$allocator@D@2@XZ ENDP ; std::basic_string<char,std::char_traits<char>,std::allocator<char> >::_Getal
_TEXT	ENDS
; Function compile flags: /Odtp /RTCsu
; File C:\Program Files\Microsoft Visual Studio\2022\Community\VC\Tools\MSVC\14.44.35207\include\xstring
;	COMDAT ?_Tidy_deallocate@?$basic_string@DU?$char_traits@D@std@@V?$allocator@D@2@@std@@AAEXXZ
_TEXT	SEGMENT
$T1 = -13						; size = 1
__Al$2 = -12						; size = 4
__My_data$ = -8						; size = 4
_this$ = -4						; size = 4
?_Tidy_deallocate@?$basic_string@DU?$char_traits@D@std@@V?$allocator@D@2@@std@@AAEXXZ PROC ; std::basic_string<char,std::char_traits<char>,std::allocator<char> >::_Tidy_deallocate, COMDAT
; _this$ = ecx

; 3080 :     _CONSTEXPR20 void _Tidy_deallocate() noexcept { // initialize buffer, deallocating any storage

	push	ebp
	mov	ebp, esp
	sub	esp, 16					; 00000010H
	mov	eax, -858993460				; ccccccccH
	mov	DWORD PTR [ebp-16], eax
	mov	DWORD PTR [ebp-12], eax
	mov	DWORD PTR [ebp-8], eax
	mov	DWORD PTR [ebp-4], eax
	mov	DWORD PTR _this$[ebp], ecx

; 3081 :         auto& _My_data = _Mypair._Myval2;

	mov	eax, DWORD PTR _this$[ebp]
	mov	DWORD PTR __My_data$[ebp], eax

; 3082 :         _My_data._Orphan_all();

	mov	ecx, DWORD PTR __My_data$[ebp]
	call	?_Orphan_all@_Container_base12@std@@QAEXXZ ; std::_Container_base12::_Orphan_all
	npad	1

; 3083 :         if (_My_data._Large_mode_engaged()) {

	mov	ecx, DWORD PTR __My_data$[ebp]
	call	?_Large_mode_engaged@?$_String_val@U?$_Simple_types@D@std@@@std@@QBE_NXZ ; std::_String_val<std::_Simple_types<char> >::_Large_mode_engaged
	movzx	ecx, al
	test	ecx, ecx
	je	SHORT $LN2@Tidy_deall

; 3084 :             _ASAN_STRING_REMOVE(*this);
; 3085 :             auto& _Al = _Getal();

	mov	ecx, DWORD PTR _this$[ebp]
	call	?_Getal@?$basic_string@DU?$char_traits@D@std@@V?$allocator@D@2@@std@@AAEAAV?$allocator@D@2@XZ ; std::basic_string<char,std::char_traits<char>,std::allocator<char> >::_Getal
	mov	DWORD PTR __Al$2[ebp], eax

; 3086 :             _Deallocate_for_capacity(_Al, _My_data._Bx._Ptr, _My_data._Myres);

	mov	edx, DWORD PTR __My_data$[ebp]
	mov	eax, DWORD PTR [edx+24]
	push	eax
	mov	ecx, DWORD PTR __My_data$[ebp]
	mov	edx, DWORD PTR [ecx+4]
	push	edx
	mov	eax, DWORD PTR __Al$2[ebp]
	push	eax
	call	?_Deallocate_for_capacity@?$basic_string@DU?$char_traits@D@std@@V?$allocator@D@2@@std@@CAXAAV?$allocator@D@2@QADI@Z ; std::basic_string<char,std::char_traits<char>,std::allocator<char> >::_Deallocate_for_capacity
	add	esp, 12					; 0000000cH

; 3087 :             _My_data._Bx._Switch_to_buf();

	mov	ecx, DWORD PTR __My_data$[ebp]
	add	ecx, 4
	call	?_Switch_to_buf@_Bxty@?$_String_val@U?$_Simple_types@D@std@@@std@@QAEXXZ ; std::_String_val<std::_Simple_types<char> >::_Bxty::_Switch_to_buf
	npad	1
$LN2@Tidy_deall:

; 3088 :         }
; 3089 : 
; 3090 :         _My_data._Mysize = 0;

	mov	ecx, DWORD PTR __My_data$[ebp]
	mov	DWORD PTR [ecx+20], 0

; 3091 :         _My_data._Myres  = _Small_string_capacity;

	mov	edx, DWORD PTR __My_data$[ebp]
	mov	DWORD PTR [edx+24], 15			; 0000000fH

; 3092 :         // the _Traits::assign is last so the codegen doesn't think the char write can alias this
; 3093 :         _Traits::assign(_My_data._Bx._Buf[0], _Elem());

	mov	BYTE PTR $T1[ebp], 0
	lea	eax, DWORD PTR $T1[ebp]
	push	eax
	mov	ecx, 1
	imul	edx, ecx, 0
	mov	eax, DWORD PTR __My_data$[ebp]
	lea	ecx, DWORD PTR [eax+edx+4]
	push	ecx
	call	?assign@?$_Narrow_char_traits@DH@std@@SAXAADABD@Z ; std::_Narrow_char_traits<char,int>::assign
	add	esp, 8

; 3094 :     }

	add	esp, 16					; 00000010H
	cmp	ebp, esp
	call	__RTC_CheckEsp
	mov	esp, ebp
	pop	ebp
	ret	0
?_Tidy_deallocate@?$basic_string@DU?$char_traits@D@std@@V?$allocator@D@2@@std@@AAEXXZ ENDP ; std::basic_string<char,std::char_traits<char>,std::allocator<char> >::_Tidy_deallocate
_TEXT	ENDS
; Function compile flags: /Odtp /RTCsu
; File C:\Program Files\Microsoft Visual Studio\2022\Community\VC\Tools\MSVC\14.44.35207\include\xstring
;	COMDAT ?size@?$basic_string@DU?$char_traits@D@std@@V?$allocator@D@2@@std@@QBEIXZ
_TEXT	SEGMENT
_this$ = -4						; size = 4
?size@?$basic_string@DU?$char_traits@D@std@@V?$allocator@D@2@@std@@QBEIXZ PROC ; std::basic_string<char,std::char_traits<char>,std::allocator<char> >::size, COMDAT
; _this$ = ecx

; 2373 :     _NODISCARD _CONSTEXPR20 size_type size() const noexcept {

	push	ebp
	mov	ebp, esp
	push	ecx
	mov	DWORD PTR _this$[ebp], ecx

; 2374 :         return _Mypair._Myval2._Mysize;

	mov	eax, DWORD PTR _this$[ebp]
	mov	eax, DWORD PTR [eax+20]

; 2375 :     }

	mov	esp, ebp
	pop	ebp
	ret	0
?size@?$basic_string@DU?$char_traits@D@std@@V?$allocator@D@2@@std@@QBEIXZ ENDP ; std::basic_string<char,std::char_traits<char>,std::allocator<char> >::size
_TEXT	ENDS
; Function compile flags: /Odtp /RTCsu
; File C:\Program Files\Microsoft Visual Studio\2022\Community\VC\Tools\MSVC\14.44.35207\include\xstring
;	COMDAT ?c_str@?$basic_string@DU?$char_traits@D@std@@V?$allocator@D@2@@std@@QBEPBDXZ
_TEXT	SEGMENT
_this$ = -4						; size = 4
?c_str@?$basic_string@DU?$char_traits@D@std@@V?$allocator@D@2@@std@@QBEPBDXZ PROC ; std::basic_string<char,std::char_traits<char>,std::allocator<char> >::c_str, COMDAT
; _this$ = ecx

; 2355 :     _NODISCARD _CONSTEXPR20 _Ret_z_ const _Elem* c_str() const noexcept {

	push	ebp
	mov	ebp, esp
	push	ecx
	mov	DWORD PTR [ebp-4], -858993460		; ccccccccH
	mov	DWORD PTR _this$[ebp], ecx

; 2356 :         return _Mypair._Myval2._Myptr();

	mov	ecx, DWORD PTR _this$[ebp]
	call	?_Myptr@?$_String_val@U?$_Simple_types@D@std@@@std@@QBEPBDXZ ; std::_String_val<std::_Simple_types<char> >::_Myptr

; 2357 :     }

	add	esp, 4
	cmp	ebp, esp
	call	__RTC_CheckEsp
	mov	esp, ebp
	pop	ebp
	ret	0
?c_str@?$basic_string@DU?$char_traits@D@std@@V?$allocator@D@2@@std@@QBEPBDXZ ENDP ; std::basic_string<char,std::char_traits<char>,std::allocator<char> >::c_str
_TEXT	ENDS
; Function compile flags: /Odtp /RTCsu
; File C:\Program Files\Microsoft Visual Studio\2022\Community\VC\Tools\MSVC\14.44.35207\include\xstring
;	COMDAT ??1?$basic_string@DU?$char_traits@D@std@@V?$allocator@D@2@@std@@QAE@XZ
_TEXT	SEGMENT
__To_delete$ = -24					; size = 4
_$S5$ = -13						; size = 1
__Alproxy$ = -8						; size = 4
_this$ = -4						; size = 4
??1?$basic_string@DU?$char_traits@D@std@@V?$allocator@D@2@@std@@QAE@XZ PROC ; std::basic_string<char,std::char_traits<char>,std::allocator<char> >::~basic_string<char,std::char_traits<char>,std::allocator<char> >, COMDAT
; _this$ = ecx

; 1382 :     _CONSTEXPR20 ~basic_string() noexcept {

	push	ebp
	mov	ebp, esp
	sub	esp, 24					; 00000018H
	mov	eax, -858993460				; ccccccccH
	mov	DWORD PTR [ebp-24], eax
	mov	DWORD PTR [ebp-20], eax
	mov	DWORD PTR [ebp-16], eax
	mov	DWORD PTR [ebp-12], eax
	mov	DWORD PTR [ebp-8], eax
	mov	DWORD PTR [ebp-4], eax
	mov	DWORD PTR _this$[ebp], ecx

; 1383 :         _Tidy_deallocate();

	mov	ecx, DWORD PTR _this$[ebp]
	call	?_Tidy_deallocate@?$basic_string@DU?$char_traits@D@std@@V?$allocator@D@2@@std@@AAEXXZ ; std::basic_string<char,std::char_traits<char>,std::allocator<char> >::_Tidy_deallocate

; 1384 : #if _ITERATOR_DEBUG_LEVEL != 0
; 1385 :         auto&& _Alproxy          = _GET_PROXY_ALLOCATOR(_Alty, _Getal());

	mov	ecx, DWORD PTR _this$[ebp]
	call	?_Getal@?$basic_string@DU?$char_traits@D@std@@V?$allocator@D@2@@std@@AAEAAV?$allocator@D@2@XZ ; std::basic_string<char,std::char_traits<char>,std::allocator<char> >::_Getal
	push	eax
	lea	ecx, DWORD PTR _$S5$[ebp]
	call	??$?0D@?$allocator@U_Container_proxy@std@@@std@@QAE@ABV?$allocator@D@1@@Z ; std::allocator<std::_Container_proxy>::allocator<std::_Container_proxy><char>
	lea	eax, DWORD PTR _$S5$[ebp]
	mov	DWORD PTR __Alproxy$[ebp], eax

; 1386 :         const auto _To_delete    = _Mypair._Myval2._Myproxy;

	mov	ecx, DWORD PTR _this$[ebp]
	mov	edx, DWORD PTR [ecx]
	mov	DWORD PTR __To_delete$[ebp], edx

; 1387 :         _Mypair._Myval2._Myproxy = nullptr;

	mov	eax, DWORD PTR _this$[ebp]
	mov	DWORD PTR [eax], 0

; 1388 :         _Delete_plain_internal(_Alproxy, _To_delete);

	mov	ecx, DWORD PTR __To_delete$[ebp]
	push	ecx
	mov	edx, DWORD PTR __Alproxy$[ebp]
	push	edx
	call	??$_Delete_plain_internal@V?$allocator@U_Container_proxy@std@@@std@@@std@@YAXAAV?$allocator@U_Container_proxy@std@@@0@QAU_Container_proxy@0@@Z ; std::_Delete_plain_internal<std::allocator<std::_Container_proxy> >
	add	esp, 8

; 1389 : #endif // _ITERATOR_DEBUG_LEVEL != 0
; 1390 :     }

	mov	ecx, DWORD PTR _this$[ebp]
	call	??1?$_Compressed_pair@V?$allocator@D@std@@V?$_String_val@U?$_Simple_types@D@std@@@2@$00@std@@QAE@XZ
	npad	1
	push	edx
	mov	ecx, ebp
	push	eax
	lea	edx, DWORD PTR $LN6@basic_stri
	call	@_RTC_CheckStackVars@8
	pop	eax
	pop	edx
	add	esp, 24					; 00000018H
	cmp	ebp, esp
	call	__RTC_CheckEsp
	mov	esp, ebp
	pop	ebp
	ret	0
$LN6@basic_stri:
	DD	1
	DD	$LN5@basic_stri
$LN5@basic_stri:
	DD	-13					; fffffff3H
	DD	1
	DD	$LN4@basic_stri
$LN4@basic_stri:
	DB	36					; 00000024H
	DB	83					; 00000053H
	DB	53					; 00000035H
	DB	0
??1?$basic_string@DU?$char_traits@D@std@@V?$allocator@D@2@@std@@QAE@XZ ENDP ; std::basic_string<char,std::char_traits<char>,std::allocator<char> >::~basic_string<char,std::char_traits<char>,std::allocator<char> >
_TEXT	ENDS
; Function compile flags: /Odtp /RTCsu
; File C:\Program Files\Microsoft Visual Studio\2022\Community\VC\Tools\MSVC\14.44.35207\include\xstring
;	COMDAT ?_Deallocate_for_capacity@?$basic_string@DU?$char_traits@D@std@@V?$allocator@D@2@@std@@CAXAAV?$allocator@D@2@QADI@Z
_TEXT	SEGMENT
__Al$ = 8						; size = 4
__Old_ptr$ = 12						; size = 4
__Capacity$ = 16					; size = 4
?_Deallocate_for_capacity@?$basic_string@DU?$char_traits@D@std@@V?$allocator@D@2@@std@@CAXAAV?$allocator@D@2@QADI@Z PROC ; std::basic_string<char,std::char_traits<char>,std::allocator<char> >::_Deallocate_for_capacity, COMDAT

; 850  :         _Alty& _Al, const pointer _Old_ptr, const size_type _Capacity) noexcept {

	push	ebp
	mov	ebp, esp

; 851  :         _STL_INTERNAL_CHECK(_Capacity > _Small_string_capacity);
; 852  :         _Al.deallocate(_Old_ptr, _Capacity + 1); // +1 for null terminator

	mov	eax, DWORD PTR __Capacity$[ebp]
	add	eax, 1
	push	eax
	mov	ecx, DWORD PTR __Old_ptr$[ebp]
	push	ecx
	mov	ecx, DWORD PTR __Al$[ebp]
	call	?deallocate@?$allocator@D@std@@QAEXQADI@Z ; std::allocator<char>::deallocate
	npad	1

; 853  :     }

	cmp	ebp, esp
	call	__RTC_CheckEsp
	pop	ebp
	ret	0
?_Deallocate_for_capacity@?$basic_string@DU?$char_traits@D@std@@V?$allocator@D@2@@std@@CAXAAV?$allocator@D@2@QADI@Z ENDP ; std::basic_string<char,std::char_traits<char>,std::allocator<char> >::_Deallocate_for_capacity
_TEXT	ENDS
; Function compile flags: /Odtp /RTCsu
;	COMDAT ??1?$_String_val@U?$_Simple_types@D@std@@@std@@QAE@XZ
_TEXT	SEGMENT
_this$ = -4						; size = 4
??1?$_String_val@U?$_Simple_types@D@std@@@std@@QAE@XZ PROC ; std::_String_val<std::_Simple_types<char> >::~_String_val<std::_Simple_types<char> >, COMDAT
; _this$ = ecx
	push	ebp
	mov	ebp, esp
	push	ecx
	mov	DWORD PTR [ebp-4], -858993460		; ccccccccH
	mov	DWORD PTR _this$[ebp], ecx
	mov	ecx, DWORD PTR _this$[ebp]
	add	ecx, 4
	call	??1_Bxty@?$_String_val@U?$_Simple_types@D@std@@@std@@QAE@XZ ; std::_String_val<std::_Simple_types<char> >::_Bxty::~_Bxty
	npad	1
	add	esp, 4
	cmp	ebp, esp
	call	__RTC_CheckEsp
	mov	esp, ebp
	pop	ebp
	ret	0
??1?$_String_val@U?$_Simple_types@D@std@@@std@@QAE@XZ ENDP ; std::_String_val<std::_Simple_types<char> >::~_String_val<std::_Simple_types<char> >
_TEXT	ENDS
; Function compile flags: /Odtp /RTCsu
; File C:\Program Files\Microsoft Visual Studio\2022\Community\VC\Tools\MSVC\14.44.35207\include\xstring
;	COMDAT ?_Switch_to_buf@_Bxty@?$_String_val@U?$_Simple_types@D@std@@@std@@QAEXXZ
_TEXT	SEGMENT
_this$ = -4						; size = 4
?_Switch_to_buf@_Bxty@?$_String_val@U?$_Simple_types@D@std@@@std@@QAEXXZ PROC ; std::_String_val<std::_Simple_types<char> >::_Bxty::_Switch_to_buf, COMDAT
; _this$ = ecx

; 500  :         _CONSTEXPR20 void _Switch_to_buf() noexcept {

	push	ebp
	mov	ebp, esp
	push	ecx
	mov	DWORD PTR [ebp-4], -858993460		; ccccccccH
	mov	DWORD PTR _this$[ebp], ecx

; 501  :             _STD _Destroy_in_place(_Ptr);

	mov	eax, DWORD PTR _this$[ebp]
	push	eax
	call	??$_Destroy_in_place@PAD@std@@YAXAAPAD@Z ; std::_Destroy_in_place<char *>
	add	esp, 4

; 502  : 
; 503  : #if _HAS_CXX20
; 504  :             // start the lifetime of the array elements
; 505  :             if (_STD is_constant_evaluated()) {
; 506  :                 for (size_type _Idx = 0; _Idx < _BUF_SIZE; ++_Idx) {
; 507  :                     _Buf[_Idx] = value_type();
; 508  :                 }
; 509  :             }
; 510  : #endif // _HAS_CXX20
; 511  :         }

	add	esp, 4
	cmp	ebp, esp
	call	__RTC_CheckEsp
	mov	esp, ebp
	pop	ebp
	ret	0
?_Switch_to_buf@_Bxty@?$_String_val@U?$_Simple_types@D@std@@@std@@QAEXXZ ENDP ; std::_String_val<std::_Simple_types<char> >::_Bxty::_Switch_to_buf
_TEXT	ENDS
; Function compile flags: /Odtp /RTCsu
; File C:\Program Files\Microsoft Visual Studio\2022\Community\VC\Tools\MSVC\14.44.35207\include\xstring
;	COMDAT ??1_Bxty@?$_String_val@U?$_Simple_types@D@std@@@std@@QAE@XZ
_TEXT	SEGMENT
_this$ = -4						; size = 4
??1_Bxty@?$_String_val@U?$_Simple_types@D@std@@@std@@QAE@XZ PROC ; std::_String_val<std::_Simple_types<char> >::_Bxty::~_Bxty, COMDAT
; _this$ = ecx

; 494  :         _CONSTEXPR20 ~_Bxty() noexcept {} // user-provided, for fancy pointers

	push	ebp
	mov	ebp, esp
	push	ecx
	mov	DWORD PTR _this$[ebp], ecx
	mov	esp, ebp
	pop	ebp
	ret	0
??1_Bxty@?$_String_val@U?$_Simple_types@D@std@@@std@@QAE@XZ ENDP ; std::_String_val<std::_Simple_types<char> >::_Bxty::~_Bxty
_TEXT	ENDS
; Function compile flags: /Odtp /RTCsu
; File C:\Program Files\Microsoft Visual Studio\2022\Community\VC\Tools\MSVC\14.44.35207\include\xstring
;	COMDAT ?_Large_mode_engaged@?$_String_val@U?$_Simple_types@D@std@@@std@@QBE_NXZ
_TEXT	SEGMENT
tv66 = -8						; size = 4
_this$ = -4						; size = 4
?_Large_mode_engaged@?$_String_val@U?$_Simple_types@D@std@@@std@@QBE_NXZ PROC ; std::_String_val<std::_Simple_types<char> >::_Large_mode_engaged, COMDAT
; _this$ = ecx

; 452  :     _NODISCARD _CONSTEXPR20 bool _Large_mode_engaged() const noexcept {

	push	ebp
	mov	ebp, esp
	sub	esp, 8
	mov	DWORD PTR _this$[ebp], ecx

; 453  :         return _Myres > _Small_string_capacity;

	mov	eax, DWORD PTR _this$[ebp]
	cmp	DWORD PTR [eax+24], 15			; 0000000fH
	jbe	SHORT $LN3@Large_mode
	mov	DWORD PTR tv66[ebp], 1
	jmp	SHORT $LN4@Large_mode
$LN3@Large_mode:
	mov	DWORD PTR tv66[ebp], 0
$LN4@Large_mode:
	movzx	eax, BYTE PTR tv66[ebp]

; 454  :     }

	mov	esp, ebp
	pop	ebp
	ret	0
?_Large_mode_engaged@?$_String_val@U?$_Simple_types@D@std@@@std@@QBE_NXZ ENDP ; std::_String_val<std::_Simple_types<char> >::_Large_mode_engaged
_TEXT	ENDS
; Function compile flags: /Odtp /RTCsu
; File C:\Program Files\Microsoft Visual Studio\2022\Community\VC\Tools\MSVC\14.44.35207\include\xstring
;	COMDAT ?_Myptr@?$_String_val@U?$_Simple_types@D@std@@@std@@QBEPBDXZ
_TEXT	SEGMENT
__Result$ = -8						; size = 4
_this$ = -4						; size = 4
?_Myptr@?$_String_val@U?$_Simple_types@D@std@@@std@@QBEPBDXZ PROC ; std::_String_val<std::_Simple_types<char> >::_Myptr, COMDAT
; _this$ = ecx

; 443  :     _NODISCARD _CONSTEXPR20 const value_type* _Myptr() const noexcept {

	push	ebp
	mov	ebp, esp
	sub	esp, 8
	mov	DWORD PTR [ebp-8], -858993460		; ccccccccH
	mov	DWORD PTR [ebp-4], -858993460		; ccccccccH
	mov	DWORD PTR _this$[ebp], ecx

; 444  :         const value_type* _Result = _Bx._Buf;

	mov	eax, DWORD PTR _this$[ebp]
	add	eax, 4
	mov	DWORD PTR __Result$[ebp], eax

; 445  :         if (_Large_mode_engaged()) {

	mov	ecx, DWORD PTR _this$[ebp]
	call	?_Large_mode_engaged@?$_String_val@U?$_Simple_types@D@std@@@std@@QBE_NXZ ; std::_String_val<std::_Simple_types<char> >::_Large_mode_engaged
	movzx	ecx, al
	test	ecx, ecx
	je	SHORT $LN2@Myptr

; 446  :             _Result = _Unfancy(_Bx._Ptr);

	mov	edx, DWORD PTR _this$[ebp]
	mov	eax, DWORD PTR [edx+4]
	push	eax
	call	??$_Unfancy@D@std@@YAPADPAD@Z		; std::_Unfancy<char>
	add	esp, 4
	mov	DWORD PTR __Result$[ebp], eax
$LN2@Myptr:

; 447  :         }
; 448  : 
; 449  :         return _Result;

	mov	eax, DWORD PTR __Result$[ebp]

; 450  :     }

	add	esp, 8
	cmp	ebp, esp
	call	__RTC_CheckEsp
	mov	esp, ebp
	pop	ebp
	ret	0
?_Myptr@?$_String_val@U?$_Simple_types@D@std@@@std@@QBEPBDXZ ENDP ; std::_String_val<std::_Simple_types<char> >::_Myptr
_TEXT	ENDS
; Function compile flags: /Odtp /RTCsu
; File C:\Program Files\Microsoft Visual Studio\2022\Community\VC\Tools\MSVC\14.44.35207\include\xmemory
;	COMDAT ?deallocate@?$allocator@D@std@@QAEXQADI@Z
_TEXT	SEGMENT
_this$ = -4						; size = 4
__Ptr$ = 8						; size = 4
__Count$ = 12						; size = 4
?deallocate@?$allocator@D@std@@QAEXQADI@Z PROC		; std::allocator<char>::deallocate, COMDAT
; _this$ = ecx

; 982  :     _CONSTEXPR20 void deallocate(_Ty* const _Ptr, const size_t _Count) noexcept /* strengthened */ {

	push	ebp
	mov	ebp, esp
	push	ecx
	mov	DWORD PTR [ebp-4], -858993460		; ccccccccH
	mov	DWORD PTR _this$[ebp], ecx

; 983  :         _STL_ASSERT(_Ptr != nullptr || _Count == 0, "null pointer cannot point to a block of non-zero size");

	cmp	DWORD PTR __Ptr$[ebp], 0
	jne	SHORT $LN2@deallocate
	cmp	DWORD PTR __Count$[ebp], 0
	je	SHORT $LN2@deallocate
	push	OFFSET ??_C@_0DG@KGHKKGBC@null?5pointer?5cannot?5point?5to?5a?5@
	push	OFFSET ??_C@_02DKCKIIND@?$CFs@
	push	0
	push	983					; 000003d7H
	push	OFFSET ??_C@_0GC@KLECFGLI@C?3?2Program?5Files?2Microsoft?5Visu@
	push	2
	call	__CrtDbgReport
	add	esp, 24					; 00000018H
	cmp	eax, 1
	jne	SHORT $LN4@deallocate
	int	3
$LN4@deallocate:
	push	0
	push	0
	push	0
	push	0
	push	0
	call	__invoke_watson
	npad	1
$LN2@deallocate:

; 984  :         // no overflow check on the following multiply; we assume _Allocate did that check
; 985  :         _STD _Deallocate<_New_alignof<_Ty>>(_Ptr, sizeof(_Ty) * _Count);

	mov	ecx, DWORD PTR __Count$[ebp]
	push	ecx
	mov	edx, DWORD PTR __Ptr$[ebp]
	push	edx
	call	??$_Deallocate@$07@std@@YAXPAXI@Z	; std::_Deallocate<8>
	add	esp, 8
$LN1@deallocate:

; 986  :     }

	add	esp, 4
	cmp	ebp, esp
	call	__RTC_CheckEsp
	mov	esp, ebp
	pop	ebp
	ret	8
?deallocate@?$allocator@D@std@@QAEXQADI@Z ENDP		; std::allocator<char>::deallocate
_TEXT	ENDS
; Function compile flags: /Odtp /RTCsu
; File C:\Program Files\Microsoft Visual Studio\2022\Community\VC\Tools\MSVC\14.44.35207\include\__msvc_string_view.hpp
;	COMDAT ?assign@?$_Narrow_char_traits@DH@std@@SAXAADABD@Z
_TEXT	SEGMENT
__Left$ = 8						; size = 4
__Right$ = 12						; size = 4
?assign@?$_Narrow_char_traits@DH@std@@SAXAADABD@Z PROC	; std::_Narrow_char_traits<char,int>::assign, COMDAT

; 496  :     static _CONSTEXPR17 void assign(_Elem& _Left, const _Elem& _Right) noexcept {

	push	ebp
	mov	ebp, esp

; 497  : #if _HAS_CXX20
; 498  :         if (_STD is_constant_evaluated()) {
; 499  :             return _Primary_char_traits::assign(_Left, _Right);
; 500  :         }
; 501  : #endif // _HAS_CXX20
; 502  :         _Left = _Right;

	mov	eax, DWORD PTR __Left$[ebp]
	mov	ecx, DWORD PTR __Right$[ebp]
	mov	dl, BYTE PTR [ecx]
	mov	BYTE PTR [eax], dl

; 503  :     }

	pop	ebp
	ret	0
?assign@?$_Narrow_char_traits@DH@std@@SAXAADABD@Z ENDP	; std::_Narrow_char_traits<char,int>::assign
_TEXT	ENDS
; Function compile flags: /Odtp /RTCsu
; File C:\Program Files\Microsoft Visual Studio\2022\Community\VC\Tools\MSVC\14.44.35207\include\xmemory
;	COMDAT ??0_Basic_container_proxy_ptr12@std@@IAE@XZ
_TEXT	SEGMENT
_this$ = -4						; size = 4
??0_Basic_container_proxy_ptr12@std@@IAE@XZ PROC	; std::_Basic_container_proxy_ptr12::_Basic_container_proxy_ptr12, COMDAT
; _this$ = ecx

; 1465 :     _CONSTEXPR20 _Basic_container_proxy_ptr12()                       = default;

	push	ebp
	mov	ebp, esp
	push	ecx
	mov	DWORD PTR _this$[ebp], ecx

; 1458 :     _Container_proxy* _Ptr = nullptr;

	mov	eax, DWORD PTR _this$[ebp]
	mov	DWORD PTR [eax], 0

; 1465 :     _CONSTEXPR20 _Basic_container_proxy_ptr12()                       = default;

	mov	eax, DWORD PTR _this$[ebp]
	mov	esp, ebp
	pop	ebp
	ret	0
??0_Basic_container_proxy_ptr12@std@@IAE@XZ ENDP	; std::_Basic_container_proxy_ptr12::_Basic_container_proxy_ptr12
_TEXT	ENDS
; Function compile flags: /Odtp /RTCsu
; File C:\Program Files\Microsoft Visual Studio\2022\Community\VC\Tools\MSVC\14.44.35207\include\xmemory
;	COMDAT ?_Release@_Basic_container_proxy_ptr12@std@@QAEXXZ
_TEXT	SEGMENT
_this$ = -4						; size = 4
?_Release@_Basic_container_proxy_ptr12@std@@QAEXXZ PROC	; std::_Basic_container_proxy_ptr12::_Release, COMDAT
; _this$ = ecx

; 1460 :     constexpr void _Release() noexcept { // disengage this _Basic_container_proxy_ptr12

	push	ebp
	mov	ebp, esp
	push	ecx
	mov	DWORD PTR _this$[ebp], ecx

; 1461 :         _Ptr = nullptr;

	mov	eax, DWORD PTR _this$[ebp]
	mov	DWORD PTR [eax], 0

; 1462 :     }

	mov	esp, ebp
	pop	ebp
	ret	0
?_Release@_Basic_container_proxy_ptr12@std@@QAEXXZ ENDP	; std::_Basic_container_proxy_ptr12::_Release
_TEXT	ENDS
; Function compile flags: /Odtp /RTCsu
; File C:\Program Files\Microsoft Visual Studio\2022\Community\VC\Tools\MSVC\14.44.35207\include\utility
;	COMDAT ??$exchange@PAU_Iterator_base12@std@@$$T@std@@YAPAU_Iterator_base12@0@AAPAU10@$$QA$$T@Z
_TEXT	SEGMENT
__Old_val$ = -4						; size = 4
__Val$ = 8						; size = 4
__New_val$ = 12						; size = 4
??$exchange@PAU_Iterator_base12@std@@$$T@std@@YAPAU_Iterator_base12@0@AAPAU10@$$QA$$T@Z PROC ; std::exchange<std::_Iterator_base12 *,std::nullptr_t>, COMDAT

; 771  :     noexcept(conjunction_v<is_nothrow_move_constructible<_Ty>, is_nothrow_assignable<_Ty&, _Other>>) {

	push	ebp
	mov	ebp, esp
	push	ecx

; 772  :     // assign _New_val to _Val, return previous _Val
; 773  :     _Ty _Old_val = static_cast<_Ty&&>(_Val);

	mov	eax, DWORD PTR __Val$[ebp]
	mov	ecx, DWORD PTR [eax]
	mov	DWORD PTR __Old_val$[ebp], ecx

; 774  :     _Val         = static_cast<_Other&&>(_New_val);

	mov	edx, DWORD PTR __Val$[ebp]
	mov	eax, DWORD PTR __New_val$[ebp]
	mov	ecx, DWORD PTR [eax]
	mov	DWORD PTR [edx], ecx

; 775  :     return _Old_val;

	mov	eax, DWORD PTR __Old_val$[ebp]

; 776  : }

	mov	esp, ebp
	pop	ebp
	ret	0
??$exchange@PAU_Iterator_base12@std@@$$T@std@@YAPAU_Iterator_base12@0@AAPAU10@$$QA$$T@Z ENDP ; std::exchange<std::_Iterator_base12 *,std::nullptr_t>
_TEXT	ENDS
; Function compile flags: /Odtp /RTCsu
; File C:\Program Files\Microsoft Visual Studio\2022\Community\VC\Tools\MSVC\14.44.35207\include\xmemory
;	COMDAT ?_Orphan_me_locked_v3@_Iterator_base12@std@@AAEXXZ
_TEXT	SEGMENT
__Lock$ = -12						; size = 4
_this$ = -4						; size = 4
?_Orphan_me_locked_v3@_Iterator_base12@std@@AAEXXZ PROC	; std::_Iterator_base12::_Orphan_me_locked_v3, COMDAT
; _this$ = ecx

; 1374 :     void _Orphan_me_locked_v3() noexcept {

	push	ebp
	mov	ebp, esp
	sub	esp, 16					; 00000010H
	mov	eax, -858993460				; ccccccccH
	mov	DWORD PTR [ebp-16], eax
	mov	DWORD PTR [ebp-12], eax
	mov	DWORD PTR [ebp-8], eax
	mov	DWORD PTR [ebp-4], eax
	mov	DWORD PTR _this$[ebp], ecx

; 1375 :         _Lockit _Lock(_LOCK_DEBUG);

	push	3
	lea	ecx, DWORD PTR __Lock$[ebp]
	call	??0_Lockit@std@@QAE@H@Z			; std::_Lockit::_Lockit

; 1376 :         _Orphan_me_unlocked_v3();

	mov	ecx, DWORD PTR _this$[ebp]
	call	?_Orphan_me_unlocked_v3@_Iterator_base12@std@@AAEXXZ ; std::_Iterator_base12::_Orphan_me_unlocked_v3

; 1377 :     }

	lea	ecx, DWORD PTR __Lock$[ebp]
	call	??1_Lockit@std@@QAE@XZ			; std::_Lockit::~_Lockit
	npad	1
	push	edx
	mov	ecx, ebp
	push	eax
	lea	edx, DWORD PTR $LN6@Orphan_me_
	call	@_RTC_CheckStackVars@8
	pop	eax
	pop	edx
	add	esp, 16					; 00000010H
	cmp	ebp, esp
	call	__RTC_CheckEsp
	mov	esp, ebp
	pop	ebp
	ret	0
$LN6@Orphan_me_:
	DD	1
	DD	$LN5@Orphan_me_
$LN5@Orphan_me_:
	DD	-12					; fffffff4H
	DD	4
	DD	$LN4@Orphan_me_
$LN4@Orphan_me_:
	DB	95					; 0000005fH
	DB	76					; 0000004cH
	DB	111					; 0000006fH
	DB	99					; 00000063H
	DB	107					; 0000006bH
	DB	0
?_Orphan_me_locked_v3@_Iterator_base12@std@@AAEXXZ ENDP	; std::_Iterator_base12::_Orphan_me_locked_v3
_TEXT	ENDS
; Function compile flags: /Odtp /RTCsu
; File C:\Program Files\Microsoft Visual Studio\2022\Community\VC\Tools\MSVC\14.44.35207\include\xmemory
;	COMDAT ?_Orphan_me_unlocked_v3@_Iterator_base12@std@@AAEXXZ
_TEXT	SEGMENT
__Pnext$ = -8						; size = 4
_this$ = -4						; size = 4
?_Orphan_me_unlocked_v3@_Iterator_base12@std@@AAEXXZ PROC ; std::_Iterator_base12::_Orphan_me_unlocked_v3, COMDAT
; _this$ = ecx

; 1358 :     _CONSTEXPR20 void _Orphan_me_unlocked_v3() noexcept {

	push	ebp
	mov	ebp, esp
	sub	esp, 8
	mov	DWORD PTR [ebp-8], -858993460		; ccccccccH
	mov	DWORD PTR [ebp-4], -858993460		; ccccccccH
	mov	DWORD PTR _this$[ebp], ecx

; 1359 :         if (!_Myproxy) { // already orphaned

	mov	eax, DWORD PTR _this$[ebp]
	cmp	DWORD PTR [eax], 0
	jne	SHORT $LN4@Orphan_me_

; 1360 :             return;

	jmp	SHORT $LN1@Orphan_me_
$LN4@Orphan_me_:

; 1361 :         }
; 1362 : 
; 1363 :         // adopted, remove self from list
; 1364 :         _Iterator_base12** _Pnext = &_Myproxy->_Myfirstiter;

	mov	ecx, DWORD PTR _this$[ebp]
	mov	edx, DWORD PTR [ecx]
	add	edx, 4
	mov	DWORD PTR __Pnext$[ebp], edx
$LN2@Orphan_me_:

; 1365 :         while (*_Pnext && *_Pnext != this) {

	mov	eax, DWORD PTR __Pnext$[ebp]
	cmp	DWORD PTR [eax], 0
	je	SHORT $LN3@Orphan_me_
	mov	ecx, DWORD PTR __Pnext$[ebp]
	mov	edx, DWORD PTR [ecx]
	cmp	edx, DWORD PTR _this$[ebp]
	je	SHORT $LN3@Orphan_me_

; 1366 :             _Pnext = &(*_Pnext)->_Mynextiter;

	mov	eax, DWORD PTR __Pnext$[ebp]
	mov	ecx, DWORD PTR [eax]
	add	ecx, 4
	mov	DWORD PTR __Pnext$[ebp], ecx

; 1367 :         }

	jmp	SHORT $LN2@Orphan_me_
$LN3@Orphan_me_:

; 1368 : 
; 1369 :         _STL_VERIFY(*_Pnext, "ITERATOR LIST CORRUPTED!");

	mov	edx, DWORD PTR __Pnext$[ebp]
	cmp	DWORD PTR [edx], 0
	jne	SHORT $LN5@Orphan_me_
	push	OFFSET ??_C@_0BJ@LFDBABJJ@ITERATOR?5LIST?5CORRUPTED?$CB@
	push	OFFSET ??_C@_02DKCKIIND@?$CFs@
	push	0
	push	1369					; 00000559H
	push	OFFSET ??_C@_0GC@KLECFGLI@C?3?2Program?5Files?2Microsoft?5Visu@
	push	2
	call	__CrtDbgReport
	add	esp, 24					; 00000018H
	cmp	eax, 1
	jne	SHORT $LN7@Orphan_me_
	int	3
$LN7@Orphan_me_:
	push	0
	push	0
	push	0
	push	0
	push	0
	call	__invoke_watson
	npad	1
$LN5@Orphan_me_:

; 1370 :         *_Pnext  = _Mynextiter;

	mov	ecx, DWORD PTR __Pnext$[ebp]
	mov	edx, DWORD PTR _this$[ebp]
	mov	eax, DWORD PTR [edx+4]
	mov	DWORD PTR [ecx], eax

; 1371 :         _Myproxy = nullptr;

	mov	ecx, DWORD PTR _this$[ebp]
	mov	DWORD PTR [ecx], 0
$LN1@Orphan_me_:

; 1372 :     }

	add	esp, 8
	cmp	ebp, esp
	call	__RTC_CheckEsp
	mov	esp, ebp
	pop	ebp
	ret	0
?_Orphan_me_unlocked_v3@_Iterator_base12@std@@AAEXXZ ENDP ; std::_Iterator_base12::_Orphan_me_unlocked_v3
_TEXT	ENDS
; Function compile flags: /Odtp /RTCsu
; File C:\Program Files\Microsoft Visual Studio\2022\Community\VC\Tools\MSVC\14.44.35207\include\xmemory
;	COMDAT ?_Adopt_locked@_Iterator_base12@std@@AAEXPBU_Container_base12@2@@Z
_TEXT	SEGMENT
__Lock$ = -12						; size = 4
_this$ = -4						; size = 4
__Parent$ = 8						; size = 4
?_Adopt_locked@_Iterator_base12@std@@AAEXPBU_Container_base12@2@@Z PROC ; std::_Iterator_base12::_Adopt_locked, COMDAT
; _this$ = ecx

; 1353 :     void _Adopt_locked(const _Container_base12* _Parent) noexcept {

	push	ebp
	mov	ebp, esp
	sub	esp, 16					; 00000010H
	mov	eax, -858993460				; ccccccccH
	mov	DWORD PTR [ebp-16], eax
	mov	DWORD PTR [ebp-12], eax
	mov	DWORD PTR [ebp-8], eax
	mov	DWORD PTR [ebp-4], eax
	mov	DWORD PTR _this$[ebp], ecx

; 1354 :         _Lockit _Lock(_LOCK_DEBUG);

	push	3
	lea	ecx, DWORD PTR __Lock$[ebp]
	call	??0_Lockit@std@@QAE@H@Z			; std::_Lockit::_Lockit

; 1355 :         _Adopt_unlocked(_Parent);

	mov	eax, DWORD PTR __Parent$[ebp]
	push	eax
	mov	ecx, DWORD PTR _this$[ebp]
	call	?_Adopt_unlocked@_Iterator_base12@std@@AAEXPBU_Container_base12@2@@Z ; std::_Iterator_base12::_Adopt_unlocked

; 1356 :     }

	lea	ecx, DWORD PTR __Lock$[ebp]
	call	??1_Lockit@std@@QAE@XZ			; std::_Lockit::~_Lockit
	npad	1
	push	edx
	mov	ecx, ebp
	push	eax
	lea	edx, DWORD PTR $LN6@Adopt_lock
	call	@_RTC_CheckStackVars@8
	pop	eax
	pop	edx
	add	esp, 16					; 00000010H
	cmp	ebp, esp
	call	__RTC_CheckEsp
	mov	esp, ebp
	pop	ebp
	ret	4
	npad	2
$LN6@Adopt_lock:
	DD	1
	DD	$LN5@Adopt_lock
$LN5@Adopt_lock:
	DD	-12					; fffffff4H
	DD	4
	DD	$LN4@Adopt_lock
$LN4@Adopt_lock:
	DB	95					; 0000005fH
	DB	76					; 0000004cH
	DB	111					; 0000006fH
	DB	99					; 00000063H
	DB	107					; 0000006bH
	DB	0
?_Adopt_locked@_Iterator_base12@std@@AAEXPBU_Container_base12@2@@Z ENDP ; std::_Iterator_base12::_Adopt_locked
_TEXT	ENDS
; Function compile flags: /Odtp /RTCsu
; File C:\Program Files\Microsoft Visual Studio\2022\Community\VC\Tools\MSVC\14.44.35207\include\xmemory
;	COMDAT ?_Adopt_unlocked@_Iterator_base12@std@@AAEXPBU_Container_base12@2@@Z
_TEXT	SEGMENT
__Parent_proxy$ = -8					; size = 4
_this$ = -4						; size = 4
__Parent$ = 8						; size = 4
?_Adopt_unlocked@_Iterator_base12@std@@AAEXPBU_Container_base12@2@@Z PROC ; std::_Iterator_base12::_Adopt_unlocked, COMDAT
; _this$ = ecx

; 1336 :     _CONSTEXPR20 void _Adopt_unlocked(const _Container_base12* _Parent) noexcept {

	push	ebp
	mov	ebp, esp
	sub	esp, 8
	mov	DWORD PTR [ebp-8], -858993460		; ccccccccH
	mov	DWORD PTR [ebp-4], -858993460		; ccccccccH
	mov	DWORD PTR _this$[ebp], ecx

; 1337 :         if (!_Parent) {

	cmp	DWORD PTR __Parent$[ebp], 0
	jne	SHORT $LN2@Adopt_unlo

; 1338 :             _Orphan_me_unlocked_v3();

	mov	ecx, DWORD PTR _this$[ebp]
	call	?_Orphan_me_unlocked_v3@_Iterator_base12@std@@AAEXXZ ; std::_Iterator_base12::_Orphan_me_unlocked_v3
	npad	1

; 1339 :             return;

	jmp	SHORT $LN1@Adopt_unlo
$LN2@Adopt_unlo:

; 1340 :         }
; 1341 : 
; 1342 :         _Container_proxy* _Parent_proxy = _Parent->_Myproxy;

	mov	eax, DWORD PTR __Parent$[ebp]
	mov	ecx, DWORD PTR [eax]
	mov	DWORD PTR __Parent_proxy$[ebp], ecx

; 1343 :         if (_Myproxy != _Parent_proxy) { // change parentage

	mov	edx, DWORD PTR _this$[ebp]
	mov	eax, DWORD PTR [edx]
	cmp	eax, DWORD PTR __Parent_proxy$[ebp]
	je	SHORT $LN3@Adopt_unlo

; 1344 :             if (_Myproxy) { // adopted, remove self from list

	mov	ecx, DWORD PTR _this$[ebp]
	cmp	DWORD PTR [ecx], 0
	je	SHORT $LN4@Adopt_unlo

; 1345 :                 _Orphan_me_unlocked_v3();

	mov	ecx, DWORD PTR _this$[ebp]
	call	?_Orphan_me_unlocked_v3@_Iterator_base12@std@@AAEXXZ ; std::_Iterator_base12::_Orphan_me_unlocked_v3
	npad	1
$LN4@Adopt_unlo:

; 1346 :             }
; 1347 :             _Mynextiter                 = _Parent_proxy->_Myfirstiter;

	mov	edx, DWORD PTR _this$[ebp]
	mov	eax, DWORD PTR __Parent_proxy$[ebp]
	mov	ecx, DWORD PTR [eax+4]
	mov	DWORD PTR [edx+4], ecx

; 1348 :             _Parent_proxy->_Myfirstiter = this;

	mov	edx, DWORD PTR __Parent_proxy$[ebp]
	mov	eax, DWORD PTR _this$[ebp]
	mov	DWORD PTR [edx+4], eax

; 1349 :             _Myproxy                    = _Parent_proxy;

	mov	ecx, DWORD PTR _this$[ebp]
	mov	edx, DWORD PTR __Parent_proxy$[ebp]
	mov	DWORD PTR [ecx], edx
$LN3@Adopt_unlo:
$LN1@Adopt_unlo:

; 1350 :         }
; 1351 :     }

	add	esp, 8
	cmp	ebp, esp
	call	__RTC_CheckEsp
	mov	esp, ebp
	pop	ebp
	ret	4
?_Adopt_unlocked@_Iterator_base12@std@@AAEXPBU_Container_base12@2@@Z ENDP ; std::_Iterator_base12::_Adopt_unlocked
_TEXT	ENDS
; Function compile flags: /Odtp /RTCsu
; File C:\Program Files\Microsoft Visual Studio\2022\Community\VC\Tools\MSVC\14.44.35207\include\xmemory
;	COMDAT ?_Assign_locked@_Iterator_base12@std@@AAEXABU12@@Z
_TEXT	SEGMENT
__Lock$ = -12						; size = 4
_this$ = -4						; size = 4
__Right$ = 8						; size = 4
?_Assign_locked@_Iterator_base12@std@@AAEXABU12@@Z PROC	; std::_Iterator_base12::_Assign_locked, COMDAT
; _this$ = ecx

; 1331 :     void _Assign_locked(const _Iterator_base12& _Right) noexcept {

	push	ebp
	mov	ebp, esp
	sub	esp, 16					; 00000010H
	mov	eax, -858993460				; ccccccccH
	mov	DWORD PTR [ebp-16], eax
	mov	DWORD PTR [ebp-12], eax
	mov	DWORD PTR [ebp-8], eax
	mov	DWORD PTR [ebp-4], eax
	mov	DWORD PTR _this$[ebp], ecx

; 1332 :         _Lockit _Lock(_LOCK_DEBUG);

	push	3
	lea	ecx, DWORD PTR __Lock$[ebp]
	call	??0_Lockit@std@@QAE@H@Z			; std::_Lockit::_Lockit

; 1333 :         _Assign_unlocked(_Right);

	mov	eax, DWORD PTR __Right$[ebp]
	push	eax
	mov	ecx, DWORD PTR _this$[ebp]
	call	?_Assign_unlocked@_Iterator_base12@std@@AAEXABU12@@Z ; std::_Iterator_base12::_Assign_unlocked

; 1334 :     }

	lea	ecx, DWORD PTR __Lock$[ebp]
	call	??1_Lockit@std@@QAE@XZ			; std::_Lockit::~_Lockit
	npad	1
	push	edx
	mov	ecx, ebp
	push	eax
	lea	edx, DWORD PTR $LN6@Assign_loc
	call	@_RTC_CheckStackVars@8
	pop	eax
	pop	edx
	add	esp, 16					; 00000010H
	cmp	ebp, esp
	call	__RTC_CheckEsp
	mov	esp, ebp
	pop	ebp
	ret	4
	npad	2
$LN6@Assign_loc:
	DD	1
	DD	$LN5@Assign_loc
$LN5@Assign_loc:
	DD	-12					; fffffff4H
	DD	4
	DD	$LN4@Assign_loc
$LN4@Assign_loc:
	DB	95					; 0000005fH
	DB	76					; 0000004cH
	DB	111					; 0000006fH
	DB	99					; 00000063H
	DB	107					; 0000006bH
	DB	0
?_Assign_locked@_Iterator_base12@std@@AAEXABU12@@Z ENDP	; std::_Iterator_base12::_Assign_locked
_TEXT	ENDS
; Function compile flags: /Odtp /RTCsu
; File C:\Program Files\Microsoft Visual Studio\2022\Community\VC\Tools\MSVC\14.44.35207\include\xmemory
;	COMDAT ?_Assign_unlocked@_Iterator_base12@std@@AAEXABU12@@Z
_TEXT	SEGMENT
_this$ = -4						; size = 4
__Right$ = 8						; size = 4
?_Assign_unlocked@_Iterator_base12@std@@AAEXABU12@@Z PROC ; std::_Iterator_base12::_Assign_unlocked, COMDAT
; _this$ = ecx

; 1319 :     _CONSTEXPR20 void _Assign_unlocked(const _Iterator_base12& _Right) noexcept {

	push	ebp
	mov	ebp, esp
	push	ecx
	mov	DWORD PTR [ebp-4], -858993460		; ccccccccH
	mov	DWORD PTR _this$[ebp], ecx

; 1320 :         if (_Myproxy == _Right._Myproxy) {

	mov	eax, DWORD PTR _this$[ebp]
	mov	ecx, DWORD PTR __Right$[ebp]
	mov	edx, DWORD PTR [eax]
	cmp	edx, DWORD PTR [ecx]
	jne	SHORT $LN2@Assign_unl

; 1321 :             return;

	jmp	SHORT $LN1@Assign_unl
$LN2@Assign_unl:

; 1322 :         }
; 1323 : 
; 1324 :         if (_Right._Myproxy) {

	mov	eax, DWORD PTR __Right$[ebp]
	cmp	DWORD PTR [eax], 0
	je	SHORT $LN3@Assign_unl

; 1325 :             _Adopt_unlocked(_Right._Myproxy->_Mycont);

	mov	ecx, DWORD PTR __Right$[ebp]
	mov	edx, DWORD PTR [ecx]
	mov	eax, DWORD PTR [edx]
	push	eax
	mov	ecx, DWORD PTR _this$[ebp]
	call	?_Adopt_unlocked@_Iterator_base12@std@@AAEXPBU_Container_base12@2@@Z ; std::_Iterator_base12::_Adopt_unlocked
	npad	1

; 1326 :         } else { // becoming invalid, disown current parent

	jmp	SHORT $LN4@Assign_unl
$LN3@Assign_unl:

; 1327 :             _Orphan_me_unlocked_v3();

	mov	ecx, DWORD PTR _this$[ebp]
	call	?_Orphan_me_unlocked_v3@_Iterator_base12@std@@AAEXXZ ; std::_Iterator_base12::_Orphan_me_unlocked_v3
	npad	1
$LN4@Assign_unl:
$LN1@Assign_unl:

; 1328 :         }
; 1329 :     }

	add	esp, 4
	cmp	ebp, esp
	call	__RTC_CheckEsp
	mov	esp, ebp
	pop	ebp
	ret	4
?_Assign_unlocked@_Iterator_base12@std@@AAEXABU12@@Z ENDP ; std::_Iterator_base12::_Assign_unlocked
_TEXT	ENDS
; Function compile flags: /Odtp /RTCsu
; File C:\Program Files\Microsoft Visual Studio\2022\Community\VC\Tools\MSVC\14.44.35207\include\xmemory
;	COMDAT ?_Getcont@_Iterator_base12@std@@QBEPBU_Container_base12@2@XZ
_TEXT	SEGMENT
tv68 = -8						; size = 4
_this$ = -4						; size = 4
?_Getcont@_Iterator_base12@std@@QBEPBU_Container_base12@2@XZ PROC ; std::_Iterator_base12::_Getcont, COMDAT
; _this$ = ecx

; 1308 :     _CONSTEXPR20 const _Container_base12* _Getcont() const noexcept {

	push	ebp
	mov	ebp, esp
	sub	esp, 8
	mov	DWORD PTR _this$[ebp], ecx

; 1309 :         return _Myproxy ? _Myproxy->_Mycont : nullptr;

	mov	eax, DWORD PTR _this$[ebp]
	cmp	DWORD PTR [eax], 0
	je	SHORT $LN3@Getcont
	mov	ecx, DWORD PTR _this$[ebp]
	mov	edx, DWORD PTR [ecx]
	mov	eax, DWORD PTR [edx]
	mov	DWORD PTR tv68[ebp], eax
	jmp	SHORT $LN4@Getcont
$LN3@Getcont:
	mov	DWORD PTR tv68[ebp], 0
$LN4@Getcont:
	mov	eax, DWORD PTR tv68[ebp]

; 1310 :     }

	mov	esp, ebp
	pop	ebp
	ret	0
?_Getcont@_Iterator_base12@std@@QBEPBU_Container_base12@2@XZ ENDP ; std::_Iterator_base12::_Getcont
_TEXT	ENDS
; Function compile flags: /Odtp /RTCsu
; File C:\Program Files\Microsoft Visual Studio\2022\Community\VC\Tools\MSVC\14.44.35207\include\xmemory
;	COMDAT ?_Adopt@_Iterator_base12@std@@QAEXPBU_Container_base12@2@@Z
_TEXT	SEGMENT
_this$ = -4						; size = 4
__Parent$ = 8						; size = 4
?_Adopt@_Iterator_base12@std@@QAEXPBU_Container_base12@2@@Z PROC ; std::_Iterator_base12::_Adopt, COMDAT
; _this$ = ecx

; 1288 :     _CONSTEXPR20 void _Adopt(const _Container_base12* _Parent) noexcept {

	push	ebp
	mov	ebp, esp
	push	ecx
	mov	DWORD PTR [ebp-4], -858993460		; ccccccccH
	mov	DWORD PTR _this$[ebp], ecx

; 1289 : #if _HAS_CXX20
; 1290 :         if (_STD is_constant_evaluated()) {
; 1291 :             _Adopt_unlocked(_Parent);
; 1292 :         } else
; 1293 : #endif // _HAS_CXX20
; 1294 :         {
; 1295 :             _Adopt_locked(_Parent);

	mov	eax, DWORD PTR __Parent$[ebp]
	push	eax
	mov	ecx, DWORD PTR _this$[ebp]
	call	?_Adopt_locked@_Iterator_base12@std@@AAEXPBU_Container_base12@2@@Z ; std::_Iterator_base12::_Adopt_locked
	npad	1

; 1296 :         }
; 1297 :     }

	add	esp, 4
	cmp	ebp, esp
	call	__RTC_CheckEsp
	mov	esp, ebp
	pop	ebp
	ret	4
?_Adopt@_Iterator_base12@std@@QAEXPBU_Container_base12@2@@Z ENDP ; std::_Iterator_base12::_Adopt
_TEXT	ENDS
; Function compile flags: /Odtp /RTCsu
; File C:\Program Files\Microsoft Visual Studio\2022\Community\VC\Tools\MSVC\14.44.35207\include\xmemory
;	COMDAT ??1_Iterator_base12@std@@QAE@XZ
_TEXT	SEGMENT
_this$ = -4						; size = 4
??1_Iterator_base12@std@@QAE@XZ PROC			; std::_Iterator_base12::~_Iterator_base12, COMDAT
; _this$ = ecx

; 1277 :     _CONSTEXPR20 ~_Iterator_base12() noexcept {

	push	ebp
	mov	ebp, esp
	push	ecx
	mov	DWORD PTR [ebp-4], -858993460		; ccccccccH
	mov	DWORD PTR _this$[ebp], ecx

; 1278 : #if _HAS_CXX20
; 1279 :         if (_STD is_constant_evaluated()) {
; 1280 :             _Orphan_me_unlocked_v3();
; 1281 :         } else
; 1282 : #endif // _HAS_CXX20
; 1283 :         {
; 1284 :             _Orphan_me_locked_v3();

	mov	ecx, DWORD PTR _this$[ebp]
	call	?_Orphan_me_locked_v3@_Iterator_base12@std@@AAEXXZ ; std::_Iterator_base12::_Orphan_me_locked_v3
	npad	1

; 1285 :         }
; 1286 :     }

	add	esp, 4
	cmp	ebp, esp
	call	__RTC_CheckEsp
	mov	esp, ebp
	pop	ebp
	ret	0
??1_Iterator_base12@std@@QAE@XZ ENDP			; std::_Iterator_base12::~_Iterator_base12
_TEXT	ENDS
; Function compile flags: /Odtp /RTCsu
; File C:\Program Files\Microsoft Visual Studio\2022\Community\VC\Tools\MSVC\14.44.35207\include\xmemory
;	COMDAT ??4_Iterator_base12@std@@QAEAAU01@ABU01@@Z
_TEXT	SEGMENT
_this$ = -4						; size = 4
__Right$ = 8						; size = 4
??4_Iterator_base12@std@@QAEAAU01@ABU01@@Z PROC		; std::_Iterator_base12::operator=, COMDAT
; _this$ = ecx

; 1260 :     _CONSTEXPR20 _Iterator_base12& operator=(const _Iterator_base12& _Right) noexcept {

	push	ebp
	mov	ebp, esp
	push	ecx
	mov	DWORD PTR [ebp-4], -858993460		; ccccccccH
	mov	DWORD PTR _this$[ebp], ecx

; 1261 : #if _ITERATOR_DEBUG_LEVEL == 2
; 1262 : #if _HAS_CXX20
; 1263 :         if (_STD is_constant_evaluated()) {
; 1264 :             _Assign_unlocked(_Right);
; 1265 :         } else
; 1266 : #endif // _HAS_CXX20
; 1267 :         {
; 1268 :             _Assign_locked(_Right);

	mov	eax, DWORD PTR __Right$[ebp]
	push	eax
	mov	ecx, DWORD PTR _this$[ebp]
	call	?_Assign_locked@_Iterator_base12@std@@AAEXABU12@@Z ; std::_Iterator_base12::_Assign_locked
	npad	1

; 1269 :         }
; 1270 : #else // ^^^ _ITERATOR_DEBUG_LEVEL == 2 / _ITERATOR_DEBUG_LEVEL != 2 vvv
; 1271 :         _Myproxy = _Right._Myproxy;
; 1272 : #endif // ^^^ _ITERATOR_DEBUG_LEVEL != 2 ^^^
; 1273 :         return *this;

	mov	eax, DWORD PTR _this$[ebp]

; 1274 :     }

	add	esp, 4
	cmp	ebp, esp
	call	__RTC_CheckEsp
	mov	esp, ebp
	pop	ebp
	ret	4
??4_Iterator_base12@std@@QAEAAU01@ABU01@@Z ENDP		; std::_Iterator_base12::operator=
_TEXT	ENDS
; Function compile flags: /Odtp /RTCsu
; File C:\Program Files\Microsoft Visual Studio\2022\Community\VC\Tools\MSVC\14.44.35207\include\xmemory
;	COMDAT ??0_Iterator_base12@std@@QAE@ABU01@@Z
_TEXT	SEGMENT
_this$ = -4						; size = 4
__Right$ = 8						; size = 4
??0_Iterator_base12@std@@QAE@ABU01@@Z PROC		; std::_Iterator_base12::_Iterator_base12, COMDAT
; _this$ = ecx

; 1256 :     _CONSTEXPR20 _Iterator_base12(const _Iterator_base12& _Right) noexcept {

	push	ebp
	mov	ebp, esp
	push	ecx
	mov	DWORD PTR [ebp-4], -858993460		; ccccccccH
	mov	DWORD PTR _this$[ebp], ecx

; 1259 : 
; 1260 :     _CONSTEXPR20 _Iterator_base12& operator=(const _Iterator_base12& _Right) noexcept {
; 1261 : #if _ITERATOR_DEBUG_LEVEL == 2
; 1262 : #if _HAS_CXX20
; 1263 :         if (_STD is_constant_evaluated()) {
; 1264 :             _Assign_unlocked(_Right);
; 1265 :         } else
; 1266 : #endif // _HAS_CXX20
; 1267 :         {
; 1268 :             _Assign_locked(_Right);
; 1269 :         }
; 1270 : #else // ^^^ _ITERATOR_DEBUG_LEVEL == 2 / _ITERATOR_DEBUG_LEVEL != 2 vvv
; 1271 :         _Myproxy = _Right._Myproxy;
; 1272 : #endif // ^^^ _ITERATOR_DEBUG_LEVEL != 2 ^^^
; 1273 :         return *this;
; 1274 :     }
; 1275 : 
; 1276 : #if _ITERATOR_DEBUG_LEVEL == 2
; 1277 :     _CONSTEXPR20 ~_Iterator_base12() noexcept {
; 1278 : #if _HAS_CXX20
; 1279 :         if (_STD is_constant_evaluated()) {
; 1280 :             _Orphan_me_unlocked_v3();
; 1281 :         } else
; 1282 : #endif // _HAS_CXX20
; 1283 :         {
; 1284 :             _Orphan_me_locked_v3();
; 1285 :         }
; 1286 :     }
; 1287 : 
; 1288 :     _CONSTEXPR20 void _Adopt(const _Container_base12* _Parent) noexcept {
; 1289 : #if _HAS_CXX20
; 1290 :         if (_STD is_constant_evaluated()) {
; 1291 :             _Adopt_unlocked(_Parent);
; 1292 :         } else
; 1293 : #endif // _HAS_CXX20
; 1294 :         {
; 1295 :             _Adopt_locked(_Parent);
; 1296 :         }
; 1297 :     }
; 1298 : #else // ^^^ _ITERATOR_DEBUG_LEVEL == 2 / _ITERATOR_DEBUG_LEVEL != 2 vvv
; 1299 :     _CONSTEXPR20 void _Adopt(const _Container_base12* _Parent) noexcept {
; 1300 :         if (_Parent) { // have a parent, do adoption
; 1301 :             _Myproxy = _Parent->_Myproxy;
; 1302 :         } else { // no future parent, just disown current parent
; 1303 :             _Myproxy = nullptr;
; 1304 :         }
; 1305 :     }
; 1306 : #endif // ^^^ _ITERATOR_DEBUG_LEVEL != 2 ^^^
; 1307 : 
; 1308 :     _CONSTEXPR20 const _Container_base12* _Getcont() const noexcept {
; 1309 :         return _Myproxy ? _Myproxy->_Mycont : nullptr;
; 1310 :     }
; 1311 : 
; 1312 :     static constexpr bool _Unwrap_when_unverified = _ITERATOR_DEBUG_LEVEL == 0;
; 1313 : 
; 1314 :     mutable _Container_proxy* _Myproxy    = nullptr;

	mov	eax, DWORD PTR _this$[ebp]
	mov	DWORD PTR [eax], 0

; 1315 :     mutable _Iterator_base12* _Mynextiter = nullptr;

	mov	ecx, DWORD PTR _this$[ebp]
	mov	DWORD PTR [ecx+4], 0

; 1257 :         *this = _Right;

	mov	edx, DWORD PTR __Right$[ebp]
	push	edx
	mov	ecx, DWORD PTR _this$[ebp]
	call	??4_Iterator_base12@std@@QAEAAU01@ABU01@@Z ; std::_Iterator_base12::operator=
	npad	1

; 1258 :     }

	mov	eax, DWORD PTR _this$[ebp]
	add	esp, 4
	cmp	ebp, esp
	call	__RTC_CheckEsp
	mov	esp, ebp
	pop	ebp
	ret	4
??0_Iterator_base12@std@@QAE@ABU01@@Z ENDP		; std::_Iterator_base12::_Iterator_base12
_TEXT	ENDS
; Function compile flags: /Odtp /RTCsu
; File C:\Program Files\Microsoft Visual Studio\2022\Community\VC\Tools\MSVC\14.44.35207\include\xmemory
;	COMDAT ??0_Iterator_base12@std@@QAE@XZ
_TEXT	SEGMENT
_this$ = -4						; size = 4
??0_Iterator_base12@std@@QAE@XZ PROC			; std::_Iterator_base12::_Iterator_base12, COMDAT
; _this$ = ecx

; 1254 :     _CONSTEXPR20 _Iterator_base12() noexcept = default; // construct orphaned iterator

	push	ebp
	mov	ebp, esp
	push	ecx
	mov	DWORD PTR _this$[ebp], ecx

; 1255 : 
; 1256 :     _CONSTEXPR20 _Iterator_base12(const _Iterator_base12& _Right) noexcept {
; 1257 :         *this = _Right;
; 1258 :     }
; 1259 : 
; 1260 :     _CONSTEXPR20 _Iterator_base12& operator=(const _Iterator_base12& _Right) noexcept {
; 1261 : #if _ITERATOR_DEBUG_LEVEL == 2
; 1262 : #if _HAS_CXX20
; 1263 :         if (_STD is_constant_evaluated()) {
; 1264 :             _Assign_unlocked(_Right);
; 1265 :         } else
; 1266 : #endif // _HAS_CXX20
; 1267 :         {
; 1268 :             _Assign_locked(_Right);
; 1269 :         }
; 1270 : #else // ^^^ _ITERATOR_DEBUG_LEVEL == 2 / _ITERATOR_DEBUG_LEVEL != 2 vvv
; 1271 :         _Myproxy = _Right._Myproxy;
; 1272 : #endif // ^^^ _ITERATOR_DEBUG_LEVEL != 2 ^^^
; 1273 :         return *this;
; 1274 :     }
; 1275 : 
; 1276 : #if _ITERATOR_DEBUG_LEVEL == 2
; 1277 :     _CONSTEXPR20 ~_Iterator_base12() noexcept {
; 1278 : #if _HAS_CXX20
; 1279 :         if (_STD is_constant_evaluated()) {
; 1280 :             _Orphan_me_unlocked_v3();
; 1281 :         } else
; 1282 : #endif // _HAS_CXX20
; 1283 :         {
; 1284 :             _Orphan_me_locked_v3();
; 1285 :         }
; 1286 :     }
; 1287 : 
; 1288 :     _CONSTEXPR20 void _Adopt(const _Container_base12* _Parent) noexcept {
; 1289 : #if _HAS_CXX20
; 1290 :         if (_STD is_constant_evaluated()) {
; 1291 :             _Adopt_unlocked(_Parent);
; 1292 :         } else
; 1293 : #endif // _HAS_CXX20
; 1294 :         {
; 1295 :             _Adopt_locked(_Parent);
; 1296 :         }
; 1297 :     }
; 1298 : #else // ^^^ _ITERATOR_DEBUG_LEVEL == 2 / _ITERATOR_DEBUG_LEVEL != 2 vvv
; 1299 :     _CONSTEXPR20 void _Adopt(const _Container_base12* _Parent) noexcept {
; 1300 :         if (_Parent) { // have a parent, do adoption
; 1301 :             _Myproxy = _Parent->_Myproxy;
; 1302 :         } else { // no future parent, just disown current parent
; 1303 :             _Myproxy = nullptr;
; 1304 :         }
; 1305 :     }
; 1306 : #endif // ^^^ _ITERATOR_DEBUG_LEVEL != 2 ^^^
; 1307 : 
; 1308 :     _CONSTEXPR20 const _Container_base12* _Getcont() const noexcept {
; 1309 :         return _Myproxy ? _Myproxy->_Mycont : nullptr;
; 1310 :     }
; 1311 : 
; 1312 :     static constexpr bool _Unwrap_when_unverified = _ITERATOR_DEBUG_LEVEL == 0;
; 1313 : 
; 1314 :     mutable _Container_proxy* _Myproxy    = nullptr;

	mov	eax, DWORD PTR _this$[ebp]
	mov	DWORD PTR [eax], 0

; 1315 :     mutable _Iterator_base12* _Mynextiter = nullptr;

	mov	ecx, DWORD PTR _this$[ebp]
	mov	DWORD PTR [ecx+4], 0

; 1254 :     _CONSTEXPR20 _Iterator_base12() noexcept = default; // construct orphaned iterator

	mov	eax, DWORD PTR _this$[ebp]
	mov	esp, ebp
	pop	ebp
	ret	0
??0_Iterator_base12@std@@QAE@XZ ENDP			; std::_Iterator_base12::_Iterator_base12
_TEXT	ENDS
; Function compile flags: /Odtp /RTCsu
; File C:\Program Files\Microsoft Visual Studio\2022\Community\VC\Tools\MSVC\14.44.35207\include\xmemory
;	COMDAT ?_Orphan_all_locked_v3@_Container_base12@std@@AAEXXZ
_TEXT	SEGMENT
__Lock$ = -12						; size = 4
_this$ = -4						; size = 4
?_Orphan_all_locked_v3@_Container_base12@std@@AAEXXZ PROC ; std::_Container_base12::_Orphan_all_locked_v3, COMDAT
; _this$ = ecx

; 1241 :     void _Orphan_all_locked_v3() noexcept {

	push	ebp
	mov	ebp, esp
	sub	esp, 16					; 00000010H
	mov	eax, -858993460				; ccccccccH
	mov	DWORD PTR [ebp-16], eax
	mov	DWORD PTR [ebp-12], eax
	mov	DWORD PTR [ebp-8], eax
	mov	DWORD PTR [ebp-4], eax
	mov	DWORD PTR _this$[ebp], ecx

; 1242 :         _Lockit _Lock(_LOCK_DEBUG);

	push	3
	lea	ecx, DWORD PTR __Lock$[ebp]
	call	??0_Lockit@std@@QAE@H@Z			; std::_Lockit::_Lockit

; 1243 :         _Orphan_all_unlocked_v3();

	mov	ecx, DWORD PTR _this$[ebp]
	call	?_Orphan_all_unlocked_v3@_Container_base12@std@@AAEXXZ ; std::_Container_base12::_Orphan_all_unlocked_v3

; 1244 :     }

	lea	ecx, DWORD PTR __Lock$[ebp]
	call	??1_Lockit@std@@QAE@XZ			; std::_Lockit::~_Lockit
	npad	1
	push	edx
	mov	ecx, ebp
	push	eax
	lea	edx, DWORD PTR $LN6@Orphan_all
	call	@_RTC_CheckStackVars@8
	pop	eax
	pop	edx
	add	esp, 16					; 00000010H
	cmp	ebp, esp
	call	__RTC_CheckEsp
	mov	esp, ebp
	pop	ebp
	ret	0
$LN6@Orphan_all:
	DD	1
	DD	$LN5@Orphan_all
$LN5@Orphan_all:
	DD	-12					; fffffff4H
	DD	4
	DD	$LN4@Orphan_all
$LN4@Orphan_all:
	DB	95					; 0000005fH
	DB	76					; 0000004cH
	DB	111					; 0000006fH
	DB	99					; 00000063H
	DB	107					; 0000006bH
	DB	0
?_Orphan_all_locked_v3@_Container_base12@std@@AAEXXZ ENDP ; std::_Container_base12::_Orphan_all_locked_v3
_TEXT	ENDS
; Function compile flags: /Odtp /RTCsu
; File C:\Program Files\Microsoft Visual Studio\2022\Community\VC\Tools\MSVC\14.44.35207\include\xmemory
;	COMDAT ?_Orphan_all_unlocked_v3@_Container_base12@std@@AAEXXZ
_TEXT	SEGMENT
$T1 = -12						; size = 4
__Pnext$2 = -8						; size = 4
_this$ = -4						; size = 4
?_Orphan_all_unlocked_v3@_Container_base12@std@@AAEXXZ PROC ; std::_Container_base12::_Orphan_all_unlocked_v3, COMDAT
; _this$ = ecx

; 1381 : _CONSTEXPR20 void _Container_base12::_Orphan_all_unlocked_v3() noexcept {

	push	ebp
	mov	ebp, esp
	sub	esp, 12					; 0000000cH
	mov	DWORD PTR [ebp-12], -858993460		; ccccccccH
	mov	DWORD PTR [ebp-8], -858993460		; ccccccccH
	mov	DWORD PTR [ebp-4], -858993460		; ccccccccH
	mov	DWORD PTR _this$[ebp], ecx

; 1382 :     if (!_Myproxy) { // no proxy, already done

	mov	eax, DWORD PTR _this$[ebp]
	cmp	DWORD PTR [eax], 0
	jne	SHORT $LN5@Orphan_all

; 1383 :         return;

	jmp	SHORT $LN1@Orphan_all
$LN5@Orphan_all:

; 1384 :     }
; 1385 : 
; 1386 :     // proxy allocated, drain it
; 1387 :     for (auto _Pnext = _STD exchange(_Myproxy->_Myfirstiter, nullptr); _Pnext; _Pnext = _Pnext->_Mynextiter) {

	mov	DWORD PTR $T1[ebp], 0
	lea	ecx, DWORD PTR $T1[ebp]
	push	ecx
	mov	edx, DWORD PTR _this$[ebp]
	mov	eax, DWORD PTR [edx]
	add	eax, 4
	push	eax
	call	??$exchange@PAU_Iterator_base12@std@@$$T@std@@YAPAU_Iterator_base12@0@AAPAU10@$$QA$$T@Z ; std::exchange<std::_Iterator_base12 *,std::nullptr_t>
	add	esp, 8
	mov	DWORD PTR __Pnext$2[ebp], eax
	jmp	SHORT $LN4@Orphan_all
$LN2@Orphan_all:
	mov	ecx, DWORD PTR __Pnext$2[ebp]
	mov	edx, DWORD PTR [ecx+4]
	mov	DWORD PTR __Pnext$2[ebp], edx
$LN4@Orphan_all:
	cmp	DWORD PTR __Pnext$2[ebp], 0
	je	SHORT $LN3@Orphan_all

; 1388 :         _Pnext->_Myproxy = nullptr;

	mov	eax, DWORD PTR __Pnext$2[ebp]
	mov	DWORD PTR [eax], 0

; 1389 :     }

	jmp	SHORT $LN2@Orphan_all
$LN3@Orphan_all:
$LN1@Orphan_all:

; 1390 : }

	add	esp, 12					; 0000000cH
	cmp	ebp, esp
	call	__RTC_CheckEsp
	mov	esp, ebp
	pop	ebp
	ret	0
?_Orphan_all_unlocked_v3@_Container_base12@std@@AAEXXZ ENDP ; std::_Container_base12::_Orphan_all_unlocked_v3
_TEXT	ENDS
; Function compile flags: /Odtp /RTCsu
; File C:\Program Files\Microsoft Visual Studio\2022\Community\VC\Tools\MSVC\14.44.35207\include\xmemory
;	COMDAT ?_Orphan_all@_Container_base12@std@@QAEXXZ
_TEXT	SEGMENT
_this$ = -4						; size = 4
?_Orphan_all@_Container_base12@std@@QAEXXZ PROC		; std::_Container_base12::_Orphan_all, COMDAT
; _this$ = ecx

; 1392 : _CONSTEXPR20 void _Container_base12::_Orphan_all() noexcept {

	push	ebp
	mov	ebp, esp
	push	ecx
	mov	DWORD PTR [ebp-4], -858993460		; ccccccccH
	mov	DWORD PTR _this$[ebp], ecx

; 1393 : #if _ITERATOR_DEBUG_LEVEL == 2
; 1394 : #if _HAS_CXX20
; 1395 :     if (_STD is_constant_evaluated()) {
; 1396 :         _Orphan_all_unlocked_v3();
; 1397 :     } else
; 1398 : #endif // _HAS_CXX20
; 1399 :     {
; 1400 :         _Orphan_all_locked_v3();

	mov	ecx, DWORD PTR _this$[ebp]
	call	?_Orphan_all_locked_v3@_Container_base12@std@@AAEXXZ ; std::_Container_base12::_Orphan_all_locked_v3
	npad	1

; 1401 :     }
; 1402 : #endif // _ITERATOR_DEBUG_LEVEL == 2
; 1403 : }

	add	esp, 4
	cmp	ebp, esp
	call	__RTC_CheckEsp
	mov	esp, ebp
	pop	ebp
	ret	0
?_Orphan_all@_Container_base12@std@@QAEXXZ ENDP		; std::_Container_base12::_Orphan_all
_TEXT	ENDS
; Function compile flags: /Odtp /RTCsu
; File C:\Program Files\Microsoft Visual Studio\2022\Community\VC\Tools\MSVC\14.44.35207\include\xmemory
;	COMDAT ??0_Container_base12@std@@QAE@XZ
_TEXT	SEGMENT
_this$ = -4						; size = 4
??0_Container_base12@std@@QAE@XZ PROC			; std::_Container_base12::_Container_base12, COMDAT
; _this$ = ecx

; 1210 :     _CONSTEXPR20 _Container_base12() noexcept = default;

	push	ebp
	mov	ebp, esp
	push	ecx
	mov	DWORD PTR _this$[ebp], ecx

; 1211 : 
; 1212 :     _Container_base12(const _Container_base12&)            = delete;
; 1213 :     _Container_base12& operator=(const _Container_base12&) = delete;
; 1214 : 
; 1215 :     _CONSTEXPR20 void _Orphan_all() noexcept;
; 1216 :     _CONSTEXPR20 void _Swap_proxy_and_iterators(_Container_base12&) noexcept;
; 1217 : 
; 1218 :     template <class _Alloc>
; 1219 :     _CONSTEXPR20 void _Alloc_proxy(_Alloc&& _Al) {
; 1220 :         _Container_proxy* const _New_proxy = _Unfancy(_Al.allocate(1));
; 1221 :         _Construct_in_place(*_New_proxy, this);
; 1222 :         _Myproxy            = _New_proxy;
; 1223 :         _New_proxy->_Mycont = this;
; 1224 :     }
; 1225 : 
; 1226 :     template <class _Alloc>
; 1227 :     _CONSTEXPR20 void _Reload_proxy(_Alloc&& _Old_alloc, _Alloc&& _New_alloc) {
; 1228 :         // pre: no iterators refer to the existing proxy
; 1229 :         _Container_proxy* const _New_proxy = _Unfancy(_New_alloc.allocate(1));
; 1230 :         _Construct_in_place(*_New_proxy, this);
; 1231 :         _New_proxy->_Mycont = this;
; 1232 :         _Delete_plain_internal(_Old_alloc, _STD exchange(_Myproxy, _New_proxy));
; 1233 :     }
; 1234 : 
; 1235 :     _Container_proxy* _Myproxy = nullptr;

	mov	eax, DWORD PTR _this$[ebp]
	mov	DWORD PTR [eax], 0

; 1210 :     _CONSTEXPR20 _Container_base12() noexcept = default;

	mov	eax, DWORD PTR _this$[ebp]
	mov	esp, ebp
	pop	ebp
	ret	0
??0_Container_base12@std@@QAE@XZ ENDP			; std::_Container_base12::_Container_base12
_TEXT	ENDS
; Function compile flags: /Odtp /RTCsu
; File C:\Program Files\Microsoft Visual Studio\2022\Community\VC\Tools\MSVC\14.44.35207\include\xmemory
;	COMDAT ??0_Container_proxy@std@@QAE@PAU_Container_base12@1@@Z
_TEXT	SEGMENT
_this$ = -4						; size = 4
__Mycont_$ = 8						; size = 4
??0_Container_proxy@std@@QAE@PAU_Container_base12@1@@Z PROC ; std::_Container_proxy::_Container_proxy, COMDAT
; _this$ = ecx

; 1202 :     _CONSTEXPR20 _Container_proxy(_Container_base12* _Mycont_) noexcept : _Mycont(_Mycont_) {}

	push	ebp
	mov	ebp, esp
	push	ecx
	mov	DWORD PTR _this$[ebp], ecx
	mov	eax, DWORD PTR _this$[ebp]
	mov	ecx, DWORD PTR __Mycont_$[ebp]
	mov	DWORD PTR [eax], ecx

; 1203 : 
; 1204 :     const _Container_base12* _Mycont       = nullptr;
; 1205 :     mutable _Iterator_base12* _Myfirstiter = nullptr;

	mov	edx, DWORD PTR _this$[ebp]
	mov	DWORD PTR [edx+4], 0

; 1202 :     _CONSTEXPR20 _Container_proxy(_Container_base12* _Mycont_) noexcept : _Mycont(_Mycont_) {}

	mov	eax, DWORD PTR _this$[ebp]
	mov	esp, ebp
	pop	ebp
	ret	4
??0_Container_proxy@std@@QAE@PAU_Container_base12@1@@Z ENDP ; std::_Container_proxy::_Container_proxy
_TEXT	ENDS
; Function compile flags: /Odtp /RTCsu
; File C:\Program Files\Microsoft Visual Studio\2022\Community\VC\Tools\MSVC\14.44.35207\include\xmemory
;	COMDAT ?_Adjust_manually_vector_aligned@std@@YAXAAPAXAAI@Z
_TEXT	SEGMENT
__Back_shift$ = -16					; size = 4
__Min_back_shift$ = -12					; size = 4
__Ptr_container$ = -8					; size = 4
__Ptr_user$ = -4					; size = 4
__Ptr$ = 8						; size = 4
__Bytes$ = 12						; size = 4
?_Adjust_manually_vector_aligned@std@@YAXAAPAXAAI@Z PROC ; std::_Adjust_manually_vector_aligned, COMDAT

; 200  : inline void _Adjust_manually_vector_aligned(void*& _Ptr, size_t& _Bytes) {

	push	ebp
	mov	ebp, esp
	sub	esp, 16					; 00000010H
	mov	eax, -858993460				; ccccccccH
	mov	DWORD PTR [ebp-16], eax
	mov	DWORD PTR [ebp-12], eax
	mov	DWORD PTR [ebp-8], eax
	mov	DWORD PTR [ebp-4], eax

; 201  :     // adjust parameters from _Allocate_manually_vector_aligned to pass to operator delete
; 202  :     _Bytes += _Non_user_size;

	mov	eax, DWORD PTR __Bytes$[ebp]
	mov	ecx, DWORD PTR [eax]
	add	ecx, 39					; 00000027H
	mov	edx, DWORD PTR __Bytes$[ebp]
	mov	DWORD PTR [edx], ecx

; 203  : 
; 204  :     const uintptr_t* const _Ptr_user = static_cast<uintptr_t*>(_Ptr);

	mov	eax, DWORD PTR __Ptr$[ebp]
	mov	ecx, DWORD PTR [eax]
	mov	DWORD PTR __Ptr_user$[ebp], ecx

; 205  :     const uintptr_t _Ptr_container   = _Ptr_user[-1];

	mov	edx, 4
	imul	eax, edx, -1
	mov	ecx, DWORD PTR __Ptr_user$[ebp]
	mov	edx, DWORD PTR [ecx+eax]
	mov	DWORD PTR __Ptr_container$[ebp], edx

; 206  : 
; 207  :     // If the following asserts, it likely means that we are performing
; 208  :     // an aligned delete on memory coming from an unaligned allocation.
; 209  :     _STL_ASSERT(_Ptr_user[-2] == _Big_allocation_sentinel, "invalid argument");

	mov	eax, 4
	imul	ecx, eax, -2
	mov	edx, DWORD PTR __Ptr_user$[ebp]
	cmp	DWORD PTR [edx+ecx], -84215046		; fafafafaH
	je	SHORT $LN2@Adjust_man
	push	OFFSET ??_C@_0BB@FCMFBGOM@invalid?5argument@
	push	OFFSET ??_C@_02DKCKIIND@?$CFs@
	push	0
	push	209					; 000000d1H
	push	OFFSET ??_C@_0GC@KLECFGLI@C?3?2Program?5Files?2Microsoft?5Visu@
	push	2
	call	__CrtDbgReport
	add	esp, 24					; 00000018H
	cmp	eax, 1
	jne	SHORT $LN6@Adjust_man
	int	3
$LN6@Adjust_man:
	push	0
	push	0
	push	0
	push	0
	push	0
	call	__invoke_watson
	npad	1
$LN2@Adjust_man:

; 210  : 
; 211  :     // Extra paranoia on aligned allocation/deallocation; ensure _Ptr_container is
; 212  :     // in range [_Min_back_shift, _Non_user_size]
; 213  : #ifdef _DEBUG
; 214  :     constexpr uintptr_t _Min_back_shift = 2 * sizeof(void*);

	mov	DWORD PTR __Min_back_shift$[ebp], 8

; 215  : #else // ^^^ defined(_DEBUG) / !defined(_DEBUG) vvv
; 216  :     constexpr uintptr_t _Min_back_shift = sizeof(void*);
; 217  : #endif // ^^^ !defined(_DEBUG) ^^^
; 218  :     const uintptr_t _Back_shift = reinterpret_cast<uintptr_t>(_Ptr) - _Ptr_container;

	mov	ecx, DWORD PTR __Ptr$[ebp]
	mov	edx, DWORD PTR [ecx]
	sub	edx, DWORD PTR __Ptr_container$[ebp]
	mov	DWORD PTR __Back_shift$[ebp], edx

; 219  :     _STL_VERIFY(_Back_shift >= _Min_back_shift && _Back_shift <= _Non_user_size, "invalid argument");

	cmp	DWORD PTR __Back_shift$[ebp], 8
	jb	SHORT $LN4@Adjust_man
	cmp	DWORD PTR __Back_shift$[ebp], 39	; 00000027H
	jbe	SHORT $LN3@Adjust_man
$LN4@Adjust_man:
	push	OFFSET ??_C@_0BB@FCMFBGOM@invalid?5argument@
	push	OFFSET ??_C@_02DKCKIIND@?$CFs@
	push	0
	push	219					; 000000dbH
	push	OFFSET ??_C@_0GC@KLECFGLI@C?3?2Program?5Files?2Microsoft?5Visu@
	push	2
	call	__CrtDbgReport
	add	esp, 24					; 00000018H
	cmp	eax, 1
	jne	SHORT $LN7@Adjust_man
	int	3
$LN7@Adjust_man:
	push	0
	push	0
	push	0
	push	0
	push	0
	call	__invoke_watson
	npad	1
$LN3@Adjust_man:

; 220  :     _Ptr = reinterpret_cast<void*>(_Ptr_container);

	mov	ecx, DWORD PTR __Ptr$[ebp]
	mov	edx, DWORD PTR __Ptr_container$[ebp]
	mov	DWORD PTR [ecx], edx
$LN1@Adjust_man:

; 221  : }

	add	esp, 16					; 00000010H
	cmp	ebp, esp
	call	__RTC_CheckEsp
	mov	esp, ebp
	pop	ebp
	ret	0
?_Adjust_manually_vector_aligned@std@@YAXAAPAXAAI@Z ENDP ; std::_Adjust_manually_vector_aligned
_TEXT	ENDS
; Function compile flags: /Odtp /RTCsu
; File C:\Program Files\Microsoft Visual Studio\2022\Community\VC\Tools\MSVC\14.44.35207\include\xmemory
;	COMDAT ?_Allocate@_Default_allocate_traits@std@@SAPAXI@Z
_TEXT	SEGMENT
__Bytes$ = 8						; size = 4
?_Allocate@_Default_allocate_traits@std@@SAPAXI@Z PROC	; std::_Default_allocate_traits::_Allocate, COMDAT

; 135  :     __declspec(allocator) static _CLANG_CONSTEXPR20 void* _Allocate(const size_t _Bytes) {

	push	ebp
	mov	ebp, esp

; 136  :         return ::operator new(_Bytes);

	mov	eax, DWORD PTR __Bytes$[ebp]
	push	eax
	call	??2@YAPAXI@Z				; operator new
	add	esp, 4

; 137  :     }

	cmp	ebp, esp
	call	__RTC_CheckEsp
	pop	ebp
	ret	0
?_Allocate@_Default_allocate_traits@std@@SAPAXI@Z ENDP	; std::_Default_allocate_traits::_Allocate
_TEXT	ENDS
; Function compile flags: /Odtp /RTCsu
; File C:\Program Files\Microsoft Visual Studio\2022\Community\VC\Tools\MSVC\14.44.35207\include\xmemory
;	COMDAT ?_Throw_bad_array_new_length@std@@YAXXZ
_TEXT	SEGMENT
$T1 = -12						; size = 12
?_Throw_bad_array_new_length@std@@YAXXZ PROC		; std::_Throw_bad_array_new_length, COMDAT

; 107  : [[noreturn]] inline void _Throw_bad_array_new_length() {

	push	ebp
	mov	ebp, esp
	sub	esp, 12					; 0000000cH
	mov	DWORD PTR [ebp-12], -858993460		; ccccccccH
	mov	DWORD PTR [ebp-8], -858993460		; ccccccccH
	mov	DWORD PTR [ebp-4], -858993460		; ccccccccH

; 108  :     _THROW(bad_array_new_length{});

	lea	ecx, DWORD PTR $T1[ebp]
	call	??0bad_array_new_length@std@@QAE@XZ	; std::bad_array_new_length::bad_array_new_length
	push	OFFSET __TI3?AVbad_array_new_length@std@@
	lea	eax, DWORD PTR $T1[ebp]
	push	eax
	call	__CxxThrowException@8
	npad	1
$LN1@Throw_bad_:

; 109  : }

	add	esp, 12					; 0000000cH
	cmp	ebp, esp
	call	__RTC_CheckEsp
	mov	esp, ebp
	pop	ebp
	ret	0
?_Throw_bad_array_new_length@std@@YAXXZ ENDP		; std::_Throw_bad_array_new_length
_TEXT	ENDS
; Function compile flags: /Odtp /RTCsu
;	COMDAT ??_Gbad_array_new_length@std@@UAEPAXI@Z
_TEXT	SEGMENT
_this$ = -4						; size = 4
___flags$ = 8						; size = 4
??_Gbad_array_new_length@std@@UAEPAXI@Z PROC		; std::bad_array_new_length::`scalar deleting destructor', COMDAT
; _this$ = ecx
	push	ebp
	mov	ebp, esp
	push	ecx
	mov	DWORD PTR [ebp-4], -858993460		; ccccccccH
	mov	DWORD PTR _this$[ebp], ecx
	mov	ecx, DWORD PTR _this$[ebp]
	call	??1bad_array_new_length@std@@UAE@XZ
	mov	eax, DWORD PTR ___flags$[ebp]
	and	eax, 1
	je	SHORT $LN2@scalar
	push	12					; 0000000cH
	mov	ecx, DWORD PTR _this$[ebp]
	push	ecx
	call	??3@YAXPAXI@Z				; operator delete
	add	esp, 8
$LN2@scalar:
	mov	eax, DWORD PTR _this$[ebp]
	add	esp, 4
	cmp	ebp, esp
	call	__RTC_CheckEsp
	mov	esp, ebp
	pop	ebp
	ret	4
??_Gbad_array_new_length@std@@UAEPAXI@Z ENDP		; std::bad_array_new_length::`scalar deleting destructor'
_TEXT	ENDS
; Function compile flags: /Odtp /RTCsu
;	COMDAT ??0bad_array_new_length@std@@QAE@ABV01@@Z
_TEXT	SEGMENT
_this$ = -4						; size = 4
___that$ = 8						; size = 4
??0bad_array_new_length@std@@QAE@ABV01@@Z PROC		; std::bad_array_new_length::bad_array_new_length, COMDAT
; _this$ = ecx
	push	ebp
	mov	ebp, esp
	push	ecx
	mov	DWORD PTR [ebp-4], -858993460		; ccccccccH
	mov	DWORD PTR _this$[ebp], ecx
	mov	eax, DWORD PTR ___that$[ebp]
	push	eax
	mov	ecx, DWORD PTR _this$[ebp]
	call	??0bad_alloc@std@@QAE@ABV01@@Z
	mov	ecx, DWORD PTR _this$[ebp]
	mov	DWORD PTR [ecx], OFFSET ??_7bad_array_new_length@std@@6B@
	mov	eax, DWORD PTR _this$[ebp]
	add	esp, 4
	cmp	ebp, esp
	call	__RTC_CheckEsp
	mov	esp, ebp
	pop	ebp
	ret	4
??0bad_array_new_length@std@@QAE@ABV01@@Z ENDP		; std::bad_array_new_length::bad_array_new_length
_TEXT	ENDS
; Function compile flags: /Odtp /RTCsu
;	COMDAT ??1bad_array_new_length@std@@UAE@XZ
_TEXT	SEGMENT
_this$ = -4						; size = 4
??1bad_array_new_length@std@@UAE@XZ PROC		; std::bad_array_new_length::~bad_array_new_length, COMDAT
; _this$ = ecx
	push	ebp
	mov	ebp, esp
	push	ecx
	mov	DWORD PTR [ebp-4], -858993460		; ccccccccH
	mov	DWORD PTR _this$[ebp], ecx
	mov	ecx, DWORD PTR _this$[ebp]
	call	??1bad_alloc@std@@UAE@XZ
	npad	1
	add	esp, 4
	cmp	ebp, esp
	call	__RTC_CheckEsp
	mov	esp, ebp
	pop	ebp
	ret	0
??1bad_array_new_length@std@@UAE@XZ ENDP		; std::bad_array_new_length::~bad_array_new_length
_TEXT	ENDS
; Function compile flags: /Odtp /RTCsu
; File C:\Program Files\Microsoft Visual Studio\2022\Community\VC\Tools\MSVC\14.44.35207\include\vcruntime_exception.h
;	COMDAT ??0bad_array_new_length@std@@QAE@XZ
_TEXT	SEGMENT
_this$ = -4						; size = 4
??0bad_array_new_length@std@@QAE@XZ PROC		; std::bad_array_new_length::bad_array_new_length, COMDAT
; _this$ = ecx

; 144  :     {

	push	ebp
	mov	ebp, esp
	push	ecx
	mov	DWORD PTR [ebp-4], -858993460		; ccccccccH
	mov	DWORD PTR _this$[ebp], ecx

; 143  :         : bad_alloc("bad array new length")

	push	OFFSET ??_C@_0BF@KINCDENJ@bad?5array?5new?5length@
	mov	ecx, DWORD PTR _this$[ebp]
	call	??0bad_alloc@std@@AAE@QBD@Z		; std::bad_alloc::bad_alloc

; 144  :     {

	mov	eax, DWORD PTR _this$[ebp]
	mov	DWORD PTR [eax], OFFSET ??_7bad_array_new_length@std@@6B@

; 145  :     }

	mov	eax, DWORD PTR _this$[ebp]
	add	esp, 4
	cmp	ebp, esp
	call	__RTC_CheckEsp
	mov	esp, ebp
	pop	ebp
	ret	0
??0bad_array_new_length@std@@QAE@XZ ENDP		; std::bad_array_new_length::bad_array_new_length
_TEXT	ENDS
; Function compile flags: /Odtp /RTCsu
;	COMDAT ??_Gbad_alloc@std@@UAEPAXI@Z
_TEXT	SEGMENT
_this$ = -4						; size = 4
___flags$ = 8						; size = 4
??_Gbad_alloc@std@@UAEPAXI@Z PROC			; std::bad_alloc::`scalar deleting destructor', COMDAT
; _this$ = ecx
	push	ebp
	mov	ebp, esp
	push	ecx
	mov	DWORD PTR [ebp-4], -858993460		; ccccccccH
	mov	DWORD PTR _this$[ebp], ecx
	mov	ecx, DWORD PTR _this$[ebp]
	call	??1bad_alloc@std@@UAE@XZ
	mov	eax, DWORD PTR ___flags$[ebp]
	and	eax, 1
	je	SHORT $LN2@scalar
	push	12					; 0000000cH
	mov	ecx, DWORD PTR _this$[ebp]
	push	ecx
	call	??3@YAXPAXI@Z				; operator delete
	add	esp, 8
$LN2@scalar:
	mov	eax, DWORD PTR _this$[ebp]
	add	esp, 4
	cmp	ebp, esp
	call	__RTC_CheckEsp
	mov	esp, ebp
	pop	ebp
	ret	4
??_Gbad_alloc@std@@UAEPAXI@Z ENDP			; std::bad_alloc::`scalar deleting destructor'
_TEXT	ENDS
; Function compile flags: /Odtp /RTCsu
;	COMDAT ??0bad_alloc@std@@QAE@ABV01@@Z
_TEXT	SEGMENT
_this$ = -4						; size = 4
___that$ = 8						; size = 4
??0bad_alloc@std@@QAE@ABV01@@Z PROC			; std::bad_alloc::bad_alloc, COMDAT
; _this$ = ecx
	push	ebp
	mov	ebp, esp
	push	ecx
	mov	DWORD PTR [ebp-4], -858993460		; ccccccccH
	mov	DWORD PTR _this$[ebp], ecx
	mov	eax, DWORD PTR ___that$[ebp]
	push	eax
	mov	ecx, DWORD PTR _this$[ebp]
	call	??0exception@std@@QAE@ABV01@@Z		; std::exception::exception
	mov	ecx, DWORD PTR _this$[ebp]
	mov	DWORD PTR [ecx], OFFSET ??_7bad_alloc@std@@6B@
	mov	eax, DWORD PTR _this$[ebp]
	add	esp, 4
	cmp	ebp, esp
	call	__RTC_CheckEsp
	mov	esp, ebp
	pop	ebp
	ret	4
??0bad_alloc@std@@QAE@ABV01@@Z ENDP			; std::bad_alloc::bad_alloc
_TEXT	ENDS
; Function compile flags: /Odtp /RTCsu
;	COMDAT ??1bad_alloc@std@@UAE@XZ
_TEXT	SEGMENT
_this$ = -4						; size = 4
??1bad_alloc@std@@UAE@XZ PROC				; std::bad_alloc::~bad_alloc, COMDAT
; _this$ = ecx
	push	ebp
	mov	ebp, esp
	push	ecx
	mov	DWORD PTR [ebp-4], -858993460		; ccccccccH
	mov	DWORD PTR _this$[ebp], ecx
	mov	ecx, DWORD PTR _this$[ebp]
	call	??1exception@std@@UAE@XZ		; std::exception::~exception
	npad	1
	add	esp, 4
	cmp	ebp, esp
	call	__RTC_CheckEsp
	mov	esp, ebp
	pop	ebp
	ret	0
??1bad_alloc@std@@UAE@XZ ENDP				; std::bad_alloc::~bad_alloc
_TEXT	ENDS
; Function compile flags: /Odtp /RTCsu
; File C:\Program Files\Microsoft Visual Studio\2022\Community\VC\Tools\MSVC\14.44.35207\include\vcruntime_exception.h
;	COMDAT ??0bad_alloc@std@@AAE@QBD@Z
_TEXT	SEGMENT
_this$ = -4						; size = 4
__Message$ = 8						; size = 4
??0bad_alloc@std@@AAE@QBD@Z PROC			; std::bad_alloc::bad_alloc, COMDAT
; _this$ = ecx

; 133  :     {

	push	ebp
	mov	ebp, esp
	push	ecx
	mov	DWORD PTR [ebp-4], -858993460		; ccccccccH
	mov	DWORD PTR _this$[ebp], ecx

; 132  :         : exception(_Message, 1)

	push	1
	mov	eax, DWORD PTR __Message$[ebp]
	push	eax
	mov	ecx, DWORD PTR _this$[ebp]
	call	??0exception@std@@QAE@QBDH@Z		; std::exception::exception

; 133  :     {

	mov	ecx, DWORD PTR _this$[ebp]
	mov	DWORD PTR [ecx], OFFSET ??_7bad_alloc@std@@6B@

; 134  :     }

	mov	eax, DWORD PTR _this$[ebp]
	add	esp, 4
	cmp	ebp, esp
	call	__RTC_CheckEsp
	mov	esp, ebp
	pop	ebp
	ret	4
??0bad_alloc@std@@AAE@QBD@Z ENDP			; std::bad_alloc::bad_alloc
_TEXT	ENDS
; Function compile flags: /Odtp /RTCsu
;	COMDAT ??_Gexception@std@@UAEPAXI@Z
_TEXT	SEGMENT
_this$ = -4						; size = 4
___flags$ = 8						; size = 4
??_Gexception@std@@UAEPAXI@Z PROC			; std::exception::`scalar deleting destructor', COMDAT
; _this$ = ecx
	push	ebp
	mov	ebp, esp
	push	ecx
	mov	DWORD PTR [ebp-4], -858993460		; ccccccccH
	mov	DWORD PTR _this$[ebp], ecx
	mov	ecx, DWORD PTR _this$[ebp]
	call	??1exception@std@@UAE@XZ		; std::exception::~exception
	mov	eax, DWORD PTR ___flags$[ebp]
	and	eax, 1
	je	SHORT $LN2@scalar
	push	12					; 0000000cH
	mov	ecx, DWORD PTR _this$[ebp]
	push	ecx
	call	??3@YAXPAXI@Z				; operator delete
	add	esp, 8
$LN2@scalar:
	mov	eax, DWORD PTR _this$[ebp]
	add	esp, 4
	cmp	ebp, esp
	call	__RTC_CheckEsp
	mov	esp, ebp
	pop	ebp
	ret	4
??_Gexception@std@@UAEPAXI@Z ENDP			; std::exception::`scalar deleting destructor'
_TEXT	ENDS
; Function compile flags: /Odtp /RTCsu
; File C:\Program Files\Microsoft Visual Studio\2022\Community\VC\Tools\MSVC\14.44.35207\include\vcruntime_exception.h
;	COMDAT ?what@exception@std@@UBEPBDXZ
_TEXT	SEGMENT
tv69 = -8						; size = 4
_this$ = -4						; size = 4
?what@exception@std@@UBEPBDXZ PROC			; std::exception::what, COMDAT
; _this$ = ecx

; 95   :     {

	push	ebp
	mov	ebp, esp
	sub	esp, 8
	mov	DWORD PTR _this$[ebp], ecx

; 96   :         return _Data._What ? _Data._What : "Unknown exception";

	mov	eax, DWORD PTR _this$[ebp]
	cmp	DWORD PTR [eax+4], 0
	je	SHORT $LN3@what
	mov	ecx, DWORD PTR _this$[ebp]
	mov	edx, DWORD PTR [ecx+4]
	mov	DWORD PTR tv69[ebp], edx
	jmp	SHORT $LN4@what
$LN3@what:
	mov	DWORD PTR tv69[ebp], OFFSET ??_C@_0BC@EOODALEL@Unknown?5exception@
$LN4@what:
	mov	eax, DWORD PTR tv69[ebp]

; 97   :     }

	mov	esp, ebp
	pop	ebp
	ret	0
?what@exception@std@@UBEPBDXZ ENDP			; std::exception::what
_TEXT	ENDS
; Function compile flags: /Odtp /RTCsu
; File C:\Program Files\Microsoft Visual Studio\2022\Community\VC\Tools\MSVC\14.44.35207\include\vcruntime_exception.h
;	COMDAT ??1exception@std@@UAE@XZ
_TEXT	SEGMENT
_this$ = -4						; size = 4
??1exception@std@@UAE@XZ PROC				; std::exception::~exception, COMDAT
; _this$ = ecx

; 90   :     {

	push	ebp
	mov	ebp, esp
	push	ecx
	mov	DWORD PTR [ebp-4], -858993460		; ccccccccH
	mov	DWORD PTR _this$[ebp], ecx
	mov	eax, DWORD PTR _this$[ebp]
	mov	DWORD PTR [eax], OFFSET ??_7exception@std@@6B@

; 91   :         __std_exception_destroy(&_Data);

	mov	ecx, DWORD PTR _this$[ebp]
	add	ecx, 4
	push	ecx
	call	___std_exception_destroy
	add	esp, 4

; 92   :     }

	add	esp, 4
	cmp	ebp, esp
	call	__RTC_CheckEsp
	mov	esp, ebp
	pop	ebp
	ret	0
??1exception@std@@UAE@XZ ENDP				; std::exception::~exception
_TEXT	ENDS
; Function compile flags: /Odtp /RTCsu
; File C:\Program Files\Microsoft Visual Studio\2022\Community\VC\Tools\MSVC\14.44.35207\include\vcruntime_exception.h
;	COMDAT ??0exception@std@@QAE@ABV01@@Z
_TEXT	SEGMENT
_this$ = -4						; size = 4
__Other$ = 8						; size = 4
??0exception@std@@QAE@ABV01@@Z PROC			; std::exception::exception, COMDAT
; _this$ = ecx

; 73   :     {

	push	ebp
	mov	ebp, esp
	push	ecx
	mov	DWORD PTR [ebp-4], -858993460		; ccccccccH
	mov	DWORD PTR _this$[ebp], ecx
	mov	eax, DWORD PTR _this$[ebp]
	mov	DWORD PTR [eax], OFFSET ??_7exception@std@@6B@

; 72   :         : _Data()

	xor	ecx, ecx
	mov	edx, DWORD PTR _this$[ebp]
	add	edx, 4
	mov	DWORD PTR [edx], ecx
	mov	DWORD PTR [edx+4], ecx

; 74   :         __std_exception_copy(&_Other._Data, &_Data);

	mov	eax, DWORD PTR _this$[ebp]
	add	eax, 4
	push	eax
	mov	ecx, DWORD PTR __Other$[ebp]
	add	ecx, 4
	push	ecx
	call	___std_exception_copy
	add	esp, 8

; 75   :     }

	mov	eax, DWORD PTR _this$[ebp]
	add	esp, 4
	cmp	ebp, esp
	call	__RTC_CheckEsp
	mov	esp, ebp
	pop	ebp
	ret	4
??0exception@std@@QAE@ABV01@@Z ENDP			; std::exception::exception
_TEXT	ENDS
; Function compile flags: /Odtp /RTCsu
; File C:\Program Files\Microsoft Visual Studio\2022\Community\VC\Tools\MSVC\14.44.35207\include\vcruntime_exception.h
;	COMDAT ??0exception@std@@QAE@QBDH@Z
_TEXT	SEGMENT
_this$ = -4						; size = 4
__Message$ = 8						; size = 4
___formal$ = 12						; size = 4
??0exception@std@@QAE@QBDH@Z PROC			; std::exception::exception, COMDAT
; _this$ = ecx

; 67   :     {

	push	ebp
	mov	ebp, esp
	push	ecx
	mov	DWORD PTR _this$[ebp], ecx
	mov	eax, DWORD PTR _this$[ebp]
	mov	DWORD PTR [eax], OFFSET ??_7exception@std@@6B@

; 66   :         : _Data()

	xor	ecx, ecx
	mov	edx, DWORD PTR _this$[ebp]
	add	edx, 4
	mov	DWORD PTR [edx], ecx
	mov	DWORD PTR [edx+4], ecx

; 68   :         _Data._What = _Message;

	mov	eax, DWORD PTR _this$[ebp]
	mov	ecx, DWORD PTR __Message$[ebp]
	mov	DWORD PTR [eax+4], ecx

; 69   :     }

	mov	eax, DWORD PTR _this$[ebp]
	mov	esp, ebp
	pop	ebp
	ret	8
??0exception@std@@QAE@QBDH@Z ENDP			; std::exception::exception
_TEXT	ENDS
; Function compile flags: /Odtp /RTCsu
; File C:\Program Files\Microsoft Visual Studio\2022\Community\VC\Tools\MSVC\14.44.35207\include\vcruntime_exception.h
;	COMDAT ??0exception@std@@QAE@QBD@Z
_TEXT	SEGMENT
__InitData$ = -16					; size = 8
_this$ = -4						; size = 4
__Message$ = 8						; size = 4
??0exception@std@@QAE@QBD@Z PROC			; std::exception::exception, COMDAT
; _this$ = ecx

; 60   :     {

	push	ebp
	mov	ebp, esp
	sub	esp, 20					; 00000014H
	mov	eax, -858993460				; ccccccccH
	mov	DWORD PTR [ebp-20], eax
	mov	DWORD PTR [ebp-16], eax
	mov	DWORD PTR [ebp-12], eax
	mov	DWORD PTR [ebp-8], eax
	mov	DWORD PTR [ebp-4], eax
	mov	DWORD PTR _this$[ebp], ecx
	mov	eax, DWORD PTR _this$[ebp]
	mov	DWORD PTR [eax], OFFSET ??_7exception@std@@6B@

; 59   :         : _Data()

	xor	ecx, ecx
	mov	edx, DWORD PTR _this$[ebp]
	add	edx, 4
	mov	DWORD PTR [edx], ecx
	mov	DWORD PTR [edx+4], ecx

; 61   :         __std_exception_data _InitData = { _Message, true };

	mov	eax, DWORD PTR __Message$[ebp]
	mov	DWORD PTR __InitData$[ebp], eax
	mov	BYTE PTR __InitData$[ebp+4], 1

; 62   :         __std_exception_copy(&_InitData, &_Data);

	mov	ecx, DWORD PTR _this$[ebp]
	add	ecx, 4
	push	ecx
	lea	edx, DWORD PTR __InitData$[ebp]
	push	edx
	call	___std_exception_copy
	add	esp, 8

; 63   :     }

	mov	eax, DWORD PTR _this$[ebp]
	push	edx
	mov	ecx, ebp
	push	eax
	lea	edx, DWORD PTR $LN6@exception
	call	@_RTC_CheckStackVars@8
	pop	eax
	pop	edx
	add	esp, 20					; 00000014H
	cmp	ebp, esp
	call	__RTC_CheckEsp
	mov	esp, ebp
	pop	ebp
	ret	4
$LN6@exception:
	DD	1
	DD	$LN5@exception
$LN5@exception:
	DD	-16					; fffffff0H
	DD	8
	DD	$LN4@exception
$LN4@exception:
	DB	95					; 0000005fH
	DB	73					; 00000049H
	DB	110					; 0000006eH
	DB	105					; 00000069H
	DB	116					; 00000074H
	DB	68					; 00000044H
	DB	97					; 00000061H
	DB	116					; 00000074H
	DB	97					; 00000061H
	DB	0
??0exception@std@@QAE@QBD@Z ENDP			; std::exception::exception
_TEXT	ENDS
; Function compile flags: /Odtp /RTCsu
; File C:\Program Files\Microsoft Visual Studio\2022\Community\VC\Tools\MSVC\14.44.35207\include\vcruntime_new.h
;	COMDAT ??2@YAPAXIPAX@Z
_TEXT	SEGMENT
__Size$ = 8						; size = 4
__Where$ = 12						; size = 4
??2@YAPAXIPAX@Z PROC					; operator new, COMDAT

; 164  :     {

	push	ebp
	mov	ebp, esp

; 165  :         (void)_Size;
; 166  :         return _Where;

	mov	eax, DWORD PTR __Where$[ebp]

; 167  :     }

	pop	ebp
	ret	0
??2@YAPAXIPAX@Z ENDP					; operator new
_TEXT	ENDS
; Function compile flags: /Odtp /RTCsu
; File C:\Users\Hamzzi\Desktop\AI_Practice\Source\VS2010\Buckland_Chapter7 to 10_Raven\goals\Goal_HuntTarget.cpp
;	COMDAT ?__empty_global_delete@@YAXPAXI@Z
_TEXT	SEGMENT
___formal$ = 8						; size = 4
___formal$ = 12						; size = 4
?__empty_global_delete@@YAXPAXI@Z PROC			; __empty_global_delete, COMDAT

	push	ebp
	mov	ebp, esp
	pop	ebp
	ret	0
?__empty_global_delete@@YAXPAXI@Z ENDP			; __empty_global_delete
_TEXT	ENDS
; Function compile flags: /Odtp /RTCsu
; File C:\Users\Hamzzi\Desktop\AI_Practice\Source\VS2010\Buckland_Chapter7 to 10_Raven\goals\Goal_HuntTarget.cpp
;	COMDAT ?__empty_global_delete@@YAXPAX@Z
_TEXT	SEGMENT
___formal$ = 8						; size = 4
?__empty_global_delete@@YAXPAX@Z PROC			; __empty_global_delete, COMDAT

	push	ebp
	mov	ebp, esp
	pop	ebp
	ret	0
?__empty_global_delete@@YAXPAX@Z ENDP			; __empty_global_delete
_TEXT	ENDS
END
